ARM GAS  C:\Users\Sarah\AppData\Local\Temp\ccOsMGUv.s 			page 1


   1              		.cpu cortex-m0
   2              		.fpu softvfp
   3              		.eabi_attribute 20, 1
   4              		.eabi_attribute 21, 1
   5              		.eabi_attribute 23, 3
   6              		.eabi_attribute 24, 1
   7              		.eabi_attribute 25, 1
   8              		.eabi_attribute 26, 1
   9              		.eabi_attribute 30, 1
  10              		.eabi_attribute 34, 0
  11              		.eabi_attribute 18, 4
  12              		.code	16
  13              		.file	"cyfitter_cfg.c"
  14              		.text
  15              	.Ltext0:
  16              		.cfi_sections	.debug_frame
  17              		.section	.text.cfg_write_bytes32,"ax",%progbits
  18              		.align	2
  19              		.code	16
  20              		.thumb_func
  21              		.type	cfg_write_bytes32, %function
  22              	cfg_write_bytes32:
  23              	.LFB5:
  24              		.file 1 "Generated_Source\\PSoC4\\cyfitter_cfg.c"
   1:Generated_Source\PSoC4/cyfitter_cfg.c **** /*******************************************************************************
   2:Generated_Source\PSoC4/cyfitter_cfg.c **** * File Name: cyfitter_cfg.c
   3:Generated_Source\PSoC4/cyfitter_cfg.c **** * 
   4:Generated_Source\PSoC4/cyfitter_cfg.c **** * PSoC Creator  4.0 Update 1
   5:Generated_Source\PSoC4/cyfitter_cfg.c **** *
   6:Generated_Source\PSoC4/cyfitter_cfg.c **** * Description:
   7:Generated_Source\PSoC4/cyfitter_cfg.c **** * This file contains device initialization code.
   8:Generated_Source\PSoC4/cyfitter_cfg.c **** * Except for the user defined sections in CyClockStartupError(), this file should not be modified.
   9:Generated_Source\PSoC4/cyfitter_cfg.c **** * This file is automatically generated by PSoC Creator.
  10:Generated_Source\PSoC4/cyfitter_cfg.c **** *
  11:Generated_Source\PSoC4/cyfitter_cfg.c **** ********************************************************************************
  12:Generated_Source\PSoC4/cyfitter_cfg.c **** * Copyright (c) 2007-2016 Cypress Semiconductor.  All rights reserved.
  13:Generated_Source\PSoC4/cyfitter_cfg.c **** * You may use this file only in accordance with the license, terms, conditions, 
  14:Generated_Source\PSoC4/cyfitter_cfg.c **** * disclaimers, and limitations in the end user license agreement accompanying 
  15:Generated_Source\PSoC4/cyfitter_cfg.c **** * the software package with which this file was provided.
  16:Generated_Source\PSoC4/cyfitter_cfg.c **** ********************************************************************************/
  17:Generated_Source\PSoC4/cyfitter_cfg.c **** 
  18:Generated_Source\PSoC4/cyfitter_cfg.c **** #include <string.h>
  19:Generated_Source\PSoC4/cyfitter_cfg.c **** #include "cytypes.h"
  20:Generated_Source\PSoC4/cyfitter_cfg.c **** #include "cydevice_trm.h"
  21:Generated_Source\PSoC4/cyfitter_cfg.c **** #include "cyfitter.h"
  22:Generated_Source\PSoC4/cyfitter_cfg.c **** #include "CyLib.h"
  23:Generated_Source\PSoC4/cyfitter_cfg.c **** #include "CyLFClk.h"
  24:Generated_Source\PSoC4/cyfitter_cfg.c **** #include "cyfitter_cfg.h"
  25:Generated_Source\PSoC4/cyfitter_cfg.c **** #include "cyapicallbacks.h"
  26:Generated_Source\PSoC4/cyfitter_cfg.c **** 
  27:Generated_Source\PSoC4/cyfitter_cfg.c **** 
  28:Generated_Source\PSoC4/cyfitter_cfg.c **** #if defined(__GNUC__) || defined(__ARMCC_VERSION)
  29:Generated_Source\PSoC4/cyfitter_cfg.c ****     #define CYPACKED 
  30:Generated_Source\PSoC4/cyfitter_cfg.c ****     #define CYPACKED_ATTR __attribute__ ((packed))
  31:Generated_Source\PSoC4/cyfitter_cfg.c ****     #define CYALIGNED __attribute__ ((aligned))
  32:Generated_Source\PSoC4/cyfitter_cfg.c ****     #define CY_CFG_UNUSED __attribute__ ((unused))
  33:Generated_Source\PSoC4/cyfitter_cfg.c ****     #ifndef CY_CFG_SECTION
ARM GAS  C:\Users\Sarah\AppData\Local\Temp\ccOsMGUv.s 			page 2


  34:Generated_Source\PSoC4/cyfitter_cfg.c ****         #define CY_CFG_SECTION __attribute__ ((section(".psocinit")))
  35:Generated_Source\PSoC4/cyfitter_cfg.c ****     #endif
  36:Generated_Source\PSoC4/cyfitter_cfg.c ****     
  37:Generated_Source\PSoC4/cyfitter_cfg.c ****     #if defined(__ARMCC_VERSION)
  38:Generated_Source\PSoC4/cyfitter_cfg.c ****         #define CY_CFG_MEMORY_BARRIER() __memory_changed()
  39:Generated_Source\PSoC4/cyfitter_cfg.c ****     #else
  40:Generated_Source\PSoC4/cyfitter_cfg.c ****         #define CY_CFG_MEMORY_BARRIER() __sync_synchronize()
  41:Generated_Source\PSoC4/cyfitter_cfg.c ****     #endif
  42:Generated_Source\PSoC4/cyfitter_cfg.c ****     
  43:Generated_Source\PSoC4/cyfitter_cfg.c **** #elif defined(__ICCARM__)
  44:Generated_Source\PSoC4/cyfitter_cfg.c ****     #include <intrinsics.h>
  45:Generated_Source\PSoC4/cyfitter_cfg.c **** 
  46:Generated_Source\PSoC4/cyfitter_cfg.c ****     #define CYPACKED __packed
  47:Generated_Source\PSoC4/cyfitter_cfg.c ****     #define CYPACKED_ATTR 
  48:Generated_Source\PSoC4/cyfitter_cfg.c ****     #define CYALIGNED _Pragma("data_alignment=4")
  49:Generated_Source\PSoC4/cyfitter_cfg.c ****     #define CY_CFG_UNUSED _Pragma("diag_suppress=Pe177")
  50:Generated_Source\PSoC4/cyfitter_cfg.c ****     #define CY_CFG_SECTION _Pragma("location=\".psocinit\"")
  51:Generated_Source\PSoC4/cyfitter_cfg.c ****     
  52:Generated_Source\PSoC4/cyfitter_cfg.c ****     #define CY_CFG_MEMORY_BARRIER() __DMB()
  53:Generated_Source\PSoC4/cyfitter_cfg.c ****     
  54:Generated_Source\PSoC4/cyfitter_cfg.c **** #else
  55:Generated_Source\PSoC4/cyfitter_cfg.c ****     #error Unsupported toolchain
  56:Generated_Source\PSoC4/cyfitter_cfg.c **** #endif
  57:Generated_Source\PSoC4/cyfitter_cfg.c **** 
  58:Generated_Source\PSoC4/cyfitter_cfg.c **** 
  59:Generated_Source\PSoC4/cyfitter_cfg.c **** CY_CFG_UNUSED
  60:Generated_Source\PSoC4/cyfitter_cfg.c **** static void CYMEMZERO(void *s, size_t n);
  61:Generated_Source\PSoC4/cyfitter_cfg.c **** CY_CFG_UNUSED
  62:Generated_Source\PSoC4/cyfitter_cfg.c **** static void CYMEMZERO(void *s, size_t n)
  63:Generated_Source\PSoC4/cyfitter_cfg.c **** {
  64:Generated_Source\PSoC4/cyfitter_cfg.c **** 	(void)memset(s, 0, n);
  65:Generated_Source\PSoC4/cyfitter_cfg.c **** }
  66:Generated_Source\PSoC4/cyfitter_cfg.c **** CY_CFG_UNUSED
  67:Generated_Source\PSoC4/cyfitter_cfg.c **** static void CYCONFIGCPY(void *dest, const void *src, size_t n);
  68:Generated_Source\PSoC4/cyfitter_cfg.c **** CY_CFG_UNUSED
  69:Generated_Source\PSoC4/cyfitter_cfg.c **** static void CYCONFIGCPY(void *dest, const void *src, size_t n)
  70:Generated_Source\PSoC4/cyfitter_cfg.c **** {
  71:Generated_Source\PSoC4/cyfitter_cfg.c **** 	(void)memcpy(dest, src, n);
  72:Generated_Source\PSoC4/cyfitter_cfg.c **** }
  73:Generated_Source\PSoC4/cyfitter_cfg.c **** CY_CFG_UNUSED
  74:Generated_Source\PSoC4/cyfitter_cfg.c **** static void CYCONFIGCPYCODE(void *dest, const void *src, size_t n);
  75:Generated_Source\PSoC4/cyfitter_cfg.c **** CY_CFG_UNUSED
  76:Generated_Source\PSoC4/cyfitter_cfg.c **** static void CYCONFIGCPYCODE(void *dest, const void *src, size_t n)
  77:Generated_Source\PSoC4/cyfitter_cfg.c **** {
  78:Generated_Source\PSoC4/cyfitter_cfg.c **** 	(void)memcpy(dest, src, n);
  79:Generated_Source\PSoC4/cyfitter_cfg.c **** }
  80:Generated_Source\PSoC4/cyfitter_cfg.c **** 
  81:Generated_Source\PSoC4/cyfitter_cfg.c **** 
  82:Generated_Source\PSoC4/cyfitter_cfg.c **** 
  83:Generated_Source\PSoC4/cyfitter_cfg.c **** 
  84:Generated_Source\PSoC4/cyfitter_cfg.c **** /* Clock startup error codes                                                   */
  85:Generated_Source\PSoC4/cyfitter_cfg.c **** #define CYCLOCKSTART_NO_ERROR    0u
  86:Generated_Source\PSoC4/cyfitter_cfg.c **** #define CYCLOCKSTART_XTAL_ERROR  1u
  87:Generated_Source\PSoC4/cyfitter_cfg.c **** #define CYCLOCKSTART_32KHZ_ERROR 2u
  88:Generated_Source\PSoC4/cyfitter_cfg.c **** #define CYCLOCKSTART_PLL_ERROR   3u
  89:Generated_Source\PSoC4/cyfitter_cfg.c **** 
  90:Generated_Source\PSoC4/cyfitter_cfg.c **** 
ARM GAS  C:\Users\Sarah\AppData\Local\Temp\ccOsMGUv.s 			page 3


  91:Generated_Source\PSoC4/cyfitter_cfg.c **** #ifdef CY_NEED_CYCLOCKSTARTUPERROR
  92:Generated_Source\PSoC4/cyfitter_cfg.c **** /*******************************************************************************
  93:Generated_Source\PSoC4/cyfitter_cfg.c **** * Function Name: CyClockStartupError
  94:Generated_Source\PSoC4/cyfitter_cfg.c **** ********************************************************************************
  95:Generated_Source\PSoC4/cyfitter_cfg.c **** * Summary:
  96:Generated_Source\PSoC4/cyfitter_cfg.c **** *  If an error is encountered during clock configuration (crystal startup error,
  97:Generated_Source\PSoC4/cyfitter_cfg.c **** *  PLL lock error, etc.), the system will end up here.  Unless reimplemented by
  98:Generated_Source\PSoC4/cyfitter_cfg.c **** *  the customer, this function will stop in an infinite loop.
  99:Generated_Source\PSoC4/cyfitter_cfg.c **** *
 100:Generated_Source\PSoC4/cyfitter_cfg.c **** * Parameters:
 101:Generated_Source\PSoC4/cyfitter_cfg.c **** *   void
 102:Generated_Source\PSoC4/cyfitter_cfg.c **** *
 103:Generated_Source\PSoC4/cyfitter_cfg.c **** * Return:
 104:Generated_Source\PSoC4/cyfitter_cfg.c **** *   void
 105:Generated_Source\PSoC4/cyfitter_cfg.c **** *
 106:Generated_Source\PSoC4/cyfitter_cfg.c **** *******************************************************************************/
 107:Generated_Source\PSoC4/cyfitter_cfg.c **** CY_CFG_UNUSED
 108:Generated_Source\PSoC4/cyfitter_cfg.c **** static void CyClockStartupError(uint8 errorCode);
 109:Generated_Source\PSoC4/cyfitter_cfg.c **** CY_CFG_UNUSED
 110:Generated_Source\PSoC4/cyfitter_cfg.c **** static void CyClockStartupError(uint8 errorCode)
 111:Generated_Source\PSoC4/cyfitter_cfg.c **** {
 112:Generated_Source\PSoC4/cyfitter_cfg.c ****     /* To remove the compiler warning if errorCode not used.                */
 113:Generated_Source\PSoC4/cyfitter_cfg.c ****     errorCode = errorCode;
 114:Generated_Source\PSoC4/cyfitter_cfg.c **** 
 115:Generated_Source\PSoC4/cyfitter_cfg.c ****     /* If we have a clock startup error (bad MHz crystal, PLL lock, etc.),  */
 116:Generated_Source\PSoC4/cyfitter_cfg.c ****     /* we will end up here to allow the customer to implement something to  */
 117:Generated_Source\PSoC4/cyfitter_cfg.c ****     /* deal with the clock condition.                                       */
 118:Generated_Source\PSoC4/cyfitter_cfg.c **** 
 119:Generated_Source\PSoC4/cyfitter_cfg.c **** #ifdef CY_CFG_CLOCK_STARTUP_ERROR_CALLBACK
 120:Generated_Source\PSoC4/cyfitter_cfg.c **** 	CY_CFG_Clock_Startup_ErrorCallback();
 121:Generated_Source\PSoC4/cyfitter_cfg.c **** #else
 122:Generated_Source\PSoC4/cyfitter_cfg.c **** 	/*  If not using CY_CFG_CLOCK_STARTUP_ERROR_CALLBACK, place your clock startup code here. */
 123:Generated_Source\PSoC4/cyfitter_cfg.c ****     /* `#START CyClockStartupError` */
 124:Generated_Source\PSoC4/cyfitter_cfg.c **** 
 125:Generated_Source\PSoC4/cyfitter_cfg.c **** 
 126:Generated_Source\PSoC4/cyfitter_cfg.c **** 
 127:Generated_Source\PSoC4/cyfitter_cfg.c ****     /* `#END` */
 128:Generated_Source\PSoC4/cyfitter_cfg.c **** 
 129:Generated_Source\PSoC4/cyfitter_cfg.c ****     /* If nothing else, stop here since the clocks have not started         */
 130:Generated_Source\PSoC4/cyfitter_cfg.c ****     /* correctly.                                                           */
 131:Generated_Source\PSoC4/cyfitter_cfg.c ****     while(1) {}
 132:Generated_Source\PSoC4/cyfitter_cfg.c **** #endif /* CY_CFG_CLOCK_STARTUP_ERROR_CALLBACK */ 
 133:Generated_Source\PSoC4/cyfitter_cfg.c **** }
 134:Generated_Source\PSoC4/cyfitter_cfg.c **** #endif
 135:Generated_Source\PSoC4/cyfitter_cfg.c **** 
 136:Generated_Source\PSoC4/cyfitter_cfg.c **** #define CY_CFG_BASE_ADDR_COUNT 1u
 137:Generated_Source\PSoC4/cyfitter_cfg.c **** CYPACKED typedef struct
 138:Generated_Source\PSoC4/cyfitter_cfg.c **** {
 139:Generated_Source\PSoC4/cyfitter_cfg.c **** 	uint8 offset;
 140:Generated_Source\PSoC4/cyfitter_cfg.c **** 	uint8 value;
 141:Generated_Source\PSoC4/cyfitter_cfg.c **** } CYPACKED_ATTR cy_cfg_addrvalue_t;
 142:Generated_Source\PSoC4/cyfitter_cfg.c **** 
 143:Generated_Source\PSoC4/cyfitter_cfg.c **** 
 144:Generated_Source\PSoC4/cyfitter_cfg.c **** 
 145:Generated_Source\PSoC4/cyfitter_cfg.c **** /*******************************************************************************
 146:Generated_Source\PSoC4/cyfitter_cfg.c **** * Function Name: cfg_write_bytes32
 147:Generated_Source\PSoC4/cyfitter_cfg.c **** ********************************************************************************
ARM GAS  C:\Users\Sarah\AppData\Local\Temp\ccOsMGUv.s 			page 4


 148:Generated_Source\PSoC4/cyfitter_cfg.c **** * Summary:
 149:Generated_Source\PSoC4/cyfitter_cfg.c **** *  This function is used for setting up the chip configuration areas that
 150:Generated_Source\PSoC4/cyfitter_cfg.c **** *  contain relatively sparse data.
 151:Generated_Source\PSoC4/cyfitter_cfg.c **** *
 152:Generated_Source\PSoC4/cyfitter_cfg.c **** * Parameters:
 153:Generated_Source\PSoC4/cyfitter_cfg.c **** *   void
 154:Generated_Source\PSoC4/cyfitter_cfg.c **** *
 155:Generated_Source\PSoC4/cyfitter_cfg.c **** * Return:
 156:Generated_Source\PSoC4/cyfitter_cfg.c **** *   void
 157:Generated_Source\PSoC4/cyfitter_cfg.c **** *
 158:Generated_Source\PSoC4/cyfitter_cfg.c **** *******************************************************************************/
 159:Generated_Source\PSoC4/cyfitter_cfg.c **** static void cfg_write_bytes32(const uint32 addr_table[], const cy_cfg_addrvalue_t data_table[]);
 160:Generated_Source\PSoC4/cyfitter_cfg.c **** static void cfg_write_bytes32(const uint32 addr_table[], const cy_cfg_addrvalue_t data_table[])
 161:Generated_Source\PSoC4/cyfitter_cfg.c **** {
  25              		.loc 1 161 0
  26              		.cfi_startproc
  27              	.LVL0:
  28 0000 F0B5     		push	{r4, r5, r6, r7, lr}
  29              		.cfi_def_cfa_offset 20
  30              		.cfi_offset 4, -20
  31              		.cfi_offset 5, -16
  32              		.cfi_offset 6, -12
  33              		.cfi_offset 7, -8
  34              		.cfi_offset 14, -4
  35              	.LVL1:
 162:Generated_Source\PSoC4/cyfitter_cfg.c **** 	/* For 32-bit little-endian architectures */
 163:Generated_Source\PSoC4/cyfitter_cfg.c **** 	uint32 i, j = 0u;
  36              		.loc 1 163 0
  37 0002 0025     		mov	r5, #0
 164:Generated_Source\PSoC4/cyfitter_cfg.c **** 	for (i = 0u; i < CY_CFG_BASE_ADDR_COUNT; i++)
  38              		.loc 1 164 0
  39 0004 0027     		mov	r7, #0
  40 0006 11E0     		b	.L2
  41              	.LVL2:
  42              	.L5:
  43              	.LBB2:
 165:Generated_Source\PSoC4/cyfitter_cfg.c **** 	{
 166:Generated_Source\PSoC4/cyfitter_cfg.c **** 		uint32 baseAddr = addr_table[i];
  44              		.loc 1 166 0
  45 0008 BB00     		lsl	r3, r7, #2
  46 000a C658     		ldr	r6, [r0, r3]
  47              	.LVL3:
 167:Generated_Source\PSoC4/cyfitter_cfg.c **** 		uint8 count = (uint8)baseAddr;
  48              		.loc 1 167 0
  49 000c F3B2     		uxtb	r3, r6
  50              	.LVL4:
 168:Generated_Source\PSoC4/cyfitter_cfg.c **** 		baseAddr &= 0xFFFFFF00u;
  51              		.loc 1 168 0
  52 000e FF22     		mov	r2, #255
  53 0010 9643     		bic	r6, r2
  54              	.LVL5:
 169:Generated_Source\PSoC4/cyfitter_cfg.c **** 		while (count != 0u)
  55              		.loc 1 169 0
  56 0012 08E0     		b	.L3
  57              	.L4:
 170:Generated_Source\PSoC4/cyfitter_cfg.c **** 		{
 171:Generated_Source\PSoC4/cyfitter_cfg.c **** 			CY_SET_XTND_REG8((void CYFAR *)(baseAddr + data_table[j].offset), data_table[j].value);
ARM GAS  C:\Users\Sarah\AppData\Local\Temp\ccOsMGUv.s 			page 5


  58              		.loc 1 171 0
  59 0014 6A00     		lsl	r2, r5, #1
  60 0016 8A18     		add	r2, r1, r2
  61 0018 1478     		ldrb	r4, [r2]
  62 001a A419     		add	r4, r4, r6
  63 001c 5278     		ldrb	r2, [r2, #1]
  64 001e 2270     		strb	r2, [r4]
 172:Generated_Source\PSoC4/cyfitter_cfg.c **** 			j++;
  65              		.loc 1 172 0
  66 0020 0135     		add	r5, r5, #1
  67              	.LVL6:
 173:Generated_Source\PSoC4/cyfitter_cfg.c **** 			count--;
  68              		.loc 1 173 0
  69 0022 013B     		sub	r3, r3, #1
  70              	.LVL7:
  71 0024 DBB2     		uxtb	r3, r3
  72              	.LVL8:
  73              	.L3:
 169:Generated_Source\PSoC4/cyfitter_cfg.c **** 		{
  74              		.loc 1 169 0
  75 0026 002B     		cmp	r3, #0
  76 0028 F4D1     		bne	.L4
  77              	.LBE2:
 164:Generated_Source\PSoC4/cyfitter_cfg.c **** 	{
  78              		.loc 1 164 0 discriminator 2
  79 002a 0137     		add	r7, r7, #1
  80              	.LVL9:
  81              	.L2:
 164:Generated_Source\PSoC4/cyfitter_cfg.c **** 	{
  82              		.loc 1 164 0 is_stmt 0 discriminator 1
  83 002c 002F     		cmp	r7, #0
  84 002e EBD0     		beq	.L5
 174:Generated_Source\PSoC4/cyfitter_cfg.c **** 		}
 175:Generated_Source\PSoC4/cyfitter_cfg.c **** 	}
 176:Generated_Source\PSoC4/cyfitter_cfg.c **** }
  85              		.loc 1 176 0 is_stmt 1
  86              		@ sp needed
  87              	.LVL10:
  88              	.LVL11:
  89 0030 F0BD     		pop	{r4, r5, r6, r7, pc}
  90              		.cfi_endproc
  91              	.LFE5:
  92              		.size	cfg_write_bytes32, .-cfg_write_bytes32
  93 0032 C046     		.section	.text.AnalogSetDefault,"ax",%progbits
  94              		.align	2
  95              		.code	16
  96              		.thumb_func
  97              		.type	AnalogSetDefault, %function
  98              	AnalogSetDefault:
  99              	.LFB7:
 177:Generated_Source\PSoC4/cyfitter_cfg.c **** 
 178:Generated_Source\PSoC4/cyfitter_cfg.c **** 
 179:Generated_Source\PSoC4/cyfitter_cfg.c **** /*******************************************************************************
 180:Generated_Source\PSoC4/cyfitter_cfg.c **** * Function Name: ClockSetup
 181:Generated_Source\PSoC4/cyfitter_cfg.c **** ********************************************************************************
 182:Generated_Source\PSoC4/cyfitter_cfg.c **** *
 183:Generated_Source\PSoC4/cyfitter_cfg.c **** * Summary:
ARM GAS  C:\Users\Sarah\AppData\Local\Temp\ccOsMGUv.s 			page 6


 184:Generated_Source\PSoC4/cyfitter_cfg.c **** *   Performs the initialization of all of the clocks in the device based on the
 185:Generated_Source\PSoC4/cyfitter_cfg.c **** *   settings in the Clock tab of the DWR.  This includes enabling the requested
 186:Generated_Source\PSoC4/cyfitter_cfg.c **** *   clocks and setting the necessary dividers to produce the desired frequency. 
 187:Generated_Source\PSoC4/cyfitter_cfg.c **** *
 188:Generated_Source\PSoC4/cyfitter_cfg.c **** * Parameters:
 189:Generated_Source\PSoC4/cyfitter_cfg.c **** *   void
 190:Generated_Source\PSoC4/cyfitter_cfg.c **** *
 191:Generated_Source\PSoC4/cyfitter_cfg.c **** * Return:
 192:Generated_Source\PSoC4/cyfitter_cfg.c **** *   void
 193:Generated_Source\PSoC4/cyfitter_cfg.c **** *
 194:Generated_Source\PSoC4/cyfitter_cfg.c **** *******************************************************************************/
 195:Generated_Source\PSoC4/cyfitter_cfg.c **** static void ClockSetup(void);
 196:Generated_Source\PSoC4/cyfitter_cfg.c **** CY_CFG_SECTION
 197:Generated_Source\PSoC4/cyfitter_cfg.c **** static void ClockSetup(void)
 198:Generated_Source\PSoC4/cyfitter_cfg.c **** {
 199:Generated_Source\PSoC4/cyfitter_cfg.c **** 
 200:Generated_Source\PSoC4/cyfitter_cfg.c **** 	/* Set Flash Cycles based on max possible frequency in case a glitch occurs during ClockSetup(). *
 201:Generated_Source\PSoC4/cyfitter_cfg.c **** 	CY_SET_REG32((void CYXDATA *)(CYREG_CPUSS_FLASH_CTL), (0x0012u));
 202:Generated_Source\PSoC4/cyfitter_cfg.c **** 
 203:Generated_Source\PSoC4/cyfitter_cfg.c **** 	/* Start the WCO */
 204:Generated_Source\PSoC4/cyfitter_cfg.c **** 	CySysClkWcoStart();
 205:Generated_Source\PSoC4/cyfitter_cfg.c **** 	CyDelayCycles(12000000u); /* WCO may take up to 500ms to start */
 206:Generated_Source\PSoC4/cyfitter_cfg.c **** 	(void)CySysClkWcoSetPowerMode(CY_SYS_CLK_WCO_LPM);    /* Switch to the low power mode */
 207:Generated_Source\PSoC4/cyfitter_cfg.c **** 
 208:Generated_Source\PSoC4/cyfitter_cfg.c **** 	/* Setup and trim IMO based on desired frequency. */
 209:Generated_Source\PSoC4/cyfitter_cfg.c **** 	CySysClkWriteImoFreq(48u);
 210:Generated_Source\PSoC4/cyfitter_cfg.c **** 	/* CYDEV_CLK_ILO_CONFIG Starting address: CYDEV_CLK_ILO_CONFIG */
 211:Generated_Source\PSoC4/cyfitter_cfg.c **** 	CY_SET_XTND_REG32((void CYFAR *)(CYREG_CLK_ILO_CONFIG), 0x80000006u);
 212:Generated_Source\PSoC4/cyfitter_cfg.c **** 
 213:Generated_Source\PSoC4/cyfitter_cfg.c **** 	/* CYDEV_WDT_CONFIG Starting address: CYDEV_WDT_CONFIG */
 214:Generated_Source\PSoC4/cyfitter_cfg.c **** 	CY_SET_XTND_REG32((void CYFAR *)(CYREG_WDT_CONFIG), 0x40000000u);
 215:Generated_Source\PSoC4/cyfitter_cfg.c **** 
 216:Generated_Source\PSoC4/cyfitter_cfg.c **** 
 217:Generated_Source\PSoC4/cyfitter_cfg.c **** 	/* Enable fast start mode for XO */
 218:Generated_Source\PSoC4/cyfitter_cfg.c **** 	CY_SET_REG32((void*)CYREG_BLE_BLERD_BB_XO, CY_GET_REG32((void*)CYREG_BLE_BLERD_BB_XO) | (uint32)0x
 219:Generated_Source\PSoC4/cyfitter_cfg.c **** 	CY_SET_XTND_REG32((void CYFAR *)(CYREG_BLE_BLERD_BB_XO_CAPTRIM), 0x00003E2Du);
 220:Generated_Source\PSoC4/cyfitter_cfg.c **** 	/*Set XTAL(ECO) divider*/
 221:Generated_Source\PSoC4/cyfitter_cfg.c **** 	CY_SET_XTND_REG32((void CYFAR *)(CYREG_BLE_BLESS_XTAL_CLK_DIV_CONFIG), 0x00000000u);
 222:Generated_Source\PSoC4/cyfitter_cfg.c **** 	/* Disable Crystal Stable Interrupt before enabling ECO */
 223:Generated_Source\PSoC4/cyfitter_cfg.c **** 	CY_SET_REG32((void*)CYREG_BLE_BLESS_LL_DSM_CTRL, CY_GET_REG32((void*)CYREG_BLE_BLESS_LL_DSM_CTRL) 
 224:Generated_Source\PSoC4/cyfitter_cfg.c **** 	/* Start the ECO and do not check status since it is not needed for HFCLK */
 225:Generated_Source\PSoC4/cyfitter_cfg.c **** 	(void)CySysClkEcoStart(2000u);
 226:Generated_Source\PSoC4/cyfitter_cfg.c **** 	CyDelayUs(1500u); /* Wait to stabalize */
 227:Generated_Source\PSoC4/cyfitter_cfg.c **** 
 228:Generated_Source\PSoC4/cyfitter_cfg.c **** 	/* Setup phase aligned clocks */
 229:Generated_Source\PSoC4/cyfitter_cfg.c **** 	CY_SET_REG32((void *)CYREG_PERI_DIV_16_CTL1, 0x00BB7F00u);
 230:Generated_Source\PSoC4/cyfitter_cfg.c **** 	CY_SET_REG32((void *)CYREG_PERI_DIV_CMD, 0x8000FF41u);
 231:Generated_Source\PSoC4/cyfitter_cfg.c **** 	CY_SET_REG32((void *)CYREG_PERI_DIV_16_CTL0, 0x00006300u);
 232:Generated_Source\PSoC4/cyfitter_cfg.c **** 	CY_SET_REG32((void *)CYREG_PERI_DIV_CMD, 0x8000FF40u);
 233:Generated_Source\PSoC4/cyfitter_cfg.c **** 
 234:Generated_Source\PSoC4/cyfitter_cfg.c **** 	/* CYDEV_CLK_IMO_CONFIG Starting address: CYDEV_CLK_IMO_CONFIG */
 235:Generated_Source\PSoC4/cyfitter_cfg.c **** 	CY_SET_XTND_REG32((void CYFAR *)(CYREG_CLK_IMO_CONFIG), 0x80000000u);
 236:Generated_Source\PSoC4/cyfitter_cfg.c **** 
 237:Generated_Source\PSoC4/cyfitter_cfg.c **** 	/* CYDEV_CLK_SELECT Starting address: CYDEV_CLK_SELECT */
 238:Generated_Source\PSoC4/cyfitter_cfg.c **** 	CY_SET_XTND_REG32((void CYFAR *)(CYREG_CLK_SELECT), 0x00040000u);
 239:Generated_Source\PSoC4/cyfitter_cfg.c **** 
 240:Generated_Source\PSoC4/cyfitter_cfg.c **** 	/* CYDEV_PERI_PCLK_CTL8 Starting address: CYDEV_PERI_PCLK_CTL8 */
ARM GAS  C:\Users\Sarah\AppData\Local\Temp\ccOsMGUv.s 			page 7


 241:Generated_Source\PSoC4/cyfitter_cfg.c **** 	CY_SET_XTND_REG32((void CYFAR *)(CYREG_PERI_PCLK_CTL8), 0x00000041u);
 242:Generated_Source\PSoC4/cyfitter_cfg.c **** 
 243:Generated_Source\PSoC4/cyfitter_cfg.c **** 	/* CYDEV_PERI_PCLK_CTL7 Starting address: CYDEV_PERI_PCLK_CTL7 */
 244:Generated_Source\PSoC4/cyfitter_cfg.c **** 	CY_SET_XTND_REG32((void CYFAR *)(CYREG_PERI_PCLK_CTL7), 0x00000040u);
 245:Generated_Source\PSoC4/cyfitter_cfg.c **** 
 246:Generated_Source\PSoC4/cyfitter_cfg.c **** 	(void)CyIntSetVector(8u, &CySysWdtIsr);
 247:Generated_Source\PSoC4/cyfitter_cfg.c **** 	CyIntEnable(8u);
 248:Generated_Source\PSoC4/cyfitter_cfg.c **** 	CY_SET_XTND_REG32((void CYFAR *)(CYREG_WDT_CONFIG), 0x40000000u);
 249:Generated_Source\PSoC4/cyfitter_cfg.c **** }
 250:Generated_Source\PSoC4/cyfitter_cfg.c **** 
 251:Generated_Source\PSoC4/cyfitter_cfg.c **** 
 252:Generated_Source\PSoC4/cyfitter_cfg.c **** /* Analog API Functions */
 253:Generated_Source\PSoC4/cyfitter_cfg.c **** 
 254:Generated_Source\PSoC4/cyfitter_cfg.c **** 
 255:Generated_Source\PSoC4/cyfitter_cfg.c **** /*******************************************************************************
 256:Generated_Source\PSoC4/cyfitter_cfg.c **** * Function Name: AnalogSetDefault
 257:Generated_Source\PSoC4/cyfitter_cfg.c **** ********************************************************************************
 258:Generated_Source\PSoC4/cyfitter_cfg.c **** *
 259:Generated_Source\PSoC4/cyfitter_cfg.c **** * Summary:
 260:Generated_Source\PSoC4/cyfitter_cfg.c **** *  Sets up the analog portions of the chip to default values based on chip
 261:Generated_Source\PSoC4/cyfitter_cfg.c **** *  configuration options from the project.
 262:Generated_Source\PSoC4/cyfitter_cfg.c **** *
 263:Generated_Source\PSoC4/cyfitter_cfg.c **** * Parameters:
 264:Generated_Source\PSoC4/cyfitter_cfg.c **** *  void
 265:Generated_Source\PSoC4/cyfitter_cfg.c **** *
 266:Generated_Source\PSoC4/cyfitter_cfg.c **** * Return:
 267:Generated_Source\PSoC4/cyfitter_cfg.c **** *  void
 268:Generated_Source\PSoC4/cyfitter_cfg.c **** *
 269:Generated_Source\PSoC4/cyfitter_cfg.c **** *******************************************************************************/
 270:Generated_Source\PSoC4/cyfitter_cfg.c **** static void AnalogSetDefault(void);
 271:Generated_Source\PSoC4/cyfitter_cfg.c **** static void AnalogSetDefault(void)
 272:Generated_Source\PSoC4/cyfitter_cfg.c **** {
 100              		.loc 1 272 0
 101              		.cfi_startproc
 273:Generated_Source\PSoC4/cyfitter_cfg.c **** 	CY_SET_XTND_REG32((void CYFAR *)CYREG_CTBM0_DFT_CTRL, 0x00000003u);
 102              		.loc 1 273 0
 103 0000 0323     		mov	r3, #3
 104 0002 044A     		ldr	r2, .L7
 105 0004 1360     		str	r3, [r2]
 274:Generated_Source\PSoC4/cyfitter_cfg.c **** 	CY_SET_XTND_REG32((void CYFAR *)CYREG_CTBM1_DFT_CTRL, 0x00000003u);
 106              		.loc 1 274 0
 107 0006 044A     		ldr	r2, .L7+4
 108 0008 1360     		str	r3, [r2]
 275:Generated_Source\PSoC4/cyfitter_cfg.c **** 	CY_SET_XTND_REG32((void CYFAR *)CYREG_PASS_DSAB_DSAB_CTRL, 0x00000000u);
 109              		.loc 1 275 0
 110 000a 0022     		mov	r2, #0
 111 000c 034B     		ldr	r3, .L7+8
 112 000e 1A60     		str	r2, [r3]
 276:Generated_Source\PSoC4/cyfitter_cfg.c **** }
 113              		.loc 1 276 0
 114              		@ sp needed
 115 0010 7047     		bx	lr
 116              	.L8:
 117 0012 C046     		.align	2
 118              	.L7:
 119 0014 30003040 		.word	1076887600
 120 0018 30003140 		.word	1076953136
ARM GAS  C:\Users\Sarah\AppData\Local\Temp\ccOsMGUv.s 			page 8


 121 001c 000E3F40 		.word	1077874176
 122              		.cfi_endproc
 123              	.LFE7:
 124              		.size	AnalogSetDefault, .-AnalogSetDefault
 125              		.section	.text.CYMEMZERO,"ax",%progbits
 126              		.align	2
 127              		.code	16
 128              		.thumb_func
 129              		.type	CYMEMZERO, %function
 130              	CYMEMZERO:
 131              	.LFB2:
  63:Generated_Source\PSoC4/cyfitter_cfg.c **** 	(void)memset(s, 0, n);
 132              		.loc 1 63 0
 133              		.cfi_startproc
 134              	.LVL12:
 135 0000 08B5     		push	{r3, lr}
 136              		.cfi_def_cfa_offset 8
 137              		.cfi_offset 3, -8
 138              		.cfi_offset 14, -4
 139 0002 0A1C     		mov	r2, r1
  64:Generated_Source\PSoC4/cyfitter_cfg.c **** }
 140              		.loc 1 64 0
 141 0004 0021     		mov	r1, #0
 142              	.LVL13:
 143 0006 FFF7FEFF 		bl	memset
 144              	.LVL14:
  65:Generated_Source\PSoC4/cyfitter_cfg.c **** CY_CFG_UNUSED
 145              		.loc 1 65 0
 146              		@ sp needed
 147 000a 08BD     		pop	{r3, pc}
 148              		.cfi_endproc
 149              	.LFE2:
 150              		.size	CYMEMZERO, .-CYMEMZERO
 151              		.section	.psocinit,"ax",%progbits
 152              		.align	2
 153              		.code	16
 154              		.thumb_func
 155              		.type	ClockSetup, %function
 156              	ClockSetup:
 157              	.LFB6:
 198:Generated_Source\PSoC4/cyfitter_cfg.c **** 
 158              		.loc 1 198 0
 159              		.cfi_startproc
 160 0000 38B5     		push	{r3, r4, r5, lr}
 161              		.cfi_def_cfa_offset 16
 162              		.cfi_offset 3, -16
 163              		.cfi_offset 4, -12
 164              		.cfi_offset 5, -8
 165              		.cfi_offset 14, -4
 201:Generated_Source\PSoC4/cyfitter_cfg.c **** 
 166              		.loc 1 201 0
 167 0002 1222     		mov	r2, #18
 168 0004 264B     		ldr	r3, .L11
 169 0006 1A60     		str	r2, [r3]
 204:Generated_Source\PSoC4/cyfitter_cfg.c **** 	CyDelayCycles(12000000u); /* WCO may take up to 500ms to start */
 170              		.loc 1 204 0
 171 0008 FFF7FEFF 		bl	CySysClkWcoStart
ARM GAS  C:\Users\Sarah\AppData\Local\Temp\ccOsMGUv.s 			page 9


 172              	.LVL15:
 205:Generated_Source\PSoC4/cyfitter_cfg.c **** 	(void)CySysClkWcoSetPowerMode(CY_SYS_CLK_WCO_LPM);    /* Switch to the low power mode */
 173              		.loc 1 205 0
 174 000c 2548     		ldr	r0, .L11+4
 175 000e FFF7FEFF 		bl	CyDelayCycles
 176              	.LVL16:
 206:Generated_Source\PSoC4/cyfitter_cfg.c **** 
 177              		.loc 1 206 0
 178 0012 0120     		mov	r0, #1
 179 0014 FFF7FEFF 		bl	CySysClkWcoSetPowerMode
 180              	.LVL17:
 209:Generated_Source\PSoC4/cyfitter_cfg.c **** 	/* CYDEV_CLK_ILO_CONFIG Starting address: CYDEV_CLK_ILO_CONFIG */
 181              		.loc 1 209 0
 182 0018 3020     		mov	r0, #48
 183 001a FFF7FEFF 		bl	CySysClkWriteImoFreq
 184              	.LVL18:
 211:Generated_Source\PSoC4/cyfitter_cfg.c **** 
 185              		.loc 1 211 0
 186 001e 224A     		ldr	r2, .L11+8
 187 0020 224B     		ldr	r3, .L11+12
 188 0022 1A60     		str	r2, [r3]
 214:Generated_Source\PSoC4/cyfitter_cfg.c **** 
 189              		.loc 1 214 0
 190 0024 224C     		ldr	r4, .L11+16
 191 0026 8025     		mov	r5, #128
 192 0028 ED05     		lsl	r5, r5, #23
 193 002a 2560     		str	r5, [r4]
 218:Generated_Source\PSoC4/cyfitter_cfg.c **** 	CY_SET_XTND_REG32((void CYFAR *)(CYREG_BLE_BLERD_BB_XO_CAPTRIM), 0x00003E2Du);
 194              		.loc 1 218 0
 195 002c 214A     		ldr	r2, .L11+20
 196 002e 1168     		ldr	r1, [r2]
 197 0030 0223     		mov	r3, #2
 198 0032 0B43     		orr	r3, r1
 199 0034 1360     		str	r3, [r2]
 219:Generated_Source\PSoC4/cyfitter_cfg.c **** 	/*Set XTAL(ECO) divider*/
 200              		.loc 1 219 0
 201 0036 204A     		ldr	r2, .L11+24
 202 0038 204B     		ldr	r3, .L11+28
 203 003a 1A60     		str	r2, [r3]
 221:Generated_Source\PSoC4/cyfitter_cfg.c **** 	/* Disable Crystal Stable Interrupt before enabling ECO */
 204              		.loc 1 221 0
 205 003c 0022     		mov	r2, #0
 206 003e 204B     		ldr	r3, .L11+32
 207 0040 1A60     		str	r2, [r3]
 223:Generated_Source\PSoC4/cyfitter_cfg.c **** 	/* Start the ECO and do not check status since it is not needed for HFCLK */
 208              		.loc 1 223 0
 209 0042 204A     		ldr	r2, .L11+36
 210 0044 1368     		ldr	r3, [r2]
 211 0046 0821     		mov	r1, #8
 212 0048 8B43     		bic	r3, r1
 213 004a 1360     		str	r3, [r2]
 225:Generated_Source\PSoC4/cyfitter_cfg.c **** 	CyDelayUs(1500u); /* Wait to stabalize */
 214              		.loc 1 225 0
 215 004c FA20     		mov	r0, #250
 216 004e C000     		lsl	r0, r0, #3
 217 0050 FFF7FEFF 		bl	CySysClkEcoStart
 218              	.LVL19:
ARM GAS  C:\Users\Sarah\AppData\Local\Temp\ccOsMGUv.s 			page 10


 226:Generated_Source\PSoC4/cyfitter_cfg.c **** 
 219              		.loc 1 226 0
 220 0054 1C48     		ldr	r0, .L11+40
 221 0056 FFF7FEFF 		bl	CyDelayUs
 222              	.LVL20:
 229:Generated_Source\PSoC4/cyfitter_cfg.c **** 	CY_SET_REG32((void *)CYREG_PERI_DIV_CMD, 0x8000FF41u);
 223              		.loc 1 229 0
 224 005a 1C4A     		ldr	r2, .L11+44
 225 005c 1C4B     		ldr	r3, .L11+48
 226 005e 1A60     		str	r2, [r3]
 230:Generated_Source\PSoC4/cyfitter_cfg.c **** 	CY_SET_REG32((void *)CYREG_PERI_DIV_16_CTL0, 0x00006300u);
 227              		.loc 1 230 0
 228 0060 1C4B     		ldr	r3, .L11+52
 229 0062 1D4A     		ldr	r2, .L11+56
 230 0064 1A60     		str	r2, [r3]
 231:Generated_Source\PSoC4/cyfitter_cfg.c **** 	CY_SET_REG32((void *)CYREG_PERI_DIV_CMD, 0x8000FF40u);
 231              		.loc 1 231 0
 232 0066 C621     		mov	r1, #198
 233 0068 C901     		lsl	r1, r1, #7
 234 006a 1C4A     		ldr	r2, .L11+60
 235 006c 1160     		str	r1, [r2]
 232:Generated_Source\PSoC4/cyfitter_cfg.c **** 
 236              		.loc 1 232 0
 237 006e 1C4A     		ldr	r2, .L11+64
 238 0070 1A60     		str	r2, [r3]
 235:Generated_Source\PSoC4/cyfitter_cfg.c **** 
 239              		.loc 1 235 0
 240 0072 8022     		mov	r2, #128
 241 0074 1206     		lsl	r2, r2, #24
 242 0076 1B4B     		ldr	r3, .L11+68
 243 0078 1A60     		str	r2, [r3]
 238:Generated_Source\PSoC4/cyfitter_cfg.c **** 
 244              		.loc 1 238 0
 245 007a 8022     		mov	r2, #128
 246 007c D202     		lsl	r2, r2, #11
 247 007e 1A4B     		ldr	r3, .L11+72
 248 0080 1A60     		str	r2, [r3]
 241:Generated_Source\PSoC4/cyfitter_cfg.c **** 
 249              		.loc 1 241 0
 250 0082 4122     		mov	r2, #65
 251 0084 194B     		ldr	r3, .L11+76
 252 0086 1A60     		str	r2, [r3]
 244:Generated_Source\PSoC4/cyfitter_cfg.c **** 
 253              		.loc 1 244 0
 254 0088 013A     		sub	r2, r2, #1
 255 008a 194B     		ldr	r3, .L11+80
 256 008c 1A60     		str	r2, [r3]
 246:Generated_Source\PSoC4/cyfitter_cfg.c **** 	CyIntEnable(8u);
 257              		.loc 1 246 0
 258 008e 0820     		mov	r0, #8
 259 0090 1849     		ldr	r1, .L11+84
 260 0092 FFF7FEFF 		bl	CyIntSetVector
 261              	.LVL21:
 247:Generated_Source\PSoC4/cyfitter_cfg.c **** 	CY_SET_XTND_REG32((void CYFAR *)(CYREG_WDT_CONFIG), 0x40000000u);
 262              		.loc 1 247 0
 263 0096 0820     		mov	r0, #8
 264 0098 FFF7FEFF 		bl	CyIntEnable
ARM GAS  C:\Users\Sarah\AppData\Local\Temp\ccOsMGUv.s 			page 11


 265              	.LVL22:
 248:Generated_Source\PSoC4/cyfitter_cfg.c **** }
 266              		.loc 1 248 0
 267 009c 2560     		str	r5, [r4]
 249:Generated_Source\PSoC4/cyfitter_cfg.c **** 
 268              		.loc 1 249 0
 269              		@ sp needed
 270 009e 38BD     		pop	{r3, r4, r5, pc}
 271              	.L12:
 272              		.align	2
 273              	.L11:
 274 00a0 30001040 		.word	1074790448
 275 00a4 001BB700 		.word	12000000
 276 00a8 06000080 		.word	-2147483642
 277 00ac 04010B40 		.word	1074462980
 278 00b0 0C020B40 		.word	1074463244
 279 00b4 78002E40 		.word	1076756600
 280 00b8 2D3E0000 		.word	15917
 281 00bc 7C002E40 		.word	1076756604
 282 00c0 64F02E40 		.word	1076818020
 283 00c4 6CF02E40 		.word	1076818028
 284 00c8 DC050000 		.word	1500
 285 00cc 007FBB00 		.word	12287744
 286 00d0 04030140 		.word	1073808132
 287 00d4 00000140 		.word	1073807360
 288 00d8 41FF0080 		.word	-2147418303
 289 00dc 00030140 		.word	1073808128
 290 00e0 40FF0080 		.word	-2147418304
 291 00e4 08010B40 		.word	1074462984
 292 00e8 00010B40 		.word	1074462976
 293 00ec 20010140 		.word	1073807648
 294 00f0 1C010140 		.word	1073807644
 295 00f4 00000000 		.word	CySysWdtIsr
 296              		.cfi_endproc
 297              	.LFE6:
 298              		.size	ClockSetup, .-ClockSetup
 299              		.align	2
 300              		.global	cyfitter_cfg
 301              		.code	16
 302              		.thumb_func
 303              		.type	cyfitter_cfg, %function
 304              	cyfitter_cfg:
 305              	.LFB8:
 277:Generated_Source\PSoC4/cyfitter_cfg.c **** 
 278:Generated_Source\PSoC4/cyfitter_cfg.c **** #define CY_AMUX_UNUSED CYREG_CM0_ROM_DWT
 279:Generated_Source\PSoC4/cyfitter_cfg.c **** 
 280:Generated_Source\PSoC4/cyfitter_cfg.c **** 
 281:Generated_Source\PSoC4/cyfitter_cfg.c **** /*******************************************************************************
 282:Generated_Source\PSoC4/cyfitter_cfg.c **** * Function Name: cyfitter_cfg
 283:Generated_Source\PSoC4/cyfitter_cfg.c **** ********************************************************************************
 284:Generated_Source\PSoC4/cyfitter_cfg.c **** * Summary:
 285:Generated_Source\PSoC4/cyfitter_cfg.c **** *  This function is called by the start-up code for the selected device. It
 286:Generated_Source\PSoC4/cyfitter_cfg.c **** *  performs all of the necessary device configuration based on the design
 287:Generated_Source\PSoC4/cyfitter_cfg.c **** *  settings.  This includes settings from the Design Wide Resources (DWR) such
 288:Generated_Source\PSoC4/cyfitter_cfg.c **** *  as Clocks and Pins as well as any component configuration that is necessary.
 289:Generated_Source\PSoC4/cyfitter_cfg.c **** *
 290:Generated_Source\PSoC4/cyfitter_cfg.c **** * Parameters:  
ARM GAS  C:\Users\Sarah\AppData\Local\Temp\ccOsMGUv.s 			page 12


 291:Generated_Source\PSoC4/cyfitter_cfg.c **** *   void
 292:Generated_Source\PSoC4/cyfitter_cfg.c **** *
 293:Generated_Source\PSoC4/cyfitter_cfg.c **** * Return:
 294:Generated_Source\PSoC4/cyfitter_cfg.c **** *   void
 295:Generated_Source\PSoC4/cyfitter_cfg.c **** *
 296:Generated_Source\PSoC4/cyfitter_cfg.c **** *******************************************************************************/
 297:Generated_Source\PSoC4/cyfitter_cfg.c **** CY_CFG_SECTION
 298:Generated_Source\PSoC4/cyfitter_cfg.c **** void cyfitter_cfg(void)
 299:Generated_Source\PSoC4/cyfitter_cfg.c **** {
 306              		.loc 1 299 0
 307              		.cfi_startproc
 308 00f8 10B5     		push	{r4, lr}
 309              		.cfi_def_cfa_offset 8
 310              		.cfi_offset 4, -8
 311              		.cfi_offset 14, -4
 300:Generated_Source\PSoC4/cyfitter_cfg.c **** 	/* Disable interrupts by default. Let user enable if/when they want. */
 301:Generated_Source\PSoC4/cyfitter_cfg.c **** 	CyGlobalIntDisable;
 312              		.loc 1 301 0
 313              	@ 301 "Generated_Source\PSoC4\cyfitter_cfg.c" 1
 314 00fa 72B6     		CPSID   i
 315              	@ 0 "" 2
 302:Generated_Source\PSoC4/cyfitter_cfg.c **** 
 303:Generated_Source\PSoC4/cyfitter_cfg.c **** 	CY_SET_XTND_REG32((void CYFAR *)(CYREG_BLE_BLESS_LL_DSM_CTRL), 0x00000000u);
 316              		.loc 1 303 0
 317              		.code	16
 318 00fc 0022     		mov	r2, #0
 319 00fe 264B     		ldr	r3, .L16
 320 0100 1A60     		str	r2, [r3]
 321              	.LVL23:
 322              	.LBB3:
 304:Generated_Source\PSoC4/cyfitter_cfg.c **** 
 305:Generated_Source\PSoC4/cyfitter_cfg.c **** 	{
 306:Generated_Source\PSoC4/cyfitter_cfg.c **** 		static const uint32 CYCODE cy_cfg_addr_table[] = {
 307:Generated_Source\PSoC4/cyfitter_cfg.c **** 			0x400F4204u, /* Base address: 0x400F4200 Count: 4 */
 308:Generated_Source\PSoC4/cyfitter_cfg.c **** 		};
 309:Generated_Source\PSoC4/cyfitter_cfg.c **** 
 310:Generated_Source\PSoC4/cyfitter_cfg.c **** 		static const cy_cfg_addrvalue_t CYCODE cy_cfg_data_table[] = {
 311:Generated_Source\PSoC4/cyfitter_cfg.c **** 			{0x10u, 0x20u},
 312:Generated_Source\PSoC4/cyfitter_cfg.c **** 			{0x54u, 0x20u},
 313:Generated_Source\PSoC4/cyfitter_cfg.c **** 			{0xC4u, 0x08u},
 314:Generated_Source\PSoC4/cyfitter_cfg.c **** 			{0xD4u, 0x02u},
 315:Generated_Source\PSoC4/cyfitter_cfg.c **** 		};
 316:Generated_Source\PSoC4/cyfitter_cfg.c **** 
 317:Generated_Source\PSoC4/cyfitter_cfg.c **** 
 318:Generated_Source\PSoC4/cyfitter_cfg.c **** 
 319:Generated_Source\PSoC4/cyfitter_cfg.c **** 		CYPACKED typedef struct {
 320:Generated_Source\PSoC4/cyfitter_cfg.c **** 			void CYFAR *address;
 321:Generated_Source\PSoC4/cyfitter_cfg.c **** 			uint16 size;
 322:Generated_Source\PSoC4/cyfitter_cfg.c **** 		} CYPACKED_ATTR cfg_memset_t;
 323:Generated_Source\PSoC4/cyfitter_cfg.c **** 
 324:Generated_Source\PSoC4/cyfitter_cfg.c **** 		static const cfg_memset_t CYCODE cfg_memset_list [] = {
 325:Generated_Source\PSoC4/cyfitter_cfg.c **** 			/* address, size */
 326:Generated_Source\PSoC4/cyfitter_cfg.c **** 			{(void CYFAR *)(CYDEV_UDB_P0_U0_BASE), 1024u},
 327:Generated_Source\PSoC4/cyfitter_cfg.c **** 			{(void CYFAR *)(CYDEV_UDB_DSI0_BASE), 1024u},
 328:Generated_Source\PSoC4/cyfitter_cfg.c **** 		};
 329:Generated_Source\PSoC4/cyfitter_cfg.c **** 
 330:Generated_Source\PSoC4/cyfitter_cfg.c **** 		uint8 CYDATA i;
ARM GAS  C:\Users\Sarah\AppData\Local\Temp\ccOsMGUv.s 			page 13


 331:Generated_Source\PSoC4/cyfitter_cfg.c **** 
 332:Generated_Source\PSoC4/cyfitter_cfg.c **** 		/* Zero out critical memory blocks before beginning configuration */
 333:Generated_Source\PSoC4/cyfitter_cfg.c **** 		for (i = 0u; i < (sizeof(cfg_memset_list)/sizeof(cfg_memset_list[0])); i++)
 323              		.loc 1 333 0
 324 0102 0024     		mov	r4, #0
 325 0104 10E0     		b	.L14
 326              	.LVL24:
 327              	.L15:
 328              	.LBB4:
 334:Generated_Source\PSoC4/cyfitter_cfg.c **** 		{
 335:Generated_Source\PSoC4/cyfitter_cfg.c **** 			const cfg_memset_t CYCODE * CYDATA ms = &cfg_memset_list[i];
 336:Generated_Source\PSoC4/cyfitter_cfg.c **** 			CYMEMZERO(ms->address, (size_t)(uint32)(ms->size));
 329              		.loc 1 336 0 discriminator 3
 330 0106 2548     		ldr	r0, .L16+4
 331 0108 6300     		lsl	r3, r4, #1
 332 010a 1A19     		add	r2, r3, r4
 333 010c 5200     		lsl	r2, r2, #1
 334 010e 8218     		add	r2, r0, r2
 335 0110 9188     		ldrh	r1, [r2, #4]
 336 0112 1B19     		add	r3, r3, r4
 337 0114 5B00     		lsl	r3, r3, #1
 338 0116 1A5A     		ldrh	r2, [r3, r0]
 339 0118 C318     		add	r3, r0, r3
 340 011a 5888     		ldrh	r0, [r3, #2]
 341 011c 0004     		lsl	r0, r0, #16
 342 011e 1043     		orr	r0, r2
 343 0120 FFF7FEFF 		bl	CYMEMZERO
 344              	.LVL25:
 345              	.LBE4:
 333:Generated_Source\PSoC4/cyfitter_cfg.c **** 		{
 346              		.loc 1 333 0 discriminator 3
 347 0124 0134     		add	r4, r4, #1
 348              	.LVL26:
 349 0126 E4B2     		uxtb	r4, r4
 350              	.LVL27:
 351              	.L14:
 333:Generated_Source\PSoC4/cyfitter_cfg.c **** 		{
 352              		.loc 1 333 0 is_stmt 0 discriminator 1
 353 0128 012C     		cmp	r4, #1
 354 012a ECD9     		bls	.L15
 337:Generated_Source\PSoC4/cyfitter_cfg.c **** 		}
 338:Generated_Source\PSoC4/cyfitter_cfg.c **** 
 339:Generated_Source\PSoC4/cyfitter_cfg.c **** 		cfg_write_bytes32(cy_cfg_addr_table, cy_cfg_data_table);
 355              		.loc 1 339 0 is_stmt 1
 356 012c 1B49     		ldr	r1, .L16+4
 357 012e 081C     		mov	r0, r1
 358 0130 0C30     		add	r0, r0, #12
 359 0132 1031     		add	r1, r1, #16
 360 0134 FFF7FEFF 		bl	cfg_write_bytes32
 361              	.LVL28:
 340:Generated_Source\PSoC4/cyfitter_cfg.c **** 
 341:Generated_Source\PSoC4/cyfitter_cfg.c **** 		/* HSIOM Starting address: CYDEV_HSIOM_BASE */
 342:Generated_Source\PSoC4/cyfitter_cfg.c **** 		CY_SET_XTND_REG32((void CYFAR *)(CYDEV_HSIOM_BASE), 0xEE000000u);
 362              		.loc 1 342 0
 363 0138 EE22     		mov	r2, #238
 364 013a 1206     		lsl	r2, r2, #24
 365 013c 184B     		ldr	r3, .L16+8
ARM GAS  C:\Users\Sarah\AppData\Local\Temp\ccOsMGUv.s 			page 14


 366 013e 1A60     		str	r2, [r3]
 343:Generated_Source\PSoC4/cyfitter_cfg.c **** 		CY_SET_XTND_REG32((void CYFAR *)(CYREG_HSIOM_PORT_SEL2), 0x00000003u);
 367              		.loc 1 343 0
 368 0140 0322     		mov	r2, #3
 369 0142 184B     		ldr	r3, .L16+12
 370 0144 1A60     		str	r2, [r3]
 344:Generated_Source\PSoC4/cyfitter_cfg.c **** 
 345:Generated_Source\PSoC4/cyfitter_cfg.c **** 		/* UDB_PA_0 Starting address: CYDEV_UDB_PA0_BASE */
 346:Generated_Source\PSoC4/cyfitter_cfg.c **** 		CY_SET_XTND_REG32((void CYFAR *)(CYDEV_UDB_PA0_BASE), 0x00990000u);
 371              		.loc 1 346 0
 372 0146 9923     		mov	r3, #153
 373 0148 1B04     		lsl	r3, r3, #16
 374 014a 174A     		ldr	r2, .L16+16
 375 014c 1360     		str	r3, [r2]
 347:Generated_Source\PSoC4/cyfitter_cfg.c **** 
 348:Generated_Source\PSoC4/cyfitter_cfg.c **** 		/* UDB_PA_2 Starting address: CYDEV_UDB_PA2_BASE */
 349:Generated_Source\PSoC4/cyfitter_cfg.c **** 		CY_SET_XTND_REG32((void CYFAR *)(CYDEV_UDB_PA2_BASE), 0x00990000u);
 376              		.loc 1 349 0
 377 014e 174A     		ldr	r2, .L16+20
 378 0150 1360     		str	r3, [r2]
 350:Generated_Source\PSoC4/cyfitter_cfg.c **** 		CY_SET_XTND_REG32((void CYFAR *)(CYREG_UDB_PA2_CFG8), 0x00010000u);
 379              		.loc 1 350 0
 380 0152 8022     		mov	r2, #128
 381 0154 5202     		lsl	r2, r2, #9
 382 0156 164B     		ldr	r3, .L16+24
 383 0158 1A60     		str	r2, [r3]
 351:Generated_Source\PSoC4/cyfitter_cfg.c **** 
 352:Generated_Source\PSoC4/cyfitter_cfg.c **** 		/* Enable digital routing */
 353:Generated_Source\PSoC4/cyfitter_cfg.c **** 		CY_SET_XTND_REG8((void *)CYREG_UDB_UDBIF_BANK_CTL, CY_GET_XTND_REG8((void *)CYREG_UDB_UDBIF_BANK_
 384              		.loc 1 353 0
 385 015a 164B     		ldr	r3, .L16+28
 386 015c 1978     		ldrb	r1, [r3]
 387 015e 0222     		mov	r2, #2
 388 0160 0A43     		orr	r2, r1
 389 0162 1A70     		strb	r2, [r3]
 354:Generated_Source\PSoC4/cyfitter_cfg.c **** 
 355:Generated_Source\PSoC4/cyfitter_cfg.c **** 		/* Enable UDB array */
 356:Generated_Source\PSoC4/cyfitter_cfg.c **** 		CY_SET_XTND_REG8((void *)CYREG_UDB_UDBIF_WAIT_CFG, (uint8)((CY_GET_XTND_REG8((void *)CYREG_UDB_UD
 390              		.loc 1 356 0
 391 0164 1448     		ldr	r0, .L16+32
 392 0166 0278     		ldrb	r2, [r0]
 393 0168 3C21     		mov	r1, #60
 394 016a 8A43     		bic	r2, r1
 395 016c 2839     		sub	r1, r1, #40
 396 016e 0A43     		orr	r2, r1
 397 0170 0270     		strb	r2, [r0]
 357:Generated_Source\PSoC4/cyfitter_cfg.c **** 		CY_SET_XTND_REG8((void *)CYREG_UDB_UDBIF_BANK_CTL, (uint8)(CY_GET_XTND_REG8((void *)CYREG_UDB_UDB
 398              		.loc 1 357 0
 399 0172 1978     		ldrb	r1, [r3]
 400 0174 1622     		mov	r2, #22
 401 0176 0A43     		orr	r2, r1
 402 0178 1A70     		strb	r2, [r3]
 403              	.LBE3:
 358:Generated_Source\PSoC4/cyfitter_cfg.c **** 	}
 359:Generated_Source\PSoC4/cyfitter_cfg.c **** 
 360:Generated_Source\PSoC4/cyfitter_cfg.c **** 	/* Perform second pass device configuration. These items must be configured in specific order afte
 361:Generated_Source\PSoC4/cyfitter_cfg.c **** 	/* IOPINS0_0 Starting address: CYDEV_GPIO_PRT0_BASE */
ARM GAS  C:\Users\Sarah\AppData\Local\Temp\ccOsMGUv.s 			page 15


 362:Generated_Source\PSoC4/cyfitter_cfg.c **** 	CY_SET_XTND_REG32((void CYFAR *)(CYREG_GPIO_PRT0_PC), 0x00D80000u);
 404              		.loc 1 362 0
 405 017a D822     		mov	r2, #216
 406 017c 1204     		lsl	r2, r2, #16
 407 017e 0F4B     		ldr	r3, .L16+36
 408 0180 1A60     		str	r2, [r3]
 363:Generated_Source\PSoC4/cyfitter_cfg.c **** 
 364:Generated_Source\PSoC4/cyfitter_cfg.c **** 	/* IOPINS0_2 Starting address: CYDEV_GPIO_PRT2_BASE */
 365:Generated_Source\PSoC4/cyfitter_cfg.c **** 	CY_SET_XTND_REG32((void CYFAR *)(CYDEV_GPIO_PRT2_BASE), 0x00000001u);
 409              		.loc 1 365 0
 410 0182 0122     		mov	r2, #1
 411 0184 0E4B     		ldr	r3, .L16+40
 412 0186 1A60     		str	r2, [r3]
 366:Generated_Source\PSoC4/cyfitter_cfg.c **** 	CY_SET_XTND_REG32((void CYFAR *)(CYREG_GPIO_PRT2_PC), 0x00000006u);
 413              		.loc 1 366 0
 414 0188 0532     		add	r2, r2, #5
 415 018a 0E4B     		ldr	r3, .L16+44
 416 018c 1A60     		str	r2, [r3]
 367:Generated_Source\PSoC4/cyfitter_cfg.c **** 
 368:Generated_Source\PSoC4/cyfitter_cfg.c **** 
 369:Generated_Source\PSoC4/cyfitter_cfg.c **** 	/* Setup clocks based on selections from Clock DWR */
 370:Generated_Source\PSoC4/cyfitter_cfg.c **** 	ClockSetup();
 417              		.loc 1 370 0
 418 018e FFF737FF 		bl	ClockSetup
 419              	.LVL29:
 371:Generated_Source\PSoC4/cyfitter_cfg.c **** 
 372:Generated_Source\PSoC4/cyfitter_cfg.c **** 	/* Perform basic analog initialization to defaults */
 373:Generated_Source\PSoC4/cyfitter_cfg.c **** 	AnalogSetDefault();
 420              		.loc 1 373 0
 421 0192 FFF7FEFF 		bl	AnalogSetDefault
 422              	.LVL30:
 374:Generated_Source\PSoC4/cyfitter_cfg.c **** 
 375:Generated_Source\PSoC4/cyfitter_cfg.c **** }
 423              		.loc 1 375 0
 424              		@ sp needed
 425              	.LVL31:
 426 0196 10BD     		pop	{r4, pc}
 427              	.L17:
 428              		.align	2
 429              	.L16:
 430 0198 6CF02E40 		.word	1076818028
 431 019c 00000000 		.word	.LANCHOR0
 432 01a0 00000240 		.word	1073872896
 433 01a4 00020240 		.word	1073873408
 434 01a8 00500F40 		.word	1074745344
 435 01ac 20500F40 		.word	1074745376
 436 01b0 28500F40 		.word	1074745384
 437 01b4 00700F40 		.word	1074753536
 438 01b8 01700F40 		.word	1074753537
 439 01bc 08000440 		.word	1074003976
 440 01c0 00020440 		.word	1074004480
 441 01c4 08020440 		.word	1074004488
 442              		.cfi_endproc
 443              	.LFE8:
 444              		.size	cyfitter_cfg, .-cyfitter_cfg
 445              		.section	.rodata
 446              		.align	2
ARM GAS  C:\Users\Sarah\AppData\Local\Temp\ccOsMGUv.s 			page 16


 447              		.set	.LANCHOR0,. + 0
 448              		.type	cfg_memset_list.4794, %object
 449              		.size	cfg_memset_list.4794, 12
 450              	cfg_memset_list.4794:
 451 0000 00300F40 		.word	1074737152
 452 0004 0004     		.short	1024
 453 0006 00400F40 		.4byte	1074741248
 454 000a 0004     		.short	1024
 455              		.type	cy_cfg_addr_table.4788, %object
 456              		.size	cy_cfg_addr_table.4788, 4
 457              	cy_cfg_addr_table.4788:
 458 000c 04420F40 		.word	1074741764
 459              		.type	cy_cfg_data_table.4789, %object
 460              		.size	cy_cfg_data_table.4789, 8
 461              	cy_cfg_data_table.4789:
 462 0010 10       		.byte	16
 463 0011 20       		.byte	32
 464 0012 54       		.byte	84
 465 0013 20       		.byte	32
 466 0014 C4       		.byte	-60
 467 0015 08       		.byte	8
 468 0016 D4       		.byte	-44
 469 0017 02       		.byte	2
 470              		.text
 471              	.Letext0:
 472              		.file 2 "c:\\program files (x86)\\cypress\\psoc creator\\4.0\\psoc creator\\import\\gnu\\arm\\4.9.
 473              		.file 3 "Generated_Source\\PSoC4\\cytypes.h"
 474              		.file 4 "Generated_Source\\PSoC4\\CyLib.h"
 475              		.file 5 "Generated_Source\\PSoC4\\CyLFClk.h"