ARM GAS  C:\Users\Sarah\AppData\Local\Temp\ccyCbme3.s 			page 1


   1              		.cpu cortex-m0
   2              		.fpu softvfp
   3              		.eabi_attribute 20, 1
   4              		.eabi_attribute 21, 1
   5              		.eabi_attribute 23, 3
   6              		.eabi_attribute 24, 1
   7              		.eabi_attribute 25, 1
   8              		.eabi_attribute 26, 1
   9              		.eabi_attribute 30, 1
  10              		.eabi_attribute 34, 0
  11              		.eabi_attribute 18, 4
  12              		.code	16
  13              		.file	"main.c"
  14              		.text
  15              	.Ltext0:
  16              		.cfi_sections	.debug_frame
  17              		.section	.text.Timer_Int_Handler,"ax",%progbits
  18              		.align	2
  19              		.global	Timer_Int_Handler
  20              		.code	16
  21              		.thumb_func
  22              		.type	Timer_Int_Handler, %function
  23              	Timer_Int_Handler:
  24              	.LFB37:
  25              		.file 1 "main.c"
   1:main.c        **** /* ========================================
   2:main.c        ****  *
   3:main.c        ****  * Copyright YOUR COMPANY, THE YEAR
   4:main.c        ****  * All Rights Reserved
   5:main.c        ****  * UNPUBLISHED, LICENSED SOFTWARE.
   6:main.c        ****  *
   7:main.c        ****  * CONFIDENTIAL AND PROPRIETARY INFORMATION
   8:main.c        ****  * WHICH IS THE PROPERTY OF your company.
   9:main.c        ****  *
  10:main.c        ****  * ========================================
  11:main.c        **** */
  12:main.c        **** #include "project.h"
  13:main.c        **** 
  14:main.c        **** #define TIME_INTERVAL_360 1325
  15:main.c        **** #define TIME_INTERVAL_90  250
  16:main.c        **** 
  17:main.c        **** volatile int flag = 1;
  18:main.c        **** volatile int x = 4520;
  19:main.c        **** 
  20:main.c        **** 
  21:main.c        **** CY_ISR( Timer_Int_Handler) {
  26              		.loc 1 21 0
  27              		.cfi_startproc
  28 0000 10B5     		push	{r4, lr}
  29              		.cfi_def_cfa_offset 8
  30              		.cfi_offset 4, -8
  31              		.cfi_offset 14, -4
  22:main.c        ****     PWM_WriteCompare(0);
  32              		.loc 1 22 0
  33 0002 0020     		mov	r0, #0
  34 0004 FFF7FEFF 		bl	PWM_WriteCompare
  35              	.LVL0:
ARM GAS  C:\Users\Sarah\AppData\Local\Temp\ccyCbme3.s 			page 2


  23:main.c        ****     CyDelay(3000);
  36              		.loc 1 23 0
  37 0008 0648     		ldr	r0, .L2
  38 000a FFF7FEFF 		bl	CyDelay
  39              	.LVL1:
  24:main.c        ****     PWM_WriteCompare(x);
  40              		.loc 1 24 0
  41 000e 064C     		ldr	r4, .L2+4
  42 0010 2068     		ldr	r0, [r4]
  43 0012 FFF7FEFF 		bl	PWM_WriteCompare
  44              	.LVL2:
  25:main.c        ****     flag = 1;
  45              		.loc 1 25 0
  46 0016 0123     		mov	r3, #1
  47 0018 6360     		str	r3, [r4, #4]
  26:main.c        ****     Timer_ClearInterrupt(Timer_INTR_MASK_TC);
  48              		.loc 1 26 0
  49 001a 0120     		mov	r0, #1
  50 001c FFF7FEFF 		bl	Timer_ClearInterrupt
  51              	.LVL3:
  27:main.c        **** }
  52              		.loc 1 27 0
  53              		@ sp needed
  54 0020 10BD     		pop	{r4, pc}
  55              	.L3:
  56 0022 C046     		.align	2
  57              	.L2:
  58 0024 B80B0000 		.word	3000
  59 0028 00000000 		.word	.LANCHOR0
  60              		.cfi_endproc
  61              	.LFE37:
  62              		.size	Timer_Int_Handler, .-Timer_Int_Handler
  63              		.section	.text.main,"ax",%progbits
  64              		.align	2
  65              		.global	main
  66              		.code	16
  67              		.thumb_func
  68              		.type	main, %function
  69              	main:
  70              	.LFB38:
  28:main.c        **** 
  29:main.c        **** int main(void)
  30:main.c        **** {
  71              		.loc 1 30 0
  72              		.cfi_startproc
  73 0000 08B5     		push	{r3, lr}
  74              		.cfi_def_cfa_offset 8
  75              		.cfi_offset 3, -8
  76              		.cfi_offset 14, -4
  31:main.c        ****     CyGlobalIntEnable; /* Enable global interrupts. */
  77              		.loc 1 31 0
  78              	@ 31 "main.c" 1
  79 0002 62B6     		CPSIE   i
  80              	@ 0 "" 2
  32:main.c        **** 
  33:main.c        ****     /* Place your initialization/startup code here (e.g. MyInst_Start()) */
  34:main.c        ****     //uint8 counter = 128;
ARM GAS  C:\Users\Sarah\AppData\Local\Temp\ccyCbme3.s 			page 3


  35:main.c        ****     
  36:main.c        ****     
  37:main.c        ****     
  38:main.c        ****     Timer_Int_StartEx( Timer_Int_Handler );
  81              		.loc 1 38 0
  82              		.code	16
  83 0004 0848     		ldr	r0, .L7
  84 0006 FFF7FEFF 		bl	Timer_Int_StartEx
  85              	.LVL4:
  39:main.c        ****     PWM_Start();
  86              		.loc 1 39 0
  87 000a FFF7FEFF 		bl	PWM_Start
  88              	.LVL5:
  89              	.L5:
  40:main.c        ****     for(;;)
  41:main.c        ****     {
  42:main.c        ****        
  43:main.c        ****         //printf("values = %d\n", values);
  44:main.c        ****         //CyDelay(1000);
  45:main.c        ****         if (flag) {
  90              		.loc 1 45 0
  91 000e 074B     		ldr	r3, .L7+4
  92 0010 5B68     		ldr	r3, [r3, #4]
  93 0012 002B     		cmp	r3, #0
  94 0014 FBD0     		beq	.L5
  46:main.c        ****             /*
  47:main.c        ****             if (x == 4530)
  48:main.c        ****                 x = 4350;
  49:main.c        ****             else
  50:main.c        ****                 x = 4530;
  51:main.c        ****             */
  52:main.c        ****             Timer_WritePeriod(TIME_INTERVAL_360);
  95              		.loc 1 52 0
  96 0016 0648     		ldr	r0, .L7+8
  97 0018 FFF7FEFF 		bl	Timer_WritePeriod
  98              	.LVL6:
  53:main.c        ****             Timer_Start();
  99              		.loc 1 53 0
 100 001c FFF7FEFF 		bl	Timer_Start
 101              	.LVL7:
  54:main.c        ****             flag = 0;
 102              		.loc 1 54 0
 103 0020 0022     		mov	r2, #0
 104 0022 024B     		ldr	r3, .L7+4
 105 0024 5A60     		str	r2, [r3, #4]
 106 0026 F2E7     		b	.L5
 107              	.L8:
 108              		.align	2
 109              	.L7:
 110 0028 00000000 		.word	Timer_Int_Handler
 111 002c 00000000 		.word	.LANCHOR0
 112 0030 2D050000 		.word	1325
 113              		.cfi_endproc
 114              	.LFE38:
 115              		.size	main, .-main
 116              		.global	x
 117              		.global	flag
ARM GAS  C:\Users\Sarah\AppData\Local\Temp\ccyCbme3.s 			page 4


 118              		.data
 119              		.align	2
 120              		.set	.LANCHOR0,. + 0
 121              		.type	x, %object
 122              		.size	x, 4
 123              	x:
 124 0000 A8110000 		.word	4520
 125              		.type	flag, %object
 126              		.size	flag, 4
 127              	flag:
 128 0004 01000000 		.word	1
 129              		.text
 130              	.Letext0:
 131              		.file 2 "Generated_Source\\PSoC4/cytypes.h"
 132              		.file 3 "Generated_Source\\PSoC4/BLE_1_Stack.h"
 133              		.file 4 "Generated_Source\\PSoC4/BLE_1_ans.h"
 134              		.file 5 "Generated_Source\\PSoC4/PWM.h"
 135              		.file 6 "Generated_Source\\PSoC4/CyLib.h"
 136              		.file 7 "Generated_Source\\PSoC4/Timer.h"
 137              		.file 8 "Generated_Source\\PSoC4/Timer_Int.h"