ARM GAS  C:\Users\Sarah\AppData\Local\Temp\ccRreSQJ.s 			page 1


   1              		.cpu cortex-m0
   2              		.fpu softvfp
   3              		.eabi_attribute 20, 1
   4              		.eabi_attribute 21, 1
   5              		.eabi_attribute 23, 3
   6              		.eabi_attribute 24, 1
   7              		.eabi_attribute 25, 1
   8              		.eabi_attribute 26, 1
   9              		.eabi_attribute 30, 1
  10              		.eabi_attribute 34, 0
  11              		.eabi_attribute 18, 4
  12              		.code	16
  13              		.file	"CapSense_INT.c"
  14              		.text
  15              	.Ltext0:
  16              		.cfi_sections	.debug_frame
  17              		.section	.text.CapSense_CSDPostSingleScan,"ax",%progbits
  18              		.align	2
  19              		.global	CapSense_CSDPostSingleScan
  20              		.code	16
  21              		.thumb_func
  22              		.type	CapSense_CSDPostSingleScan, %function
  23              	CapSense_CSDPostSingleScan:
  24              	.LFB2:
  25              		.file 1 "Generated_Source\\PSoC4\\CapSense_INT.c"
   1:Generated_Source\PSoC4/CapSense_INT.c **** /***************************************************************************//**
   2:Generated_Source\PSoC4/CapSense_INT.c **** * \file CapSense_INT.c
   3:Generated_Source\PSoC4/CapSense_INT.c **** * \version 3.10
   4:Generated_Source\PSoC4/CapSense_INT.c **** *
   5:Generated_Source\PSoC4/CapSense_INT.c **** * \brief
   6:Generated_Source\PSoC4/CapSense_INT.c **** *   This file contains the source code for implementation of the CapSense component
   7:Generated_Source\PSoC4/CapSense_INT.c **** *   Interrupt Service Routine (ISR).
   8:Generated_Source\PSoC4/CapSense_INT.c **** *
   9:Generated_Source\PSoC4/CapSense_INT.c **** * \see CapSense P4 v3.10 Datasheet
  10:Generated_Source\PSoC4/CapSense_INT.c **** *
  11:Generated_Source\PSoC4/CapSense_INT.c **** *//*****************************************************************************
  12:Generated_Source\PSoC4/CapSense_INT.c **** * Copyright (2016), Cypress Semiconductor Corporation.
  13:Generated_Source\PSoC4/CapSense_INT.c **** ********************************************************************************
  14:Generated_Source\PSoC4/CapSense_INT.c **** * This software is owned by Cypress Semiconductor Corporation (Cypress) and is
  15:Generated_Source\PSoC4/CapSense_INT.c **** * protected by and subject to worldwide patent protection (United States and
  16:Generated_Source\PSoC4/CapSense_INT.c **** * foreign), United States copyright laws and international treaty provisions.
  17:Generated_Source\PSoC4/CapSense_INT.c **** * Cypress hereby grants to licensee a personal, non-exclusive, non-transferable
  18:Generated_Source\PSoC4/CapSense_INT.c **** * license to copy, use, modify, create derivative works of, and compile the
  19:Generated_Source\PSoC4/CapSense_INT.c **** * Cypress Source Code and derivative works for the sole purpose of creating
  20:Generated_Source\PSoC4/CapSense_INT.c **** * custom software in support of licensee product to be used only in conjunction
  21:Generated_Source\PSoC4/CapSense_INT.c **** * with a Cypress integrated circuit as specified in the applicable agreement.
  22:Generated_Source\PSoC4/CapSense_INT.c **** * Any reproduction, modification, translation, compilation, or representation of
  23:Generated_Source\PSoC4/CapSense_INT.c **** * this software except as specified above is prohibited without the express
  24:Generated_Source\PSoC4/CapSense_INT.c **** * written permission of Cypress.
  25:Generated_Source\PSoC4/CapSense_INT.c **** *
  26:Generated_Source\PSoC4/CapSense_INT.c **** * Disclaimer: CYPRESS MAKES NO WARRANTY OF ANY KIND, EXPRESS OR IMPLIED, WITH
  27:Generated_Source\PSoC4/CapSense_INT.c **** * REGARD TO THIS MATERIAL, INCLUDING, BUT NOT LIMITED TO, THE IMPLIED
  28:Generated_Source\PSoC4/CapSense_INT.c **** * WARRANTIES OF MERCHANTABILITY AND FITNESS FOR A PARTICULAR PURPOSE.
  29:Generated_Source\PSoC4/CapSense_INT.c **** * Cypress reserves the right to make changes without further notice to the
  30:Generated_Source\PSoC4/CapSense_INT.c **** * materials described herein. Cypress does not assume any liability arising out
  31:Generated_Source\PSoC4/CapSense_INT.c **** * of the application or use of any product or circuit described herein. Cypress
  32:Generated_Source\PSoC4/CapSense_INT.c **** * does not authorize its products for use as critical components in life-support
ARM GAS  C:\Users\Sarah\AppData\Local\Temp\ccRreSQJ.s 			page 2


  33:Generated_Source\PSoC4/CapSense_INT.c **** * systems where a malfunction or failure may reasonably be expected to result in
  34:Generated_Source\PSoC4/CapSense_INT.c **** * significant injury to the user. The inclusion of Cypress' product in a life-
  35:Generated_Source\PSoC4/CapSense_INT.c **** * support systems application implies that the manufacturer assumes all risk of
  36:Generated_Source\PSoC4/CapSense_INT.c **** * such use and in doing so indemnifies Cypress against all charges. Use may be
  37:Generated_Source\PSoC4/CapSense_INT.c **** * limited by and subject to the applicable Cypress software license agreement.
  38:Generated_Source\PSoC4/CapSense_INT.c **** *******************************************************************************/
  39:Generated_Source\PSoC4/CapSense_INT.c **** #include "cytypes.h"
  40:Generated_Source\PSoC4/CapSense_INT.c **** #include "cyfitter.h"
  41:Generated_Source\PSoC4/CapSense_INT.c **** #include "CapSense_Configuration.h"
  42:Generated_Source\PSoC4/CapSense_INT.c **** #include "CapSense_Sensing.h"
  43:Generated_Source\PSoC4/CapSense_INT.c **** #include "cyapicallbacks.h"
  44:Generated_Source\PSoC4/CapSense_INT.c **** 
  45:Generated_Source\PSoC4/CapSense_INT.c **** /*******************************************************************************
  46:Generated_Source\PSoC4/CapSense_INT.c **** * Static Function Prototypes
  47:Generated_Source\PSoC4/CapSense_INT.c **** *******************************************************************************/
  48:Generated_Source\PSoC4/CapSense_INT.c **** /**
  49:Generated_Source\PSoC4/CapSense_INT.c **** * \if SECTION_CAPSENSE_INTERNAL
  50:Generated_Source\PSoC4/CapSense_INT.c **** * \addtogroup group_capsense_internal
  51:Generated_Source\PSoC4/CapSense_INT.c **** * \{
  52:Generated_Source\PSoC4/CapSense_INT.c **** */
  53:Generated_Source\PSoC4/CapSense_INT.c **** 
  54:Generated_Source\PSoC4/CapSense_INT.c **** #if (((CapSense_ENABLE == CapSense_CSD_EN) || (CapSense_ENABLE == CapSense_CSD_CSX_EN)) && \
  55:Generated_Source\PSoC4/CapSense_INT.c ****      (CapSense_ENABLE == CapSense_MULTI_FREQ_SCAN_EN))
  56:Generated_Source\PSoC4/CapSense_INT.c ****     static void CapSense_SsNextFrequencyScan(void);
  57:Generated_Source\PSoC4/CapSense_INT.c **** #endif /* (((CapSense_ENABLE == CapSense_CSD_EN) || (CapSense_ENABLE == CapSense_CSD_CSX_EN)) && \
  58:Generated_Source\PSoC4/CapSense_INT.c ****             (CapSense_ENABLE == CapSense_MULTI_FREQ_SCAN_EN)) */
  59:Generated_Source\PSoC4/CapSense_INT.c **** 
  60:Generated_Source\PSoC4/CapSense_INT.c **** #if ((CapSense_ENABLE == CapSense_CSD_EN) || (CapSense_ENABLE == CapSense_CSD_CSX_EN))
  61:Generated_Source\PSoC4/CapSense_INT.c ****     CY_INLINE static void CapSense_SsCSDPostScan(void);
  62:Generated_Source\PSoC4/CapSense_INT.c ****     CY_INLINE static void CapSense_SsCSDInitNextScan(void);
  63:Generated_Source\PSoC4/CapSense_INT.c **** #endif /* ((CapSense_ENABLE == CapSense_CSD_EN) || (CapSense_ENABLE == CapSense_CSD_CSX_EN)) */ 
  64:Generated_Source\PSoC4/CapSense_INT.c **** 
  65:Generated_Source\PSoC4/CapSense_INT.c **** #if (CapSense_ENABLE == CapSense_CSD2X_EN)
  66:Generated_Source\PSoC4/CapSense_INT.c ****     #if (CapSense_ENABLE == CapSense_MULTI_FREQ_SCAN_EN)
  67:Generated_Source\PSoC4/CapSense_INT.c ****         CY_INLINE static void CapSense_SsCSD2XCheckNextScan(void);
  68:Generated_Source\PSoC4/CapSense_INT.c ****         static void CapSense_SsCSD2XNextFrequencyScan(void);
  69:Generated_Source\PSoC4/CapSense_INT.c ****     #endif /* (CapSense_ENABLE == CapSense_MULTI_FREQ_SCAN_EN) */
  70:Generated_Source\PSoC4/CapSense_INT.c ****     CY_INLINE static void CapSense_SsCSD2XInitNextScan(void);
  71:Generated_Source\PSoC4/CapSense_INT.c **** #endif /* (CapSense_ENABLE == CapSense_CSD2X_EN) */
  72:Generated_Source\PSoC4/CapSense_INT.c **** 
  73:Generated_Source\PSoC4/CapSense_INT.c ****    
  74:Generated_Source\PSoC4/CapSense_INT.c **** /** \}
  75:Generated_Source\PSoC4/CapSense_INT.c **** * \endif */
  76:Generated_Source\PSoC4/CapSense_INT.c **** 
  77:Generated_Source\PSoC4/CapSense_INT.c **** 
  78:Generated_Source\PSoC4/CapSense_INT.c **** /**
  79:Generated_Source\PSoC4/CapSense_INT.c **** * \if SECTION_CAPSENSE_INTERRUPT
  80:Generated_Source\PSoC4/CapSense_INT.c **** * \addtogroup group_capsense_interrupt
  81:Generated_Source\PSoC4/CapSense_INT.c **** * \{
  82:Generated_Source\PSoC4/CapSense_INT.c **** */
  83:Generated_Source\PSoC4/CapSense_INT.c **** 
  84:Generated_Source\PSoC4/CapSense_INT.c **** 
  85:Generated_Source\PSoC4/CapSense_INT.c **** #if ((CapSense_ENABLE == CapSense_CSD_EN) || (CapSense_ENABLE == CapSense_CSD_CSX_EN))
  86:Generated_Source\PSoC4/CapSense_INT.c **** 
  87:Generated_Source\PSoC4/CapSense_INT.c **** #if (CapSense_ENABLE == CapSense_CSDV2)
  88:Generated_Source\PSoC4/CapSense_INT.c ****     /*  CSDv2 HW IP block part */
  89:Generated_Source\PSoC4/CapSense_INT.c **** 
ARM GAS  C:\Users\Sarah\AppData\Local\Temp\ccRreSQJ.s 			page 3


  90:Generated_Source\PSoC4/CapSense_INT.c ****     /*******************************************************************************
  91:Generated_Source\PSoC4/CapSense_INT.c ****     * Function Name: CapSense_CSDPostSingleScan
  92:Generated_Source\PSoC4/CapSense_INT.c ****     ****************************************************************************//**
  93:Generated_Source\PSoC4/CapSense_INT.c ****     *
  94:Generated_Source\PSoC4/CapSense_INT.c ****     * \brief
  95:Generated_Source\PSoC4/CapSense_INT.c ****     *  This is an internal ISR function for single-sensor scanning implementation.
  96:Generated_Source\PSoC4/CapSense_INT.c ****     *
  97:Generated_Source\PSoC4/CapSense_INT.c ****     * \details
  98:Generated_Source\PSoC4/CapSense_INT.c ****     *  This ISR handler is triggered when the user calls the
  99:Generated_Source\PSoC4/CapSense_INT.c ****     *  CapSense_CSDScanExt() function.
 100:Generated_Source\PSoC4/CapSense_INT.c ****     *
 101:Generated_Source\PSoC4/CapSense_INT.c ****     *  The following tasks are performed for CSDv1 HW IP block:
 102:Generated_Source\PSoC4/CapSense_INT.c ****     *    1. Disable the CSD interrupt
 103:Generated_Source\PSoC4/CapSense_INT.c ****     *    2. Read the Counter register and update the data structure with raw data
 104:Generated_Source\PSoC4/CapSense_INT.c ****     *    3. Connect the Vref buffer to the AMUX bus
 105:Generated_Source\PSoC4/CapSense_INT.c ****     *    4. Update the Scan Counter
 106:Generated_Source\PSoC4/CapSense_INT.c ****     *    5. Reset the BUSY flag
 107:Generated_Source\PSoC4/CapSense_INT.c ****     *    6. Enable the CSD interrupt.
 108:Generated_Source\PSoC4/CapSense_INT.c ****     *
 109:Generated_Source\PSoC4/CapSense_INT.c ****     *  The following tasks are performed for CSDv2 HW IP block:
 110:Generated_Source\PSoC4/CapSense_INT.c ****     *    1. Check if the raw data is not noisy
 111:Generated_Source\PSoC4/CapSense_INT.c ****     *    2. Read the Counter register and update the data structure with raw data
 112:Generated_Source\PSoC4/CapSense_INT.c ****     *    3. Configure and start the scan for the next frequency if the
 113:Generated_Source\PSoC4/CapSense_INT.c ****     *      multi-frequency is enabled
 114:Generated_Source\PSoC4/CapSense_INT.c ****     *    4. Update the Scan Counter
 115:Generated_Source\PSoC4/CapSense_INT.c ****     *    5. Reset the BUSY flag
 116:Generated_Source\PSoC4/CapSense_INT.c ****     *    6. Enable the CSD interrupt.
 117:Generated_Source\PSoC4/CapSense_INT.c ****     *
 118:Generated_Source\PSoC4/CapSense_INT.c ****     *  The ISR handler changes IMO and initializes scanning for the next frequency
 119:Generated_Source\PSoC4/CapSense_INT.c ****     *  channels when multi-frequency scanning is enabled.
 120:Generated_Source\PSoC4/CapSense_INT.c ****     *
 121:Generated_Source\PSoC4/CapSense_INT.c **** 	*  This function has two Macro Callbacks that allow calling the user code
 122:Generated_Source\PSoC4/CapSense_INT.c ****     *  from macros specified in a component's generated code. Refer to the 
 123:Generated_Source\PSoC4/CapSense_INT.c ****     *  \ref group_capsense_macrocallbacks section of PSoC Creator User Guide 
 124:Generated_Source\PSoC4/CapSense_INT.c ****     *  for details. 
 125:Generated_Source\PSoC4/CapSense_INT.c ****     *
 126:Generated_Source\PSoC4/CapSense_INT.c ****     *******************************************************************************/
 127:Generated_Source\PSoC4/CapSense_INT.c ****     CY_ISR(CapSense_CSDPostSingleScan)
 128:Generated_Source\PSoC4/CapSense_INT.c ****     {
 129:Generated_Source\PSoC4/CapSense_INT.c ****         #ifdef CapSense_ENTRY_CALLBACK
 130:Generated_Source\PSoC4/CapSense_INT.c ****             CapSense_EntryCallback();
 131:Generated_Source\PSoC4/CapSense_INT.c ****         #endif /* CapSense_ENTRY_CALLBACK */
 132:Generated_Source\PSoC4/CapSense_INT.c **** 
 133:Generated_Source\PSoC4/CapSense_INT.c ****         /* Clear pending interrupt */
 134:Generated_Source\PSoC4/CapSense_INT.c ****         CY_SET_REG32(CapSense_INTR_PTR, CapSense_INTR_SET_MASK);
 135:Generated_Source\PSoC4/CapSense_INT.c **** 
 136:Generated_Source\PSoC4/CapSense_INT.c ****     #if (CapSense_ENABLE == CapSense_CSD_NOISE_METRIC_EN)
 137:Generated_Source\PSoC4/CapSense_INT.c ****         if ((CapSense_CSD_NOISE_METRIC_TH < ((CY_GET_REG32(CapSense_RESULT_VAL1_PTR) &
 138:Generated_Source\PSoC4/CapSense_INT.c ****                                                     CapSense_RESULT_VAL1_BAD_CONVS_MASK) >>
 139:Generated_Source\PSoC4/CapSense_INT.c ****                                                     CapSense_RESULT_VAL1_BAD_CONVS_SHIFT)) &&
 140:Generated_Source\PSoC4/CapSense_INT.c ****                                                     (0u < CapSense_badConversionsNum))
 141:Generated_Source\PSoC4/CapSense_INT.c ****         {
 142:Generated_Source\PSoC4/CapSense_INT.c ****             /* Decrement bad conversions number */
 143:Generated_Source\PSoC4/CapSense_INT.c ****             CapSense_badConversionsNum--;
 144:Generated_Source\PSoC4/CapSense_INT.c **** 
 145:Generated_Source\PSoC4/CapSense_INT.c ****             /* Start the re-scan */
 146:Generated_Source\PSoC4/CapSense_INT.c ****             CY_SET_REG32(CapSense_SEQ_START_PTR, CapSense_SEQ_START_AZ0_SKIP_MASK |
ARM GAS  C:\Users\Sarah\AppData\Local\Temp\ccRreSQJ.s 			page 4


 147:Generated_Source\PSoC4/CapSense_INT.c ****                                                          CapSense_SEQ_START_AZ1_SKIP_MASK |
 148:Generated_Source\PSoC4/CapSense_INT.c ****                                                          CapSense_SEQ_START_START_MASK);
 149:Generated_Source\PSoC4/CapSense_INT.c ****         }
 150:Generated_Source\PSoC4/CapSense_INT.c ****         else
 151:Generated_Source\PSoC4/CapSense_INT.c ****         {
 152:Generated_Source\PSoC4/CapSense_INT.c ****     #endif /* (CapSense_ENABLE == CapSense_CSD_NOISE_METRIC_EN) */
 153:Generated_Source\PSoC4/CapSense_INT.c **** 
 154:Generated_Source\PSoC4/CapSense_INT.c ****             CapSense_SsCSDPostScan();
 155:Generated_Source\PSoC4/CapSense_INT.c **** 
 156:Generated_Source\PSoC4/CapSense_INT.c ****             #if (CapSense_ENABLE == CapSense_MULTI_FREQ_SCAN_EN)
 157:Generated_Source\PSoC4/CapSense_INT.c ****                 if (CapSense_FREQ_CHANNEL_2 > CapSense_scanFreqIndex)
 158:Generated_Source\PSoC4/CapSense_INT.c ****                 {
 159:Generated_Source\PSoC4/CapSense_INT.c ****                     /* Scan the next channel */
 160:Generated_Source\PSoC4/CapSense_INT.c ****                     CapSense_SsNextFrequencyScan();
 161:Generated_Source\PSoC4/CapSense_INT.c ****                 }
 162:Generated_Source\PSoC4/CapSense_INT.c ****                 else
 163:Generated_Source\PSoC4/CapSense_INT.c ****                 {
 164:Generated_Source\PSoC4/CapSense_INT.c ****                     /* All channels are scanned. Set IMO to zero channel */
 165:Generated_Source\PSoC4/CapSense_INT.c ****                     CapSense_scanFreqIndex = CapSense_FREQ_CHANNEL_0;
 166:Generated_Source\PSoC4/CapSense_INT.c ****                     CapSense_SsChangeImoFreq(CapSense_FREQ_CHANNEL_0);
 167:Generated_Source\PSoC4/CapSense_INT.c **** 
 168:Generated_Source\PSoC4/CapSense_INT.c ****                     #if (CapSense_ENABLE == CapSense_BLOCK_OFF_AFTER_SCAN_EN)
 169:Generated_Source\PSoC4/CapSense_INT.c ****                         /*  Disable CSDv2 block */
 170:Generated_Source\PSoC4/CapSense_INT.c ****                         CY_SET_REG32(CapSense_CONFIG_PTR, CapSense_configCsd);
 171:Generated_Source\PSoC4/CapSense_INT.c ****                     #endif /* (CapSense_ENABLE == CapSense_BLOCK_OFF_AFTER_SCAN_EN) */
 172:Generated_Source\PSoC4/CapSense_INT.c **** 
 173:Generated_Source\PSoC4/CapSense_INT.c ****                     /* Update Scan Counter */
 174:Generated_Source\PSoC4/CapSense_INT.c ****                     CapSense_dsRam.scanCounter++;
 175:Generated_Source\PSoC4/CapSense_INT.c **** 
 176:Generated_Source\PSoC4/CapSense_INT.c ****                     /* Sensor is totally scanned. Reset BUSY flag */
 177:Generated_Source\PSoC4/CapSense_INT.c ****                     CapSense_dsRam.status &= ~(CapSense_SW_STS_BUSY | CapSense_WDGT_SW_STS_BUSY);
 178:Generated_Source\PSoC4/CapSense_INT.c ****                 }
 179:Generated_Source\PSoC4/CapSense_INT.c ****             #else
 180:Generated_Source\PSoC4/CapSense_INT.c ****                 {
 181:Generated_Source\PSoC4/CapSense_INT.c ****                     #if (CapSense_ENABLE == CapSense_BLOCK_OFF_AFTER_SCAN_EN)
 182:Generated_Source\PSoC4/CapSense_INT.c ****                         /*  Disable CSDv2 block */
 183:Generated_Source\PSoC4/CapSense_INT.c ****                         CY_SET_REG32(CapSense_CONFIG_PTR, CapSense_configCsd);
 184:Generated_Source\PSoC4/CapSense_INT.c ****                     #endif /* (CapSense_ENABLE == CapSense_BLOCK_OFF_AFTER_SCAN_EN) */
 185:Generated_Source\PSoC4/CapSense_INT.c **** 
 186:Generated_Source\PSoC4/CapSense_INT.c ****                     /* Update Scan Counter */
 187:Generated_Source\PSoC4/CapSense_INT.c ****                     CapSense_dsRam.scanCounter++;
 188:Generated_Source\PSoC4/CapSense_INT.c **** 
 189:Generated_Source\PSoC4/CapSense_INT.c ****                     /* Sensor is totally scanned. Reset BUSY flag */
 190:Generated_Source\PSoC4/CapSense_INT.c ****                     CapSense_dsRam.status &= ~(CapSense_SW_STS_BUSY | CapSense_WDGT_SW_STS_BUSY);
 191:Generated_Source\PSoC4/CapSense_INT.c ****                 }
 192:Generated_Source\PSoC4/CapSense_INT.c ****             #endif /* (CapSense_ENABLE == CapSense_MULTI_FREQ_SCAN_EN) */
 193:Generated_Source\PSoC4/CapSense_INT.c ****     #if (CapSense_ENABLE == CapSense_CSD_NOISE_METRIC_EN)
 194:Generated_Source\PSoC4/CapSense_INT.c ****         }
 195:Generated_Source\PSoC4/CapSense_INT.c ****     #endif /* (CapSense_ENABLE == CapSense_CSD_NOISE_METRIC_EN) */
 196:Generated_Source\PSoC4/CapSense_INT.c **** 
 197:Generated_Source\PSoC4/CapSense_INT.c ****         #ifdef CapSense_EXIT_CALLBACK
 198:Generated_Source\PSoC4/CapSense_INT.c ****             CapSense_ExitCallback();
 199:Generated_Source\PSoC4/CapSense_INT.c ****         #endif /* CapSense_EXIT_CALLBACK */
 200:Generated_Source\PSoC4/CapSense_INT.c ****     }
 201:Generated_Source\PSoC4/CapSense_INT.c **** 
 202:Generated_Source\PSoC4/CapSense_INT.c **** 
 203:Generated_Source\PSoC4/CapSense_INT.c ****     /*******************************************************************************
ARM GAS  C:\Users\Sarah\AppData\Local\Temp\ccRreSQJ.s 			page 5


 204:Generated_Source\PSoC4/CapSense_INT.c ****     * Function Name: CapSense_CSDPostMultiScan
 205:Generated_Source\PSoC4/CapSense_INT.c ****     ****************************************************************************//**
 206:Generated_Source\PSoC4/CapSense_INT.c ****     *
 207:Generated_Source\PSoC4/CapSense_INT.c ****     * \brief
 208:Generated_Source\PSoC4/CapSense_INT.c ****     *  This is an internal ISR function for multiple-sensor scanning 
 209:Generated_Source\PSoC4/CapSense_INT.c ****     *  implementation.
 210:Generated_Source\PSoC4/CapSense_INT.c ****     *
 211:Generated_Source\PSoC4/CapSense_INT.c ****     * \details
 212:Generated_Source\PSoC4/CapSense_INT.c ****     *  This ISR handler is triggered when the user calls the
 213:Generated_Source\PSoC4/CapSense_INT.c ****     *  CapSense_Scan() or CapSense_ScanAllWidgets() APIs.
 214:Generated_Source\PSoC4/CapSense_INT.c ****     *  
 215:Generated_Source\PSoC4/CapSense_INT.c ****     *  The following tasks are performed:
 216:Generated_Source\PSoC4/CapSense_INT.c ****     *    1. Disable the CSD interrupt
 217:Generated_Source\PSoC4/CapSense_INT.c ****     *    2. Read the Counter register and update the data structure with raw data
 218:Generated_Source\PSoC4/CapSense_INT.c ****     *    3. Connect the Vref buffer to the AMUX bus
 219:Generated_Source\PSoC4/CapSense_INT.c ****     *    4. Disable the CSD block (after the widget has been scanned)
 220:Generated_Source\PSoC4/CapSense_INT.c ****     *    5. Update Scan Counter
 221:Generated_Source\PSoC4/CapSense_INT.c ****     *    6. Reset the BUSY flag
 222:Generated_Source\PSoC4/CapSense_INT.c ****     *    7. Enable the CSD interrupt.
 223:Generated_Source\PSoC4/CapSense_INT.c ****     *
 224:Generated_Source\PSoC4/CapSense_INT.c ****     *  The ISR handler initializes scanning for the previous sensor when the 
 225:Generated_Source\PSoC4/CapSense_INT.c ****     *  widget has more than one sensor.
 226:Generated_Source\PSoC4/CapSense_INT.c ****     *  The ISR handler initializes scanning for the next widget when the
 227:Generated_Source\PSoC4/CapSense_INT.c ****     *  CapSense_ScanAllWidgets() APIs are called and the project has
 228:Generated_Source\PSoC4/CapSense_INT.c ****     *  more than one widget.
 229:Generated_Source\PSoC4/CapSense_INT.c ****     *  The ISR handler changes the IMO and initializes scanning for the next
 230:Generated_Source\PSoC4/CapSense_INT.c ****     *  frequency channels when multi-frequency scanning is enabled.
 231:Generated_Source\PSoC4/CapSense_INT.c ****     *
 232:Generated_Source\PSoC4/CapSense_INT.c ****     *  This function has two Macro Callbacks that allow calling the user 
 233:Generated_Source\PSoC4/CapSense_INT.c ****     *  code from macros specified in a component's generated code. Refer to the 
 234:Generated_Source\PSoC4/CapSense_INT.c ****     *  \ref group_capsense_macrocallbacks section of PSoC Creator User Guide 
 235:Generated_Source\PSoC4/CapSense_INT.c ****     *  for details.
 236:Generated_Source\PSoC4/CapSense_INT.c ****     *
 237:Generated_Source\PSoC4/CapSense_INT.c ****     *******************************************************************************/
 238:Generated_Source\PSoC4/CapSense_INT.c ****     CY_ISR(CapSense_CSDPostMultiScan)
 239:Generated_Source\PSoC4/CapSense_INT.c ****     {
 240:Generated_Source\PSoC4/CapSense_INT.c ****         /*  Declare and initialise ptr to sensor IO structure to appropriate address        */
 241:Generated_Source\PSoC4/CapSense_INT.c ****         CapSense_FLASH_IO_STRUCT const *curSnsIOPtr = (CapSense_FLASH_IO_STRUCT const *)
 242:Generated_Source\PSoC4/CapSense_INT.c ****                                                           CapSense_dsFlash.wdgtArray[CapSense_widge
 243:Generated_Source\PSoC4/CapSense_INT.c ****                                                           + CapSense_sensorIndex;
 244:Generated_Source\PSoC4/CapSense_INT.c **** 
 245:Generated_Source\PSoC4/CapSense_INT.c ****         #ifdef CapSense_ENTRY_CALLBACK
 246:Generated_Source\PSoC4/CapSense_INT.c ****             CapSense_EntryCallback();
 247:Generated_Source\PSoC4/CapSense_INT.c ****         #endif /* CapSense_ENTRY_CALLBACK */
 248:Generated_Source\PSoC4/CapSense_INT.c **** 
 249:Generated_Source\PSoC4/CapSense_INT.c ****         /* Clear pending interrupt */
 250:Generated_Source\PSoC4/CapSense_INT.c ****         CY_SET_REG32(CapSense_INTR_PTR, CapSense_INTR_SET_MASK);
 251:Generated_Source\PSoC4/CapSense_INT.c **** 
 252:Generated_Source\PSoC4/CapSense_INT.c ****         #if (CapSense_ENABLE == CapSense_CSD_NOISE_METRIC_EN)
 253:Generated_Source\PSoC4/CapSense_INT.c ****             if ((CapSense_CSD_NOISE_METRIC_TH < ((CY_GET_REG32(CapSense_RESULT_VAL1_PTR) &
 254:Generated_Source\PSoC4/CapSense_INT.c ****                                                       CapSense_RESULT_VAL1_BAD_CONVS_MASK) >>
 255:Generated_Source\PSoC4/CapSense_INT.c ****                                                       CapSense_RESULT_VAL1_BAD_CONVS_SHIFT)) &&
 256:Generated_Source\PSoC4/CapSense_INT.c ****                                                       (0u < CapSense_badConversionsNum))
 257:Generated_Source\PSoC4/CapSense_INT.c ****             {
 258:Generated_Source\PSoC4/CapSense_INT.c ****                 /* Decrement bad conversions number */
 259:Generated_Source\PSoC4/CapSense_INT.c ****                 CapSense_badConversionsNum--;
 260:Generated_Source\PSoC4/CapSense_INT.c **** 
ARM GAS  C:\Users\Sarah\AppData\Local\Temp\ccRreSQJ.s 			page 6


 261:Generated_Source\PSoC4/CapSense_INT.c ****                 /* Start the re-scan */
 262:Generated_Source\PSoC4/CapSense_INT.c ****                 CY_SET_REG32(CapSense_SEQ_START_PTR, CapSense_SEQ_START_AZ0_SKIP_MASK |
 263:Generated_Source\PSoC4/CapSense_INT.c ****                                                              CapSense_SEQ_START_AZ1_SKIP_MASK |
 264:Generated_Source\PSoC4/CapSense_INT.c ****                                                              CapSense_SEQ_START_START_MASK);
 265:Generated_Source\PSoC4/CapSense_INT.c ****             }
 266:Generated_Source\PSoC4/CapSense_INT.c ****             else
 267:Generated_Source\PSoC4/CapSense_INT.c ****             {
 268:Generated_Source\PSoC4/CapSense_INT.c ****         #endif /* (CapSense_ENABLE == CapSense_CSD_NOISE_METRIC_EN) */
 269:Generated_Source\PSoC4/CapSense_INT.c **** 
 270:Generated_Source\PSoC4/CapSense_INT.c ****             CapSense_SsCSDPostScan();
 271:Generated_Source\PSoC4/CapSense_INT.c **** 
 272:Generated_Source\PSoC4/CapSense_INT.c ****             #if (CapSense_ENABLE == CapSense_MULTI_FREQ_SCAN_EN)
 273:Generated_Source\PSoC4/CapSense_INT.c ****                 /* Disable sensor when all frequency channels are scanned */
 274:Generated_Source\PSoC4/CapSense_INT.c ****                 if (CapSense_FREQ_CHANNEL_2 == CapSense_scanFreqIndex)
 275:Generated_Source\PSoC4/CapSense_INT.c ****                 {
 276:Generated_Source\PSoC4/CapSense_INT.c ****                     /* Disable sensor */
 277:Generated_Source\PSoC4/CapSense_INT.c ****                     CapSense_CSDDisconnectSns(curSnsIOPtr);
 278:Generated_Source\PSoC4/CapSense_INT.c ****                 }
 279:Generated_Source\PSoC4/CapSense_INT.c ****             #else
 280:Generated_Source\PSoC4/CapSense_INT.c ****                 /* Disable sensor */
 281:Generated_Source\PSoC4/CapSense_INT.c ****                 CapSense_CSDDisconnectSns(curSnsIOPtr);
 282:Generated_Source\PSoC4/CapSense_INT.c ****             #endif /* (CapSense_ENABLE == CapSense_MULTI_FREQ_SCAN_EN) */
 283:Generated_Source\PSoC4/CapSense_INT.c **** 
 284:Generated_Source\PSoC4/CapSense_INT.c ****             #if (CapSense_ENABLE == CapSense_MULTI_FREQ_SCAN_EN)
 285:Generated_Source\PSoC4/CapSense_INT.c ****                 if (CapSense_FREQ_CHANNEL_2 > CapSense_scanFreqIndex)
 286:Generated_Source\PSoC4/CapSense_INT.c ****                 {
 287:Generated_Source\PSoC4/CapSense_INT.c ****                      /* Scan the next channel */
 288:Generated_Source\PSoC4/CapSense_INT.c ****                     CapSense_SsNextFrequencyScan();
 289:Generated_Source\PSoC4/CapSense_INT.c ****                 }
 290:Generated_Source\PSoC4/CapSense_INT.c ****                 else
 291:Generated_Source\PSoC4/CapSense_INT.c ****                 {
 292:Generated_Source\PSoC4/CapSense_INT.c ****                      /* All channels are scanned. Set IMO to zero channel */
 293:Generated_Source\PSoC4/CapSense_INT.c ****                     CapSense_scanFreqIndex = CapSense_FREQ_CHANNEL_0;
 294:Generated_Source\PSoC4/CapSense_INT.c ****                     CapSense_SsChangeImoFreq(CapSense_FREQ_CHANNEL_0);
 295:Generated_Source\PSoC4/CapSense_INT.c **** 
 296:Generated_Source\PSoC4/CapSense_INT.c ****                      /* Scan the next sensor */
 297:Generated_Source\PSoC4/CapSense_INT.c ****                     CapSense_SsCSDInitNextScan();
 298:Generated_Source\PSoC4/CapSense_INT.c ****                 }
 299:Generated_Source\PSoC4/CapSense_INT.c ****             #else
 300:Generated_Source\PSoC4/CapSense_INT.c ****                 /* Scan the next sensor */
 301:Generated_Source\PSoC4/CapSense_INT.c ****                 CapSense_SsCSDInitNextScan();
 302:Generated_Source\PSoC4/CapSense_INT.c ****             #endif /* (CapSense_ENABLE == CapSense_MULTI_FREQ_SCAN_EN) */
 303:Generated_Source\PSoC4/CapSense_INT.c ****         #if (CapSense_ENABLE == CapSense_CSD_NOISE_METRIC_EN)
 304:Generated_Source\PSoC4/CapSense_INT.c ****             }
 305:Generated_Source\PSoC4/CapSense_INT.c ****         #endif /* (CapSense_ENABLE == CapSense_CSD_NOISE_METRIC_EN) */
 306:Generated_Source\PSoC4/CapSense_INT.c **** 
 307:Generated_Source\PSoC4/CapSense_INT.c ****         #ifdef CapSense_EXIT_CALLBACK
 308:Generated_Source\PSoC4/CapSense_INT.c ****             CapSense_ExitCallback();
 309:Generated_Source\PSoC4/CapSense_INT.c ****         #endif /* CapSense_EXIT_CALLBACK */
 310:Generated_Source\PSoC4/CapSense_INT.c ****     }
 311:Generated_Source\PSoC4/CapSense_INT.c **** 
 312:Generated_Source\PSoC4/CapSense_INT.c **** 
 313:Generated_Source\PSoC4/CapSense_INT.c ****     #if (CapSense_ENABLE == CapSense_CSD_GANGED_SNS_EN)
 314:Generated_Source\PSoC4/CapSense_INT.c ****     /*******************************************************************************
 315:Generated_Source\PSoC4/CapSense_INT.c ****     * Function Name: CapSense_CSDPostMultiScanGanged
 316:Generated_Source\PSoC4/CapSense_INT.c ****     ****************************************************************************//**
 317:Generated_Source\PSoC4/CapSense_INT.c ****     *
ARM GAS  C:\Users\Sarah\AppData\Local\Temp\ccRreSQJ.s 			page 7


 318:Generated_Source\PSoC4/CapSense_INT.c ****     * \brief
 319:Generated_Source\PSoC4/CapSense_INT.c ****     *  This is an internal ISR function for multiple-sensor scanning 
 320:Generated_Source\PSoC4/CapSense_INT.c ****     *  implementation for ganged sensors.
 321:Generated_Source\PSoC4/CapSense_INT.c ****     *
 322:Generated_Source\PSoC4/CapSense_INT.c ****     * \details
 323:Generated_Source\PSoC4/CapSense_INT.c ****     *  This ISR handler is triggered when the user calls the
 324:Generated_Source\PSoC4/CapSense_INT.c ****     *  CapSense_Scan() API for a ganged sensor or the
 325:Generated_Source\PSoC4/CapSense_INT.c ****     *  CapSense_ScanAllWidgets() API in the project with ganged sensors.
 326:Generated_Source\PSoC4/CapSense_INT.c ****     *
 327:Generated_Source\PSoC4/CapSense_INT.c ****     *  The following tasks are performed:
 328:Generated_Source\PSoC4/CapSense_INT.c ****     *    1. Disable the CSD interrupt
 329:Generated_Source\PSoC4/CapSense_INT.c ****     *    2. Read the Counter register and update the data structure with raw data
 330:Generated_Source\PSoC4/CapSense_INT.c ****     *    3. Connect the Vref buffer to the AMUX bus
 331:Generated_Source\PSoC4/CapSense_INT.c ****     *    4. Disable the CSD block (after the widget has been scanned)
 332:Generated_Source\PSoC4/CapSense_INT.c ****     *    5. Update Scan Counter
 333:Generated_Source\PSoC4/CapSense_INT.c ****     *    6. Reset the BUSY flag
 334:Generated_Source\PSoC4/CapSense_INT.c ****     *    7. Enable the CSD interrupt.
 335:Generated_Source\PSoC4/CapSense_INT.c ****     *
 336:Generated_Source\PSoC4/CapSense_INT.c ****     *  The ISR handler initializes scanning for the previous sensor when the
 337:Generated_Source\PSoC4/CapSense_INT.c ****     *  widget has more than one sensor.
 338:Generated_Source\PSoC4/CapSense_INT.c ****     *  The ISR handler initializes scanning for the next widget when the
 339:Generated_Source\PSoC4/CapSense_INT.c ****     *  CapSense_ScanAllWidgets() APIs are called and the project has 
 340:Generated_Source\PSoC4/CapSense_INT.c ****     *  more than one widget.
 341:Generated_Source\PSoC4/CapSense_INT.c ****     *  The ISR handler changes the IMO and initializes scanning for the next 
 342:Generated_Source\PSoC4/CapSense_INT.c ****     *  frequency channels when multi-frequency scanning is enabled.
 343:Generated_Source\PSoC4/CapSense_INT.c ****     *
 344:Generated_Source\PSoC4/CapSense_INT.c ****     *  This function has two Macro Callbacks that allow calling the user 
 345:Generated_Source\PSoC4/CapSense_INT.c ****     *  code from macros specified in a component's generated code. Refer to the 
 346:Generated_Source\PSoC4/CapSense_INT.c ****     *  \ref group_capsense_macrocallbacks section of PSoC Creator User Guide 
 347:Generated_Source\PSoC4/CapSense_INT.c ****     *  for details.
 348:Generated_Source\PSoC4/CapSense_INT.c ****     *
 349:Generated_Source\PSoC4/CapSense_INT.c ****     *******************************************************************************/
 350:Generated_Source\PSoC4/CapSense_INT.c ****     CY_ISR(CapSense_CSDPostMultiScanGanged)
 351:Generated_Source\PSoC4/CapSense_INT.c ****     {
 352:Generated_Source\PSoC4/CapSense_INT.c ****         #ifdef CapSense_ENTRY_CALLBACK
 353:Generated_Source\PSoC4/CapSense_INT.c ****             CapSense_EntryCallback();
 354:Generated_Source\PSoC4/CapSense_INT.c ****         #endif /* CapSense_ENTRY_CALLBACK */
 355:Generated_Source\PSoC4/CapSense_INT.c **** 
 356:Generated_Source\PSoC4/CapSense_INT.c ****         /* Clear pending interrupt */
 357:Generated_Source\PSoC4/CapSense_INT.c ****         CY_SET_REG32(CapSense_INTR_PTR, CapSense_INTR_SET_MASK);
 358:Generated_Source\PSoC4/CapSense_INT.c **** 
 359:Generated_Source\PSoC4/CapSense_INT.c ****         #if (CapSense_ENABLE == CapSense_CSD_NOISE_METRIC_EN)
 360:Generated_Source\PSoC4/CapSense_INT.c ****             if ((CapSense_CSD_NOISE_METRIC_TH < ((CY_GET_REG32(CapSense_RESULT_VAL1_PTR) &
 361:Generated_Source\PSoC4/CapSense_INT.c ****                                                       CapSense_RESULT_VAL1_BAD_CONVS_MASK) >>
 362:Generated_Source\PSoC4/CapSense_INT.c ****                                                       CapSense_RESULT_VAL1_BAD_CONVS_SHIFT)) &&
 363:Generated_Source\PSoC4/CapSense_INT.c ****                                                       (0u < CapSense_badConversionsNum))
 364:Generated_Source\PSoC4/CapSense_INT.c ****             {
 365:Generated_Source\PSoC4/CapSense_INT.c ****                 /* Decrement bad conversions number */
 366:Generated_Source\PSoC4/CapSense_INT.c ****                 CapSense_badConversionsNum--;
 367:Generated_Source\PSoC4/CapSense_INT.c **** 
 368:Generated_Source\PSoC4/CapSense_INT.c ****                 /* Start the re-scan */
 369:Generated_Source\PSoC4/CapSense_INT.c ****                 CY_SET_REG32(CapSense_SEQ_START_PTR, CapSense_SEQ_START_AZ0_SKIP_MASK |
 370:Generated_Source\PSoC4/CapSense_INT.c ****                                                              CapSense_SEQ_START_AZ1_SKIP_MASK |
 371:Generated_Source\PSoC4/CapSense_INT.c ****                                                              CapSense_SEQ_START_START_MASK);
 372:Generated_Source\PSoC4/CapSense_INT.c ****             }
 373:Generated_Source\PSoC4/CapSense_INT.c ****             else
 374:Generated_Source\PSoC4/CapSense_INT.c ****             {
ARM GAS  C:\Users\Sarah\AppData\Local\Temp\ccRreSQJ.s 			page 8


 375:Generated_Source\PSoC4/CapSense_INT.c ****         #endif /* (CapSense_ENABLE == CapSense_CSD_NOISE_METRIC_EN) */
 376:Generated_Source\PSoC4/CapSense_INT.c **** 
 377:Generated_Source\PSoC4/CapSense_INT.c ****             CapSense_SsCSDPostScan();
 378:Generated_Source\PSoC4/CapSense_INT.c **** 
 379:Generated_Source\PSoC4/CapSense_INT.c ****             #if (CapSense_ENABLE == CapSense_MULTI_FREQ_SCAN_EN)
 380:Generated_Source\PSoC4/CapSense_INT.c ****                 if (CapSense_FREQ_CHANNEL_2 == CapSense_scanFreqIndex)
 381:Generated_Source\PSoC4/CapSense_INT.c ****                 {
 382:Generated_Source\PSoC4/CapSense_INT.c ****                     CapSense_SsCSDDisconnectSnsExt((uint32)CapSense_widgetIndex, (uint32)CapSense_s
 383:Generated_Source\PSoC4/CapSense_INT.c ****                 }
 384:Generated_Source\PSoC4/CapSense_INT.c ****             #else
 385:Generated_Source\PSoC4/CapSense_INT.c ****                 CapSense_SsCSDDisconnectSnsExt((uint32)CapSense_widgetIndex, (uint32)CapSense_senso
 386:Generated_Source\PSoC4/CapSense_INT.c ****             #endif /* (CapSense_ENABLE == CapSense_MULTI_FREQ_SCAN_EN) */
 387:Generated_Source\PSoC4/CapSense_INT.c **** 
 388:Generated_Source\PSoC4/CapSense_INT.c ****             #if (CapSense_ENABLE == CapSense_MULTI_FREQ_SCAN_EN)
 389:Generated_Source\PSoC4/CapSense_INT.c ****                 if (CapSense_FREQ_CHANNEL_2 > CapSense_scanFreqIndex)
 390:Generated_Source\PSoC4/CapSense_INT.c ****                 {
 391:Generated_Source\PSoC4/CapSense_INT.c ****                      /* Scan the next channel */
 392:Generated_Source\PSoC4/CapSense_INT.c ****                     CapSense_SsNextFrequencyScan();
 393:Generated_Source\PSoC4/CapSense_INT.c ****                 }
 394:Generated_Source\PSoC4/CapSense_INT.c ****                 else
 395:Generated_Source\PSoC4/CapSense_INT.c ****                 {
 396:Generated_Source\PSoC4/CapSense_INT.c ****                     /* All channels are scanned. Set IMO to zero channel */
 397:Generated_Source\PSoC4/CapSense_INT.c ****                     CapSense_scanFreqIndex = CapSense_FREQ_CHANNEL_0;
 398:Generated_Source\PSoC4/CapSense_INT.c ****                     CapSense_SsChangeImoFreq(CapSense_FREQ_CHANNEL_0);
 399:Generated_Source\PSoC4/CapSense_INT.c **** 
 400:Generated_Source\PSoC4/CapSense_INT.c ****                      /* Scan the next sensor */
 401:Generated_Source\PSoC4/CapSense_INT.c ****                     CapSense_SsCSDInitNextScan();
 402:Generated_Source\PSoC4/CapSense_INT.c ****                 }
 403:Generated_Source\PSoC4/CapSense_INT.c ****             #else
 404:Generated_Source\PSoC4/CapSense_INT.c ****                  /* Scan the next sensor */
 405:Generated_Source\PSoC4/CapSense_INT.c ****                 CapSense_SsCSDInitNextScan();
 406:Generated_Source\PSoC4/CapSense_INT.c ****             #endif /* (CapSense_ENABLE == CapSense_MULTI_FREQ_SCAN_EN) */
 407:Generated_Source\PSoC4/CapSense_INT.c ****         #if (CapSense_ENABLE == CapSense_CSD_NOISE_METRIC_EN)
 408:Generated_Source\PSoC4/CapSense_INT.c ****             }
 409:Generated_Source\PSoC4/CapSense_INT.c ****         #endif /* (CapSense_ENABLE == CapSense_CSD_NOISE_METRIC_EN) */
 410:Generated_Source\PSoC4/CapSense_INT.c **** 
 411:Generated_Source\PSoC4/CapSense_INT.c ****         #ifdef CapSense_EXIT_CALLBACK
 412:Generated_Source\PSoC4/CapSense_INT.c ****             CapSense_ExitCallback();
 413:Generated_Source\PSoC4/CapSense_INT.c ****         #endif /* CapSense_EXIT_CALLBACK */
 414:Generated_Source\PSoC4/CapSense_INT.c ****     }
 415:Generated_Source\PSoC4/CapSense_INT.c ****     #endif /* (CapSense_ENABLE == CapSense_CSD_GANGED_SNS_EN) */
 416:Generated_Source\PSoC4/CapSense_INT.c **** 
 417:Generated_Source\PSoC4/CapSense_INT.c **** #else
 418:Generated_Source\PSoC4/CapSense_INT.c ****     /* CSDv1 part */
 419:Generated_Source\PSoC4/CapSense_INT.c **** 
 420:Generated_Source\PSoC4/CapSense_INT.c ****     /*******************************************************************************
 421:Generated_Source\PSoC4/CapSense_INT.c ****     * Function Name: CapSense_CSDPostSingleScan
 422:Generated_Source\PSoC4/CapSense_INT.c ****     ****************************************************************************//**
 423:Generated_Source\PSoC4/CapSense_INT.c ****     *
 424:Generated_Source\PSoC4/CapSense_INT.c ****     * \brief
 425:Generated_Source\PSoC4/CapSense_INT.c ****     *  This is an internal ISR function for single-sensor scanning implementation.
 426:Generated_Source\PSoC4/CapSense_INT.c ****     *
 427:Generated_Source\PSoC4/CapSense_INT.c ****     * \details
 428:Generated_Source\PSoC4/CapSense_INT.c ****     *  This ISR handler is triggered when the user calls the
 429:Generated_Source\PSoC4/CapSense_INT.c ****     *  CapSense_CSDScanExt() function.
 430:Generated_Source\PSoC4/CapSense_INT.c ****     *
 431:Generated_Source\PSoC4/CapSense_INT.c ****     *  The following tasks are performed for CSDv1 HW IP block:
ARM GAS  C:\Users\Sarah\AppData\Local\Temp\ccRreSQJ.s 			page 9


 432:Generated_Source\PSoC4/CapSense_INT.c ****     *    1. Disable the CSD interrupt
 433:Generated_Source\PSoC4/CapSense_INT.c ****     *    2. Read the Counter register and update the data structure with raw data
 434:Generated_Source\PSoC4/CapSense_INT.c ****     *    3. Connect the Vref buffer to the AMUX bus
 435:Generated_Source\PSoC4/CapSense_INT.c ****     *    4. Update the Scan Counter
 436:Generated_Source\PSoC4/CapSense_INT.c ****     *    5. Reset the BUSY flag
 437:Generated_Source\PSoC4/CapSense_INT.c ****     *    6. Enable the CSD interrupt.
 438:Generated_Source\PSoC4/CapSense_INT.c ****     *
 439:Generated_Source\PSoC4/CapSense_INT.c ****     *  The following tasks are performed for CSDv2 HW IP block:
 440:Generated_Source\PSoC4/CapSense_INT.c ****     *    1. Check if the raw data is not noisy
 441:Generated_Source\PSoC4/CapSense_INT.c ****     *    2. Read the Counter register and update the data structure with raw data
 442:Generated_Source\PSoC4/CapSense_INT.c ****     *    3. Configure and start the scan for the next frequency if the
 443:Generated_Source\PSoC4/CapSense_INT.c ****     *      multi-frequency is enabled
 444:Generated_Source\PSoC4/CapSense_INT.c ****     *    4. Update the Scan Counter
 445:Generated_Source\PSoC4/CapSense_INT.c ****     *    5. Reset the BUSY flag
 446:Generated_Source\PSoC4/CapSense_INT.c ****     *    6. Enable the CSD interrupt.
 447:Generated_Source\PSoC4/CapSense_INT.c ****     *
 448:Generated_Source\PSoC4/CapSense_INT.c ****     *  The ISR handler changes IMO and initializes scanning for the next frequency
 449:Generated_Source\PSoC4/CapSense_INT.c ****     *  channels when multi-frequency scanning is enabled.
 450:Generated_Source\PSoC4/CapSense_INT.c ****     *
 451:Generated_Source\PSoC4/CapSense_INT.c **** 	*  This function has two Macro Callbacks that allow calling the user code
 452:Generated_Source\PSoC4/CapSense_INT.c ****     *  from macros specified in a component's generated code. Refer to the 
 453:Generated_Source\PSoC4/CapSense_INT.c ****     *  \ref group_capsense_macrocallbacks section of PSoC Creator User Guide 
 454:Generated_Source\PSoC4/CapSense_INT.c ****     *  for details. 
 455:Generated_Source\PSoC4/CapSense_INT.c ****     *
 456:Generated_Source\PSoC4/CapSense_INT.c ****     *******************************************************************************/
 457:Generated_Source\PSoC4/CapSense_INT.c ****     CY_ISR(CapSense_CSDPostSingleScan)
 458:Generated_Source\PSoC4/CapSense_INT.c ****     {
  26              		.loc 1 458 0
  27              		.cfi_startproc
 459:Generated_Source\PSoC4/CapSense_INT.c ****         #ifdef CapSense_ENTRY_CALLBACK
 460:Generated_Source\PSoC4/CapSense_INT.c ****             CapSense_EntryCallback();
 461:Generated_Source\PSoC4/CapSense_INT.c ****         #endif /* CapSense_ENTRY_CALLBACK */
 462:Generated_Source\PSoC4/CapSense_INT.c **** 
 463:Generated_Source\PSoC4/CapSense_INT.c ****         /* Clear pending interrupt */
 464:Generated_Source\PSoC4/CapSense_INT.c ****         CY_SET_REG32(CapSense_INTR_PTR, CapSense_INTR_SET_MASK);
  28              		.loc 1 464 0
  29 0000 0122     		mov	r2, #1
  30 0002 0C4B     		ldr	r3, .L2
  31 0004 1A60     		str	r2, [r3]
  32              	.LBB6:
  33              	.LBB7:
 465:Generated_Source\PSoC4/CapSense_INT.c **** 
 466:Generated_Source\PSoC4/CapSense_INT.c ****         /* Read Rawdata */
 467:Generated_Source\PSoC4/CapSense_INT.c ****         CapSense_SsCSDPostScan();
 468:Generated_Source\PSoC4/CapSense_INT.c **** 
 469:Generated_Source\PSoC4/CapSense_INT.c ****         #if (CapSense_ENABLE == CapSense_MULTI_FREQ_SCAN_EN)
 470:Generated_Source\PSoC4/CapSense_INT.c ****             if (CapSense_FREQ_CHANNEL_2 > CapSense_scanFreqIndex)
 471:Generated_Source\PSoC4/CapSense_INT.c ****             {
 472:Generated_Source\PSoC4/CapSense_INT.c ****                 /*  Connect Vref Buffer to AMUX bus. CSDv1 block is enabled */
 473:Generated_Source\PSoC4/CapSense_INT.c ****                 CY_SET_REG32(CapSense_CONFIG_PTR, CapSense_configCsd | CapSense_CTANK_PRECHARGE_CON
 474:Generated_Source\PSoC4/CapSense_INT.c **** 
 475:Generated_Source\PSoC4/CapSense_INT.c ****                 CapSense_SsNextFrequencyScan();
 476:Generated_Source\PSoC4/CapSense_INT.c ****             }
 477:Generated_Source\PSoC4/CapSense_INT.c ****             else
 478:Generated_Source\PSoC4/CapSense_INT.c ****             {
 479:Generated_Source\PSoC4/CapSense_INT.c ****                 CapSense_scanFreqIndex = CapSense_FREQ_CHANNEL_0;
 480:Generated_Source\PSoC4/CapSense_INT.c ****                 CapSense_SsChangeImoFreq(CapSense_FREQ_CHANNEL_0);
ARM GAS  C:\Users\Sarah\AppData\Local\Temp\ccRreSQJ.s 			page 10


 481:Generated_Source\PSoC4/CapSense_INT.c **** 
 482:Generated_Source\PSoC4/CapSense_INT.c ****                 #if (CapSense_ENABLE == CapSense_BLOCK_OFF_AFTER_SCAN_EN)
 483:Generated_Source\PSoC4/CapSense_INT.c ****                     /*  Disable CSDv1 block. Connect Vref Buffer to AMUX bus */
 484:Generated_Source\PSoC4/CapSense_INT.c ****                     #if ((CapSense_CSH_PRECHARGE_IO_BUF == CapSense_CSD_CSH_PRECHARGE_SRC) &&\
 485:Generated_Source\PSoC4/CapSense_INT.c ****                          (CapSense_ENABLE == CapSense_CSD_SHIELD_TANK_EN))
 486:Generated_Source\PSoC4/CapSense_INT.c ****                         CY_SET_REG32(CapSense_CONFIG_PTR, CapSense_configCsd | CapSense_CMOD_PRECHA
 487:Generated_Source\PSoC4/CapSense_INT.c ****                     #else
 488:Generated_Source\PSoC4/CapSense_INT.c ****                         CY_SET_REG32(CapSense_CONFIG_PTR, CapSense_configCsd | CapSense_CTANK_PRECH
 489:Generated_Source\PSoC4/CapSense_INT.c ****                     #endif /* ((CapSense_CSH_PRECHARGE_IO_BUF == CapSense_CSD_CSH_PRECHARGE_SRC) &&
 490:Generated_Source\PSoC4/CapSense_INT.c ****                                (CapSense_ENABLE == CapSense_CSD_SHIELD_TANK_EN)) */
 491:Generated_Source\PSoC4/CapSense_INT.c ****                 #else
 492:Generated_Source\PSoC4/CapSense_INT.c ****                     /*  Connect Vref Buffer to AMUX bus. CSDv1 block is enabled */
 493:Generated_Source\PSoC4/CapSense_INT.c ****                     CY_SET_REG32(CapSense_CONFIG_PTR, CapSense_configCsd | CapSense_CTANK_PRECHARGE
 494:Generated_Source\PSoC4/CapSense_INT.c ****                 #endif /* (CapSense_ENABLE == CapSense_BLOCK_OFF_AFTER_SCAN_EN) */
 495:Generated_Source\PSoC4/CapSense_INT.c **** 
 496:Generated_Source\PSoC4/CapSense_INT.c ****                 /* Update Scan Counter */
 497:Generated_Source\PSoC4/CapSense_INT.c ****                 CapSense_dsRam.scanCounter++;
 498:Generated_Source\PSoC4/CapSense_INT.c **** 
 499:Generated_Source\PSoC4/CapSense_INT.c ****                 /* Sensor is totally scanned. Reset BUSY flag */
 500:Generated_Source\PSoC4/CapSense_INT.c ****                 CapSense_dsRam.status &= ~(CapSense_SW_STS_BUSY | CapSense_WDGT_SW_STS_BUSY);
 501:Generated_Source\PSoC4/CapSense_INT.c ****             }
 502:Generated_Source\PSoC4/CapSense_INT.c ****         #else
 503:Generated_Source\PSoC4/CapSense_INT.c ****             {
 504:Generated_Source\PSoC4/CapSense_INT.c ****                 #if (CapSense_ENABLE == CapSense_BLOCK_OFF_AFTER_SCAN_EN)
 505:Generated_Source\PSoC4/CapSense_INT.c ****                     /*  Disable CSDv1 block. Connect Vref Buffer to AMUX bus */
 506:Generated_Source\PSoC4/CapSense_INT.c ****                     #if ((CapSense_CSH_PRECHARGE_IO_BUF == CapSense_CSD_CSH_PRECHARGE_SRC) &&\
 507:Generated_Source\PSoC4/CapSense_INT.c ****                          (CapSense_ENABLE == CapSense_CSD_SHIELD_TANK_EN))
 508:Generated_Source\PSoC4/CapSense_INT.c ****                         CY_SET_REG32(CapSense_CONFIG_PTR, CapSense_configCsd | CapSense_CMOD_PRECHA
 509:Generated_Source\PSoC4/CapSense_INT.c ****                     #else
 510:Generated_Source\PSoC4/CapSense_INT.c ****                         CY_SET_REG32(CapSense_CONFIG_PTR, CapSense_configCsd | CapSense_CTANK_PRECH
 511:Generated_Source\PSoC4/CapSense_INT.c ****                     #endif /* ((CapSense_CSH_PRECHARGE_IO_BUF == CapSense_CSD_CSH_PRECHARGE_SRC) &&
 512:Generated_Source\PSoC4/CapSense_INT.c ****                                (CapSense_ENABLE == CapSense_CSD_SHIELD_TANK_EN)) */
 513:Generated_Source\PSoC4/CapSense_INT.c ****                 #else
 514:Generated_Source\PSoC4/CapSense_INT.c ****                     /*  Connect Vref Buffer to AMUX bus. CSDv1 block is enabled */
 515:Generated_Source\PSoC4/CapSense_INT.c ****                     CY_SET_REG32(CapSense_CONFIG_PTR, CapSense_configCsd | CapSense_CTANK_PRECHARGE
 516:Generated_Source\PSoC4/CapSense_INT.c ****                 #endif /* (CapSense_ENABLE == CapSense_BLOCK_OFF_AFTER_SCAN_EN) */
 517:Generated_Source\PSoC4/CapSense_INT.c **** 
 518:Generated_Source\PSoC4/CapSense_INT.c ****                 /* Update Scan Counter */
 519:Generated_Source\PSoC4/CapSense_INT.c ****                 CapSense_dsRam.scanCounter++;
 520:Generated_Source\PSoC4/CapSense_INT.c **** 
 521:Generated_Source\PSoC4/CapSense_INT.c ****                 /* Sensor is totally scanned. Reset BUSY flag */
 522:Generated_Source\PSoC4/CapSense_INT.c ****                 CapSense_dsRam.status &= ~(CapSense_SW_STS_BUSY | CapSense_WDGT_SW_STS_BUSY);
 523:Generated_Source\PSoC4/CapSense_INT.c ****             }
 524:Generated_Source\PSoC4/CapSense_INT.c ****         #endif /* (CapSense_ENABLE == CapSense_MULTI_FREQ_SCAN_EN) */
 525:Generated_Source\PSoC4/CapSense_INT.c **** 
 526:Generated_Source\PSoC4/CapSense_INT.c ****         #ifdef CapSense_EXIT_CALLBACK
 527:Generated_Source\PSoC4/CapSense_INT.c ****             CapSense_ExitCallback();
 528:Generated_Source\PSoC4/CapSense_INT.c ****         #endif /* CapSense_EXIT_CALLBACK */
 529:Generated_Source\PSoC4/CapSense_INT.c ****     }
 530:Generated_Source\PSoC4/CapSense_INT.c **** 
 531:Generated_Source\PSoC4/CapSense_INT.c **** 
 532:Generated_Source\PSoC4/CapSense_INT.c ****     /*******************************************************************************
 533:Generated_Source\PSoC4/CapSense_INT.c ****     * Function Name: CapSense_CSDPostMultiScan
 534:Generated_Source\PSoC4/CapSense_INT.c ****     ****************************************************************************//**
 535:Generated_Source\PSoC4/CapSense_INT.c ****     *
 536:Generated_Source\PSoC4/CapSense_INT.c ****     * \brief
 537:Generated_Source\PSoC4/CapSense_INT.c ****     *  This is an internal ISR function for multiple-sensor scanning 
ARM GAS  C:\Users\Sarah\AppData\Local\Temp\ccRreSQJ.s 			page 11


 538:Generated_Source\PSoC4/CapSense_INT.c ****     *  implementation.
 539:Generated_Source\PSoC4/CapSense_INT.c ****     *
 540:Generated_Source\PSoC4/CapSense_INT.c ****     * \details
 541:Generated_Source\PSoC4/CapSense_INT.c ****     *  This ISR handler is triggered when the user calls the
 542:Generated_Source\PSoC4/CapSense_INT.c ****     *  CapSense_Scan() or CapSense_ScanAllWidgets() APIs.
 543:Generated_Source\PSoC4/CapSense_INT.c ****     *  
 544:Generated_Source\PSoC4/CapSense_INT.c ****     *  The following tasks are performed:
 545:Generated_Source\PSoC4/CapSense_INT.c ****     *    1. Disable the CSD interrupt
 546:Generated_Source\PSoC4/CapSense_INT.c ****     *    2. Read the Counter register and update the data structure with raw data
 547:Generated_Source\PSoC4/CapSense_INT.c ****     *    3. Connect the Vref buffer to the AMUX bus
 548:Generated_Source\PSoC4/CapSense_INT.c ****     *    4. Disable the CSD block (after the widget has been scanned)
 549:Generated_Source\PSoC4/CapSense_INT.c ****     *    5. Update Scan Counter
 550:Generated_Source\PSoC4/CapSense_INT.c ****     *    6. Reset the BUSY flag
 551:Generated_Source\PSoC4/CapSense_INT.c ****     *    7. Enable the CSD interrupt.
 552:Generated_Source\PSoC4/CapSense_INT.c ****     *
 553:Generated_Source\PSoC4/CapSense_INT.c ****     *  The ISR handler initializes scanning for the previous sensor when the 
 554:Generated_Source\PSoC4/CapSense_INT.c ****     *  widget has more than one sensor.
 555:Generated_Source\PSoC4/CapSense_INT.c ****     *  The ISR handler initializes scanning for the next widget when the
 556:Generated_Source\PSoC4/CapSense_INT.c ****     *  CapSense_ScanAllWidgets() APIs are called and the project has
 557:Generated_Source\PSoC4/CapSense_INT.c ****     *  more than one widget.
 558:Generated_Source\PSoC4/CapSense_INT.c ****     *  The ISR handler changes the IMO and initializes scanning for the next
 559:Generated_Source\PSoC4/CapSense_INT.c ****     *  frequency channels when multi-frequency scanning is enabled.
 560:Generated_Source\PSoC4/CapSense_INT.c ****     *
 561:Generated_Source\PSoC4/CapSense_INT.c ****     *  This function has two Macro Callbacks that allow calling the user 
 562:Generated_Source\PSoC4/CapSense_INT.c ****     *  code from macros specified in a component's generated code. Refer to the 
 563:Generated_Source\PSoC4/CapSense_INT.c ****     *  \ref group_capsense_macrocallbacks section of PSoC Creator User Guide 
 564:Generated_Source\PSoC4/CapSense_INT.c ****     *  for details.
 565:Generated_Source\PSoC4/CapSense_INT.c ****     *
 566:Generated_Source\PSoC4/CapSense_INT.c ****     *******************************************************************************/
 567:Generated_Source\PSoC4/CapSense_INT.c ****     CY_ISR(CapSense_CSDPostMultiScan)
 568:Generated_Source\PSoC4/CapSense_INT.c ****     {
 569:Generated_Source\PSoC4/CapSense_INT.c ****         /*  Declare and initialise ptr to sensor IO structure to appropriate address        */
 570:Generated_Source\PSoC4/CapSense_INT.c ****         CapSense_FLASH_IO_STRUCT const *curSnsIOPtr = (CapSense_FLASH_IO_STRUCT const *)
 571:Generated_Source\PSoC4/CapSense_INT.c ****                                                           CapSense_dsFlash.wdgtArray[CapSense_widge
 572:Generated_Source\PSoC4/CapSense_INT.c ****                                                           + CapSense_sensorIndex;
 573:Generated_Source\PSoC4/CapSense_INT.c **** 
 574:Generated_Source\PSoC4/CapSense_INT.c ****         #ifdef CapSense_ENTRY_CALLBACK
 575:Generated_Source\PSoC4/CapSense_INT.c ****             CapSense_EntryCallback();
 576:Generated_Source\PSoC4/CapSense_INT.c ****         #endif /* CapSense_ENTRY_CALLBACK */
 577:Generated_Source\PSoC4/CapSense_INT.c **** 
 578:Generated_Source\PSoC4/CapSense_INT.c ****         /* Clear pending interrupt */
 579:Generated_Source\PSoC4/CapSense_INT.c ****         CY_SET_REG32(CapSense_INTR_PTR, CapSense_INTR_SET_MASK);
 580:Generated_Source\PSoC4/CapSense_INT.c **** 
 581:Generated_Source\PSoC4/CapSense_INT.c ****          /* Read Rawdata */
 582:Generated_Source\PSoC4/CapSense_INT.c ****         CapSense_SsCSDPostScan();
 583:Generated_Source\PSoC4/CapSense_INT.c **** 
 584:Generated_Source\PSoC4/CapSense_INT.c ****         /*  Connect Vref Buffer to AMUX bus */
 585:Generated_Source\PSoC4/CapSense_INT.c ****         CY_SET_REG32(CapSense_CONFIG_PTR, CapSense_configCsd | CapSense_CTANK_PRECHARGE_CONFIG_CSD_
 586:Generated_Source\PSoC4/CapSense_INT.c **** 
 587:Generated_Source\PSoC4/CapSense_INT.c ****         #if (CapSense_ENABLE == CapSense_MULTI_FREQ_SCAN_EN)
 588:Generated_Source\PSoC4/CapSense_INT.c ****             /* Disable sensor when all frequency channels are scanned */
 589:Generated_Source\PSoC4/CapSense_INT.c ****             if (CapSense_FREQ_CHANNEL_2 == CapSense_scanFreqIndex)
 590:Generated_Source\PSoC4/CapSense_INT.c ****             {
 591:Generated_Source\PSoC4/CapSense_INT.c ****                 /* Disable sensor */
 592:Generated_Source\PSoC4/CapSense_INT.c ****                 CapSense_CSDDisconnectSns(curSnsIOPtr);
 593:Generated_Source\PSoC4/CapSense_INT.c ****             }
 594:Generated_Source\PSoC4/CapSense_INT.c ****         #else
ARM GAS  C:\Users\Sarah\AppData\Local\Temp\ccRreSQJ.s 			page 12


 595:Generated_Source\PSoC4/CapSense_INT.c ****             /* Disable sensor */
 596:Generated_Source\PSoC4/CapSense_INT.c ****             CapSense_CSDDisconnectSns(curSnsIOPtr);
 597:Generated_Source\PSoC4/CapSense_INT.c ****         #endif /* (CapSense_ENABLE == CapSense_MULTI_FREQ_SCAN_EN) */
 598:Generated_Source\PSoC4/CapSense_INT.c **** 
 599:Generated_Source\PSoC4/CapSense_INT.c ****         #if (CapSense_ENABLE == CapSense_MULTI_FREQ_SCAN_EN)
 600:Generated_Source\PSoC4/CapSense_INT.c ****             if (CapSense_FREQ_CHANNEL_2 > CapSense_scanFreqIndex)
 601:Generated_Source\PSoC4/CapSense_INT.c ****             {
 602:Generated_Source\PSoC4/CapSense_INT.c ****                  /* Scan the next channel */
 603:Generated_Source\PSoC4/CapSense_INT.c ****                 CapSense_SsNextFrequencyScan();
 604:Generated_Source\PSoC4/CapSense_INT.c ****             }
 605:Generated_Source\PSoC4/CapSense_INT.c ****             else
 606:Generated_Source\PSoC4/CapSense_INT.c ****             {
 607:Generated_Source\PSoC4/CapSense_INT.c ****                  /* All channels are scanned. Set IMO to zero channel */
 608:Generated_Source\PSoC4/CapSense_INT.c ****                 CapSense_scanFreqIndex = CapSense_FREQ_CHANNEL_0;
 609:Generated_Source\PSoC4/CapSense_INT.c ****                 CapSense_SsChangeImoFreq(CapSense_FREQ_CHANNEL_0);
 610:Generated_Source\PSoC4/CapSense_INT.c **** 
 611:Generated_Source\PSoC4/CapSense_INT.c ****                  /* Scan the next sensor */
 612:Generated_Source\PSoC4/CapSense_INT.c ****                 CapSense_SsCSDInitNextScan();
 613:Generated_Source\PSoC4/CapSense_INT.c ****             }
 614:Generated_Source\PSoC4/CapSense_INT.c ****         #else
 615:Generated_Source\PSoC4/CapSense_INT.c ****             /* Scan the next sensor */
 616:Generated_Source\PSoC4/CapSense_INT.c ****             CapSense_SsCSDInitNextScan();
 617:Generated_Source\PSoC4/CapSense_INT.c ****         #endif /* (CapSense_ENABLE == CapSense_MULTI_FREQ_SCAN_EN) */
 618:Generated_Source\PSoC4/CapSense_INT.c **** 
 619:Generated_Source\PSoC4/CapSense_INT.c ****         #ifdef CapSense_EXIT_CALLBACK
 620:Generated_Source\PSoC4/CapSense_INT.c ****             CapSense_ExitCallback();
 621:Generated_Source\PSoC4/CapSense_INT.c ****         #endif /* CapSense_EXIT_CALLBACK */
 622:Generated_Source\PSoC4/CapSense_INT.c ****     }
 623:Generated_Source\PSoC4/CapSense_INT.c **** 
 624:Generated_Source\PSoC4/CapSense_INT.c **** 
 625:Generated_Source\PSoC4/CapSense_INT.c ****     #if (CapSense_ENABLE == CapSense_CSD_GANGED_SNS_EN)
 626:Generated_Source\PSoC4/CapSense_INT.c ****     /*******************************************************************************
 627:Generated_Source\PSoC4/CapSense_INT.c ****     * Function Name: CapSense_CSDPostMultiScanGanged
 628:Generated_Source\PSoC4/CapSense_INT.c ****     ****************************************************************************//**
 629:Generated_Source\PSoC4/CapSense_INT.c ****     *
 630:Generated_Source\PSoC4/CapSense_INT.c ****     * \brief
 631:Generated_Source\PSoC4/CapSense_INT.c ****     *  This is an internal ISR function for multiple-sensor scanning 
 632:Generated_Source\PSoC4/CapSense_INT.c ****     *  implementation for ganged sensors.
 633:Generated_Source\PSoC4/CapSense_INT.c ****     *
 634:Generated_Source\PSoC4/CapSense_INT.c ****     * \details
 635:Generated_Source\PSoC4/CapSense_INT.c ****     *  This ISR handler is triggered when the user calls the
 636:Generated_Source\PSoC4/CapSense_INT.c ****     *  CapSense_Scan() API for a ganged sensor or the
 637:Generated_Source\PSoC4/CapSense_INT.c ****     *  CapSense_ScanAllWidgets() API in the project with ganged sensors.
 638:Generated_Source\PSoC4/CapSense_INT.c ****     *
 639:Generated_Source\PSoC4/CapSense_INT.c ****     *  The following tasks are performed:
 640:Generated_Source\PSoC4/CapSense_INT.c ****     *    1. Disable the CSD interrupt
 641:Generated_Source\PSoC4/CapSense_INT.c ****     *    2. Read the Counter register and update the data structure with raw data
 642:Generated_Source\PSoC4/CapSense_INT.c ****     *    3. Connect the Vref buffer to the AMUX bus
 643:Generated_Source\PSoC4/CapSense_INT.c ****     *    4. Disable the CSD block (after the widget has been scanned)
 644:Generated_Source\PSoC4/CapSense_INT.c ****     *    5. Update Scan Counter
 645:Generated_Source\PSoC4/CapSense_INT.c ****     *    6. Reset the BUSY flag
 646:Generated_Source\PSoC4/CapSense_INT.c ****     *    7. Enable the CSD interrupt.
 647:Generated_Source\PSoC4/CapSense_INT.c ****     *
 648:Generated_Source\PSoC4/CapSense_INT.c ****     *  The ISR handler initializes scanning for the previous sensor when the
 649:Generated_Source\PSoC4/CapSense_INT.c ****     *  widget has more than one sensor.
 650:Generated_Source\PSoC4/CapSense_INT.c ****     *  The ISR handler initializes scanning for the next widget when the
 651:Generated_Source\PSoC4/CapSense_INT.c ****     *  CapSense_ScanAllWidgets() APIs are called and the project has 
ARM GAS  C:\Users\Sarah\AppData\Local\Temp\ccRreSQJ.s 			page 13


 652:Generated_Source\PSoC4/CapSense_INT.c ****     *  more than one widget.
 653:Generated_Source\PSoC4/CapSense_INT.c ****     *  The ISR handler changes the IMO and initializes scanning for the next 
 654:Generated_Source\PSoC4/CapSense_INT.c ****     *  frequency channels when multi-frequency scanning is enabled.
 655:Generated_Source\PSoC4/CapSense_INT.c ****     *
 656:Generated_Source\PSoC4/CapSense_INT.c ****     *  This function has two Macro Callbacks that allow calling the user 
 657:Generated_Source\PSoC4/CapSense_INT.c ****     *  code from macros specified in a component's generated code. Refer to the 
 658:Generated_Source\PSoC4/CapSense_INT.c ****     *  \ref group_capsense_macrocallbacks section of PSoC Creator User Guide 
 659:Generated_Source\PSoC4/CapSense_INT.c ****     *  for details.
 660:Generated_Source\PSoC4/CapSense_INT.c ****     *
 661:Generated_Source\PSoC4/CapSense_INT.c ****     *******************************************************************************/
 662:Generated_Source\PSoC4/CapSense_INT.c ****     CY_ISR(CapSense_CSDPostMultiScanGanged)
 663:Generated_Source\PSoC4/CapSense_INT.c ****     {
 664:Generated_Source\PSoC4/CapSense_INT.c ****         #ifdef CapSense_ENTRY_CALLBACK
 665:Generated_Source\PSoC4/CapSense_INT.c ****             CapSense_EntryCallback();
 666:Generated_Source\PSoC4/CapSense_INT.c ****         #endif /* CapSense_ENTRY_CALLBACK */
 667:Generated_Source\PSoC4/CapSense_INT.c **** 
 668:Generated_Source\PSoC4/CapSense_INT.c ****         /* Clear pending interrupt */
 669:Generated_Source\PSoC4/CapSense_INT.c ****         CY_SET_REG32(CapSense_INTR_PTR, CapSense_INTR_SET_MASK);
 670:Generated_Source\PSoC4/CapSense_INT.c **** 
 671:Generated_Source\PSoC4/CapSense_INT.c ****          /* Read Rawdata */
 672:Generated_Source\PSoC4/CapSense_INT.c ****         CapSense_SsCSDPostScan();
 673:Generated_Source\PSoC4/CapSense_INT.c **** 
 674:Generated_Source\PSoC4/CapSense_INT.c ****         /*  Connect Vref Buffer to AMUX bus */
 675:Generated_Source\PSoC4/CapSense_INT.c ****         CY_SET_REG32(CapSense_CONFIG_PTR, CapSense_configCsd | CapSense_CTANK_PRECHARGE_CONFIG_CSD_
 676:Generated_Source\PSoC4/CapSense_INT.c **** 
 677:Generated_Source\PSoC4/CapSense_INT.c ****         #if (CapSense_ENABLE == CapSense_MULTI_FREQ_SCAN_EN)
 678:Generated_Source\PSoC4/CapSense_INT.c ****             if (CapSense_FREQ_CHANNEL_2 == CapSense_scanFreqIndex)
 679:Generated_Source\PSoC4/CapSense_INT.c ****             {
 680:Generated_Source\PSoC4/CapSense_INT.c ****                 CapSense_SsCSDDisconnectSnsExt((uint32)CapSense_widgetIndex, (uint32)CapSense_senso
 681:Generated_Source\PSoC4/CapSense_INT.c ****             }
 682:Generated_Source\PSoC4/CapSense_INT.c ****         #else
 683:Generated_Source\PSoC4/CapSense_INT.c ****             CapSense_SsCSDDisconnectSnsExt((uint32)CapSense_widgetIndex, (uint32)CapSense_sensorInd
 684:Generated_Source\PSoC4/CapSense_INT.c ****         #endif /* (CapSense_ENABLE == CapSense_MULTI_FREQ_SCAN_EN) */
 685:Generated_Source\PSoC4/CapSense_INT.c **** 
 686:Generated_Source\PSoC4/CapSense_INT.c ****         #if (CapSense_ENABLE == CapSense_MULTI_FREQ_SCAN_EN)
 687:Generated_Source\PSoC4/CapSense_INT.c ****             if (CapSense_FREQ_CHANNEL_2 > CapSense_scanFreqIndex)
 688:Generated_Source\PSoC4/CapSense_INT.c ****             {
 689:Generated_Source\PSoC4/CapSense_INT.c ****                  /* Scan the next channel */
 690:Generated_Source\PSoC4/CapSense_INT.c ****                 CapSense_SsNextFrequencyScan();
 691:Generated_Source\PSoC4/CapSense_INT.c ****             }
 692:Generated_Source\PSoC4/CapSense_INT.c ****             else
 693:Generated_Source\PSoC4/CapSense_INT.c ****             {
 694:Generated_Source\PSoC4/CapSense_INT.c ****                 /* All channels are scanned. Set IMO to zero channel */
 695:Generated_Source\PSoC4/CapSense_INT.c ****                 CapSense_scanFreqIndex = CapSense_FREQ_CHANNEL_0;
 696:Generated_Source\PSoC4/CapSense_INT.c ****                 CapSense_SsChangeImoFreq(CapSense_FREQ_CHANNEL_0);
 697:Generated_Source\PSoC4/CapSense_INT.c **** 
 698:Generated_Source\PSoC4/CapSense_INT.c ****                  /* Scan the next sensor */
 699:Generated_Source\PSoC4/CapSense_INT.c ****                 CapSense_SsCSDInitNextScan();
 700:Generated_Source\PSoC4/CapSense_INT.c ****             }
 701:Generated_Source\PSoC4/CapSense_INT.c ****         #else
 702:Generated_Source\PSoC4/CapSense_INT.c ****              /* Scan the next sensor */
 703:Generated_Source\PSoC4/CapSense_INT.c ****             CapSense_SsCSDInitNextScan();
 704:Generated_Source\PSoC4/CapSense_INT.c ****         #endif /* (CapSense_ENABLE == CapSense_MULTI_FREQ_SCAN_EN) */
 705:Generated_Source\PSoC4/CapSense_INT.c **** 
 706:Generated_Source\PSoC4/CapSense_INT.c ****         #ifdef CapSense_EXIT_CALLBACK
 707:Generated_Source\PSoC4/CapSense_INT.c ****             CapSense_ExitCallback();
 708:Generated_Source\PSoC4/CapSense_INT.c ****         #endif /* CapSense_EXIT_CALLBACK */
ARM GAS  C:\Users\Sarah\AppData\Local\Temp\ccRreSQJ.s 			page 14


 709:Generated_Source\PSoC4/CapSense_INT.c ****     }
 710:Generated_Source\PSoC4/CapSense_INT.c ****     #endif /* (CapSense_ENABLE == CapSense_CSD_GANGED_SNS_EN) */
 711:Generated_Source\PSoC4/CapSense_INT.c **** 
 712:Generated_Source\PSoC4/CapSense_INT.c **** #endif /* (CapSense_ENABLE == CapSense_CSDV2) */
 713:Generated_Source\PSoC4/CapSense_INT.c **** 
 714:Generated_Source\PSoC4/CapSense_INT.c **** #endif /* ((CapSense_ENABLE == CapSense_CSD_EN) || (CapSense_ENABLE == CapSense_CSD_CSX_EN)) */
 715:Generated_Source\PSoC4/CapSense_INT.c **** 
 716:Generated_Source\PSoC4/CapSense_INT.c **** /** \}
 717:Generated_Source\PSoC4/CapSense_INT.c ****  * \endif */
 718:Generated_Source\PSoC4/CapSense_INT.c **** 
 719:Generated_Source\PSoC4/CapSense_INT.c **** 
 720:Generated_Source\PSoC4/CapSense_INT.c **** #if ((CapSense_ENABLE == CapSense_CSD_EN) || (CapSense_ENABLE == CapSense_CSD_CSX_EN))
 721:Generated_Source\PSoC4/CapSense_INT.c **** 
 722:Generated_Source\PSoC4/CapSense_INT.c **** /*******************************************************************************
 723:Generated_Source\PSoC4/CapSense_INT.c **** * Function Name: CapSense_SsCSDPostScan
 724:Generated_Source\PSoC4/CapSense_INT.c **** ****************************************************************************//**
 725:Generated_Source\PSoC4/CapSense_INT.c **** *
 726:Generated_Source\PSoC4/CapSense_INT.c **** * \brief
 727:Generated_Source\PSoC4/CapSense_INT.c **** *   This function reads rawdata and releases required HW resources after scan.
 728:Generated_Source\PSoC4/CapSense_INT.c **** *
 729:Generated_Source\PSoC4/CapSense_INT.c **** * \details
 730:Generated_Source\PSoC4/CapSense_INT.c **** *   This function performs following tasks after scan:
 731:Generated_Source\PSoC4/CapSense_INT.c **** *   - Reads SlotResult from Raw Counter;
 732:Generated_Source\PSoC4/CapSense_INT.c **** *   - Inits bad Conversions number;
 733:Generated_Source\PSoC4/CapSense_INT.c **** *   - Disconnects Vrefhi from AMUBUF positive input;
 734:Generated_Source\PSoC4/CapSense_INT.c **** *   - Disconnects AMUBUF output from CSDBUSB with sych PHI2+HSCMP;
 735:Generated_Source\PSoC4/CapSense_INT.c **** *   - Opens HCBV and HCBG switches.
 736:Generated_Source\PSoC4/CapSense_INT.c **** *
 737:Generated_Source\PSoC4/CapSense_INT.c **** *******************************************************************************/
 738:Generated_Source\PSoC4/CapSense_INT.c **** CY_INLINE static void CapSense_SsCSDPostScan(void)
 739:Generated_Source\PSoC4/CapSense_INT.c **** {
 740:Generated_Source\PSoC4/CapSense_INT.c ****     #if (CapSense_ENABLE == CapSense_CSDV2)
 741:Generated_Source\PSoC4/CapSense_INT.c **** 
 742:Generated_Source\PSoC4/CapSense_INT.c ****         uint32 tmpRawData;
 743:Generated_Source\PSoC4/CapSense_INT.c ****         uint32 tmpMaxCount;
 744:Generated_Source\PSoC4/CapSense_INT.c ****         CapSense_RAM_WD_BASE_STRUCT const *ptrWdgt = (CapSense_RAM_WD_BASE_STRUCT *)
 745:Generated_Source\PSoC4/CapSense_INT.c ****                                             CapSense_dsFlash.wdgtArray[CapSense_widgetIndex].ptr2Wd
 746:Generated_Source\PSoC4/CapSense_INT.c **** 
 747:Generated_Source\PSoC4/CapSense_INT.c ****         /* Read SlotResult from Raw Counter */
 748:Generated_Source\PSoC4/CapSense_INT.c ****         tmpRawData = CapSense_RESULT_VAL1_VALUE_MASK & CY_GET_REG32(CapSense_COUNTER_PTR);
 749:Generated_Source\PSoC4/CapSense_INT.c **** 
 750:Generated_Source\PSoC4/CapSense_INT.c ****         tmpMaxCount = ((1uL << ptrWdgt->resolution) - 1uL);
 751:Generated_Source\PSoC4/CapSense_INT.c ****         if(tmpRawData < tmpMaxCount)
 752:Generated_Source\PSoC4/CapSense_INT.c ****         {
 753:Generated_Source\PSoC4/CapSense_INT.c ****             CapSense_curRamSnsPtr->raw[CapSense_scanFreqIndex] = LO16(tmpRawData);
 754:Generated_Source\PSoC4/CapSense_INT.c ****         }
 755:Generated_Source\PSoC4/CapSense_INT.c ****         else
 756:Generated_Source\PSoC4/CapSense_INT.c ****         {
 757:Generated_Source\PSoC4/CapSense_INT.c ****             CapSense_curRamSnsPtr->raw[CapSense_scanFreqIndex] = LO16(tmpMaxCount);
 758:Generated_Source\PSoC4/CapSense_INT.c ****         }
 759:Generated_Source\PSoC4/CapSense_INT.c **** 
 760:Generated_Source\PSoC4/CapSense_INT.c ****         #if (CapSense_ENABLE == CapSense_CSD_NOISE_METRIC_EN)
 761:Generated_Source\PSoC4/CapSense_INT.c ****             /*  Init bad Conversions number */
 762:Generated_Source\PSoC4/CapSense_INT.c ****             CapSense_badConversionsNum = CapSense_BAD_CONVERSIONS_NUM;
 763:Generated_Source\PSoC4/CapSense_INT.c ****         #endif /* (CapSense_ENABLE == CapSense_CSD_NOISE_METRIC_EN) */
 764:Generated_Source\PSoC4/CapSense_INT.c **** 
 765:Generated_Source\PSoC4/CapSense_INT.c ****         #if ((CapSense_ENABLE == CapSense_CSD_SHIELD_EN) && \
ARM GAS  C:\Users\Sarah\AppData\Local\Temp\ccRreSQJ.s 			page 15


 766:Generated_Source\PSoC4/CapSense_INT.c ****              (CapSense_2000_MV <= CapSense_CYDEV_VDDA_MV))
 767:Generated_Source\PSoC4/CapSense_INT.c ****             /*  Disconnect Vrefhi from AMUBUF positive input. Disconnect AMUBUF output from CSDBUSB
 768:Generated_Source\PSoC4/CapSense_INT.c ****             CY_SET_REG32(CapSense_SW_AMUXBUF_SEL_PTR, CapSense_SW_AMUXBUF_SEL_SW_DEFAULT);
 769:Generated_Source\PSoC4/CapSense_INT.c ****         #endif /* ((CapSense_ENABLE == CapSense_CSD_SHIELD_EN) && \
 770:Generated_Source\PSoC4/CapSense_INT.c ****                    (CapSense_2000_MV <= CapSense_CYDEV_VDDA_MV)) */
 771:Generated_Source\PSoC4/CapSense_INT.c **** 
 772:Generated_Source\PSoC4/CapSense_INT.c ****         #if (CapSense_ENABLE == CapSense_CSD_SHIELD_EN)
 773:Generated_Source\PSoC4/CapSense_INT.c ****             /* Open HCBV and HCBG switches */
 774:Generated_Source\PSoC4/CapSense_INT.c ****             CY_SET_REG32(CapSense_SW_SHIELD_SEL_PTR, CapSense_SW_SHIELD_SEL_SW_HCBV_STATIC_OPEN |
 775:Generated_Source\PSoC4/CapSense_INT.c ****                                                              CapSense_SW_SHIELD_SEL_SW_HCBG_STATIC_
 776:Generated_Source\PSoC4/CapSense_INT.c ****         #endif /* (CapSense_ENABLE == CapSense_CSD_SHIELD_EN) */
 777:Generated_Source\PSoC4/CapSense_INT.c **** 
 778:Generated_Source\PSoC4/CapSense_INT.c ****     #else
 779:Generated_Source\PSoC4/CapSense_INT.c **** 
 780:Generated_Source\PSoC4/CapSense_INT.c ****         /* Read SlotResult from Raw Counter */
 781:Generated_Source\PSoC4/CapSense_INT.c ****        CapSense_curRamSnsPtr->raw[CapSense_scanFreqIndex] = (uint16)CY_GET_REG32(CapSense_COUNTER_P
  34              		.loc 1 781 0
  35 0006 0C4B     		ldr	r3, .L2+4
  36 0008 1A68     		ldr	r2, [r3]
  37 000a 0C4B     		ldr	r3, .L2+8
  38 000c 1B78     		ldrb	r3, [r3]
  39 000e 0C49     		ldr	r1, .L2+12
  40 0010 0968     		ldr	r1, [r1]
  41 0012 5B00     		lsl	r3, r3, #1
  42 0014 D152     		strh	r1, [r2, r3]
  43              	.LBE7:
  44              	.LBE6:
 515:Generated_Source\PSoC4/CapSense_INT.c ****                 #endif /* (CapSense_ENABLE == CapSense_BLOCK_OFF_AFTER_SCAN_EN) */
  45              		.loc 1 515 0
  46 0016 0B4B     		ldr	r3, .L2+16
  47 0018 1B68     		ldr	r3, [r3]
  48 001a 0B4A     		ldr	r2, .L2+20
  49 001c 1343     		orr	r3, r2
  50 001e 0B4A     		ldr	r2, .L2+24
  51 0020 1360     		str	r3, [r2]
 519:Generated_Source\PSoC4/CapSense_INT.c **** 
  52              		.loc 1 519 0
  53 0022 0B4B     		ldr	r3, .L2+28
  54 0024 DA88     		ldrh	r2, [r3, #6]
  55 0026 0132     		add	r2, r2, #1
  56 0028 DA80     		strh	r2, [r3, #6]
 522:Generated_Source\PSoC4/CapSense_INT.c ****             }
  57              		.loc 1 522 0
  58 002a 0A4A     		ldr	r2, .L2+32
  59 002c 9968     		ldr	r1, [r3, #8]
  60 002e 0A40     		and	r2, r1
  61 0030 9A60     		str	r2, [r3, #8]
 529:Generated_Source\PSoC4/CapSense_INT.c **** 
  62              		.loc 1 529 0
  63              		@ sp needed
  64 0032 7047     		bx	lr
  65              	.L3:
  66              		.align	2
  67              	.L2:
  68 0034 14002840 		.word	1076363284
  69 0038 00000000 		.word	CapSense_curRamSnsPtr
  70 003c 00000000 		.word	CapSense_scanFreqIndex
ARM GAS  C:\Users\Sarah\AppData\Local\Temp\ccRreSQJ.s 			page 16


  71 0040 0C002840 		.word	1076363276
  72 0044 00000000 		.word	CapSense_configCsd
  73 0048 2008E881 		.word	-2115500000
  74 004c 04002840 		.word	1076363268
  75 0050 00000000 		.word	CapSense_dsRam
  76 0054 7FFFFEFF 		.word	-65665
  77              		.cfi_endproc
  78              	.LFE2:
  79              		.size	CapSense_CSDPostSingleScan, .-CapSense_CSDPostSingleScan
  80              		.section	.text.CapSense_CSDPostMultiScan,"ax",%progbits
  81              		.align	2
  82              		.global	CapSense_CSDPostMultiScan
  83              		.code	16
  84              		.thumb_func
  85              		.type	CapSense_CSDPostMultiScan, %function
  86              	CapSense_CSDPostMultiScan:
  87              	.LFB3:
 568:Generated_Source\PSoC4/CapSense_INT.c ****         /*  Declare and initialise ptr to sensor IO structure to appropriate address        */
  88              		.loc 1 568 0
  89              		.cfi_startproc
  90 0000 70B5     		push	{r4, r5, r6, lr}
  91              		.cfi_def_cfa_offset 16
  92              		.cfi_offset 4, -16
  93              		.cfi_offset 5, -12
  94              		.cfi_offset 6, -8
  95              		.cfi_offset 14, -4
 570:Generated_Source\PSoC4/CapSense_INT.c ****                                                           CapSense_dsFlash.wdgtArray[CapSense_widge
  96              		.loc 1 570 0
  97 0002 334E     		ldr	r6, .L8
  98 0004 3378     		ldrb	r3, [r6]
 571:Generated_Source\PSoC4/CapSense_INT.c ****                                                           + CapSense_sensorIndex;
  99              		.loc 1 571 0
 100 0006 334C     		ldr	r4, .L8+4
 101 0008 9A00     		lsl	r2, r3, #2
 102 000a D318     		add	r3, r2, r3
 103 000c DB00     		lsl	r3, r3, #3
 104 000e 1859     		ldr	r0, [r3, r4]
 572:Generated_Source\PSoC4/CapSense_INT.c **** 
 105              		.loc 1 572 0
 106 0010 314D     		ldr	r5, .L8+8
 107 0012 2978     		ldrb	r1, [r5]
 108 0014 CA00     		lsl	r2, r1, #3
 109 0016 531A     		sub	r3, r2, r1
 110 0018 9B00     		lsl	r3, r3, #2
 570:Generated_Source\PSoC4/CapSense_INT.c ****                                                           CapSense_dsFlash.wdgtArray[CapSense_widge
 111              		.loc 1 570 0
 112 001a C018     		add	r0, r0, r3
 113              	.LVL0:
 579:Generated_Source\PSoC4/CapSense_INT.c **** 
 114              		.loc 1 579 0
 115 001c 0122     		mov	r2, #1
 116 001e 2F4B     		ldr	r3, .L8+12
 117 0020 1A60     		str	r2, [r3]
 118              	.LBB12:
 119              	.LBB13:
 120              		.loc 1 781 0
 121 0022 2F4B     		ldr	r3, .L8+16
ARM GAS  C:\Users\Sarah\AppData\Local\Temp\ccRreSQJ.s 			page 17


 122 0024 1A68     		ldr	r2, [r3]
 123 0026 2F4B     		ldr	r3, .L8+20
 124 0028 1B78     		ldrb	r3, [r3]
 125 002a 2F49     		ldr	r1, .L8+24
 126 002c 0968     		ldr	r1, [r1]
 127 002e 5B00     		lsl	r3, r3, #1
 128 0030 D152     		strh	r1, [r2, r3]
 129              	.LBE13:
 130              	.LBE12:
 585:Generated_Source\PSoC4/CapSense_INT.c **** 
 131              		.loc 1 585 0
 132 0032 2E4B     		ldr	r3, .L8+28
 133 0034 1B68     		ldr	r3, [r3]
 134 0036 2E4A     		ldr	r2, .L8+32
 135 0038 1343     		orr	r3, r2
 136 003a 2E4A     		ldr	r2, .L8+36
 137 003c 1360     		str	r3, [r2]
 596:Generated_Source\PSoC4/CapSense_INT.c ****         #endif /* (CapSense_ENABLE == CapSense_MULTI_FREQ_SCAN_EN) */
 138              		.loc 1 596 0
 139 003e FFF7FEFF 		bl	CapSense_CSDDisconnectSns
 140              	.LVL1:
 141              	.LBB14:
 142              	.LBB15:
 782:Generated_Source\PSoC4/CapSense_INT.c **** 
 783:Generated_Source\PSoC4/CapSense_INT.c ****     #endif /* (CapSense_ENABLE == CapSense_CSDV2) */
 784:Generated_Source\PSoC4/CapSense_INT.c **** }
 785:Generated_Source\PSoC4/CapSense_INT.c **** 
 786:Generated_Source\PSoC4/CapSense_INT.c **** 
 787:Generated_Source\PSoC4/CapSense_INT.c **** /*******************************************************************************
 788:Generated_Source\PSoC4/CapSense_INT.c **** * Function Name: CapSense_SsCSDInitNextScan
 789:Generated_Source\PSoC4/CapSense_INT.c **** ****************************************************************************//**
 790:Generated_Source\PSoC4/CapSense_INT.c **** *
 791:Generated_Source\PSoC4/CapSense_INT.c **** * \brief
 792:Generated_Source\PSoC4/CapSense_INT.c **** *   This function initializes the next sensor scan.
 793:Generated_Source\PSoC4/CapSense_INT.c **** *
 794:Generated_Source\PSoC4/CapSense_INT.c **** * \details
 795:Generated_Source\PSoC4/CapSense_INT.c **** *   The function decrements the sensor index, updates sense clock for matrix
 796:Generated_Source\PSoC4/CapSense_INT.c **** *   or touchpad widgets only, sets up Compensation IDAC, enables the sensor and
 797:Generated_Source\PSoC4/CapSense_INT.c **** *   scans it. When all sensors are scanned it continues to set up the next widget
 798:Generated_Source\PSoC4/CapSense_INT.c **** *   until all widgets are scanned. The CSD block is disabled when all widgets are
 799:Generated_Source\PSoC4/CapSense_INT.c **** *   scanned.
 800:Generated_Source\PSoC4/CapSense_INT.c **** *
 801:Generated_Source\PSoC4/CapSense_INT.c **** *******************************************************************************/
 802:Generated_Source\PSoC4/CapSense_INT.c **** CY_INLINE static void CapSense_SsCSDInitNextScan(void)
 803:Generated_Source\PSoC4/CapSense_INT.c **** {
 804:Generated_Source\PSoC4/CapSense_INT.c ****     /*  Declare and initialise ptr to widget and sensor structures to appropriate address */
 805:Generated_Source\PSoC4/CapSense_INT.c ****     #if (((CapSense_ENABLE == CapSense_CSD_IDAC_COMP_EN) || \
 806:Generated_Source\PSoC4/CapSense_INT.c ****              (CapSense_ENABLE == (CapSense_CSD_MATRIX_WIDGET_EN | CapSense_CSD_TOUCHPAD_WIDGET_EN))
 807:Generated_Source\PSoC4/CapSense_INT.c ****          (((CapSense_DISABLE == CapSense_CSD_COMMON_SNS_CLK_EN) && \
 808:Generated_Source\PSoC4/CapSense_INT.c ****            (CapSense_ENABLE == CapSense_CSDV2) && \
 809:Generated_Source\PSoC4/CapSense_INT.c ****           (CapSense_ENABLE == (CapSense_CSD_MATRIX_WIDGET_EN | CapSense_CSD_TOUCHPAD_WIDGET_EN)))))
 810:Generated_Source\PSoC4/CapSense_INT.c ****         CapSense_RAM_WD_BASE_STRUCT *ptrWdgt = (CapSense_RAM_WD_BASE_STRUCT *)
 811:Generated_Source\PSoC4/CapSense_INT.c ****                                                         CapSense_dsFlash.wdgtArray[CapSense_widgetI
 143              		.loc 1 811 0
 144 0042 3378     		ldrb	r3, [r6]
 810:Generated_Source\PSoC4/CapSense_INT.c ****                                                         CapSense_dsFlash.wdgtArray[CapSense_widgetI
 145              		.loc 1 810 0
ARM GAS  C:\Users\Sarah\AppData\Local\Temp\ccRreSQJ.s 			page 18


 146 0044 9A00     		lsl	r2, r3, #2
 147 0046 D318     		add	r3, r2, r3
 148 0048 DB00     		lsl	r3, r3, #3
 149 004a E318     		add	r3, r4, r3
 150 004c 5868     		ldr	r0, [r3, #4]
 151              	.LVL2:
 812:Generated_Source\PSoC4/CapSense_INT.c ****     #endif /* ((((CapSense_ENABLE == CapSense_CSD_IDAC_COMP_EN) && \
 813:Generated_Source\PSoC4/CapSense_INT.c ****                (CapSense_ENABLE == (CapSense_CSD_MATRIX_WIDGET_EN | CapSense_CSD_TOUCHPAD_WIDGET_EN
 814:Generated_Source\PSoC4/CapSense_INT.c ****                (((CapSense_DISABLE == CapSense_CSD_COMMON_SNS_CLK_EN) && \
 815:Generated_Source\PSoC4/CapSense_INT.c ****                (CapSense_ENABLE == (CapSense_CSD_MATRIX_WIDGET_EN | CapSense_CSD_TOUCHPAD_WIDGET_EN
 816:Generated_Source\PSoC4/CapSense_INT.c ****                (CapSense_CLK_SOURCE_DIRECT == CapSense_CSD_SNS_CLK_SOURCE))) */
 817:Generated_Source\PSoC4/CapSense_INT.c **** 
 818:Generated_Source\PSoC4/CapSense_INT.c ****     /* Check if all sensors are scanned in widget */
 819:Generated_Source\PSoC4/CapSense_INT.c ****     if (((uint8)CapSense_dsFlash.wdgtArray[(CapSense_widgetIndex)].totalNumSns - 1u) > CapSense_sen
 152              		.loc 1 819 0
 153 004e 3278     		ldrb	r2, [r6]
 154 0050 9300     		lsl	r3, r2, #2
 155 0052 9B18     		add	r3, r3, r2
 156 0054 DB00     		lsl	r3, r3, #3
 157 0056 E318     		add	r3, r4, r3
 158 0058 9B7D     		ldrb	r3, [r3, #22]
 159 005a 2A78     		ldrb	r2, [r5]
 160 005c 013B     		sub	r3, r3, #1
 161 005e 9342     		cmp	r3, r2
 162 0060 1ED9     		bls	.L5
 820:Generated_Source\PSoC4/CapSense_INT.c ****     {
 821:Generated_Source\PSoC4/CapSense_INT.c ****         /*  Decrement snsIndex to configure next sensor in widget */
 822:Generated_Source\PSoC4/CapSense_INT.c ****         CapSense_sensorIndex++;
 163              		.loc 1 822 0
 164 0062 1D4C     		ldr	r4, .L8+8
 165 0064 2378     		ldrb	r3, [r4]
 166 0066 0133     		add	r3, r3, #1
 167 0068 DBB2     		uxtb	r3, r3
 168 006a 2370     		strb	r3, [r4]
 823:Generated_Source\PSoC4/CapSense_INT.c **** 
 824:Generated_Source\PSoC4/CapSense_INT.c ****         /*  Update global pointer to CapSense_RAM_SNS_STRUCT to current sensor  */
 825:Generated_Source\PSoC4/CapSense_INT.c ****         CapSense_curRamSnsPtr = (CapSense_RAM_SNS_STRUCT *)
 826:Generated_Source\PSoC4/CapSense_INT.c ****                                                   CapSense_dsFlash.wdgtArray[CapSense_widgetIndex].
 169              		.loc 1 826 0
 170 006c 184D     		ldr	r5, .L8
 171 006e 2B78     		ldrb	r3, [r5]
 172 0070 9A00     		lsl	r2, r3, #2
 173 0072 D318     		add	r3, r2, r3
 174 0074 DB00     		lsl	r3, r3, #3
 175 0076 174A     		ldr	r2, .L8+4
 176 0078 D318     		add	r3, r2, r3
 177 007a 9968     		ldr	r1, [r3, #8]
 827:Generated_Source\PSoC4/CapSense_INT.c ****                                                   + CapSense_sensorIndex;
 178              		.loc 1 827 0
 179 007c 2278     		ldrb	r2, [r4]
 180 007e 9300     		lsl	r3, r2, #2
 181 0080 9B18     		add	r3, r3, r2
 182 0082 5B00     		lsl	r3, r3, #1
 183 0084 CB18     		add	r3, r1, r3
 825:Generated_Source\PSoC4/CapSense_INT.c ****                                                   CapSense_dsFlash.wdgtArray[CapSense_widgetIndex].
 184              		.loc 1 825 0
 185 0086 164A     		ldr	r2, .L8+16
ARM GAS  C:\Users\Sarah\AppData\Local\Temp\ccRreSQJ.s 			page 19


 186 0088 1360     		str	r3, [r2]
 828:Generated_Source\PSoC4/CapSense_INT.c **** 
 829:Generated_Source\PSoC4/CapSense_INT.c ****         /* Configure clock divider to row or column */
 830:Generated_Source\PSoC4/CapSense_INT.c ****         #if ((CapSense_DISABLE == CapSense_CSD_COMMON_SNS_CLK_EN) && \
 831:Generated_Source\PSoC4/CapSense_INT.c ****              (CapSense_ENABLE == (CapSense_CSD_MATRIX_WIDGET_EN | CapSense_CSD_TOUCHPAD_WIDGET_EN))
 832:Generated_Source\PSoC4/CapSense_INT.c ****             if ((CapSense_WD_TOUCHPAD_E == (CapSense_WD_TYPE_ENUM)CapSense_dsFlash.wdgtArray[(CapSe
 833:Generated_Source\PSoC4/CapSense_INT.c ****                 (CapSense_WD_MATRIX_BUTTON_E == (CapSense_WD_TYPE_ENUM)CapSense_dsFlash.wdgtArray[(
 834:Generated_Source\PSoC4/CapSense_INT.c ****             {
 835:Generated_Source\PSoC4/CapSense_INT.c ****                 CapSense_SsCSDConfigClock();
 836:Generated_Source\PSoC4/CapSense_INT.c **** 
 837:Generated_Source\PSoC4/CapSense_INT.c ****                 #if (CapSense_ENABLE == CapSense_CSDV2)
 838:Generated_Source\PSoC4/CapSense_INT.c ****                      /* Set up scanning resolution */
 839:Generated_Source\PSoC4/CapSense_INT.c ****                     CapSense_SsCSDCalculateScanDuration(ptrWdgt);
 840:Generated_Source\PSoC4/CapSense_INT.c ****                 #endif /* (CapSense_ENABLE == CapSense_CSDV2) */
 841:Generated_Source\PSoC4/CapSense_INT.c ****             }
 842:Generated_Source\PSoC4/CapSense_INT.c ****         #endif /* ((CapSense_DISABLE == CapSense_CSD_COMMON_SNS_CLK_EN) && \
 843:Generated_Source\PSoC4/CapSense_INT.c ****                    (CapSense_ENABLE == (CapSense_CSD_MATRIX_WIDGET_EN | CapSense_CSD_TOUCHPAD_WIDGE
 844:Generated_Source\PSoC4/CapSense_INT.c **** 
 845:Generated_Source\PSoC4/CapSense_INT.c ****         /* Setup Compensation IDAC for next sensor in widget */
 846:Generated_Source\PSoC4/CapSense_INT.c ****         #if ((CapSense_ENABLE == CapSense_CSD_IDAC_COMP_EN) || \
 847:Generated_Source\PSoC4/CapSense_INT.c ****              (CapSense_ENABLE == (CapSense_CSD_MATRIX_WIDGET_EN | CapSense_CSD_TOUCHPAD_WIDGET_EN))
 848:Generated_Source\PSoC4/CapSense_INT.c ****             CapSense_SsCSDSetUpIdacs(ptrWdgt);
 187              		.loc 1 848 0
 188 008a FFF7FEFF 		bl	CapSense_SsCSDSetUpIdacs
 189              	.LVL3:
 849:Generated_Source\PSoC4/CapSense_INT.c ****         #endif /* ((CapSense_ENABLE == CapSense_CSD_IDAC_COMP_EN) || \
 850:Generated_Source\PSoC4/CapSense_INT.c ****              (CapSense_ENABLE == (CapSense_CSD_MATRIX_WIDGET_EN | CapSense_CSD_TOUCHPAD_WIDGET_EN))
 851:Generated_Source\PSoC4/CapSense_INT.c **** 
 852:Generated_Source\PSoC4/CapSense_INT.c ****         /* Enable sensor */
 853:Generated_Source\PSoC4/CapSense_INT.c ****         CapSense_SsCSDConnectSensorExt((uint32)CapSense_widgetIndex, (uint32)CapSense_sensorIndex);
 190              		.loc 1 853 0
 191 008e 2878     		ldrb	r0, [r5]
 192 0090 C0B2     		uxtb	r0, r0
 193 0092 2178     		ldrb	r1, [r4]
 194 0094 C9B2     		uxtb	r1, r1
 195 0096 FFF7FEFF 		bl	CapSense_SsCSDConnectSensorExt
 196              	.LVL4:
 854:Generated_Source\PSoC4/CapSense_INT.c **** 
 855:Generated_Source\PSoC4/CapSense_INT.c ****         /* Proceed scanning */
 856:Generated_Source\PSoC4/CapSense_INT.c ****         CapSense_SsCSDStartSample();
 197              		.loc 1 856 0
 198 009a FFF7FEFF 		bl	CapSense_SsCSDStartSample
 199              	.LVL5:
 200 009e 15E0     		b	.L4
 201              	.LVL6:
 202              	.L5:
 857:Generated_Source\PSoC4/CapSense_INT.c ****     }
 858:Generated_Source\PSoC4/CapSense_INT.c ****     /*    Call scan next widget API if requested, if not, complete the scan  */
 859:Generated_Source\PSoC4/CapSense_INT.c ****     else
 860:Generated_Source\PSoC4/CapSense_INT.c ****     {
 861:Generated_Source\PSoC4/CapSense_INT.c ****         CapSense_sensorIndex = 0u;
 203              		.loc 1 861 0
 204 00a0 0022     		mov	r2, #0
 205 00a2 0D4B     		ldr	r3, .L8+8
 206 00a4 1A70     		strb	r2, [r3]
 862:Generated_Source\PSoC4/CapSense_INT.c **** 
 863:Generated_Source\PSoC4/CapSense_INT.c ****         /* Current widget is totally scanned. Reset WIDGET BUSY flag */
ARM GAS  C:\Users\Sarah\AppData\Local\Temp\ccRreSQJ.s 			page 20


 864:Generated_Source\PSoC4/CapSense_INT.c ****         CapSense_dsRam.status &= ~CapSense_WDGT_SW_STS_BUSY;
 207              		.loc 1 864 0
 208 00a6 144A     		ldr	r2, .L8+40
 209 00a8 144B     		ldr	r3, .L8+44
 210 00aa 9168     		ldr	r1, [r2, #8]
 211 00ac 0B40     		and	r3, r1
 212 00ae 9360     		str	r3, [r2, #8]
 865:Generated_Source\PSoC4/CapSense_INT.c **** 
 866:Generated_Source\PSoC4/CapSense_INT.c ****         /* Check if all widgets have been scanned */
 867:Generated_Source\PSoC4/CapSense_INT.c ****         if (CapSense_ENABLE == CapSense_requestScanAllWidget)
 213              		.loc 1 867 0
 214 00b0 134A     		ldr	r2, .L8+48
 215 00b2 1278     		ldrb	r2, [r2]
 216 00b4 012A     		cmp	r2, #1
 217 00b6 02D1     		bne	.L7
 868:Generated_Source\PSoC4/CapSense_INT.c ****         {
 869:Generated_Source\PSoC4/CapSense_INT.c ****             /* Configure and begin scanning next widget */
 870:Generated_Source\PSoC4/CapSense_INT.c ****             CapSense_SsPostAllWidgetsScan();
 218              		.loc 1 870 0
 219 00b8 FFF7FEFF 		bl	CapSense_SsPostAllWidgetsScan
 220              	.LVL7:
 221 00bc 06E0     		b	.L4
 222              	.LVL8:
 223              	.L7:
 871:Generated_Source\PSoC4/CapSense_INT.c ****         }
 872:Generated_Source\PSoC4/CapSense_INT.c ****         else
 873:Generated_Source\PSoC4/CapSense_INT.c ****         {
 874:Generated_Source\PSoC4/CapSense_INT.c ****             #if (CapSense_ENABLE == CapSense_BLOCK_OFF_AFTER_SCAN_EN)
 875:Generated_Source\PSoC4/CapSense_INT.c ****                 #if (CapSense_ENABLE == CapSense_CSDV2)
 876:Generated_Source\PSoC4/CapSense_INT.c ****                     /*  Disable the CSD block */
 877:Generated_Source\PSoC4/CapSense_INT.c ****                     CY_SET_REG32(CapSense_CONFIG_PTR, CapSense_configCsd);
 878:Generated_Source\PSoC4/CapSense_INT.c ****                 #else
 879:Generated_Source\PSoC4/CapSense_INT.c ****                     /*  Disable the CSD block. Connect Vref Buffer to AMUX bus */
 880:Generated_Source\PSoC4/CapSense_INT.c ****                     #if ((CapSense_CSH_PRECHARGE_IO_BUF == CapSense_CSD_CSH_PRECHARGE_SRC) &&\
 881:Generated_Source\PSoC4/CapSense_INT.c ****                          (CapSense_ENABLE == CapSense_CSD_SHIELD_TANK_EN))
 882:Generated_Source\PSoC4/CapSense_INT.c ****                         CY_SET_REG32(CapSense_CONFIG_PTR, CapSense_configCsd | CapSense_CMOD_PRECHA
 883:Generated_Source\PSoC4/CapSense_INT.c ****                     #else
 884:Generated_Source\PSoC4/CapSense_INT.c ****                         CY_SET_REG32(CapSense_CONFIG_PTR, CapSense_configCsd | CapSense_CTANK_PRECH
 885:Generated_Source\PSoC4/CapSense_INT.c ****                     #endif /* ((CapSense_CSH_PRECHARGE_IO_BUF == CapSense_CSD_CSH_PRECHARGE_SRC) &&
 886:Generated_Source\PSoC4/CapSense_INT.c ****                                (CapSense_ENABLE == CapSense_CSD_SHIELD_TANK_EN)) */
 887:Generated_Source\PSoC4/CapSense_INT.c ****                 #endif /* (CapSense_ENABLE == CapSense_CSDV2) */
 888:Generated_Source\PSoC4/CapSense_INT.c ****             #endif /* (CapSense_ENABLE == CapSense_BLOCK_OFF_AFTER_SCAN_EN) */
 889:Generated_Source\PSoC4/CapSense_INT.c **** 
 890:Generated_Source\PSoC4/CapSense_INT.c ****             /* All widgets are totally scanned. Reset BUSY flag */
 891:Generated_Source\PSoC4/CapSense_INT.c ****             CapSense_dsRam.status &= ~CapSense_SW_STS_BUSY;
 224              		.loc 1 891 0
 225 00be 0E4A     		ldr	r2, .L8+40
 226 00c0 8021     		mov	r1, #128
 227 00c2 8B43     		bic	r3, r1
 228 00c4 9360     		str	r3, [r2, #8]
 892:Generated_Source\PSoC4/CapSense_INT.c **** 
 893:Generated_Source\PSoC4/CapSense_INT.c ****             /* Update scan Counter */
 894:Generated_Source\PSoC4/CapSense_INT.c ****             CapSense_dsRam.scanCounter++;
 229              		.loc 1 894 0
 230 00c6 D388     		ldrh	r3, [r2, #6]
 231 00c8 0133     		add	r3, r3, #1
 232 00ca D380     		strh	r3, [r2, #6]
ARM GAS  C:\Users\Sarah\AppData\Local\Temp\ccRreSQJ.s 			page 21


 233              	.LVL9:
 234              	.L4:
 235              	.LBE15:
 236              	.LBE14:
 622:Generated_Source\PSoC4/CapSense_INT.c **** 
 237              		.loc 1 622 0
 238              		@ sp needed
 239 00cc 70BD     		pop	{r4, r5, r6, pc}
 240              	.L9:
 241 00ce C046     		.align	2
 242              	.L8:
 243 00d0 00000000 		.word	CapSense_widgetIndex
 244 00d4 00000000 		.word	CapSense_dsFlash
 245 00d8 00000000 		.word	CapSense_sensorIndex
 246 00dc 14002840 		.word	1076363284
 247 00e0 00000000 		.word	CapSense_curRamSnsPtr
 248 00e4 00000000 		.word	CapSense_scanFreqIndex
 249 00e8 0C002840 		.word	1076363276
 250 00ec 00000000 		.word	CapSense_configCsd
 251 00f0 2008E881 		.word	-2115500000
 252 00f4 04002840 		.word	1076363268
 253 00f8 00000000 		.word	CapSense_dsRam
 254 00fc FFFFFEFF 		.word	-65537
 255 0100 00000000 		.word	CapSense_requestScanAllWidget
 256              		.cfi_endproc
 257              	.LFE3:
 258              		.size	CapSense_CSDPostMultiScan, .-CapSense_CSDPostMultiScan
 259              		.text
 260              	.Letext0:
 261              		.file 2 "Generated_Source\\PSoC4\\cytypes.h"
 262              		.file 3 "Generated_Source\\PSoC4\\CapSense_Configuration.h"
 263              		.file 4 "Generated_Source\\PSoC4\\CapSense_SmartSense_LL.h"
 264              		.file 5 "Generated_Source\\PSoC4\\CapSense_Structure.h"
 265              		.file 6 "Generated_Source\\PSoC4\\CapSense_SensingCSD_LL.h"
 266              		.file 7 "Generated_Source\\PSoC4\\CapSense_Sensing.h"