ARM GAS  C:\Users\Sarah\AppData\Local\Temp\ccrcKzcd.s 			page 1


   1              		.cpu cortex-m0
   2              		.fpu softvfp
   3              		.eabi_attribute 20, 1
   4              		.eabi_attribute 21, 1
   5              		.eabi_attribute 23, 3
   6              		.eabi_attribute 24, 1
   7              		.eabi_attribute 25, 1
   8              		.eabi_attribute 26, 1
   9              		.eabi_attribute 30, 6
  10              		.eabi_attribute 34, 0
  11              		.eabi_attribute 18, 4
  12              		.code	16
  13              		.file	"BLEApplications.c"
  14              		.text
  15              	.Ltext0:
  16              		.cfi_sections	.debug_frame
  17              		.comm	connectionHandle,2,4
  18              		.comm	rgbHandle,12,4
  19              		.global	sendCapSenseSliderNotifications
  20              		.bss
  21              		.type	sendCapSenseSliderNotifications, %object
  22              		.size	sendCapSenseSliderNotifications, 1
  23              	sendCapSenseSliderNotifications:
  24 0000 00       		.space	1
  25              		.global	rgbledNotifications
  26              		.type	rgbledNotifications, %object
  27              		.size	rgbledNotifications, 1
  28              	rgbledNotifications:
  29 0001 00       		.space	1
  30              		.comm	RGBledData,4,4
  31              		.global	deviceConnected
  32              		.type	deviceConnected, %object
  33              		.size	deviceConnected, 1
  34              	deviceConnected:
  35 0002 00       		.space	1
  36              		.global	restartAdvertisement
  37              		.type	restartAdvertisement, %object
  38              		.size	restartAdvertisement, 1
  39              	restartAdvertisement:
  40 0003 00       		.space	1
  41              		.global	enableCapSenseData
  42              		.type	enableCapSenseData, %object
  43              		.size	enableCapSenseData, 1
  44              	enableCapSenseData:
  45 0004 00       		.space	1
  46              		.data
  47              		.type	isConnectionUpdateRequested, %object
  48              		.size	isConnectionUpdateRequested, 1
  49              	isConnectionUpdateRequested:
  50 0000 01       		.byte	1
  51 0001 000000   		.align	2
  52              		.type	ConnectionParam, %object
  53              		.size	ConnectionParam, 8
  54              	ConnectionParam:
  55 0004 3200     		.short	50
  56 0006 3400     		.short	52
  57 0008 0400     		.short	4
ARM GAS  C:\Users\Sarah\AppData\Local\Temp\ccrcKzcd.s 			page 2


  58 000a C800     		.short	200
  59              		.global	shut_down_led
  60              		.type	shut_down_led, %object
  61              		.size	shut_down_led, 1
  62              	shut_down_led:
  63 000c 01       		.byte	1
  64              		.global	led_timer
  65              		.bss
  66              		.type	led_timer, %object
  67              		.size	led_timer, 1
  68              	led_timer:
  69 0005 00       		.space	1
  70              		.global	timer_tick
  71              		.type	timer_tick, %object
  72              		.size	timer_tick, 1
  73              	timer_tick:
  74 0006 00       		.space	1
  75              		.global	switch_off_status_led
  76              		.type	switch_off_status_led, %object
  77              		.size	switch_off_status_led, 1
  78              	switch_off_status_led:
  79 0007 00       		.space	1
  80              		.global	busyStatus
  81              		.type	busyStatus, %object
  82              		.size	busyStatus, 1
  83              	busyStatus:
  84 0008 00       		.space	1
  85              		.comm	CapSenseCCCDvalue,2,4
  86              		.comm	RGBCCCDvalue,2,4
  87              		.comm	CapSenseNotificationCCCDhandle,12,4
  88              		.comm	RGBNotificationCCCDhandle,12,4
  89              		.section	.text.CustomEventHandler,"ax",%progbits
  90              		.align	2
  91              		.global	CustomEventHandler
  92              		.code	16
  93              		.thumb_func
  94              		.type	CustomEventHandler, %function
  95              	CustomEventHandler:
  96              	.LFB37:
  97              		.file 1 "BLEApplications.c"
   1:BLEApplications.c **** /******************************************************************************
   2:BLEApplications.c **** * Project Name		: PSoC_4_BLE_CapSense_Slider_LED
   3:BLEApplications.c **** * File Name			: BLEApplications.c
   4:BLEApplications.c **** * Version 			: 1.0
   5:BLEApplications.c **** * Device Used		: CY8C4248LQI-BL583
   6:BLEApplications.c **** * Software Used		: PSoC Creator 3.3 CP2
   7:BLEApplications.c **** * Compiler    		: ARM GCC 4.9.3, ARM MDK Generic
   8:BLEApplications.c **** * Related Hardware	: CY8CKIT-042-BLE-A Bluetooth Low Energy Pioneer Kit 
   9:BLEApplications.c **** * Owner             : ROIT
  10:BLEApplications.c **** *
  11:BLEApplications.c **** ********************************************************************************
  12:BLEApplications.c **** * Copyright (2015-16), Cypress Semiconductor Corporation. All Rights Reserved.
  13:BLEApplications.c **** ********************************************************************************
  14:BLEApplications.c **** * This software is owned by Cypress Semiconductor Corporation (Cypress)
  15:BLEApplications.c **** * and is protected by and subject to worldwide patent protection (United
  16:BLEApplications.c **** * States and foreign), United States copyright laws and international treaty
  17:BLEApplications.c **** * provisions. Cypress hereby grants to licensee a personal, non-exclusive,
ARM GAS  C:\Users\Sarah\AppData\Local\Temp\ccrcKzcd.s 			page 3


  18:BLEApplications.c **** * non-transferable license to copy, use, modify, create derivative works of,
  19:BLEApplications.c **** * and compile the Cypress Source Code and derivative works for the sole
  20:BLEApplications.c **** * purpose of creating custom software in support of licensee product to be
  21:BLEApplications.c **** * used only in conjunction with a Cypress integrated circuit as specified in
  22:BLEApplications.c **** * the applicable agreement. Any reproduction, modification, translation,
  23:BLEApplications.c **** * compilation, or representation of this software except as specified above 
  24:BLEApplications.c **** * is prohibited without the express written permission of Cypress.
  25:BLEApplications.c **** *
  26:BLEApplications.c **** * Disclaimer: CYPRESS MAKES NO WARRANTY OF ANY KIND, EXPRESS OR IMPLIED, WITH 
  27:BLEApplications.c **** * REGARD TO THIS MATERIAL, INCLUDING, BUT NOT LIMITED TO, THE IMPLIED 
  28:BLEApplications.c **** * WARRANTIES OF MERCHANTABILITY AND FITNESS FOR A PARTICULAR PURPOSE.
  29:BLEApplications.c **** * Cypress reserves the right to make changes without further notice to the 
  30:BLEApplications.c **** * materials described herein. Cypress does not assume any liability arising out 
  31:BLEApplications.c **** * of the application or use of any product or circuit described herein. Cypress 
  32:BLEApplications.c **** * does not authorize its products for use as critical components in life-support 
  33:BLEApplications.c **** * systems where a malfunction or failure may reasonably be expected to result in 
  34:BLEApplications.c **** * significant injury to the user. The inclusion of Cypress' product in a life-
  35:BLEApplications.c **** * support systems application implies that the manufacturer assumes all risk of 
  36:BLEApplications.c **** * such use and in doing so indemnifies Cypress against all charges. 
  37:BLEApplications.c **** *
  38:BLEApplications.c **** * Use of this Software may be limited by and subject to the applicable Cypress
  39:BLEApplications.c **** * software license agreement. 
  40:BLEApplications.c **** *******************************************************************************/
  41:BLEApplications.c **** #include <main.h>
  42:BLEApplications.c **** 
  43:BLEApplications.c **** /**************************Variable Declarations*****************************/
  44:BLEApplications.c **** /* 'connectionHandle' stores connection parameters */
  45:BLEApplications.c **** CYBLE_CONN_HANDLE_T  connectionHandle;
  46:BLEApplications.c **** 
  47:BLEApplications.c **** /* 'rgbHandle' stores RGB control data parameters */
  48:BLEApplications.c **** CYBLE_GATT_HANDLE_VALUE_PAIR_T		rgbHandle;	
  49:BLEApplications.c **** 
  50:BLEApplications.c **** /*This flag is set when the Central device writes to CCCD (Client Characteristic 
  51:BLEApplications.c **** * Configuration Descriptor) of the CapSense slider Characteristic to enable 
  52:BLEApplications.c **** * notifications */
  53:BLEApplications.c **** uint8 sendCapSenseSliderNotifications = FALSE;	
  54:BLEApplications.c **** 
  55:BLEApplications.c **** /*This flag is set when the Central device writes to CCCD of the 
  56:BLEApplications.c **** * RGB LED Characteristic to enable notifications */
  57:BLEApplications.c **** uint8 rgbledNotifications = FALSE;
  58:BLEApplications.c **** 
  59:BLEApplications.c **** /* Array to store the present RGB LED control data. The 4 bytes 
  60:BLEApplications.c **** * of the array represents {R,G,B,Intensity} */
  61:BLEApplications.c **** uint8 RGBledData[RGB_CHAR_DATA_LEN];
  62:BLEApplications.c **** 
  63:BLEApplications.c **** /* This flag is used by application to know whether a Central 
  64:BLEApplications.c **** * device has been connected. This is updated in BLE event callback 
  65:BLEApplications.c **** * function*/
  66:BLEApplications.c **** uint8 deviceConnected = FALSE;
  67:BLEApplications.c **** 
  68:BLEApplications.c **** /* 'restartAdvertisement' flag provided the present state of power mode in firmware */
  69:BLEApplications.c **** uint8 restartAdvertisement = FALSE;
  70:BLEApplications.c **** 
  71:BLEApplications.c **** /*'enableCapSenseData' flag is set after the Connection LED off status is received.
  72:BLEApplications.c ****   This flag ensures that the CapSense related scanning does not increase the loop 
  73:BLEApplications.c ****   time of firmware, causing the LED to be always ON.*/
  74:BLEApplications.c **** uint8 enableCapSenseData = FALSE;	
ARM GAS  C:\Users\Sarah\AppData\Local\Temp\ccrcKzcd.s 			page 4


  75:BLEApplications.c **** 
  76:BLEApplications.c **** /* This flag is used to let application send a L2CAP connection update request
  77:BLEApplications.c **** * to Central device */
  78:BLEApplications.c **** static uint8 isConnectionUpdateRequested = TRUE;
  79:BLEApplications.c **** 
  80:BLEApplications.c **** /* Connection Parameter update values. This values are used by the BLE component
  81:BLEApplications.c **** * to update the connector parameter, including connection interval, to desired 
  82:BLEApplications.c **** * value */
  83:BLEApplications.c **** static CYBLE_GAP_CONN_UPDATE_PARAM_T ConnectionParam =
  84:BLEApplications.c **** {
  85:BLEApplications.c ****     CONN_PARAM_UPDATE_MIN_CONN_INTERVAL,  		      
  86:BLEApplications.c ****     CONN_PARAM_UPDATE_MAX_CONN_INTERVAL,		       
  87:BLEApplications.c ****     CONN_PARAM_UPDATE_SLAVE_LATENCY,			    
  88:BLEApplications.c ****     CONN_PARAM_UPDATE_SUPRV_TIMEOUT 			         	
  89:BLEApplications.c **** };
  90:BLEApplications.c **** 
  91:BLEApplications.c **** /* This flag is used to switch between CPU Deep Sleep and Sleep, depending on
  92:BLEApplications.c **** * the status of RGB LED color values received. This method allows to conserve 
  93:BLEApplications.c **** * more power while LED usage */
  94:BLEApplications.c **** uint8 shut_down_led = TRUE;
  95:BLEApplications.c **** 
  96:BLEApplications.c **** /* Counter to keep the LED ON for a selected period before shuting the LEDs down */
  97:BLEApplications.c **** uint8 led_timer = FALSE;
  98:BLEApplications.c **** 
  99:BLEApplications.c **** /* Counter to allow an initial 3 second Status LED ON for indicating connection */
 100:BLEApplications.c **** uint8 timer_tick = FALSE;
 101:BLEApplications.c **** 
 102:BLEApplications.c **** /* Flag to switch of the LED after connection */
 103:BLEApplications.c **** uint8 switch_off_status_led = FALSE;
 104:BLEApplications.c **** 
 105:BLEApplications.c **** /* Status flag for the Stack Busy state. This flag is used to notify the application 
 106:BLEApplications.c **** * whether there is stack buffer free to push more data or not */
 107:BLEApplications.c **** uint8 busyStatus = 0;
 108:BLEApplications.c **** 
 109:BLEApplications.c **** /* Local variable to store the current CCCD value */
 110:BLEApplications.c **** uint8 CapSenseCCCDvalue[2];
 111:BLEApplications.c **** uint8 RGBCCCDvalue[2];
 112:BLEApplications.c **** 
 113:BLEApplications.c **** /* Handle value to update the CCCD */
 114:BLEApplications.c **** CYBLE_GATT_HANDLE_VALUE_PAIR_T CapSenseNotificationCCCDhandle;
 115:BLEApplications.c **** 
 116:BLEApplications.c **** /* Handle value to update the CCCD */
 117:BLEApplications.c **** CYBLE_GATT_HANDLE_VALUE_PAIR_T RGBNotificationCCCDhandle;
 118:BLEApplications.c **** 
 119:BLEApplications.c **** 
 120:BLEApplications.c **** /****************************************************************************/
 121:BLEApplications.c **** 
 122:BLEApplications.c **** /*******************************************************************************
 123:BLEApplications.c **** * Function Name: CustomEventHandler
 124:BLEApplications.c **** ********************************************************************************
 125:BLEApplications.c **** * Summary:
 126:BLEApplications.c **** *        Call back event function to handle various events from BLE stack
 127:BLEApplications.c **** *
 128:BLEApplications.c **** * Parameters:
 129:BLEApplications.c **** *  event:		event returned
 130:BLEApplications.c **** *  eventParam:	link to value of the events returned
 131:BLEApplications.c **** *
ARM GAS  C:\Users\Sarah\AppData\Local\Temp\ccrcKzcd.s 			page 5


 132:BLEApplications.c **** * Return:
 133:BLEApplications.c **** *  void
 134:BLEApplications.c **** *
 135:BLEApplications.c **** *******************************************************************************/
 136:BLEApplications.c **** void CustomEventHandler(uint32 event, void * eventParam)
 137:BLEApplications.c **** {
  98              		.loc 1 137 0
  99              		.cfi_startproc
 100 0000 80B5     		push	{r7, lr}
 101              		.cfi_def_cfa_offset 8
 102              		.cfi_offset 7, -8
 103              		.cfi_offset 14, -4
 104 0002 84B0     		sub	sp, sp, #16
 105              		.cfi_def_cfa_offset 24
 106 0004 00AF     		add	r7, sp, #0
 107              		.cfi_def_cfa_register 7
 108 0006 7860     		str	r0, [r7, #4]
 109 0008 3960     		str	r1, [r7]
 138:BLEApplications.c **** 	/* Local variable to store the data received as part of the Write request 
 139:BLEApplications.c **** 	* events */
 140:BLEApplications.c **** 	CYBLE_GATTS_WRITE_REQ_PARAM_T *wrReqParam;
 141:BLEApplications.c **** 
 142:BLEApplications.c ****     switch(event)
 110              		.loc 1 142 0
 111 000a 7B68     		ldr	r3, [r7, #4]
 112 000c 272B     		cmp	r3, #39
 113 000e 00D1     		bne	.LCB16
 114 0010 1EE1     		b	.L25	@long jump
 115              	.LCB16:
 116 0012 0CD8     		bhi	.L4
 117 0014 022B     		cmp	r3, #2
 118 0016 00D1     		bne	.LCB20
 119 0018 1CE1     		b	.L26	@long jump
 120              	.LCB20:
 121 001a 02D8     		bhi	.L6
 122 001c 012B     		cmp	r3, #1
 123 001e 14D0     		beq	.L7
 143:BLEApplications.c ****     {
 144:BLEApplications.c ****         case CYBLE_EVT_STACK_ON:
 145:BLEApplications.c **** 			/* This event is received when component is Started */
 146:BLEApplications.c **** 			
 147:BLEApplications.c **** 			/* Set restartAdvertisement flag to allow calling Advertisement 
 148:BLEApplications.c **** 			* API from main function */
 149:BLEApplications.c **** 			restartAdvertisement = TRUE;
 150:BLEApplications.c **** 			
 151:BLEApplications.c **** 			break;
 152:BLEApplications.c **** 			
 153:BLEApplications.c **** 		case CYBLE_EVT_TIMEOUT:
 154:BLEApplications.c **** 			/* Event Handling for Timeout  */
 155:BLEApplications.c **** 	
 156:BLEApplications.c **** 			break;
 157:BLEApplications.c ****         
 158:BLEApplications.c **** 		/**********************************************************
 159:BLEApplications.c ****         *                       GAP Events
 160:BLEApplications.c ****         ***********************************************************/
 161:BLEApplications.c **** 		case CYBLE_EVT_GAPP_ADVERTISEMENT_START_STOP:
 162:BLEApplications.c **** 			
ARM GAS  C:\Users\Sarah\AppData\Local\Temp\ccrcKzcd.s 			page 6


 163:BLEApplications.c **** 			/* If the current BLE state is Disconnected, then the Advertisement
 164:BLEApplications.c **** 			* Start Stop event implies that advertisement has stopped */
 165:BLEApplications.c **** 			if(CyBle_GetState() == CYBLE_STATE_DISCONNECTED)
 166:BLEApplications.c **** 			{
 167:BLEApplications.c **** 				/* Set restartAdvertisement flag to allow calling Advertisement 
 168:BLEApplications.c **** 				* API from main function */
 169:BLEApplications.c **** 				restartAdvertisement = TRUE;
 170:BLEApplications.c **** 			}
 171:BLEApplications.c **** 			break;
 172:BLEApplications.c **** 			
 173:BLEApplications.c **** 		case CYBLE_EVT_GAP_DEVICE_CONNECTED: 					
 174:BLEApplications.c **** 			/* This event is received when device is connected over GAP layer */
 175:BLEApplications.c **** 			break;
 176:BLEApplications.c **** 
 177:BLEApplications.c **** 			
 178:BLEApplications.c ****         case CYBLE_EVT_GAP_DEVICE_DISCONNECTED:
 179:BLEApplications.c **** 			/* This event is received when device is disconnected */
 180:BLEApplications.c **** 			
 181:BLEApplications.c **** 			/* Set restartAdvertisement flag to allow calling Advertisement 
 182:BLEApplications.c **** 			* API from main function */
 183:BLEApplications.c **** 			restartAdvertisement = TRUE;
 184:BLEApplications.c **** 			
 185:BLEApplications.c **** 			/* Set flag to allow system to go to Deep Sleep */
 186:BLEApplications.c **** 			shut_down_led = TRUE;
 187:BLEApplications.c **** 			break;
 188:BLEApplications.c ****         
 189:BLEApplications.c **** 		/**********************************************************
 190:BLEApplications.c ****         *                       GATT Events
 191:BLEApplications.c ****         ***********************************************************/
 192:BLEApplications.c ****         case CYBLE_EVT_GATT_CONNECT_IND:
 193:BLEApplications.c **** 			/* This event is received when device is connected over GATT level */
 194:BLEApplications.c **** 			
 195:BLEApplications.c **** 			/* Update attribute handle on GATT Connection*/
 196:BLEApplications.c ****             connectionHandle = *(CYBLE_CONN_HANDLE_T  *)eventParam;
 197:BLEApplications.c **** 			
 198:BLEApplications.c **** 			/* This flag is used in application to check connection status */
 199:BLEApplications.c **** 			deviceConnected = TRUE;
 200:BLEApplications.c **** 			break;
 201:BLEApplications.c ****         
 202:BLEApplications.c ****         case CYBLE_EVT_GATT_DISCONNECT_IND:
 203:BLEApplications.c **** 			/* This event is received when device is disconnected */
 204:BLEApplications.c **** 			
 205:BLEApplications.c **** 			/* Update deviceConnected flag*/
 206:BLEApplications.c **** 			deviceConnected = FALSE;
 207:BLEApplications.c **** 			
 208:BLEApplications.c **** 			/* Reset CapSense notification flag to prevent further notifications
 209:BLEApplications.c **** 			 * being sent to Central device after next connection. */
 210:BLEApplications.c **** 			sendCapSenseSliderNotifications = FALSE;
 211:BLEApplications.c **** 			
 212:BLEApplications.c **** 			/* Reset RGB notification flag to prevent further notifications
 213:BLEApplications.c **** 			 * being sent to Central device after next connection. */
 214:BLEApplications.c **** 			rgbledNotifications = FALSE;
 215:BLEApplications.c **** 			
 216:BLEApplications.c **** 			/* Reset the CCCD value to disable notifications */
 217:BLEApplications.c ****     		/* Write the present CapSense notification status to the local variable */
 218:BLEApplications.c ****     		CapSenseCCCDvalue[0] = sendCapSenseSliderNotifications;
 219:BLEApplications.c ****     		CapSenseCCCDvalue[1] = 0x00;
ARM GAS  C:\Users\Sarah\AppData\Local\Temp\ccrcKzcd.s 			page 7


 220:BLEApplications.c ****     		
 221:BLEApplications.c ****     		/* Update CCCD handle with notification status data*/
 222:BLEApplications.c ****     		CapSenseNotificationCCCDhandle.attrHandle = CYBLE_CAPSENSE_CAPSENSE_SLIDER_CLIENT_CHARACTERIS
 223:BLEApplications.c ****     		CapSenseNotificationCCCDhandle.value.val = CapSenseCCCDvalue;
 224:BLEApplications.c ****     		CapSenseNotificationCCCDhandle.value.len = CCCD_DATA_LEN;
 225:BLEApplications.c ****     		
 226:BLEApplications.c ****     		/* Report data to BLE component for sending data when read by Central device */
 227:BLEApplications.c ****     		CyBle_GattsWriteAttributeValue(&CapSenseNotificationCCCDhandle, ZERO, &connectionHandle, CYBL
 228:BLEApplications.c **** 		
 229:BLEApplications.c ****     		/* Write the present RGB notification status to the local variable */
 230:BLEApplications.c ****     		RGBCCCDvalue[0] = rgbledNotifications;
 231:BLEApplications.c ****     		RGBCCCDvalue[1] = 0x00;
 232:BLEApplications.c ****     		
 233:BLEApplications.c ****     		/* Update CCCD handle with notification status data*/
 234:BLEApplications.c ****     		RGBNotificationCCCDhandle.attrHandle = CYBLE_RGB_LED_RGB_LED_CONTROL_CLIENT_CHARACTERISTIC_CO
 235:BLEApplications.c ****     		RGBNotificationCCCDhandle.value.val = RGBCCCDvalue;
 236:BLEApplications.c ****     		RGBNotificationCCCDhandle.value.len = CCCD_DATA_LEN;
 237:BLEApplications.c ****     		
 238:BLEApplications.c ****     		/* Report data to BLE component for sending data when read by Central device */
 239:BLEApplications.c ****     		CyBle_GattsWriteAttributeValue(&RGBNotificationCCCDhandle, ZERO, &connectionHandle, CYBLE_GAT
 240:BLEApplications.c **** 			
 241:BLEApplications.c **** 			/* Reset the color coordinates */
 242:BLEApplications.c **** 			RGBledData[RED_INDEX] = ZERO;
 243:BLEApplications.c ****             RGBledData[GREEN_INDEX] = ZERO;
 244:BLEApplications.c ****             RGBledData[BLUE_INDEX] = ZERO;
 245:BLEApplications.c ****             RGBledData[INTENSITY_INDEX] = ZERO;
 246:BLEApplications.c **** 			UpdateRGBled();
 247:BLEApplications.c ****             
 248:BLEApplications.c **** 			/* Reset the isConnectionUpdateRequested flag to allow sending
 249:BLEApplications.c **** 			* connection parameter update request in next connection */
 250:BLEApplications.c **** 			isConnectionUpdateRequested = TRUE;
 251:BLEApplications.c **** 			
 252:BLEApplications.c **** 			/* Set the flag to allow system to go to Deep Sleep */
 253:BLEApplications.c **** 			shut_down_led = TRUE;
 254:BLEApplications.c **** 			
 255:BLEApplications.c **** 			break;
 256:BLEApplications.c ****             
 257:BLEApplications.c ****         case CYBLE_EVT_GATTS_WRITE_REQ:
 258:BLEApplications.c **** 			/* This event is received when Central device sends a Write command on an Attribute */
 259:BLEApplications.c ****             wrReqParam = (CYBLE_GATTS_WRITE_REQ_PARAM_T *) eventParam;
 260:BLEApplications.c ****             
 261:BLEApplications.c **** 			/* When this event is triggered, the peripheral has received a write command on the custom chara
 262:BLEApplications.c **** 			/* Check if command is for correct attribute and update the flag for sending Notifications */
 263:BLEApplications.c ****             if(CYBLE_CAPSENSE_CAPSENSE_SLIDER_CLIENT_CHARACTERISTIC_CONFIGURATION_DESC_HANDLE == wr
 264:BLEApplications.c **** 			{
 265:BLEApplications.c **** 				/* Extract the Write value sent by the Client for CapSense Slider CCCD */
 266:BLEApplications.c ****                 if(wrReqParam->handleValPair.value.val[CYBLE_CAPSENSE_CAPSENSE_SLIDER_CLIENT_CHARAC
 267:BLEApplications.c ****                 {
 268:BLEApplications.c ****                     sendCapSenseSliderNotifications = TRUE;
 269:BLEApplications.c ****                 }
 270:BLEApplications.c ****                 else if(wrReqParam->handleValPair.value.val[CYBLE_CAPSENSE_CAPSENSE_SLIDER_CLIENT_C
 271:BLEApplications.c ****                 {
 272:BLEApplications.c ****                     sendCapSenseSliderNotifications = FALSE;
 273:BLEApplications.c ****                 }
 274:BLEApplications.c **** 				
 275:BLEApplications.c ****         		/* Write the present CapSense notification status to the local variable */
 276:BLEApplications.c ****         		CapSenseCCCDvalue[0] = sendCapSenseSliderNotifications;
ARM GAS  C:\Users\Sarah\AppData\Local\Temp\ccrcKzcd.s 			page 8


 277:BLEApplications.c ****         		CapSenseCCCDvalue[1] = 0x00;
 278:BLEApplications.c ****         		
 279:BLEApplications.c ****         		/* Update CCCD handle with notification status data*/
 280:BLEApplications.c ****         		CapSenseNotificationCCCDhandle.attrHandle = CYBLE_CAPSENSE_CAPSENSE_SLIDER_CLIENT_CHARACT
 281:BLEApplications.c ****         		CapSenseNotificationCCCDhandle.value.val = CapSenseCCCDvalue;
 282:BLEApplications.c ****         		CapSenseNotificationCCCDhandle.value.len = CCCD_DATA_LEN;
 283:BLEApplications.c ****         		
 284:BLEApplications.c ****         		/* Report data to BLE component for sending data when read by Central device */
 285:BLEApplications.c ****         		CyBle_GattsWriteAttributeValue(&CapSenseNotificationCCCDhandle, ZERO, &connectionHandle, 
 286:BLEApplications.c ****             }
 287:BLEApplications.c **** 			
 288:BLEApplications.c **** 			if(CYBLE_RGB_LED_RGB_LED_CONTROL_CLIENT_CHARACTERISTIC_CONFIGURATION_DESC_HANDLE == wrReqParam->
 289:BLEApplications.c ****             {
 290:BLEApplications.c **** 				/* Extract the Write value sent by the Client for RGB LED CCCD */
 291:BLEApplications.c ****                 if(wrReqParam->handleValPair.value.val[CYBLE_RGB_LED_RGB_LED_CONTROL_CLIENT_CHARACT
 292:BLEApplications.c ****                 {
 293:BLEApplications.c ****                     rgbledNotifications = TRUE;
 294:BLEApplications.c ****                 }
 295:BLEApplications.c ****                 else if(wrReqParam->handleValPair.value.val[CYBLE_RGB_LED_RGB_LED_CONTROL_CLIENT_CH
 296:BLEApplications.c ****                 {
 297:BLEApplications.c ****                     rgbledNotifications = FALSE;
 298:BLEApplications.c ****                 }
 299:BLEApplications.c **** 				
 300:BLEApplications.c ****         		/* Write the present RGB notification status to the local variable */
 301:BLEApplications.c ****         		RGBCCCDvalue[0] = rgbledNotifications;
 302:BLEApplications.c ****         		RGBCCCDvalue[1] = 0x00;
 303:BLEApplications.c ****         		
 304:BLEApplications.c ****         		/* Update CCCD handle with notification status data*/
 305:BLEApplications.c ****         		RGBNotificationCCCDhandle.attrHandle = CYBLE_RGB_LED_RGB_LED_CONTROL_CLIENT_CHARACTERISTI
 306:BLEApplications.c ****         		RGBNotificationCCCDhandle.value.val = RGBCCCDvalue;
 307:BLEApplications.c ****         		RGBNotificationCCCDhandle.value.len = CCCD_DATA_LEN;
 308:BLEApplications.c ****         		
 309:BLEApplications.c ****         		/* Report data to BLE component for sending data when read by Central device */
 310:BLEApplications.c ****         		CyBle_GattsWriteAttributeValue(&RGBNotificationCCCDhandle, ZERO, &connectionHandle, CYBLE
 311:BLEApplications.c **** 				
 312:BLEApplications.c **** 				/* Update the RGB LED Notification attribute with new color coordinates */
 313:BLEApplications.c **** 				SendDataOverRGBledNotification(RGBledData, RGB_CHAR_DATA_LEN);
 314:BLEApplications.c ****             }
 315:BLEApplications.c **** 			
 316:BLEApplications.c **** 			/* Check if the returned handle is matching to RGB LED Control Write Attribute and extract the R
 317:BLEApplications.c ****             if(CYBLE_RGB_LED_RGB_LED_CONTROL_CHAR_HANDLE == wrReqParam->handleValPair.attrHandle)
 318:BLEApplications.c ****             {
 319:BLEApplications.c **** 				/* Extract the Write value sent by the Client for RGB LED Color characteristic */
 320:BLEApplications.c ****                 RGBledData[RED_INDEX] = wrReqParam->handleValPair.value.val[RED_INDEX];
 321:BLEApplications.c ****                 RGBledData[GREEN_INDEX] = wrReqParam->handleValPair.value.val[GREEN_INDEX];
 322:BLEApplications.c ****                 RGBledData[BLUE_INDEX] = wrReqParam->handleValPair.value.val[BLUE_INDEX];
 323:BLEApplications.c ****                 RGBledData[INTENSITY_INDEX] = wrReqParam->handleValPair.value.val[INTENSITY_INDEX];
 324:BLEApplications.c ****                 
 325:BLEApplications.c **** 				/* Update the PrISM components and the attribute for RGB LED read characteristics*/
 326:BLEApplications.c ****                 UpdateRGBled();
 327:BLEApplications.c ****             }
 328:BLEApplications.c **** 			
 329:BLEApplications.c **** 			/* Send the response to the write request received. */
 330:BLEApplications.c **** 			CyBle_GattsWriteRsp(connectionHandle);
 331:BLEApplications.c **** 			
 332:BLEApplications.c **** 			break;
 333:BLEApplications.c **** 			
ARM GAS  C:\Users\Sarah\AppData\Local\Temp\ccrcKzcd.s 			page 9


 334:BLEApplications.c **** 		case CYBLE_EVT_L2CAP_CONN_PARAM_UPDATE_RSP:
 335:BLEApplications.c **** 				/* If L2CAP connection parameter update response received, reset application flag */
 336:BLEApplications.c ****             	isConnectionUpdateRequested = FALSE;
 337:BLEApplications.c ****             break;
 338:BLEApplications.c **** 			
 339:BLEApplications.c **** 		case CYBLE_EVT_STACK_BUSY_STATUS:
 340:BLEApplications.c **** 			/* This event is generated when the internal stack buffer is full and no more
 341:BLEApplications.c **** 			* data can be accepted or the stack has buffer available and can accept data.
 342:BLEApplications.c **** 			* This event is used by application to prevent pushing lot of data to stack. */
 343:BLEApplications.c **** 			
 344:BLEApplications.c **** 			/* Extract the present stack status */
 345:BLEApplications.c ****             busyStatus = * (uint8*)eventParam;
 346:BLEApplications.c ****             break;
 347:BLEApplications.c **** 			
 348:BLEApplications.c ****         default:
 349:BLEApplications.c **** 
 350:BLEApplications.c ****        	 	break;
 124              		.loc 1 350 0
 125 0020 19E1     		b	.L1
 126              	.L6:
 142:BLEApplications.c ****     {
 127              		.loc 1 142 0
 128 0022 052B     		cmp	r3, #5
 129 0024 00D1     		bne	.LCB30
 130 0026 0EE1     		b	.L8	@long jump
 131              	.LCB30:
 132 0028 262B     		cmp	r3, #38
 133 002a 12D0     		beq	.L9
 134              		.loc 1 350 0
 135 002c 13E1     		b	.L1
 136              	.L4:
 142:BLEApplications.c ****     {
 137              		.loc 1 142 0
 138 002e 422B     		cmp	r3, #66
 139 0030 2DD0     		beq	.L10
 140 0032 04D8     		bhi	.L11
 141 0034 282B     		cmp	r3, #40
 142 0036 15D0     		beq	.L12
 143 0038 412B     		cmp	r3, #65
 144 003a 1AD0     		beq	.L13
 145              		.loc 1 350 0
 146 003c 0BE1     		b	.L1
 147              	.L11:
 142:BLEApplications.c ****     {
 148              		.loc 1 142 0
 149 003e 4C2B     		cmp	r3, #76
 150 0040 73D0     		beq	.L14
 151 0042 712B     		cmp	r3, #113
 152 0044 00D1     		bne	.LCB52
 153 0046 FAE0     		b	.L15	@long jump
 154              	.LCB52:
 155              		.loc 1 350 0
 156 0048 05E1     		b	.L1
 157              	.L7:
 149:BLEApplications.c **** 			
 158              		.loc 1 149 0
 159 004a 844B     		ldr	r3, .L27
ARM GAS  C:\Users\Sarah\AppData\Local\Temp\ccrcKzcd.s 			page 10


 160 004c 0122     		mov	r2, #1
 161 004e 1A70     		strb	r2, [r3]
 151:BLEApplications.c **** 			
 162              		.loc 1 151 0
 163 0050 01E1     		b	.L1
 164              	.L9:
 165:BLEApplications.c **** 			{
 165              		.loc 1 165 0
 166 0052 834B     		ldr	r3, .L27+4
 167 0054 1B78     		ldrb	r3, [r3]
 168 0056 042B     		cmp	r3, #4
 169 0058 03D1     		bne	.L17
 169:BLEApplications.c **** 			}
 170              		.loc 1 169 0
 171 005a 804B     		ldr	r3, .L27
 172 005c 0122     		mov	r2, #1
 173 005e 1A70     		strb	r2, [r3]
 171:BLEApplications.c **** 			
 174              		.loc 1 171 0
 175 0060 F9E0     		b	.L1
 176              	.L17:
 177 0062 F8E0     		b	.L1
 178              	.L12:
 183:BLEApplications.c **** 			
 179              		.loc 1 183 0
 180 0064 7D4B     		ldr	r3, .L27
 181 0066 0122     		mov	r2, #1
 182 0068 1A70     		strb	r2, [r3]
 186:BLEApplications.c **** 			break;
 183              		.loc 1 186 0
 184 006a 7E4B     		ldr	r3, .L27+8
 185 006c 0122     		mov	r2, #1
 186 006e 1A70     		strb	r2, [r3]
 187:BLEApplications.c ****         
 187              		.loc 1 187 0
 188 0070 F1E0     		b	.L1
 189              	.L13:
 196:BLEApplications.c **** 			
 190              		.loc 1 196 0
 191 0072 7D4A     		ldr	r2, .L27+12
 192 0074 3B68     		ldr	r3, [r7]
 193 0076 111C     		mov	r1, r2
 194 0078 1A1C     		mov	r2, r3
 195 007a 0223     		mov	r3, #2
 196 007c 081C     		mov	r0, r1
 197 007e 111C     		mov	r1, r2
 198 0080 1A1C     		mov	r2, r3
 199 0082 FFF7FEFF 		bl	memcpy
 199:BLEApplications.c **** 			break;
 200              		.loc 1 199 0
 201 0086 794B     		ldr	r3, .L27+16
 202 0088 0122     		mov	r2, #1
 203 008a 1A70     		strb	r2, [r3]
 200:BLEApplications.c ****         
 204              		.loc 1 200 0
 205 008c E3E0     		b	.L1
 206              	.L10:
ARM GAS  C:\Users\Sarah\AppData\Local\Temp\ccrcKzcd.s 			page 11


 206:BLEApplications.c **** 			
 207              		.loc 1 206 0
 208 008e 774B     		ldr	r3, .L27+16
 209 0090 0022     		mov	r2, #0
 210 0092 1A70     		strb	r2, [r3]
 210:BLEApplications.c **** 			
 211              		.loc 1 210 0
 212 0094 764B     		ldr	r3, .L27+20
 213 0096 0022     		mov	r2, #0
 214 0098 1A70     		strb	r2, [r3]
 214:BLEApplications.c **** 			
 215              		.loc 1 214 0
 216 009a 764B     		ldr	r3, .L27+24
 217 009c 0022     		mov	r2, #0
 218 009e 1A70     		strb	r2, [r3]
 218:BLEApplications.c ****     		CapSenseCCCDvalue[1] = 0x00;
 219              		.loc 1 218 0
 220 00a0 734B     		ldr	r3, .L27+20
 221 00a2 1A78     		ldrb	r2, [r3]
 222 00a4 744B     		ldr	r3, .L27+28
 223 00a6 1A70     		strb	r2, [r3]
 219:BLEApplications.c ****     		
 224              		.loc 1 219 0
 225 00a8 734B     		ldr	r3, .L27+28
 226 00aa 0022     		mov	r2, #0
 227 00ac 5A70     		strb	r2, [r3, #1]
 222:BLEApplications.c ****     		CapSenseNotificationCCCDhandle.value.val = CapSenseCCCDvalue;
 228              		.loc 1 222 0
 229 00ae 734B     		ldr	r3, .L27+32
 230 00b0 0F22     		mov	r2, #15
 231 00b2 1A81     		strh	r2, [r3, #8]
 223:BLEApplications.c ****     		CapSenseNotificationCCCDhandle.value.len = CCCD_DATA_LEN;
 232              		.loc 1 223 0
 233 00b4 714B     		ldr	r3, .L27+32
 234 00b6 704A     		ldr	r2, .L27+28
 235 00b8 1A60     		str	r2, [r3]
 224:BLEApplications.c ****     		
 236              		.loc 1 224 0
 237 00ba 704B     		ldr	r3, .L27+32
 238 00bc 0222     		mov	r2, #2
 239 00be 9A80     		strh	r2, [r3, #4]
 227:BLEApplications.c **** 		
 240              		.loc 1 227 0
 241 00c0 6E4A     		ldr	r2, .L27+32
 242 00c2 694B     		ldr	r3, .L27+12
 243 00c4 101C     		mov	r0, r2
 244 00c6 0021     		mov	r1, #0
 245 00c8 1A1C     		mov	r2, r3
 246 00ca 4023     		mov	r3, #64
 247 00cc FFF7FEFF 		bl	CyBle_GattsWriteAttributeValue
 230:BLEApplications.c ****     		RGBCCCDvalue[1] = 0x00;
 248              		.loc 1 230 0
 249 00d0 684B     		ldr	r3, .L27+24
 250 00d2 1A78     		ldrb	r2, [r3]
 251 00d4 6A4B     		ldr	r3, .L27+36
 252 00d6 1A70     		strb	r2, [r3]
 231:BLEApplications.c ****     		
ARM GAS  C:\Users\Sarah\AppData\Local\Temp\ccrcKzcd.s 			page 12


 253              		.loc 1 231 0
 254 00d8 694B     		ldr	r3, .L27+36
 255 00da 0022     		mov	r2, #0
 256 00dc 5A70     		strb	r2, [r3, #1]
 234:BLEApplications.c ****     		RGBNotificationCCCDhandle.value.val = RGBCCCDvalue;
 257              		.loc 1 234 0
 258 00de 694B     		ldr	r3, .L27+40
 259 00e0 1422     		mov	r2, #20
 260 00e2 1A81     		strh	r2, [r3, #8]
 235:BLEApplications.c ****     		RGBNotificationCCCDhandle.value.len = CCCD_DATA_LEN;
 261              		.loc 1 235 0
 262 00e4 674B     		ldr	r3, .L27+40
 263 00e6 664A     		ldr	r2, .L27+36
 264 00e8 1A60     		str	r2, [r3]
 236:BLEApplications.c ****     		
 265              		.loc 1 236 0
 266 00ea 664B     		ldr	r3, .L27+40
 267 00ec 0222     		mov	r2, #2
 268 00ee 9A80     		strh	r2, [r3, #4]
 239:BLEApplications.c **** 			
 269              		.loc 1 239 0
 270 00f0 644A     		ldr	r2, .L27+40
 271 00f2 5D4B     		ldr	r3, .L27+12
 272 00f4 101C     		mov	r0, r2
 273 00f6 0021     		mov	r1, #0
 274 00f8 1A1C     		mov	r2, r3
 275 00fa 4023     		mov	r3, #64
 276 00fc FFF7FEFF 		bl	CyBle_GattsWriteAttributeValue
 242:BLEApplications.c ****             RGBledData[GREEN_INDEX] = ZERO;
 277              		.loc 1 242 0
 278 0100 614B     		ldr	r3, .L27+44
 279 0102 0022     		mov	r2, #0
 280 0104 1A70     		strb	r2, [r3]
 243:BLEApplications.c ****             RGBledData[BLUE_INDEX] = ZERO;
 281              		.loc 1 243 0
 282 0106 604B     		ldr	r3, .L27+44
 283 0108 0022     		mov	r2, #0
 284 010a 5A70     		strb	r2, [r3, #1]
 244:BLEApplications.c ****             RGBledData[INTENSITY_INDEX] = ZERO;
 285              		.loc 1 244 0
 286 010c 5E4B     		ldr	r3, .L27+44
 287 010e 0022     		mov	r2, #0
 288 0110 9A70     		strb	r2, [r3, #2]
 245:BLEApplications.c **** 			UpdateRGBled();
 289              		.loc 1 245 0
 290 0112 5D4B     		ldr	r3, .L27+44
 291 0114 0022     		mov	r2, #0
 292 0116 DA70     		strb	r2, [r3, #3]
 246:BLEApplications.c ****             
 293              		.loc 1 246 0
 294 0118 FFF7FEFF 		bl	UpdateRGBled
 250:BLEApplications.c **** 			
 295              		.loc 1 250 0
 296 011c 5B4B     		ldr	r3, .L27+48
 297 011e 0122     		mov	r2, #1
 298 0120 1A70     		strb	r2, [r3]
 253:BLEApplications.c **** 			
ARM GAS  C:\Users\Sarah\AppData\Local\Temp\ccrcKzcd.s 			page 13


 299              		.loc 1 253 0
 300 0122 504B     		ldr	r3, .L27+8
 301 0124 0122     		mov	r2, #1
 302 0126 1A70     		strb	r2, [r3]
 255:BLEApplications.c ****             
 303              		.loc 1 255 0
 304 0128 95E0     		b	.L1
 305              	.L14:
 259:BLEApplications.c ****             
 306              		.loc 1 259 0
 307 012a 3B68     		ldr	r3, [r7]
 308 012c FB60     		str	r3, [r7, #12]
 263:BLEApplications.c **** 			{
 309              		.loc 1 263 0
 310 012e FB68     		ldr	r3, [r7, #12]
 311 0130 9B89     		ldrh	r3, [r3, #12]
 312 0132 0F2B     		cmp	r3, #15
 313 0134 28D1     		bne	.L18
 266:BLEApplications.c ****                 {
 314              		.loc 1 266 0
 315 0136 FB68     		ldr	r3, [r7, #12]
 316 0138 5B68     		ldr	r3, [r3, #4]
 317 013a 1B78     		ldrb	r3, [r3]
 318 013c 012B     		cmp	r3, #1
 319 013e 03D1     		bne	.L19
 268:BLEApplications.c ****                 }
 320              		.loc 1 268 0
 321 0140 4B4B     		ldr	r3, .L27+20
 322 0142 0122     		mov	r2, #1
 323 0144 1A70     		strb	r2, [r3]
 324 0146 07E0     		b	.L20
 325              	.L19:
 270:BLEApplications.c ****                 {
 326              		.loc 1 270 0
 327 0148 FB68     		ldr	r3, [r7, #12]
 328 014a 5B68     		ldr	r3, [r3, #4]
 329 014c 1B78     		ldrb	r3, [r3]
 330 014e 002B     		cmp	r3, #0
 331 0150 02D1     		bne	.L20
 272:BLEApplications.c ****                 }
 332              		.loc 1 272 0
 333 0152 474B     		ldr	r3, .L27+20
 334 0154 0022     		mov	r2, #0
 335 0156 1A70     		strb	r2, [r3]
 336              	.L20:
 276:BLEApplications.c ****         		CapSenseCCCDvalue[1] = 0x00;
 337              		.loc 1 276 0
 338 0158 454B     		ldr	r3, .L27+20
 339 015a 1A78     		ldrb	r2, [r3]
 340 015c 464B     		ldr	r3, .L27+28
 341 015e 1A70     		strb	r2, [r3]
 277:BLEApplications.c ****         		
 342              		.loc 1 277 0
 343 0160 454B     		ldr	r3, .L27+28
 344 0162 0022     		mov	r2, #0
 345 0164 5A70     		strb	r2, [r3, #1]
 280:BLEApplications.c ****         		CapSenseNotificationCCCDhandle.value.val = CapSenseCCCDvalue;
ARM GAS  C:\Users\Sarah\AppData\Local\Temp\ccrcKzcd.s 			page 14


 346              		.loc 1 280 0
 347 0166 454B     		ldr	r3, .L27+32
 348 0168 0F22     		mov	r2, #15
 349 016a 1A81     		strh	r2, [r3, #8]
 281:BLEApplications.c ****         		CapSenseNotificationCCCDhandle.value.len = CCCD_DATA_LEN;
 350              		.loc 1 281 0
 351 016c 434B     		ldr	r3, .L27+32
 352 016e 424A     		ldr	r2, .L27+28
 353 0170 1A60     		str	r2, [r3]
 282:BLEApplications.c ****         		
 354              		.loc 1 282 0
 355 0172 424B     		ldr	r3, .L27+32
 356 0174 0222     		mov	r2, #2
 357 0176 9A80     		strh	r2, [r3, #4]
 285:BLEApplications.c ****             }
 358              		.loc 1 285 0
 359 0178 404A     		ldr	r2, .L27+32
 360 017a 3B4B     		ldr	r3, .L27+12
 361 017c 101C     		mov	r0, r2
 362 017e 0021     		mov	r1, #0
 363 0180 1A1C     		mov	r2, r3
 364 0182 4023     		mov	r3, #64
 365 0184 FFF7FEFF 		bl	CyBle_GattsWriteAttributeValue
 366              	.L18:
 288:BLEApplications.c ****             {
 367              		.loc 1 288 0
 368 0188 FB68     		ldr	r3, [r7, #12]
 369 018a 9B89     		ldrh	r3, [r3, #12]
 370 018c 142B     		cmp	r3, #20
 371 018e 2DD1     		bne	.L21
 291:BLEApplications.c ****                 {
 372              		.loc 1 291 0
 373 0190 FB68     		ldr	r3, [r7, #12]
 374 0192 5B68     		ldr	r3, [r3, #4]
 375 0194 1B78     		ldrb	r3, [r3]
 376 0196 012B     		cmp	r3, #1
 377 0198 03D1     		bne	.L22
 293:BLEApplications.c ****                 }
 378              		.loc 1 293 0
 379 019a 364B     		ldr	r3, .L27+24
 380 019c 0122     		mov	r2, #1
 381 019e 1A70     		strb	r2, [r3]
 382 01a0 07E0     		b	.L23
 383              	.L22:
 295:BLEApplications.c ****                 {
 384              		.loc 1 295 0
 385 01a2 FB68     		ldr	r3, [r7, #12]
 386 01a4 5B68     		ldr	r3, [r3, #4]
 387 01a6 1B78     		ldrb	r3, [r3]
 388 01a8 002B     		cmp	r3, #0
 389 01aa 02D1     		bne	.L23
 297:BLEApplications.c ****                 }
 390              		.loc 1 297 0
 391 01ac 314B     		ldr	r3, .L27+24
 392 01ae 0022     		mov	r2, #0
 393 01b0 1A70     		strb	r2, [r3]
 394              	.L23:
ARM GAS  C:\Users\Sarah\AppData\Local\Temp\ccrcKzcd.s 			page 15


 301:BLEApplications.c ****         		RGBCCCDvalue[1] = 0x00;
 395              		.loc 1 301 0
 396 01b2 304B     		ldr	r3, .L27+24
 397 01b4 1A78     		ldrb	r2, [r3]
 398 01b6 324B     		ldr	r3, .L27+36
 399 01b8 1A70     		strb	r2, [r3]
 302:BLEApplications.c ****         		
 400              		.loc 1 302 0
 401 01ba 314B     		ldr	r3, .L27+36
 402 01bc 0022     		mov	r2, #0
 403 01be 5A70     		strb	r2, [r3, #1]
 305:BLEApplications.c ****         		RGBNotificationCCCDhandle.value.val = RGBCCCDvalue;
 404              		.loc 1 305 0
 405 01c0 304B     		ldr	r3, .L27+40
 406 01c2 1422     		mov	r2, #20
 407 01c4 1A81     		strh	r2, [r3, #8]
 306:BLEApplications.c ****         		RGBNotificationCCCDhandle.value.len = CCCD_DATA_LEN;
 408              		.loc 1 306 0
 409 01c6 2F4B     		ldr	r3, .L27+40
 410 01c8 2D4A     		ldr	r2, .L27+36
 411 01ca 1A60     		str	r2, [r3]
 307:BLEApplications.c ****         		
 412              		.loc 1 307 0
 413 01cc 2D4B     		ldr	r3, .L27+40
 414 01ce 0222     		mov	r2, #2
 415 01d0 9A80     		strh	r2, [r3, #4]
 310:BLEApplications.c **** 				
 416              		.loc 1 310 0
 417 01d2 2C4A     		ldr	r2, .L27+40
 418 01d4 244B     		ldr	r3, .L27+12
 419 01d6 101C     		mov	r0, r2
 420 01d8 0021     		mov	r1, #0
 421 01da 1A1C     		mov	r2, r3
 422 01dc 4023     		mov	r3, #64
 423 01de FFF7FEFF 		bl	CyBle_GattsWriteAttributeValue
 313:BLEApplications.c ****             }
 424              		.loc 1 313 0
 425 01e2 294B     		ldr	r3, .L27+44
 426 01e4 181C     		mov	r0, r3
 427 01e6 0421     		mov	r1, #4
 428 01e8 FFF7FEFF 		bl	SendDataOverRGBledNotification
 429              	.L21:
 317:BLEApplications.c ****             {
 430              		.loc 1 317 0
 431 01ec FB68     		ldr	r3, [r7, #12]
 432 01ee 9B89     		ldrh	r3, [r3, #12]
 433 01f0 132B     		cmp	r3, #19
 434 01f2 15D1     		bne	.L24
 320:BLEApplications.c ****                 RGBledData[GREEN_INDEX] = wrReqParam->handleValPair.value.val[GREEN_INDEX];
 435              		.loc 1 320 0
 436 01f4 FB68     		ldr	r3, [r7, #12]
 437 01f6 5B68     		ldr	r3, [r3, #4]
 438 01f8 1A78     		ldrb	r2, [r3]
 439 01fa 234B     		ldr	r3, .L27+44
 440 01fc 1A70     		strb	r2, [r3]
 321:BLEApplications.c ****                 RGBledData[BLUE_INDEX] = wrReqParam->handleValPair.value.val[BLUE_INDEX];
 441              		.loc 1 321 0
ARM GAS  C:\Users\Sarah\AppData\Local\Temp\ccrcKzcd.s 			page 16


 442 01fe FB68     		ldr	r3, [r7, #12]
 443 0200 5B68     		ldr	r3, [r3, #4]
 444 0202 5A78     		ldrb	r2, [r3, #1]
 445 0204 204B     		ldr	r3, .L27+44
 446 0206 5A70     		strb	r2, [r3, #1]
 322:BLEApplications.c ****                 RGBledData[INTENSITY_INDEX] = wrReqParam->handleValPair.value.val[INTENSITY_INDEX];
 447              		.loc 1 322 0
 448 0208 FB68     		ldr	r3, [r7, #12]
 449 020a 5B68     		ldr	r3, [r3, #4]
 450 020c 9A78     		ldrb	r2, [r3, #2]
 451 020e 1E4B     		ldr	r3, .L27+44
 452 0210 9A70     		strb	r2, [r3, #2]
 323:BLEApplications.c ****                 
 453              		.loc 1 323 0
 454 0212 FB68     		ldr	r3, [r7, #12]
 455 0214 5B68     		ldr	r3, [r3, #4]
 456 0216 DA78     		ldrb	r2, [r3, #3]
 457 0218 1B4B     		ldr	r3, .L27+44
 458 021a DA70     		strb	r2, [r3, #3]
 326:BLEApplications.c ****             }
 459              		.loc 1 326 0
 460 021c FFF7FEFF 		bl	UpdateRGBled
 461              	.L24:
 330:BLEApplications.c **** 			
 462              		.loc 1 330 0
 463 0220 114B     		ldr	r3, .L27+12
 464 0222 1A78     		ldrb	r2, [r3]
 465 0224 5B78     		ldrb	r3, [r3, #1]
 466 0226 1B02     		lsl	r3, r3, #8
 467 0228 1A43     		orr	r2, r3
 468 022a 0023     		mov	r3, #0
 469 022c 1204     		lsl	r2, r2, #16
 470 022e 120C     		lsr	r2, r2, #16
 471 0230 1B0C     		lsr	r3, r3, #16
 472 0232 1B04     		lsl	r3, r3, #16
 473 0234 1343     		orr	r3, r2
 474 0236 181C     		mov	r0, r3
 475 0238 FFF7FEFF 		bl	CyBle_GattsWriteRsp
 332:BLEApplications.c **** 			
 476              		.loc 1 332 0
 477 023c 0BE0     		b	.L1
 478              	.L15:
 336:BLEApplications.c ****             break;
 479              		.loc 1 336 0
 480 023e 134B     		ldr	r3, .L27+48
 481 0240 0022     		mov	r2, #0
 482 0242 1A70     		strb	r2, [r3]
 337:BLEApplications.c **** 			
 483              		.loc 1 337 0
 484 0244 07E0     		b	.L1
 485              	.L8:
 345:BLEApplications.c ****             break;
 486              		.loc 1 345 0
 487 0246 3B68     		ldr	r3, [r7]
 488 0248 1A78     		ldrb	r2, [r3]
 489 024a 114B     		ldr	r3, .L27+52
 490 024c 1A70     		strb	r2, [r3]
ARM GAS  C:\Users\Sarah\AppData\Local\Temp\ccrcKzcd.s 			page 17


 346:BLEApplications.c **** 			
 491              		.loc 1 346 0
 492 024e 02E0     		b	.L1
 493              	.L25:
 175:BLEApplications.c **** 
 494              		.loc 1 175 0
 495 0250 C046     		mov	r8, r8
 496 0252 00E0     		b	.L1
 497              	.L26:
 156:BLEApplications.c ****         
 498              		.loc 1 156 0
 499 0254 C046     		mov	r8, r8
 500              	.L1:
 351:BLEApplications.c ****     }   	/* switch(event) */
 352:BLEApplications.c **** }
 501              		.loc 1 352 0
 502 0256 BD46     		mov	sp, r7
 503 0258 04B0     		add	sp, sp, #16
 504              		@ sp needed
 505 025a 80BD     		pop	{r7, pc}
 506              	.L28:
 507              		.align	2
 508              	.L27:
 509 025c 00000000 		.word	restartAdvertisement
 510 0260 00000000 		.word	cyBle_state
 511 0264 00000000 		.word	shut_down_led
 512 0268 00000000 		.word	connectionHandle
 513 026c 00000000 		.word	deviceConnected
 514 0270 00000000 		.word	sendCapSenseSliderNotifications
 515 0274 00000000 		.word	rgbledNotifications
 516 0278 00000000 		.word	CapSenseCCCDvalue
 517 027c 00000000 		.word	CapSenseNotificationCCCDhandle
 518 0280 00000000 		.word	RGBCCCDvalue
 519 0284 00000000 		.word	RGBNotificationCCCDhandle
 520 0288 00000000 		.word	RGBledData
 521 028c 00000000 		.word	isConnectionUpdateRequested
 522 0290 00000000 		.word	busyStatus
 523              		.cfi_endproc
 524              	.LFE37:
 525              		.size	CustomEventHandler, .-CustomEventHandler
 526              		.section	.text.SendDataOverCapSenseNotification,"ax",%progbits
 527              		.align	2
 528              		.global	SendDataOverCapSenseNotification
 529              		.code	16
 530              		.thumb_func
 531              		.type	SendDataOverCapSenseNotification, %function
 532              	SendDataOverCapSenseNotification:
 533              	.LFB38:
 353:BLEApplications.c **** 
 354:BLEApplications.c **** /*******************************************************************************
 355:BLEApplications.c **** * Function Name: SendDataOverCapSenseNotification
 356:BLEApplications.c **** ********************************************************************************
 357:BLEApplications.c **** * Summary:
 358:BLEApplications.c **** *        Send CapSense Slider data as BLE Notifications. This function updates
 359:BLEApplications.c **** * the notification handle with data and triggers the BLE component to send 
 360:BLEApplications.c **** * notification
 361:BLEApplications.c **** *
ARM GAS  C:\Users\Sarah\AppData\Local\Temp\ccrcKzcd.s 			page 18


 362:BLEApplications.c **** * Parameters:
 363:BLEApplications.c **** *  CapSenseSliderData:	CapSense slider value	
 364:BLEApplications.c **** *
 365:BLEApplications.c **** * Return:
 366:BLEApplications.c **** *  void
 367:BLEApplications.c **** *
 368:BLEApplications.c **** *******************************************************************************/
 369:BLEApplications.c **** void SendDataOverCapSenseNotification(uint8 CapSenseSliderData)
 370:BLEApplications.c **** {
 534              		.loc 1 370 0
 535              		.cfi_startproc
 536 0000 80B5     		push	{r7, lr}
 537              		.cfi_def_cfa_offset 8
 538              		.cfi_offset 7, -8
 539              		.cfi_offset 14, -4
 540 0002 86B0     		sub	sp, sp, #24
 541              		.cfi_def_cfa_offset 32
 542 0004 00AF     		add	r7, sp, #0
 543              		.cfi_def_cfa_register 7
 544 0006 021C     		mov	r2, r0
 545 0008 FB1D     		add	r3, r7, #7
 546 000a 1A70     		strb	r2, [r3]
 371:BLEApplications.c **** 	/* 'CapSensenotificationHandle' stores CapSense notification data parameters */
 372:BLEApplications.c **** 	CYBLE_GATTS_HANDLE_VALUE_NTF_T		CapSensenotificationHandle;	
 373:BLEApplications.c **** 	
 374:BLEApplications.c **** 	/* If stack is not busy, then send the notification */
 375:BLEApplications.c **** 	if(busyStatus == CYBLE_STACK_STATE_FREE)
 547              		.loc 1 375 0
 548 000c 114B     		ldr	r3, .L31
 549 000e 1B78     		ldrb	r3, [r3]
 550 0010 002B     		cmp	r3, #0
 551 0012 1BD1     		bne	.L29
 376:BLEApplications.c **** 	{
 377:BLEApplications.c **** 		/* Update notification handle with CapSense slider data*/
 378:BLEApplications.c **** 		CapSensenotificationHandle.attrHandle = CYBLE_CAPSENSE_CAPSENSE_SLIDER_CHAR_HANDLE;				
 552              		.loc 1 378 0
 553 0014 0C23     		mov	r3, #12
 554 0016 FB18     		add	r3, r7, r3
 555 0018 0E22     		mov	r2, #14
 556 001a 1A81     		strh	r2, [r3, #8]
 379:BLEApplications.c **** 		CapSensenotificationHandle.value.val = &CapSenseSliderData;
 557              		.loc 1 379 0
 558 001c 0C23     		mov	r3, #12
 559 001e FB18     		add	r3, r7, r3
 560 0020 FA1D     		add	r2, r7, #7
 561 0022 1A60     		str	r2, [r3]
 380:BLEApplications.c **** 		CapSensenotificationHandle.value.len = CAPSENSE_SLIDER_NTF_DATA_LEN;
 562              		.loc 1 380 0
 563 0024 0C23     		mov	r3, #12
 564 0026 FB18     		add	r3, r7, r3
 565 0028 0122     		mov	r2, #1
 566 002a 9A80     		strh	r2, [r3, #4]
 381:BLEApplications.c **** 		
 382:BLEApplications.c **** 		/* Send the updated handle as part of attribute for notifications */
 383:BLEApplications.c **** 		CyBle_GattsNotification(connectionHandle,&CapSensenotificationHandle);
 567              		.loc 1 383 0
 568 002c 0A4B     		ldr	r3, .L31+4
ARM GAS  C:\Users\Sarah\AppData\Local\Temp\ccrcKzcd.s 			page 19


 569 002e 0C22     		mov	r2, #12
 570 0030 B918     		add	r1, r7, r2
 571 0032 1A78     		ldrb	r2, [r3]
 572 0034 5B78     		ldrb	r3, [r3, #1]
 573 0036 1B02     		lsl	r3, r3, #8
 574 0038 1A43     		orr	r2, r3
 575 003a 0023     		mov	r3, #0
 576 003c 1204     		lsl	r2, r2, #16
 577 003e 120C     		lsr	r2, r2, #16
 578 0040 1B0C     		lsr	r3, r3, #16
 579 0042 1B04     		lsl	r3, r3, #16
 580 0044 1343     		orr	r3, r2
 581 0046 181C     		mov	r0, r3
 582 0048 FFF7FEFF 		bl	CyBle_GattsNotification
 583              	.L29:
 384:BLEApplications.c **** 	}
 385:BLEApplications.c **** }
 584              		.loc 1 385 0
 585 004c BD46     		mov	sp, r7
 586 004e 06B0     		add	sp, sp, #24
 587              		@ sp needed
 588 0050 80BD     		pop	{r7, pc}
 589              	.L32:
 590 0052 C046     		.align	2
 591              	.L31:
 592 0054 00000000 		.word	busyStatus
 593 0058 00000000 		.word	connectionHandle
 594              		.cfi_endproc
 595              	.LFE38:
 596              		.size	SendDataOverCapSenseNotification, .-SendDataOverCapSenseNotification
 597              		.section	.text.SendDataOverRGBledNotification,"ax",%progbits
 598              		.align	2
 599              		.global	SendDataOverRGBledNotification
 600              		.code	16
 601              		.thumb_func
 602              		.type	SendDataOverRGBledNotification, %function
 603              	SendDataOverRGBledNotification:
 604              	.LFB39:
 386:BLEApplications.c **** 
 387:BLEApplications.c **** /*******************************************************************************
 388:BLEApplications.c **** * Function Name: SendDataOverRGBledNotification
 389:BLEApplications.c **** ********************************************************************************
 390:BLEApplications.c **** * Summary:
 391:BLEApplications.c **** *        Send RGB LED data as BLE Notifications. This function updates
 392:BLEApplications.c **** * the notification handle with data and triggers the BLE component to send 
 393:BLEApplications.c **** * notification
 394:BLEApplications.c **** *
 395:BLEApplications.c **** * Parameters:
 396:BLEApplications.c **** *  rgbLedData:	pointer to an array containing RGB color and Intensity values
 397:BLEApplications.c **** *  len: length of the array
 398:BLEApplications.c **** *
 399:BLEApplications.c **** * Return:
 400:BLEApplications.c **** *  void
 401:BLEApplications.c **** *
 402:BLEApplications.c **** *******************************************************************************/
 403:BLEApplications.c **** void SendDataOverRGBledNotification(uint8 *rgbLedData, uint8 len)
 404:BLEApplications.c **** {
ARM GAS  C:\Users\Sarah\AppData\Local\Temp\ccrcKzcd.s 			page 20


 605              		.loc 1 404 0
 606              		.cfi_startproc
 607 0000 80B5     		push	{r7, lr}
 608              		.cfi_def_cfa_offset 8
 609              		.cfi_offset 7, -8
 610              		.cfi_offset 14, -4
 611 0002 86B0     		sub	sp, sp, #24
 612              		.cfi_def_cfa_offset 32
 613 0004 00AF     		add	r7, sp, #0
 614              		.cfi_def_cfa_register 7
 615 0006 7860     		str	r0, [r7, #4]
 616 0008 0A1C     		mov	r2, r1
 617 000a FB1C     		add	r3, r7, #3
 618 000c 1A70     		strb	r2, [r3]
 405:BLEApplications.c **** 	/* 'rgbLednotificationHandle' stores RGB LED notification data parameters */
 406:BLEApplications.c **** 	CYBLE_GATTS_HANDLE_VALUE_NTF_T 	rgbLednotificationHandle;
 407:BLEApplications.c **** 	
 408:BLEApplications.c **** 	/* If stack is not busy, then send the notification */
 409:BLEApplications.c **** 	if(busyStatus == CYBLE_STACK_STATE_FREE)
 619              		.loc 1 409 0
 620 000e 124B     		ldr	r3, .L35
 621 0010 1B78     		ldrb	r3, [r3]
 622 0012 002B     		cmp	r3, #0
 623 0014 1DD1     		bne	.L33
 410:BLEApplications.c **** 	{
 411:BLEApplications.c **** 		/* Update notification handle will CapSense slider data*/
 412:BLEApplications.c **** 		rgbLednotificationHandle.attrHandle = CYBLE_RGB_LED_RGB_LED_CONTROL_CHAR_HANDLE;				
 624              		.loc 1 412 0
 625 0016 0C23     		mov	r3, #12
 626 0018 FB18     		add	r3, r7, r3
 627 001a 1322     		mov	r2, #19
 628 001c 1A81     		strh	r2, [r3, #8]
 413:BLEApplications.c **** 		rgbLednotificationHandle.value.val = rgbLedData;
 629              		.loc 1 413 0
 630 001e 0C23     		mov	r3, #12
 631 0020 FB18     		add	r3, r7, r3
 632 0022 7A68     		ldr	r2, [r7, #4]
 633 0024 1A60     		str	r2, [r3]
 414:BLEApplications.c **** 		rgbLednotificationHandle.value.len = len;
 634              		.loc 1 414 0
 635 0026 FB1C     		add	r3, r7, #3
 636 0028 1B78     		ldrb	r3, [r3]
 637 002a 9AB2     		uxth	r2, r3
 638 002c 0C23     		mov	r3, #12
 639 002e FB18     		add	r3, r7, r3
 640 0030 9A80     		strh	r2, [r3, #4]
 415:BLEApplications.c **** 		
 416:BLEApplications.c **** 		/* Send the updated handle as part of attribute for notifications */
 417:BLEApplications.c **** 		CyBle_GattsNotification(connectionHandle,&rgbLednotificationHandle);
 641              		.loc 1 417 0
 642 0032 0A4B     		ldr	r3, .L35+4
 643 0034 0C22     		mov	r2, #12
 644 0036 B918     		add	r1, r7, r2
 645 0038 1A78     		ldrb	r2, [r3]
 646 003a 5B78     		ldrb	r3, [r3, #1]
 647 003c 1B02     		lsl	r3, r3, #8
 648 003e 1A43     		orr	r2, r3
ARM GAS  C:\Users\Sarah\AppData\Local\Temp\ccrcKzcd.s 			page 21


 649 0040 0023     		mov	r3, #0
 650 0042 1204     		lsl	r2, r2, #16
 651 0044 120C     		lsr	r2, r2, #16
 652 0046 1B0C     		lsr	r3, r3, #16
 653 0048 1B04     		lsl	r3, r3, #16
 654 004a 1343     		orr	r3, r2
 655 004c 181C     		mov	r0, r3
 656 004e FFF7FEFF 		bl	CyBle_GattsNotification
 657              	.L33:
 418:BLEApplications.c **** 	}
 419:BLEApplications.c **** }
 658              		.loc 1 419 0
 659 0052 BD46     		mov	sp, r7
 660 0054 06B0     		add	sp, sp, #24
 661              		@ sp needed
 662 0056 80BD     		pop	{r7, pc}
 663              	.L36:
 664              		.align	2
 665              	.L35:
 666 0058 00000000 		.word	busyStatus
 667 005c 00000000 		.word	connectionHandle
 668              		.cfi_endproc
 669              	.LFE39:
 670              		.size	SendDataOverRGBledNotification, .-SendDataOverRGBledNotification
 671              		.section	.text.UpdateConnectionParam,"ax",%progbits
 672              		.align	2
 673              		.global	UpdateConnectionParam
 674              		.code	16
 675              		.thumb_func
 676              		.type	UpdateConnectionParam, %function
 677              	UpdateConnectionParam:
 678              	.LFB40:
 420:BLEApplications.c **** 
 421:BLEApplications.c **** /*******************************************************************************
 422:BLEApplications.c **** * Function Name: UpdateConnectionParam
 423:BLEApplications.c **** ********************************************************************************
 424:BLEApplications.c **** * Summary:
 425:BLEApplications.c **** *        Send the Connection Update Request to Client device after connection 
 426:BLEApplications.c **** * and modify theconnection interval for low power operation.
 427:BLEApplications.c **** *
 428:BLEApplications.c **** * Parameters:
 429:BLEApplications.c **** *	void
 430:BLEApplications.c **** *
 431:BLEApplications.c **** * Return:
 432:BLEApplications.c **** *  void
 433:BLEApplications.c **** *
 434:BLEApplications.c **** *******************************************************************************/
 435:BLEApplications.c **** void UpdateConnectionParam(void)
 436:BLEApplications.c **** {
 679              		.loc 1 436 0
 680              		.cfi_startproc
 681 0000 80B5     		push	{r7, lr}
 682              		.cfi_def_cfa_offset 8
 683              		.cfi_offset 7, -8
 684              		.cfi_offset 14, -4
 685 0002 00AF     		add	r7, sp, #0
 686              		.cfi_def_cfa_register 7
ARM GAS  C:\Users\Sarah\AppData\Local\Temp\ccrcKzcd.s 			page 22


 437:BLEApplications.c **** 	/* If device is connected and Update connection parameter not updated yet,
 438:BLEApplications.c **** 	* then send the Connection Parameter Update request to Client. */
 439:BLEApplications.c ****     if(deviceConnected && isConnectionUpdateRequested)
 687              		.loc 1 439 0
 688 0004 094B     		ldr	r3, .L39
 689 0006 1B78     		ldrb	r3, [r3]
 690 0008 002B     		cmp	r3, #0
 691 000a 0DD0     		beq	.L37
 692              		.loc 1 439 0 is_stmt 0 discriminator 1
 693 000c 084B     		ldr	r3, .L39+4
 694 000e 1B78     		ldrb	r3, [r3]
 695 0010 002B     		cmp	r3, #0
 696 0012 09D0     		beq	.L37
 440:BLEApplications.c **** 	{
 441:BLEApplications.c **** 		/* Reset the flag to indicate that connection Update request has been sent */
 442:BLEApplications.c **** 		isConnectionUpdateRequested = FALSE;
 697              		.loc 1 442 0 is_stmt 1
 698 0014 064B     		ldr	r3, .L39+4
 699 0016 0022     		mov	r2, #0
 700 0018 1A70     		strb	r2, [r3]
 443:BLEApplications.c **** 		
 444:BLEApplications.c **** 		/* Send Connection Update request with set Parameter */
 445:BLEApplications.c **** 		CyBle_L2capLeConnectionParamUpdateRequest(connectionHandle.bdHandle, &ConnectionParam);
 701              		.loc 1 445 0
 702 001a 064B     		ldr	r3, .L39+8
 703 001c 1A78     		ldrb	r2, [r3]
 704 001e 064B     		ldr	r3, .L39+12
 705 0020 101C     		mov	r0, r2
 706 0022 191C     		mov	r1, r3
 707 0024 FFF7FEFF 		bl	CyBle_L2capLeConnectionParamUpdateRequest
 708              	.L37:
 446:BLEApplications.c **** 	}
 447:BLEApplications.c **** }
 709              		.loc 1 447 0
 710 0028 BD46     		mov	sp, r7
 711              		@ sp needed
 712 002a 80BD     		pop	{r7, pc}
 713              	.L40:
 714              		.align	2
 715              	.L39:
 716 002c 00000000 		.word	deviceConnected
 717 0030 00000000 		.word	isConnectionUpdateRequested
 718 0034 00000000 		.word	connectionHandle
 719 0038 04000000 		.word	ConnectionParam
 720              		.cfi_endproc
 721              	.LFE40:
 722              		.size	UpdateConnectionParam, .-UpdateConnectionParam
 723              		.global	__aeabi_idiv
 724              		.section	.text.UpdateRGBled,"ax",%progbits
 725              		.align	2
 726              		.global	UpdateRGBled
 727              		.code	16
 728              		.thumb_func
 729              		.type	UpdateRGBled, %function
 730              	UpdateRGBled:
 731              	.LFB41:
 448:BLEApplications.c **** 
ARM GAS  C:\Users\Sarah\AppData\Local\Temp\ccrcKzcd.s 			page 23


 449:BLEApplications.c **** /*******************************************************************************
 450:BLEApplications.c **** * Function Name: UpdateRGBled
 451:BLEApplications.c **** ********************************************************************************
 452:BLEApplications.c **** * Summary:
 453:BLEApplications.c **** *        Receive the new RGB data and modify PrISM parameters. Also, update the
 454:BLEApplications.c **** * read characteristic handle so that the next read from the BLE central device
 455:BLEApplications.c **** * gives present RGB color and intensity data.
 456:BLEApplications.c **** *
 457:BLEApplications.c **** * Parameters:
 458:BLEApplications.c **** *  void
 459:BLEApplications.c **** *
 460:BLEApplications.c **** * Return:
 461:BLEApplications.c **** *  void
 462:BLEApplications.c **** *
 463:BLEApplications.c **** *******************************************************************************/
 464:BLEApplications.c **** void UpdateRGBled(void)
 465:BLEApplications.c **** {
 732              		.loc 1 465 0
 733              		.cfi_startproc
 734 0000 80B5     		push	{r7, lr}
 735              		.cfi_def_cfa_offset 8
 736              		.cfi_offset 7, -8
 737              		.cfi_offset 14, -4
 738 0002 82B0     		sub	sp, sp, #8
 739              		.cfi_def_cfa_offset 16
 740 0004 00AF     		add	r7, sp, #0
 741              		.cfi_def_cfa_register 7
 466:BLEApplications.c **** 	/* Local variables to calculate the color components from RGB received data*/
 467:BLEApplications.c **** 	uint8 debug_red;
 468:BLEApplications.c **** 	uint8 debug_green;
 469:BLEApplications.c **** 	uint8 debug_blue;
 470:BLEApplications.c **** 	uint8 intensity_divide_value = RGBledData[INTENSITY_INDEX];
 742              		.loc 1 470 0
 743 0006 FB1D     		add	r3, r7, #7
 744 0008 484A     		ldr	r2, .L45
 745 000a D278     		ldrb	r2, [r2, #3]
 746 000c 1A70     		strb	r2, [r3]
 471:BLEApplications.c **** 	
 472:BLEApplications.c **** 	/* Calculate the intensity of each of the Red, Green and Blue component from the
 473:BLEApplications.c **** 	* received 4-byte data */
 474:BLEApplications.c **** 	debug_red = (uint8)(((uint16)RGBledData[RED_INDEX]*intensity_divide_value)/255);
 747              		.loc 1 474 0
 748 000e 474B     		ldr	r3, .L45
 749 0010 1B78     		ldrb	r3, [r3]
 750 0012 1A1C     		mov	r2, r3
 751 0014 FB1D     		add	r3, r7, #7
 752 0016 1B78     		ldrb	r3, [r3]
 753 0018 5343     		mul	r3, r2
 754 001a 181C     		mov	r0, r3
 755 001c FF21     		mov	r1, #255
 756 001e FFF7FEFF 		bl	__aeabi_idiv
 757 0022 031C     		mov	r3, r0
 758 0024 1A1C     		mov	r2, r3
 759 0026 BB1D     		add	r3, r7, #6
 760 0028 1A70     		strb	r2, [r3]
 475:BLEApplications.c **** 	debug_green = (uint8)(((uint16)RGBledData[GREEN_INDEX]*intensity_divide_value)/255);
 761              		.loc 1 475 0
ARM GAS  C:\Users\Sarah\AppData\Local\Temp\ccrcKzcd.s 			page 24


 762 002a 404B     		ldr	r3, .L45
 763 002c 5B78     		ldrb	r3, [r3, #1]
 764 002e 1A1C     		mov	r2, r3
 765 0030 FB1D     		add	r3, r7, #7
 766 0032 1B78     		ldrb	r3, [r3]
 767 0034 5343     		mul	r3, r2
 768 0036 181C     		mov	r0, r3
 769 0038 FF21     		mov	r1, #255
 770 003a FFF7FEFF 		bl	__aeabi_idiv
 771 003e 031C     		mov	r3, r0
 772 0040 1A1C     		mov	r2, r3
 773 0042 7B1D     		add	r3, r7, #5
 774 0044 1A70     		strb	r2, [r3]
 476:BLEApplications.c **** 	debug_blue = (uint8)(((uint16)RGBledData[BLUE_INDEX]*intensity_divide_value)/255);
 775              		.loc 1 476 0
 776 0046 394B     		ldr	r3, .L45
 777 0048 9B78     		ldrb	r3, [r3, #2]
 778 004a 1A1C     		mov	r2, r3
 779 004c FB1D     		add	r3, r7, #7
 780 004e 1B78     		ldrb	r3, [r3]
 781 0050 5343     		mul	r3, r2
 782 0052 181C     		mov	r0, r3
 783 0054 FF21     		mov	r1, #255
 784 0056 FFF7FEFF 		bl	__aeabi_idiv
 785 005a 031C     		mov	r3, r0
 786 005c 1A1C     		mov	r2, r3
 787 005e 3B1D     		add	r3, r7, #4
 788 0060 1A70     		strb	r2, [r3]
 477:BLEApplications.c **** 	LED_Write(1);
 789              		.loc 1 477 0
 790 0062 0120     		mov	r0, #1
 791 0064 FFF7FEFF 		bl	LED_Write
 478:BLEApplications.c **** 	/*If the Intensity value sent by client is below a set threshold, assume no intensity
 479:BLEApplications.c **** 	* and switch of the RGB colors on LED. Also, set the appropriate flag to allow the system 
 480:BLEApplications.c **** 	* to go to Deep Sleep */
 481:BLEApplications.c **** 	if(RGBledData[INTENSITY_INDEX] < LED_NO_COLOR_THRESHOLD)
 792              		.loc 1 481 0
 793 0068 304B     		ldr	r3, .L45
 794 006a DB78     		ldrb	r3, [r3, #3]
 795 006c 032B     		cmp	r3, #3
 796 006e 0CD8     		bhi	.L42
 482:BLEApplications.c **** 	{
 483:BLEApplications.c **** 		/* Set the flag to allow the system to go to Deep Sleep */
 484:BLEApplications.c **** 		shut_down_led = TRUE;
 797              		.loc 1 484 0
 798 0070 2F4B     		ldr	r3, .L45+4
 799 0072 0122     		mov	r2, #1
 800 0074 1A70     		strb	r2, [r3]
 485:BLEApplications.c **** 		
 486:BLEApplications.c **** 		/* Set the RGB LED pin drive mode to HiZ to prevent leakage of current */
 487:BLEApplications.c **** 		RED_SetDriveMode(RED_DM_ALG_HIZ);
 801              		.loc 1 487 0
 802 0076 0020     		mov	r0, #0
 803 0078 FFF7FEFF 		bl	RED_SetDriveMode
 488:BLEApplications.c **** 		GREEN_SetDriveMode(GREEN_DM_ALG_HIZ);
 804              		.loc 1 488 0
 805 007c 0020     		mov	r0, #0
ARM GAS  C:\Users\Sarah\AppData\Local\Temp\ccrcKzcd.s 			page 25


 806 007e FFF7FEFF 		bl	GREEN_SetDriveMode
 489:BLEApplications.c **** 		BLUE_SetDriveMode(BLUE_DM_ALG_HIZ);
 807              		.loc 1 489 0
 808 0082 0020     		mov	r0, #0
 809 0084 FFF7FEFF 		bl	BLUE_SetDriveMode
 810 0088 3CE0     		b	.L43
 811              	.L42:
 490:BLEApplications.c **** 	}
 491:BLEApplications.c **** 	else
 492:BLEApplications.c **** 	{
 493:BLEApplications.c **** 		/* If the individual color value of Red, Green and Blue component is less than
 494:BLEApplications.c **** 		*  set threshold, then assume no color and shut down the LEDs. Also,set the 
 495:BLEApplications.c **** 		* appropriate flag to allow system to go to Deep Sleep */
 496:BLEApplications.c **** 		if((debug_red < LED_NO_COLOR_THRESHOLD) && \
 812              		.loc 1 496 0
 813 008a BB1D     		add	r3, r7, #6
 814 008c 1B78     		ldrb	r3, [r3]
 815 008e 032B     		cmp	r3, #3
 816 0090 14D8     		bhi	.L44
 817              		.loc 1 496 0 is_stmt 0 discriminator 1
 818 0092 7B1D     		add	r3, r7, #5
 819 0094 1B78     		ldrb	r3, [r3]
 820 0096 032B     		cmp	r3, #3
 821 0098 10D8     		bhi	.L44
 497:BLEApplications.c **** 			(debug_green < LED_NO_COLOR_THRESHOLD) && \
 822              		.loc 1 497 0 is_stmt 1
 823 009a 3B1D     		add	r3, r7, #4
 824 009c 1B78     		ldrb	r3, [r3]
 825 009e 032B     		cmp	r3, #3
 826 00a0 0CD8     		bhi	.L44
 498:BLEApplications.c **** 			(debug_blue < LED_NO_COLOR_THRESHOLD))
 499:BLEApplications.c **** 		{
 500:BLEApplications.c **** 			/* Set the flag to allow the system to go to Deep Sleep */
 501:BLEApplications.c **** 			shut_down_led = TRUE;
 827              		.loc 1 501 0
 828 00a2 234B     		ldr	r3, .L45+4
 829 00a4 0122     		mov	r2, #1
 830 00a6 1A70     		strb	r2, [r3]
 502:BLEApplications.c **** 			
 503:BLEApplications.c **** 			/* Set the RGB LED pin drive mode to HiZ to prevent leakage of current */
 504:BLEApplications.c **** 			RED_SetDriveMode(RED_DM_ALG_HIZ);
 831              		.loc 1 504 0
 832 00a8 0020     		mov	r0, #0
 833 00aa FFF7FEFF 		bl	RED_SetDriveMode
 505:BLEApplications.c **** 			GREEN_SetDriveMode(GREEN_DM_ALG_HIZ);
 834              		.loc 1 505 0
 835 00ae 0020     		mov	r0, #0
 836 00b0 FFF7FEFF 		bl	GREEN_SetDriveMode
 506:BLEApplications.c **** 			BLUE_SetDriveMode(BLUE_DM_ALG_HIZ);
 837              		.loc 1 506 0
 838 00b4 0020     		mov	r0, #0
 839 00b6 FFF7FEFF 		bl	BLUE_SetDriveMode
 840 00ba 23E0     		b	.L43
 841              	.L44:
 507:BLEApplications.c **** 		}
 508:BLEApplications.c **** 		else
 509:BLEApplications.c **** 		{
ARM GAS  C:\Users\Sarah\AppData\Local\Temp\ccrcKzcd.s 			page 26


 510:BLEApplications.c **** 			/* If the color and intensity values received are within the acceptable 
 511:BLEApplications.c **** 			* range, then PrISM has to be enabled and written with correct density 
 512:BLEApplications.c **** 			* value to present the right color. For this, reset the shut_down_led 
 513:BLEApplications.c **** 			* flag to allow CPU to go to only Sleep, and not Deep Sleep. This is 
 514:BLEApplications.c **** 			* because CPU cannot be in Deep Sleep while PrISM is active */
 515:BLEApplications.c **** 			shut_down_led = FALSE;
 842              		.loc 1 515 0
 843 00bc 1C4B     		ldr	r3, .L45+4
 844 00be 0022     		mov	r2, #0
 845 00c0 1A70     		strb	r2, [r3]
 516:BLEApplications.c **** 			
 517:BLEApplications.c **** 			/* Set the time for RGB LED on Period. After this time (in seconds), the 
 518:BLEApplications.c **** 			* LED will be shutdown to prevent current usage */
 519:BLEApplications.c **** 			led_timer = LED_OFF_TIME_PERIOD;
 846              		.loc 1 519 0
 847 00c2 1C4B     		ldr	r3, .L45+8
 848 00c4 0222     		mov	r2, #2
 849 00c6 1A70     		strb	r2, [r3]
 520:BLEApplications.c **** 			
 521:BLEApplications.c **** 			/* Set the drive mode for LED pins to Strong mode */
 522:BLEApplications.c **** 			RED_SetDriveMode(RED_DM_STRONG);
 850              		.loc 1 522 0
 851 00c8 0620     		mov	r0, #6
 852 00ca FFF7FEFF 		bl	RED_SetDriveMode
 523:BLEApplications.c **** 			GREEN_SetDriveMode(GREEN_DM_STRONG);
 853              		.loc 1 523 0
 854 00ce 0620     		mov	r0, #6
 855 00d0 FFF7FEFF 		bl	GREEN_SetDriveMode
 524:BLEApplications.c **** 			BLUE_SetDriveMode(BLUE_DM_STRONG);
 856              		.loc 1 524 0
 857 00d4 0620     		mov	r0, #6
 858 00d6 FFF7FEFF 		bl	BLUE_SetDriveMode
 525:BLEApplications.c **** 			
 526:BLEApplications.c **** 			/* Update the density value of the PrISM module for color control*/
 527:BLEApplications.c **** 			PrISM_1_WritePulse0(RGB_LED_MAX_VAL - debug_red);
 859              		.loc 1 527 0
 860 00da BB1D     		add	r3, r7, #6
 861 00dc 1B78     		ldrb	r3, [r3]
 862 00de DB43     		mvn	r3, r3
 863 00e0 DBB2     		uxtb	r3, r3
 864 00e2 181C     		mov	r0, r3
 865 00e4 FFF7FEFF 		bl	PrISM_1_WritePulse0
 528:BLEApplications.c **** 		    PrISM_1_WritePulse1(RGB_LED_MAX_VAL - debug_green);
 866              		.loc 1 528 0
 867 00e8 7B1D     		add	r3, r7, #5
 868 00ea 1B78     		ldrb	r3, [r3]
 869 00ec DB43     		mvn	r3, r3
 870 00ee DBB2     		uxtb	r3, r3
 871 00f0 181C     		mov	r0, r3
 872 00f2 FFF7FEFF 		bl	PrISM_1_WritePulse1
 529:BLEApplications.c **** 		    PrISM_2_WritePulse0(RGB_LED_MAX_VAL - debug_blue);
 873              		.loc 1 529 0
 874 00f6 3B1D     		add	r3, r7, #4
 875 00f8 1B78     		ldrb	r3, [r3]
 876 00fa DB43     		mvn	r3, r3
 877 00fc DBB2     		uxtb	r3, r3
 878 00fe 181C     		mov	r0, r3
ARM GAS  C:\Users\Sarah\AppData\Local\Temp\ccrcKzcd.s 			page 27


 879 0100 FFF7FEFF 		bl	PrISM_2_WritePulse0
 880              	.L43:
 530:BLEApplications.c **** 		}
 531:BLEApplications.c **** 	}
 532:BLEApplications.c **** 	
 533:BLEApplications.c **** 	/* Update RGB control handle with new values */
 534:BLEApplications.c **** 	rgbHandle.attrHandle = CYBLE_RGB_LED_RGB_LED_CONTROL_CHAR_HANDLE;
 881              		.loc 1 534 0
 882 0104 0C4B     		ldr	r3, .L45+12
 883 0106 1322     		mov	r2, #19
 884 0108 1A81     		strh	r2, [r3, #8]
 535:BLEApplications.c **** 	rgbHandle.value.val = RGBledData;
 885              		.loc 1 535 0
 886 010a 0B4B     		ldr	r3, .L45+12
 887 010c 074A     		ldr	r2, .L45
 888 010e 1A60     		str	r2, [r3]
 536:BLEApplications.c **** 	rgbHandle.value.len = RGB_CHAR_DATA_LEN;
 889              		.loc 1 536 0
 890 0110 094B     		ldr	r3, .L45+12
 891 0112 0422     		mov	r2, #4
 892 0114 9A80     		strh	r2, [r3, #4]
 537:BLEApplications.c **** 	
 538:BLEApplications.c **** 	/* Send updated RGB control handle as attribute for read by central device, so that
 539:BLEApplications.c **** 	* Client reads the new RGB color data */
 540:BLEApplications.c **** 	CyBle_GattsWriteAttributeValue(&rgbHandle,FALSE,&connectionHandle,FALSE);
 893              		.loc 1 540 0
 894 0116 084A     		ldr	r2, .L45+12
 895 0118 084B     		ldr	r3, .L45+16
 896 011a 101C     		mov	r0, r2
 897 011c 0021     		mov	r1, #0
 898 011e 1A1C     		mov	r2, r3
 899 0120 0023     		mov	r3, #0
 900 0122 FFF7FEFF 		bl	CyBle_GattsWriteAttributeValue
 541:BLEApplications.c **** }
 901              		.loc 1 541 0
 902 0126 BD46     		mov	sp, r7
 903 0128 02B0     		add	sp, sp, #8
 904              		@ sp needed
 905 012a 80BD     		pop	{r7, pc}
 906              	.L46:
 907              		.align	2
 908              	.L45:
 909 012c 00000000 		.word	RGBledData
 910 0130 00000000 		.word	shut_down_led
 911 0134 00000000 		.word	led_timer
 912 0138 00000000 		.word	rgbHandle
 913 013c 00000000 		.word	connectionHandle
 914              		.cfi_endproc
 915              	.LFE41:
 916              		.size	UpdateRGBled, .-UpdateRGBled
 917              		.section	.text.HandleStatusLED,"ax",%progbits
 918              		.align	2
 919              		.global	HandleStatusLED
 920              		.code	16
 921              		.thumb_func
 922              		.type	HandleStatusLED, %function
 923              	HandleStatusLED:
ARM GAS  C:\Users\Sarah\AppData\Local\Temp\ccrcKzcd.s 			page 28


 924              	.LFB42:
 542:BLEApplications.c **** 
 543:BLEApplications.c **** 
 544:BLEApplications.c **** /*******************************************************************************
 545:BLEApplications.c **** * Function Name: HandleStatusLED
 546:BLEApplications.c **** ********************************************************************************
 547:BLEApplications.c **** * Summary:
 548:BLEApplications.c **** *        Handle LED status, such as blinking, ON or OFF depending on BLE state.
 549:BLEApplications.c **** *
 550:BLEApplications.c **** * Parameters:
 551:BLEApplications.c **** *  void
 552:BLEApplications.c **** *
 553:BLEApplications.c **** * Return:
 554:BLEApplications.c **** *  void
 555:BLEApplications.c **** *
 556:BLEApplications.c **** *******************************************************************************/
 557:BLEApplications.c **** void HandleStatusLED(void)
 558:BLEApplications.c **** {
 925              		.loc 1 558 0
 926              		.cfi_startproc
 927 0000 80B5     		push	{r7, lr}
 928              		.cfi_def_cfa_offset 8
 929              		.cfi_offset 7, -8
 930              		.cfi_offset 14, -4
 931 0002 82B0     		sub	sp, sp, #8
 932              		.cfi_def_cfa_offset 16
 933 0004 00AF     		add	r7, sp, #0
 934              		.cfi_def_cfa_register 7
 559:BLEApplications.c **** 	/* Local static counter to handle the periodic toggling of LED or keeping LED ON
 560:BLEApplications.c **** 	* for some time. */
 561:BLEApplications.c **** 	static uint32 led_counter = TRUE;
 562:BLEApplications.c **** 	
 563:BLEApplications.c **** 	/* Local static variable that stores the last BLE state in which firmware was */
 564:BLEApplications.c **** 	static uint8 state = 0xFF;
 565:BLEApplications.c **** 	
 566:BLEApplications.c **** 	/* Flag to indicate that the state of BLE has changed from the last known value */
 567:BLEApplications.c **** 	uint8 state_changed = FALSE;
 935              		.loc 1 567 0
 936 0006 FB1D     		add	r3, r7, #7
 937 0008 0022     		mov	r2, #0
 938 000a 1A70     		strb	r2, [r3]
 568:BLEApplications.c **** 	
 569:BLEApplications.c **** 	if(state != CyBle_GetState())
 939              		.loc 1 569 0
 940 000c 3C4B     		ldr	r3, .L57
 941 000e 1A78     		ldrb	r2, [r3]
 942 0010 3C4B     		ldr	r3, .L57+4
 943 0012 1B78     		ldrb	r3, [r3]
 944 0014 9A42     		cmp	r2, r3
 945 0016 09D0     		beq	.L48
 570:BLEApplications.c **** 	{
 571:BLEApplications.c **** 		/* If the present BLE state is different from the new BLE state, set the 
 572:BLEApplications.c **** 		* state_changed flag and reset the local counter */
 573:BLEApplications.c **** 		state_changed = TRUE;
 946              		.loc 1 573 0
 947 0018 FB1D     		add	r3, r7, #7
 948 001a 0122     		mov	r2, #1
ARM GAS  C:\Users\Sarah\AppData\Local\Temp\ccrcKzcd.s 			page 29


 949 001c 1A70     		strb	r2, [r3]
 574:BLEApplications.c **** 				
 575:BLEApplications.c **** 		if(CyBle_GetState() == CYBLE_STATE_ADVERTISING)
 950              		.loc 1 575 0
 951 001e 394B     		ldr	r3, .L57+4
 952 0020 1B78     		ldrb	r3, [r3]
 953 0022 032B     		cmp	r3, #3
 954 0024 02D1     		bne	.L48
 576:BLEApplications.c **** 		{
 577:BLEApplications.c **** 			led_counter = TRUE;
 955              		.loc 1 577 0
 956 0026 384B     		ldr	r3, .L57+8
 957 0028 0122     		mov	r2, #1
 958 002a 1A60     		str	r2, [r3]
 959              	.L48:
 578:BLEApplications.c **** 		}
 579:BLEApplications.c **** 	}
 580:BLEApplications.c **** 	
 581:BLEApplications.c **** 	/* Store the new BLE state into the present state variable */
 582:BLEApplications.c **** 	state = CyBle_GetState();
 960              		.loc 1 582 0
 961 002c 354B     		ldr	r3, .L57+4
 962 002e 1A78     		ldrb	r2, [r3]
 963 0030 334B     		ldr	r3, .L57
 964 0032 1A70     		strb	r2, [r3]
 583:BLEApplications.c **** 		
 584:BLEApplications.c **** 	switch(state)
 965              		.loc 1 584 0
 966 0034 324B     		ldr	r3, .L57
 967 0036 1B78     		ldrb	r3, [r3]
 968 0038 032B     		cmp	r3, #3
 969 003a 1ED0     		beq	.L50
 970 003c 042B     		cmp	r3, #4
 971 003e 45D0     		beq	.L51
 972 0040 022B     		cmp	r3, #2
 973 0042 00D0     		beq	.L52
 585:BLEApplications.c **** 	{
 586:BLEApplications.c **** 		case CYBLE_STATE_CONNECTED:
 587:BLEApplications.c **** 			/* If the present BLE state is connected, keep the LED ON for
 588:BLEApplications.c **** 			* pre-determined time and then switch it OFF in WDT ISR */
 589:BLEApplications.c **** 			if(state_changed)
 590:BLEApplications.c **** 			{
 591:BLEApplications.c **** 				/* Reset the flag for state change */
 592:BLEApplications.c **** 				state_changed = FALSE;
 593:BLEApplications.c **** 				
 594:BLEApplications.c **** 				/* Set the drive mode of LED to Strong to allow driving the LED */
 595:BLEApplications.c **** 				RED_SetDriveMode(RED_DM_STRONG);
 596:BLEApplications.c **** 
 597:BLEApplications.c **** 				/* Put the Status LED to ON state */
 598:BLEApplications.c **** 				PrISM_1_WritePulse0(RGB_LED_ON);
 599:BLEApplications.c **** 				
 600:BLEApplications.c **** 				/* Set flag and counter for Connection indication on LED */
 601:BLEApplications.c **** 				switch_off_status_led = TRUE;
 602:BLEApplications.c **** 				timer_tick = LED_CONN_ON_TIME;
 603:BLEApplications.c ****                 
 604:BLEApplications.c ****                 //CHANGE HERE FOR LED
 605:BLEApplications.c ****                 LED_Write(1);
ARM GAS  C:\Users\Sarah\AppData\Local\Temp\ccrcKzcd.s 			page 30


 606:BLEApplications.c **** 				
 607:BLEApplications.c **** 				/* Initialize the Watchdog for 1 second timing events. The watcdog 
 608:BLEApplications.c **** 				* is initialized after connection and disabled after disconnection.
 609:BLEApplications.c **** 				* This is done to ensure that Watchdog provided periodic wakeup only
 610:BLEApplications.c **** 				* when the system is connected and RGB LED control is required. During 
 611:BLEApplications.c **** 				* other times, it should not wakeup the syste, causing increase in power
 612:BLEApplications.c **** 				* consumption */
 613:BLEApplications.c **** 				InitializeWatchdog();
 614:BLEApplications.c **** 			}
 615:BLEApplications.c **** 		break;
 616:BLEApplications.c **** 		
 617:BLEApplications.c **** 		case CYBLE_STATE_ADVERTISING:
 618:BLEApplications.c **** 			/* If the present BLE state is advertising, toggle the LED
 619:BLEApplications.c **** 			* at pre-determined period to indicate advertising. */
 620:BLEApplications.c **** 			if((--led_counter) == FALSE)
 621:BLEApplications.c **** 			{
 622:BLEApplications.c **** 				/* Toggle Status LED for indicating Advertisement */
 623:BLEApplications.c **** 				if(PrISM_1_ReadPulse0() == RGB_LED_OFF)
 624:BLEApplications.c **** 				{
 625:BLEApplications.c **** 					PrISM_1_WritePulse0(RGB_LED_ON);
 626:BLEApplications.c **** 					RED_SetDriveMode(RED_DM_STRONG);
 627:BLEApplications.c ****                     LED_Status_Write(1);
 628:BLEApplications.c **** 					
 629:BLEApplications.c **** 					led_counter	= LED_ADV_BLINK_PERIOD_ON;
 630:BLEApplications.c **** 				}
 631:BLEApplications.c **** 				else
 632:BLEApplications.c **** 				{
 633:BLEApplications.c **** 					PrISM_1_WritePulse0(RGB_LED_OFF);
 634:BLEApplications.c **** 					RED_SetDriveMode(RED_DM_ALG_HIZ);
 635:BLEApplications.c **** 					LED_Status_Write(0);
 636:BLEApplications.c **** 					led_counter	= LED_ADV_BLINK_PERIOD_OFF;
 637:BLEApplications.c **** 				}
 638:BLEApplications.c **** 			}
 639:BLEApplications.c **** 		break;
 640:BLEApplications.c **** 		
 641:BLEApplications.c **** 		case CYBLE_STATE_DISCONNECTED:
 642:BLEApplications.c **** 			/* If the present BLE state is disconnected, switch off LED
 643:BLEApplications.c **** 			* and set the drive mode of LED to Hi-Z (Analog)*/
 644:BLEApplications.c **** 			PrISM_1_WritePulse0(RGB_LED_OFF);
 645:BLEApplications.c **** 			RED_SetDriveMode(RED_DM_ALG_HIZ);
 646:BLEApplications.c **** 			GREEN_SetDriveMode(GREEN_DM_ALG_HIZ);
 647:BLEApplications.c **** 			BLUE_SetDriveMode(BLUE_DM_ALG_HIZ);
 648:BLEApplications.c **** 			
 649:BLEApplications.c ****             LED_Write(0);
 650:BLEApplications.c **** 			/* Disable Watchdog to prevent Watchdog waking system after
 651:BLEApplications.c **** 			*  disconnection */
 652:BLEApplications.c **** 			CyIntDisable(WATCHDOG_INT_VEC_NUM);
 653:BLEApplications.c **** 		break;
 654:BLEApplications.c **** 		
 655:BLEApplications.c **** 		default:
 656:BLEApplications.c **** 
 657:BLEApplications.c **** 		break;
 974              		.loc 1 657 0
 975 0044 55E0     		b	.L54
 976              	.L52:
 589:BLEApplications.c **** 			{
 977              		.loc 1 589 0
ARM GAS  C:\Users\Sarah\AppData\Local\Temp\ccrcKzcd.s 			page 31


 978 0046 FB1D     		add	r3, r7, #7
 979 0048 1B78     		ldrb	r3, [r3]
 980 004a 002B     		cmp	r3, #0
 981 004c 14D0     		beq	.L53
 592:BLEApplications.c **** 				
 982              		.loc 1 592 0
 983 004e FB1D     		add	r3, r7, #7
 984 0050 0022     		mov	r2, #0
 985 0052 1A70     		strb	r2, [r3]
 595:BLEApplications.c **** 
 986              		.loc 1 595 0
 987 0054 0620     		mov	r0, #6
 988 0056 FFF7FEFF 		bl	RED_SetDriveMode
 598:BLEApplications.c **** 				
 989              		.loc 1 598 0
 990 005a 0020     		mov	r0, #0
 991 005c FFF7FEFF 		bl	PrISM_1_WritePulse0
 601:BLEApplications.c **** 				timer_tick = LED_CONN_ON_TIME;
 992              		.loc 1 601 0
 993 0060 2A4B     		ldr	r3, .L57+12
 994 0062 0122     		mov	r2, #1
 995 0064 1A70     		strb	r2, [r3]
 602:BLEApplications.c ****                 
 996              		.loc 1 602 0
 997 0066 2A4B     		ldr	r3, .L57+16
 998 0068 0222     		mov	r2, #2
 999 006a 1A70     		strb	r2, [r3]
 605:BLEApplications.c **** 				
 1000              		.loc 1 605 0
 1001 006c 0120     		mov	r0, #1
 1002 006e FFF7FEFF 		bl	LED_Write
 613:BLEApplications.c **** 			}
 1003              		.loc 1 613 0
 1004 0072 FFF7FEFF 		bl	InitializeWatchdog
 615:BLEApplications.c **** 		
 1005              		.loc 1 615 0
 1006 0076 3CE0     		b	.L54
 1007              	.L53:
 1008 0078 3BE0     		b	.L54
 1009              	.L50:
 620:BLEApplications.c **** 			{
 1010              		.loc 1 620 0
 1011 007a 234B     		ldr	r3, .L57+8
 1012 007c 1B68     		ldr	r3, [r3]
 1013 007e 5A1E     		sub	r2, r3, #1
 1014 0080 214B     		ldr	r3, .L57+8
 1015 0082 1A60     		str	r2, [r3]
 1016 0084 204B     		ldr	r3, .L57+8
 1017 0086 1B68     		ldr	r3, [r3]
 1018 0088 002B     		cmp	r3, #0
 1019 008a 1ED1     		bne	.L55
 623:BLEApplications.c **** 				{
 1020              		.loc 1 623 0
 1021 008c FFF7FEFF 		bl	PrISM_1_ReadPulse0
 1022 0090 031E     		sub	r3, r0, #0
 1023 0092 FF2B     		cmp	r3, #255
 1024 0094 0CD1     		bne	.L56
ARM GAS  C:\Users\Sarah\AppData\Local\Temp\ccrcKzcd.s 			page 32


 625:BLEApplications.c **** 					RED_SetDriveMode(RED_DM_STRONG);
 1025              		.loc 1 625 0
 1026 0096 0020     		mov	r0, #0
 1027 0098 FFF7FEFF 		bl	PrISM_1_WritePulse0
 626:BLEApplications.c ****                     LED_Status_Write(1);
 1028              		.loc 1 626 0
 1029 009c 0620     		mov	r0, #6
 1030 009e FFF7FEFF 		bl	RED_SetDriveMode
 627:BLEApplications.c **** 					
 1031              		.loc 1 627 0
 1032 00a2 0120     		mov	r0, #1
 1033 00a4 FFF7FEFF 		bl	LED_Status_Write
 629:BLEApplications.c **** 				}
 1034              		.loc 1 629 0
 1035 00a8 174B     		ldr	r3, .L57+8
 1036 00aa 1A4A     		ldr	r2, .L57+20
 1037 00ac 1A60     		str	r2, [r3]
 1038 00ae 0CE0     		b	.L55
 1039              	.L56:
 633:BLEApplications.c **** 					RED_SetDriveMode(RED_DM_ALG_HIZ);
 1040              		.loc 1 633 0
 1041 00b0 FF20     		mov	r0, #255
 1042 00b2 FFF7FEFF 		bl	PrISM_1_WritePulse0
 634:BLEApplications.c **** 					LED_Status_Write(0);
 1043              		.loc 1 634 0
 1044 00b6 0020     		mov	r0, #0
 1045 00b8 FFF7FEFF 		bl	RED_SetDriveMode
 635:BLEApplications.c **** 					led_counter	= LED_ADV_BLINK_PERIOD_OFF;
 1046              		.loc 1 635 0
 1047 00bc 0020     		mov	r0, #0
 1048 00be FFF7FEFF 		bl	LED_Status_Write
 636:BLEApplications.c **** 				}
 1049              		.loc 1 636 0
 1050 00c2 114B     		ldr	r3, .L57+8
 1051 00c4 144A     		ldr	r2, .L57+24
 1052 00c6 1A60     		str	r2, [r3]
 639:BLEApplications.c **** 		
 1053              		.loc 1 639 0
 1054 00c8 13E0     		b	.L54
 1055              	.L55:
 1056 00ca 12E0     		b	.L54
 1057              	.L51:
 644:BLEApplications.c **** 			RED_SetDriveMode(RED_DM_ALG_HIZ);
 1058              		.loc 1 644 0
 1059 00cc FF20     		mov	r0, #255
 1060 00ce FFF7FEFF 		bl	PrISM_1_WritePulse0
 645:BLEApplications.c **** 			GREEN_SetDriveMode(GREEN_DM_ALG_HIZ);
 1061              		.loc 1 645 0
 1062 00d2 0020     		mov	r0, #0
 1063 00d4 FFF7FEFF 		bl	RED_SetDriveMode
 646:BLEApplications.c **** 			BLUE_SetDriveMode(BLUE_DM_ALG_HIZ);
 1064              		.loc 1 646 0
 1065 00d8 0020     		mov	r0, #0
 1066 00da FFF7FEFF 		bl	GREEN_SetDriveMode
 647:BLEApplications.c **** 			
 1067              		.loc 1 647 0
 1068 00de 0020     		mov	r0, #0
ARM GAS  C:\Users\Sarah\AppData\Local\Temp\ccrcKzcd.s 			page 33


 1069 00e0 FFF7FEFF 		bl	BLUE_SetDriveMode
 649:BLEApplications.c **** 			/* Disable Watchdog to prevent Watchdog waking system after
 1070              		.loc 1 649 0
 1071 00e4 0020     		mov	r0, #0
 1072 00e6 FFF7FEFF 		bl	LED_Write
 652:BLEApplications.c **** 		break;
 1073              		.loc 1 652 0
 1074 00ea 0820     		mov	r0, #8
 1075 00ec FFF7FEFF 		bl	CyIntDisable
 653:BLEApplications.c **** 		
 1076              		.loc 1 653 0
 1077 00f0 C046     		mov	r8, r8
 1078              	.L54:
 658:BLEApplications.c **** 	}
 659:BLEApplications.c **** 	
 660:BLEApplications.c **** 	/* Reset the state changed flag. */
 661:BLEApplications.c **** 	state_changed = FALSE;
 1079              		.loc 1 661 0
 1080 00f2 FB1D     		add	r3, r7, #7
 1081 00f4 0022     		mov	r2, #0
 1082 00f6 1A70     		strb	r2, [r3]
 662:BLEApplications.c **** }
 1083              		.loc 1 662 0
 1084 00f8 BD46     		mov	sp, r7
 1085 00fa 02B0     		add	sp, sp, #8
 1086              		@ sp needed
 1087 00fc 80BD     		pop	{r7, pc}
 1088              	.L58:
 1089 00fe C046     		.align	2
 1090              	.L57:
 1091 0100 0D000000 		.word	state.7477
 1092 0104 00000000 		.word	cyBle_state
 1093 0108 10000000 		.word	led_counter.7476
 1094 010c 00000000 		.word	switch_off_status_led
 1095 0110 00000000 		.word	timer_tick
 1096 0114 10270000 		.word	10000
 1097 0118 983A0000 		.word	15000
 1098              		.cfi_endproc
 1099              	.LFE42:
 1100              		.size	HandleStatusLED, .-HandleStatusLED
 1101              		.section	.text.WDT_INT_Handler,"ax",%progbits
 1102              		.align	2
 1103              		.global	WDT_INT_Handler
 1104              		.code	16
 1105              		.thumb_func
 1106              		.type	WDT_INT_Handler, %function
 1107              	WDT_INT_Handler:
 1108              	.LFB43:
 663:BLEApplications.c **** 
 664:BLEApplications.c **** /*******************************************************************************
 665:BLEApplications.c **** * Function Name: WDT_INT_Handler
 666:BLEApplications.c **** ********************************************************************************
 667:BLEApplications.c **** * Summary:
 668:BLEApplications.c **** *        Watchdog interrupt routine for controlling LED status in connected state
 669:BLEApplications.c **** *
 670:BLEApplications.c **** * Parameters:
 671:BLEApplications.c **** *  void
ARM GAS  C:\Users\Sarah\AppData\Local\Temp\ccrcKzcd.s 			page 34


 672:BLEApplications.c **** *
 673:BLEApplications.c **** * Return:
 674:BLEApplications.c **** *  void
 675:BLEApplications.c **** *
 676:BLEApplications.c **** *******************************************************************************/
 677:BLEApplications.c **** void WDT_INT_Handler(void)
 678:BLEApplications.c **** {
 1109              		.loc 1 678 0
 1110              		.cfi_startproc
 1111 0000 80B5     		push	{r7, lr}
 1112              		.cfi_def_cfa_offset 8
 1113              		.cfi_offset 7, -8
 1114              		.cfi_offset 14, -4
 1115 0002 00AF     		add	r7, sp, #0
 1116              		.cfi_def_cfa_register 7
 679:BLEApplications.c **** 	/* If the Interrupt source is Counter 0 match, then process */
 680:BLEApplications.c **** 	if(CySysWdtGetInterruptSource() & CY_SYS_WDT_COUNTER0_INT)
 1117              		.loc 1 680 0
 1118 0004 FFF7FEFF 		bl	CySysWdtGetInterruptSource
 1119 0008 021C     		mov	r2, r0
 1120 000a 0423     		mov	r3, #4
 1121 000c 1340     		and	r3, r2
 1122 000e 4ED0     		beq	.L59
 681:BLEApplications.c **** 	{
 682:BLEApplications.c **** 		/* Clear Watchdog Interrupt from Counter 0 */
 683:BLEApplications.c **** 		CySysWdtClearInterrupt(CY_SYS_WDT_COUNTER0_INT);
 1123              		.loc 1 683 0
 1124 0010 0420     		mov	r0, #4
 1125 0012 FFF7FEFF 		bl	CySysWdtClearInterrupt
 684:BLEApplications.c **** 		
 685:BLEApplications.c **** 		/* If switch_off_status_led is TRUE, then the Connection status LED 
 686:BLEApplications.c **** 		* is ON and it is required to shut it down after 3 seconds */
 687:BLEApplications.c **** 		if(switch_off_status_led)
 1126              		.loc 1 687 0
 1127 0016 274B     		ldr	r3, .L66
 1128 0018 1B78     		ldrb	r3, [r3]
 1129 001a 002B     		cmp	r3, #0
 1130 001c 14D0     		beq	.L61
 688:BLEApplications.c **** 		{
 689:BLEApplications.c **** 			/* If timer ticks for Connection ON LED period has expired, then switch
 690:BLEApplications.c **** 			* off LED */
 691:BLEApplications.c **** 			if(timer_tick == FALSE)
 1131              		.loc 1 691 0
 1132 001e 264B     		ldr	r3, .L66+4
 1133 0020 1B78     		ldrb	r3, [r3]
 1134 0022 002B     		cmp	r3, #0
 1135 0024 09D1     		bne	.L62
 692:BLEApplications.c **** 			{
 693:BLEApplications.c **** 				/* Switch of Status LED */
 694:BLEApplications.c **** 				PrISM_1_WritePulse0(RGB_LED_OFF);
 1136              		.loc 1 694 0
 1137 0026 FF20     		mov	r0, #255
 1138 0028 FFF7FEFF 		bl	PrISM_1_WritePulse0
 695:BLEApplications.c **** 				
 696:BLEApplications.c **** 				/* Set the drive mode of LED to Analog HiZ to prevent leakage current */
 697:BLEApplications.c **** 				RED_SetDriveMode(RED_DM_ALG_HIZ);
 1139              		.loc 1 697 0
ARM GAS  C:\Users\Sarah\AppData\Local\Temp\ccrcKzcd.s 			page 35


 1140 002c 0020     		mov	r0, #0
 1141 002e FFF7FEFF 		bl	RED_SetDriveMode
 698:BLEApplications.c **** 				
 699:BLEApplications.c **** 				/* Reset the Flag */
 700:BLEApplications.c **** 				switch_off_status_led = FALSE;
 1142              		.loc 1 700 0
 1143 0032 204B     		ldr	r3, .L66
 1144 0034 0022     		mov	r2, #0
 1145 0036 1A70     		strb	r2, [r3]
 1146 0038 20E0     		b	.L64
 1147              	.L62:
 701:BLEApplications.c **** 				
 702:BLEApplications.c **** 			}
 703:BLEApplications.c **** 			else
 704:BLEApplications.c **** 			{
 705:BLEApplications.c **** 				/* Decrement timer_tick as counting method */
 706:BLEApplications.c **** 				timer_tick--;
 1148              		.loc 1 706 0
 1149 003a 1F4B     		ldr	r3, .L66+4
 1150 003c 1B78     		ldrb	r3, [r3]
 1151 003e 013B     		sub	r3, r3, #1
 1152 0040 DAB2     		uxtb	r2, r3
 1153 0042 1D4B     		ldr	r3, .L66+4
 1154 0044 1A70     		strb	r2, [r3]
 1155 0046 19E0     		b	.L64
 1156              	.L61:
 707:BLEApplications.c **** 			}
 708:BLEApplications.c **** 		}
 709:BLEApplications.c **** 		/* If the LED activity for Connection LED ON is completed, then firmware is 
 710:BLEApplications.c **** 		* allowed to do timing for RGB LED Control operation after connection. This 
 711:BLEApplications.c **** 		* operation keeps the RGB LED ON for determined time (default 3 seconds) from
 712:BLEApplications.c **** 		* the last time RGB LED data was sent. This ensures that continuous usage of 
 713:BLEApplications.c **** 		* the kit in RGB mode does not consume too much power */
 714:BLEApplications.c **** 		else
 715:BLEApplications.c **** 		{
 716:BLEApplications.c **** 			/* After displaying color for predetermined time, switch off 
 717:BLEApplications.c **** 			* the LEDs to save power */
 718:BLEApplications.c **** 			if(FALSE == led_timer)
 1157              		.loc 1 718 0
 1158 0048 1C4B     		ldr	r3, .L66+8
 1159 004a 1B78     		ldrb	r3, [r3]
 1160 004c 002B     		cmp	r3, #0
 1161 004e 0FD1     		bne	.L65
 719:BLEApplications.c **** 			{
 720:BLEApplications.c **** 				/* Set the flag to indicate to the Low power mode function that system 
 721:BLEApplications.c **** 				* can be put to Deep Sleep as no LED operation is required */
 722:BLEApplications.c **** 				shut_down_led= TRUE;
 1162              		.loc 1 722 0
 1163 0050 1B4B     		ldr	r3, .L66+12
 1164 0052 0122     		mov	r2, #1
 1165 0054 1A70     		strb	r2, [r3]
 723:BLEApplications.c **** 				
 724:BLEApplications.c **** 				/* Shut down LEDs*/
 725:BLEApplications.c **** 				RED_SetDriveMode(RED_DM_ALG_HIZ);
 1166              		.loc 1 725 0
 1167 0056 0020     		mov	r0, #0
 1168 0058 FFF7FEFF 		bl	RED_SetDriveMode
ARM GAS  C:\Users\Sarah\AppData\Local\Temp\ccrcKzcd.s 			page 36


 726:BLEApplications.c **** 				GREEN_SetDriveMode(GREEN_DM_ALG_HIZ);
 1169              		.loc 1 726 0
 1170 005c 0020     		mov	r0, #0
 1171 005e FFF7FEFF 		bl	GREEN_SetDriveMode
 727:BLEApplications.c **** 				BLUE_SetDriveMode(BLUE_DM_ALG_HIZ);
 1172              		.loc 1 727 0
 1173 0062 0020     		mov	r0, #0
 1174 0064 FFF7FEFF 		bl	BLUE_SetDriveMode
 728:BLEApplications.c ****                 
 729:BLEApplications.c ****                 LED_Write(0);
 1175              		.loc 1 729 0
 1176 0068 0020     		mov	r0, #0
 1177 006a FFF7FEFF 		bl	LED_Write
 1178 006e 05E0     		b	.L64
 1179              	.L65:
 730:BLEApplications.c **** 			}
 731:BLEApplications.c **** 			else
 732:BLEApplications.c **** 			{	
 733:BLEApplications.c **** 				/* Decrement the led_timer as counting method for RGB LED Control. During
 734:BLEApplications.c **** 				* this period, the PrISM is active and drives the signal to display the 
 735:BLEApplications.c **** 				* appropriate color */
 736:BLEApplications.c **** 				led_timer--;
 1180              		.loc 1 736 0
 1181 0070 124B     		ldr	r3, .L66+8
 1182 0072 1B78     		ldrb	r3, [r3]
 1183 0074 013B     		sub	r3, r3, #1
 1184 0076 DAB2     		uxtb	r2, r3
 1185 0078 104B     		ldr	r3, .L66+8
 1186 007a 1A70     		strb	r2, [r3]
 1187              	.L64:
 737:BLEApplications.c **** 			}
 738:BLEApplications.c **** 		}
 739:BLEApplications.c **** 		
 740:BLEApplications.c **** 		/* Unlock the WDT registers for modification */
 741:BLEApplications.c **** 		CySysWdtUnlock();
 1188              		.loc 1 741 0
 1189 007c FFF7FEFF 		bl	CySysWdtUnlock
 742:BLEApplications.c **** 		
 743:BLEApplications.c **** 		/* Disable Counter 0 to allow modifications */
 744:BLEApplications.c **** 		CySysWdtDisable(CY_SYS_WDT_COUNTER0_MASK);
 1190              		.loc 1 744 0
 1191 0080 0120     		mov	r0, #1
 1192 0082 FFF7FEFF 		bl	CySysWdtDisable
 745:BLEApplications.c **** 		
 746:BLEApplications.c **** 		/* Reset Counter 0 and give ~3 LFCLK cycles to take effect */
 747:BLEApplications.c **** 		CySysWdtResetCounters(CY_SYS_WDT_COUNTER0_RESET);
 1193              		.loc 1 747 0
 1194 0086 0820     		mov	r0, #8
 1195 0088 FFF7FEFF 		bl	CySysWdtResetCounters
 748:BLEApplications.c **** 		CyDelayUs(WATCHDOG_REG_UPDATE_WAIT_TIME);
 1196              		.loc 1 748 0
 1197 008c 6420     		mov	r0, #100
 1198 008e FFF7FEFF 		bl	CyDelayUs
 749:BLEApplications.c **** 		
 750:BLEApplications.c **** 		/* Write the Counter 0 match value for 1 second and give ~3 LFCLK
 751:BLEApplications.c **** 		* cycles to take effect */
 752:BLEApplications.c **** 		CySysWdtWriteMatch(CY_SYS_WDT_COUNTER0, WATCHDOG_ONE_SEC_COUNT_VAL);
ARM GAS  C:\Users\Sarah\AppData\Local\Temp\ccrcKzcd.s 			page 37


 1199              		.loc 1 752 0
 1200 0092 8023     		mov	r3, #128
 1201 0094 1B02     		lsl	r3, r3, #8
 1202 0096 0020     		mov	r0, #0
 1203 0098 191C     		mov	r1, r3
 1204 009a FFF7FEFF 		bl	CySysWdtSetMatch
 753:BLEApplications.c **** 		CyDelayUs(WATCHDOG_REG_UPDATE_WAIT_TIME);
 1205              		.loc 1 753 0
 1206 009e 6420     		mov	r0, #100
 1207 00a0 FFF7FEFF 		bl	CyDelayUs
 754:BLEApplications.c **** 		
 755:BLEApplications.c **** 		/* Enable Watchdog Counter 0 */
 756:BLEApplications.c **** 		CySysWdtEnable(CY_SYS_WDT_COUNTER0_MASK);
 1208              		.loc 1 756 0
 1209 00a4 0120     		mov	r0, #1
 1210 00a6 FFF7FEFF 		bl	CySysWdtEnable
 757:BLEApplications.c **** 		
 758:BLEApplications.c **** 		/* Lock Watchdog to prevent any further change */
 759:BLEApplications.c **** 	    CySysWdtLock();
 1211              		.loc 1 759 0
 1212 00aa FFF7FEFF 		bl	CySysWdtLock
 1213              	.L59:
 760:BLEApplications.c **** 	}
 761:BLEApplications.c **** }
 1214              		.loc 1 761 0
 1215 00ae BD46     		mov	sp, r7
 1216              		@ sp needed
 1217 00b0 80BD     		pop	{r7, pc}
 1218              	.L67:
 1219 00b2 C046     		.align	2
 1220              	.L66:
 1221 00b4 00000000 		.word	switch_off_status_led
 1222 00b8 00000000 		.word	timer_tick
 1223 00bc 00000000 		.word	led_timer
 1224 00c0 00000000 		.word	shut_down_led
 1225              		.cfi_endproc
 1226              	.LFE43:
 1227              		.size	WDT_INT_Handler, .-WDT_INT_Handler
 1228              		.section	.text.InitializeWatchdog,"ax",%progbits
 1229              		.align	2
 1230              		.global	InitializeWatchdog
 1231              		.code	16
 1232              		.thumb_func
 1233              		.type	InitializeWatchdog, %function
 1234              	InitializeWatchdog:
 1235              	.LFB44:
 762:BLEApplications.c **** 
 763:BLEApplications.c **** /*******************************************************************************
 764:BLEApplications.c **** * Function Name: InitializeWatchdog
 765:BLEApplications.c **** ********************************************************************************
 766:BLEApplications.c **** * Summary:
 767:BLEApplications.c **** *        Reset watchdog timer
 768:BLEApplications.c **** *
 769:BLEApplications.c **** * Parameters:
 770:BLEApplications.c **** *  void
 771:BLEApplications.c **** *
 772:BLEApplications.c **** * Return:
ARM GAS  C:\Users\Sarah\AppData\Local\Temp\ccrcKzcd.s 			page 38


 773:BLEApplications.c **** *  void
 774:BLEApplications.c **** *
 775:BLEApplications.c **** *******************************************************************************/
 776:BLEApplications.c **** void InitializeWatchdog(void)
 777:BLEApplications.c **** {
 1236              		.loc 1 777 0
 1237              		.cfi_startproc
 1238 0000 80B5     		push	{r7, lr}
 1239              		.cfi_def_cfa_offset 8
 1240              		.cfi_offset 7, -8
 1241              		.cfi_offset 14, -4
 1242 0002 00AF     		add	r7, sp, #0
 1243              		.cfi_def_cfa_register 7
 778:BLEApplications.c **** 	/* Unlock the WDT registers for modification */
 779:BLEApplications.c **** 	CySysWdtUnlock(); 
 1244              		.loc 1 779 0
 1245 0004 FFF7FEFF 		bl	CySysWdtUnlock
 780:BLEApplications.c **** 	
 781:BLEApplications.c **** 	/* Write Mode for Counter 0 as Interrupt on Match */
 782:BLEApplications.c ****     CySysWdtWriteMode(CY_SYS_WDT_COUNTER0, CY_SYS_WDT_MODE_INT);
 1246              		.loc 1 782 0
 1247 0008 0020     		mov	r0, #0
 1248 000a 0121     		mov	r1, #1
 1249 000c FFF7FEFF 		bl	CySysWdtSetMode
 783:BLEApplications.c **** 	
 784:BLEApplications.c **** 	/* Set Clear on Match for Counter 0*/
 785:BLEApplications.c **** 	CySysWdtWriteClearOnMatch(CY_SYS_WDT_COUNTER0, TRUE);
 1250              		.loc 1 785 0
 1251 0010 0020     		mov	r0, #0
 1252 0012 0121     		mov	r1, #1
 1253 0014 FFF7FEFF 		bl	CySysWdtSetClearOnMatch
 786:BLEApplications.c ****     
 787:BLEApplications.c **** 	/* Set Watchdog interrupt to lower priority */
 788:BLEApplications.c **** 	CyIntSetPriority(WATCHDOG_INT_VEC_NUM, WATCHDOG_INT_VEC_PRIORITY);
 1254              		.loc 1 788 0
 1255 0018 0820     		mov	r0, #8
 1256 001a 0321     		mov	r1, #3
 1257 001c FFF7FEFF 		bl	CyIntSetPriority
 789:BLEApplications.c **** 	
 790:BLEApplications.c **** 	/* Enable Watchdog Interrupt using Interrupt number */
 791:BLEApplications.c ****     CyIntEnable(WATCHDOG_INT_VEC_NUM);
 1258              		.loc 1 791 0
 1259 0020 0820     		mov	r0, #8
 1260 0022 FFF7FEFF 		bl	CyIntEnable
 792:BLEApplications.c **** 	
 793:BLEApplications.c **** 	/* Write the match value equal to 1 second in Counter 0 */
 794:BLEApplications.c **** 	CySysWdtWriteMatch(CY_SYS_WDT_COUNTER0, WATCHDOG_ONE_SEC_COUNT_VAL);
 1261              		.loc 1 794 0
 1262 0026 8023     		mov	r3, #128
 1263 0028 1B02     		lsl	r3, r3, #8
 1264 002a 0020     		mov	r0, #0
 1265 002c 191C     		mov	r1, r3
 1266 002e FFF7FEFF 		bl	CySysWdtSetMatch
 795:BLEApplications.c ****     
 796:BLEApplications.c **** 	/* Enable Counter 0 */
 797:BLEApplications.c ****     CySysWdtEnable(CY_SYS_WDT_COUNTER0_MASK);
 1267              		.loc 1 797 0
ARM GAS  C:\Users\Sarah\AppData\Local\Temp\ccrcKzcd.s 			page 39


 1268 0032 0120     		mov	r0, #1
 1269 0034 FFF7FEFF 		bl	CySysWdtEnable
 798:BLEApplications.c **** 	
 799:BLEApplications.c **** 	/* Lock Watchdog to prevent further changes */
 800:BLEApplications.c ****     CySysWdtLock();
 1270              		.loc 1 800 0
 1271 0038 FFF7FEFF 		bl	CySysWdtLock
 801:BLEApplications.c **** }
 1272              		.loc 1 801 0
 1273 003c BD46     		mov	sp, r7
 1274              		@ sp needed
 1275 003e 80BD     		pop	{r7, pc}
 1276              		.cfi_endproc
 1277              	.LFE44:
 1278              		.size	InitializeWatchdog, .-InitializeWatchdog
 1279              		.data
 1280              		.type	state.7477, %object
 1281              		.size	state.7477, 1
 1282              	state.7477:
 1283 000d FF       		.byte	-1
 1284 000e 0000     		.align	2
 1285              		.type	led_counter.7476, %object
 1286              		.size	led_counter.7476, 4
 1287              	led_counter.7476:
 1288 0010 01000000 		.word	1
 1289              		.text
 1290              	.Letext0:
 1291              		.file 2 "Generated_Source\\PSoC4/cytypes.h"
 1292              		.file 3 "Generated_Source\\PSoC4/BLE_StackGap.h"
 1293              		.file 4 "Generated_Source\\PSoC4/BLE_StackGatt.h"
 1294              		.file 5 "Generated_Source\\PSoC4/BLE_StackGattServer.h"
 1295              		.file 6 "Generated_Source\\PSoC4/BLE_Stack.h"
 1296              		.file 7 "Generated_Source\\PSoC4/BLE_eventHandler.h"