ARM GAS  C:\Users\Sarah\AppData\Local\Temp\ccKMJXyq.s 			page 1


   1              		.cpu cortex-m0
   2              		.fpu softvfp
   3              		.eabi_attribute 20, 1
   4              		.eabi_attribute 21, 1
   5              		.eabi_attribute 23, 3
   6              		.eabi_attribute 24, 1
   7              		.eabi_attribute 25, 1
   8              		.eabi_attribute 26, 1
   9              		.eabi_attribute 30, 6
  10              		.eabi_attribute 34, 0
  11              		.eabi_attribute 18, 4
  12              		.code	16
  13              		.file	"CyFlash.c"
  14              		.text
  15              	.Ltext0:
  16              		.cfi_sections	.debug_frame
  17              		.section	.text.CySysFlashWriteRow,"ax",%progbits
  18              		.align	2
  19              		.global	CySysFlashWriteRow
  20              		.code	16
  21              		.thumb_func
  22              		.type	CySysFlashWriteRow, %function
  23              	CySysFlashWriteRow:
  24              	.LFB2:
  25              		.file 1 "Generated_Source\\PSoC4\\CyFlash.c"
   1:Generated_Source\PSoC4/CyFlash.c **** /*******************************************************************************
   2:Generated_Source\PSoC4/CyFlash.c **** * File Name: CyFlash.c
   3:Generated_Source\PSoC4/CyFlash.c **** * Version 5.30
   4:Generated_Source\PSoC4/CyFlash.c **** *
   5:Generated_Source\PSoC4/CyFlash.c **** *  Description:
   6:Generated_Source\PSoC4/CyFlash.c **** *   Provides an API for the FLASH.
   7:Generated_Source\PSoC4/CyFlash.c **** *
   8:Generated_Source\PSoC4/CyFlash.c **** *  Note:
   9:Generated_Source\PSoC4/CyFlash.c **** *   This code is endian agnostic.
  10:Generated_Source\PSoC4/CyFlash.c **** *
  11:Generated_Source\PSoC4/CyFlash.c **** *  Note:
  12:Generated_Source\PSoC4/CyFlash.c **** *   Documentation of the API's in this file is located in the
  13:Generated_Source\PSoC4/CyFlash.c **** *   System Reference Guide provided with PSoC Creator.
  14:Generated_Source\PSoC4/CyFlash.c **** *
  15:Generated_Source\PSoC4/CyFlash.c **** ********************************************************************************
  16:Generated_Source\PSoC4/CyFlash.c **** * Copyright 2010-2015, Cypress Semiconductor Corporation.  All rights reserved.
  17:Generated_Source\PSoC4/CyFlash.c **** * You may use this file only in accordance with the license, terms, conditions,
  18:Generated_Source\PSoC4/CyFlash.c **** * disclaimers, and limitations in the end user license agreement accompanying
  19:Generated_Source\PSoC4/CyFlash.c **** * the software package with which this file was provided.
  20:Generated_Source\PSoC4/CyFlash.c **** *******************************************************************************/
  21:Generated_Source\PSoC4/CyFlash.c **** 
  22:Generated_Source\PSoC4/CyFlash.c **** #include "CyFlash.h"
  23:Generated_Source\PSoC4/CyFlash.c **** 
  24:Generated_Source\PSoC4/CyFlash.c **** 
  25:Generated_Source\PSoC4/CyFlash.c **** /*******************************************************************************
  26:Generated_Source\PSoC4/CyFlash.c **** * Cypress identified a defect with the Flash write functionality of the
  27:Generated_Source\PSoC4/CyFlash.c **** * PSoC 4000, PSoC 4100, and PSoC 4200 devices. The CySysFlashWriteRow() function
  28:Generated_Source\PSoC4/CyFlash.c **** * now checks the data to be written and, if necessary, modifies it to have a
  29:Generated_Source\PSoC4/CyFlash.c **** * non-zero checksum. After writing to Flash, the modified data is replaced
  30:Generated_Source\PSoC4/CyFlash.c **** * (Flash program) with the correct (original) data.
  31:Generated_Source\PSoC4/CyFlash.c **** *******************************************************************************/
  32:Generated_Source\PSoC4/CyFlash.c **** #define CY_FLASH_CHECKSUM_WORKAROUND    (CY_PSOC4_4000 || CY_PSOC4_4100 || CY_PSOC4_4200)
ARM GAS  C:\Users\Sarah\AppData\Local\Temp\ccKMJXyq.s 			page 2


  33:Generated_Source\PSoC4/CyFlash.c **** 
  34:Generated_Source\PSoC4/CyFlash.c **** #if (CY_IP_FM || ((!CY_PSOC4_4000) && CY_IP_SPCIF_SYNCHRONOUS) || (!CY_IP_FM) && CY_PSOC4_4000)
  35:Generated_Source\PSoC4/CyFlash.c ****     static CY_SYS_FLASH_CLOCK_BACKUP_STRUCT cySysFlashBackup;
  36:Generated_Source\PSoC4/CyFlash.c **** #endif /* (CY_IP_FM || ((!CY_PSOC4_4000) && CY_IP_SPCIF_SYNCHRONOUS) || (!CY_IP_FM) && CY_PSOC4_400
  37:Generated_Source\PSoC4/CyFlash.c **** 
  38:Generated_Source\PSoC4/CyFlash.c **** static cystatus CySysFlashClockBackup(void);
  39:Generated_Source\PSoC4/CyFlash.c **** static cystatus CySysFlashClockRestore(void);
  40:Generated_Source\PSoC4/CyFlash.c **** #if(CY_IP_SPCIF_SYNCHRONOUS)
  41:Generated_Source\PSoC4/CyFlash.c ****     static cystatus CySysFlashClockConfig(void);
  42:Generated_Source\PSoC4/CyFlash.c **** #endif  /* (CY_IP_SPCIF_SYNCHRONOUS) */
  43:Generated_Source\PSoC4/CyFlash.c **** 
  44:Generated_Source\PSoC4/CyFlash.c **** 
  45:Generated_Source\PSoC4/CyFlash.c **** /*******************************************************************************
  46:Generated_Source\PSoC4/CyFlash.c **** * Function Name: CySysFlashWriteRow
  47:Generated_Source\PSoC4/CyFlash.c **** ********************************************************************************
  48:Generated_Source\PSoC4/CyFlash.c **** *
  49:Generated_Source\PSoC4/CyFlash.c **** * Summary:
  50:Generated_Source\PSoC4/CyFlash.c **** *  Erases a row of Flash and programs it with the new data.
  51:Generated_Source\PSoC4/CyFlash.c **** *
  52:Generated_Source\PSoC4/CyFlash.c **** * Parameters:
  53:Generated_Source\PSoC4/CyFlash.c **** *  uint16 rowNum:
  54:Generated_Source\PSoC4/CyFlash.c **** *   The flash row number. The number of the flash rows is defined by the
  55:Generated_Source\PSoC4/CyFlash.c **** *   CY_FLASH_NUMBER_ROWS macro for the selected device. Refer to the device
  56:Generated_Source\PSoC4/CyFlash.c **** *   datasheet for the details.
  57:Generated_Source\PSoC4/CyFlash.c **** *
  58:Generated_Source\PSoC4/CyFlash.c **** *  uint8* rowData:
  59:Generated_Source\PSoC4/CyFlash.c **** *   Array of bytes to write. The size of the array must be equal to the flash
  60:Generated_Source\PSoC4/CyFlash.c **** *   row size. The flash row size for the selected device is defined by
  61:Generated_Source\PSoC4/CyFlash.c **** *   the CY_FLASH_SIZEOF_ROW macro. Refer to the device datasheet for the
  62:Generated_Source\PSoC4/CyFlash.c **** *   details.
  63:Generated_Source\PSoC4/CyFlash.c **** *
  64:Generated_Source\PSoC4/CyFlash.c **** * Return:
  65:Generated_Source\PSoC4/CyFlash.c **** *  Status
  66:Generated_Source\PSoC4/CyFlash.c **** *     Value                     Description
  67:Generated_Source\PSoC4/CyFlash.c **** *    CY_SYS_FLASH_SUCCESS           Successful
  68:Generated_Source\PSoC4/CyFlash.c **** *    CY_SYS_FLASH_INVALID_ADDR      Specified flash row address is invalid
  69:Generated_Source\PSoC4/CyFlash.c **** *    CY_SYS_FLASH_PROTECTED         Specified flash row is protected
  70:Generated_Source\PSoC4/CyFlash.c **** *    Other non-zero                 Failure
  71:Generated_Source\PSoC4/CyFlash.c **** *
  72:Generated_Source\PSoC4/CyFlash.c **** * Side Effects:
  73:Generated_Source\PSoC4/CyFlash.c **** *   The IMO must be enabled before calling this function. The operation of the
  74:Generated_Source\PSoC4/CyFlash.c **** *   flash writing hardware is dependent on the IMO.
  75:Generated_Source\PSoC4/CyFlash.c **** *
  76:Generated_Source\PSoC4/CyFlash.c **** *   For PSoC 4000, PSoC 4100 BLE and PSoC 4200 BLE devices (PSoC 4100 BLE and
  77:Generated_Source\PSoC4/CyFlash.c **** *   PSoC 4200 BLE devices with 256K of Flash memory are not affected), this API
  78:Generated_Source\PSoC4/CyFlash.c **** *   will automatically modify the clock settings for the device. Writing to
  79:Generated_Source\PSoC4/CyFlash.c **** *   flash requires that changes be made to the IMO and HFCLK settings. The
  80:Generated_Source\PSoC4/CyFlash.c **** *   configuration is restored before returning. This will impact the operation
  81:Generated_Source\PSoC4/CyFlash.c **** *   of most of the hardware in the device.
  82:Generated_Source\PSoC4/CyFlash.c **** *
  83:Generated_Source\PSoC4/CyFlash.c **** *   For PSoC 4000 devices this API will automatically modify the clock settings
  84:Generated_Source\PSoC4/CyFlash.c **** *   for the device. Writing to flash requires that changes be made to the IMO
  85:Generated_Source\PSoC4/CyFlash.c **** *   and HFCLK settings. The configuration is restored before returning. HFCLK
  86:Generated_Source\PSoC4/CyFlash.c **** *   will have several frequency changes during the operation of this API between
  87:Generated_Source\PSoC4/CyFlash.c **** *   a minimum frequency of the current IMO frequency divided by 8 and a maximum
  88:Generated_Source\PSoC4/CyFlash.c **** *   frequency of 12 MHz. This will impact the operation of most of the hardware
  89:Generated_Source\PSoC4/CyFlash.c **** *   in the device.
ARM GAS  C:\Users\Sarah\AppData\Local\Temp\ccKMJXyq.s 			page 3


  90:Generated_Source\PSoC4/CyFlash.c **** *
  91:Generated_Source\PSoC4/CyFlash.c **** *******************************************************************************/
  92:Generated_Source\PSoC4/CyFlash.c **** uint32 CySysFlashWriteRow(uint32 rowNum, const uint8 rowData[])
  93:Generated_Source\PSoC4/CyFlash.c **** {
  26              		.loc 1 93 0
  27              		.cfi_startproc
  28 0000 90B5     		push	{r4, r7, lr}
  29              		.cfi_def_cfa_offset 12
  30              		.cfi_offset 4, -12
  31              		.cfi_offset 7, -8
  32              		.cfi_offset 14, -4
  33 0002 C9B0     		sub	sp, sp, #292
  34              		.cfi_def_cfa_offset 304
  35 0004 00AF     		add	r7, sp, #0
  36              		.cfi_def_cfa_register 7
  37 0006 7860     		str	r0, [r7, #4]
  38 0008 3960     		str	r1, [r7]
  94:Generated_Source\PSoC4/CyFlash.c ****     volatile uint32 retValue = CY_SYS_FLASH_SUCCESS;
  39              		.loc 1 94 0
  40 000a 0023     		mov	r3, #0
  41 000c 8C22     		mov	r2, #140
  42 000e 5200     		lsl	r2, r2, #1
  43 0010 BA18     		add	r2, r7, r2
  44 0012 1360     		str	r3, [r2]
  95:Generated_Source\PSoC4/CyFlash.c ****     volatile uint32 clkCnfRetValue = CY_SYS_FLASH_SUCCESS;
  45              		.loc 1 95 0
  46 0014 0023     		mov	r3, #0
  47 0016 8A22     		mov	r2, #138
  48 0018 5200     		lsl	r2, r2, #1
  49 001a BA18     		add	r2, r7, r2
  50 001c 1360     		str	r3, [r2]
  96:Generated_Source\PSoC4/CyFlash.c ****     volatile uint32 parameters[(CY_FLASH_SIZEOF_ROW + CY_FLASH_SRAM_ROM_DATA) / sizeof(uint32)];
  97:Generated_Source\PSoC4/CyFlash.c ****     uint8  interruptState;
  98:Generated_Source\PSoC4/CyFlash.c **** 
  99:Generated_Source\PSoC4/CyFlash.c ****     #if (CY_FLASH_CHECKSUM_WORKAROUND)
 100:Generated_Source\PSoC4/CyFlash.c ****         uint32 needChecksumWorkaround = 0u;
 101:Generated_Source\PSoC4/CyFlash.c ****         uint32 savedIndex = 0u;
 102:Generated_Source\PSoC4/CyFlash.c ****         uint32 savedValue = 0u;
 103:Generated_Source\PSoC4/CyFlash.c ****         uint32 checksum = 0u;
 104:Generated_Source\PSoC4/CyFlash.c ****         uint32 bits = 0u;
 105:Generated_Source\PSoC4/CyFlash.c ****         uint32 i;
 106:Generated_Source\PSoC4/CyFlash.c ****     #endif  /* (CY_FLASH_CHECKSUM_WORKAROUND) */
 107:Generated_Source\PSoC4/CyFlash.c **** 
 108:Generated_Source\PSoC4/CyFlash.c ****     if ((rowNum < CY_FLASH_NUMBER_ROWS) && (rowData != 0u))
  51              		.loc 1 108 0
  52 001e 7B68     		ldr	r3, [r7, #4]
  53 0020 584A     		ldr	r2, .L14
  54 0022 9342     		cmp	r3, r2
  55 0024 00D9     		bls	.LCB28
  56 0026 A0E0     		b	.L2	@long jump
  57              	.LCB28:
  58              		.loc 1 108 0 is_stmt 0 discriminator 1
  59 0028 3B68     		ldr	r3, [r7]
  60 002a 002B     		cmp	r3, #0
  61 002c 00D1     		bne	.LCB31
  62 002e 9CE0     		b	.L2	@long jump
  63              	.LCB31:
ARM GAS  C:\Users\Sarah\AppData\Local\Temp\ccKMJXyq.s 			page 4


 109:Generated_Source\PSoC4/CyFlash.c ****     {
 110:Generated_Source\PSoC4/CyFlash.c ****         /* Copy data to be written into internal variable */
 111:Generated_Source\PSoC4/CyFlash.c ****         (void)memcpy((void *)&parameters[2u], rowData, CY_FLASH_SIZEOF_ROW);
  64              		.loc 1 111 0 is_stmt 1
  65 0030 0C23     		mov	r3, #12
  66 0032 FB18     		add	r3, r7, r3
  67 0034 0833     		add	r3, r3, #8
  68 0036 191C     		mov	r1, r3
  69 0038 3A68     		ldr	r2, [r7]
  70 003a 8023     		mov	r3, #128
  71 003c 5B00     		lsl	r3, r3, #1
  72 003e 081C     		mov	r0, r1
  73 0040 111C     		mov	r1, r2
  74 0042 1A1C     		mov	r2, r3
  75 0044 FFF7FEFF 		bl	memcpy
 112:Generated_Source\PSoC4/CyFlash.c **** 
 113:Generated_Source\PSoC4/CyFlash.c ****         #if (CY_FLASH_CHECKSUM_WORKAROUND)
 114:Generated_Source\PSoC4/CyFlash.c **** 
 115:Generated_Source\PSoC4/CyFlash.c ****             for (i = 2u; i < ((CY_FLASH_SIZEOF_ROW / sizeof(uint32)) + 2u); i++)
 116:Generated_Source\PSoC4/CyFlash.c ****             {
 117:Generated_Source\PSoC4/CyFlash.c ****                 uint32 tmp = parameters[i];
 118:Generated_Source\PSoC4/CyFlash.c ****                 if (tmp != 0u)
 119:Generated_Source\PSoC4/CyFlash.c ****                 {
 120:Generated_Source\PSoC4/CyFlash.c ****                     checksum += tmp;
 121:Generated_Source\PSoC4/CyFlash.c ****                     bits |= tmp;
 122:Generated_Source\PSoC4/CyFlash.c ****                     savedIndex = i;
 123:Generated_Source\PSoC4/CyFlash.c ****                 }
 124:Generated_Source\PSoC4/CyFlash.c ****             }
 125:Generated_Source\PSoC4/CyFlash.c **** 
 126:Generated_Source\PSoC4/CyFlash.c ****             needChecksumWorkaround = ((checksum == 0u) && (bits != 0u)) ? 1u : 0u;
 127:Generated_Source\PSoC4/CyFlash.c ****             if (needChecksumWorkaround != 0u)
 128:Generated_Source\PSoC4/CyFlash.c ****             {
 129:Generated_Source\PSoC4/CyFlash.c ****                 savedValue = parameters[savedIndex];
 130:Generated_Source\PSoC4/CyFlash.c ****                 parameters[savedIndex] = 0u;
 131:Generated_Source\PSoC4/CyFlash.c ****             }
 132:Generated_Source\PSoC4/CyFlash.c ****         #endif  /* (CY_FLASH_CHECKSUM_WORKAROUND) */
 133:Generated_Source\PSoC4/CyFlash.c **** 
 134:Generated_Source\PSoC4/CyFlash.c ****         /* Load Flash Bytes */
 135:Generated_Source\PSoC4/CyFlash.c ****         parameters[0u] = (uint32) (CY_FLASH_GET_MACRO_FROM_ROW(rowNum)        << CY_FLASH_PARAM_MAC
 136:Generated_Source\PSoC4/CyFlash.c ****                          (uint32) (CY_FLASH_PAGE_LATCH_START_ADDR             << CY_FLASH_PARAM_ADD
 137:Generated_Source\PSoC4/CyFlash.c ****                          (uint32) (CY_FLASH_KEY_TWO(CY_FLASH_API_OPCODE_LOAD) << CY_FLASH_PARAM_KEY
  76              		.loc 1 137 0
  77 0048 7B68     		ldr	r3, [r7, #4]
  78 004a 4F4A     		ldr	r2, .L14+4
  79 004c 9342     		cmp	r3, r2
  80 004e 01D9     		bls	.L3
  81              		.loc 1 137 0 is_stmt 0 discriminator 1
  82 0050 4E4A     		ldr	r2, .L14+8
  83 0052 00E0     		b	.L4
  84              	.L3:
  85              		.loc 1 137 0 discriminator 2
  86 0054 4E4A     		ldr	r2, .L14+12
  87              	.L4:
 135:Generated_Source\PSoC4/CyFlash.c ****                          (uint32) (CY_FLASH_PAGE_LATCH_START_ADDR             << CY_FLASH_PARAM_ADD
  88              		.loc 1 135 0 is_stmt 1
  89 0056 4F4B     		ldr	r3, .L14+16
  90 0058 9021     		mov	r1, #144
ARM GAS  C:\Users\Sarah\AppData\Local\Temp\ccKMJXyq.s 			page 5


  91 005a 4900     		lsl	r1, r1, #1
  92 005c 8C46     		mov	ip, r1
  93 005e BC44     		add	ip, ip, r7
  94 0060 6344     		add	r3, r3, ip
  95 0062 1A60     		str	r2, [r3]
 138:Generated_Source\PSoC4/CyFlash.c ****                          CY_FLASH_KEY_ONE;
 139:Generated_Source\PSoC4/CyFlash.c ****         parameters[1u] = CY_FLASH_SIZEOF_ROW - 1u;
  96              		.loc 1 139 0
  97 0064 4B4B     		ldr	r3, .L14+16
  98 0066 9022     		mov	r2, #144
  99 0068 5200     		lsl	r2, r2, #1
 100 006a 9446     		mov	ip, r2
 101 006c BC44     		add	ip, ip, r7
 102 006e 6344     		add	r3, r3, ip
 103 0070 FF22     		mov	r2, #255
 104 0072 5A60     		str	r2, [r3, #4]
 140:Generated_Source\PSoC4/CyFlash.c **** 
 141:Generated_Source\PSoC4/CyFlash.c ****         CY_FLASH_CPUSS_SYSARG_REG = (uint32) &parameters[0u];
 105              		.loc 1 141 0
 106 0074 484B     		ldr	r3, .L14+20
 107 0076 0C22     		mov	r2, #12
 108 0078 BA18     		add	r2, r7, r2
 109 007a 1A60     		str	r2, [r3]
 142:Generated_Source\PSoC4/CyFlash.c ****         CY_FLASH_CPUSS_SYSREQ_REG = CY_FLASH_CPUSS_REQ_START | CY_FLASH_API_OPCODE_LOAD;
 110              		.loc 1 142 0
 111 007c 474B     		ldr	r3, .L14+24
 112 007e 484A     		ldr	r2, .L14+28
 113 0080 1A60     		str	r2, [r3]
 143:Generated_Source\PSoC4/CyFlash.c ****         retValue = CY_FLASH_API_RETURN;
 114              		.loc 1 143 0
 115 0082 454B     		ldr	r3, .L14+20
 116 0084 1B68     		ldr	r3, [r3]
 117 0086 1B0F     		lsr	r3, r3, #28
 118 0088 1A07     		lsl	r2, r3, #28
 119 008a A023     		mov	r3, #160
 120 008c 1B06     		lsl	r3, r3, #24
 121 008e 9A42     		cmp	r2, r3
 122 0090 04D0     		beq	.L5
 123              		.loc 1 143 0 is_stmt 0 discriminator 1
 124 0092 414B     		ldr	r3, .L14+20
 125 0094 1B68     		ldr	r3, [r3]
 126 0096 0F22     		mov	r2, #15
 127 0098 1340     		and	r3, r2
 128 009a 00E0     		b	.L6
 129              	.L5:
 130              		.loc 1 143 0 discriminator 2
 131 009c 0023     		mov	r3, #0
 132              	.L6:
 133              		.loc 1 143 0 discriminator 4
 134 009e 8C22     		mov	r2, #140
 135 00a0 5200     		lsl	r2, r2, #1
 136 00a2 BA18     		add	r2, r7, r2
 137 00a4 1360     		str	r3, [r2]
 144:Generated_Source\PSoC4/CyFlash.c **** 
 145:Generated_Source\PSoC4/CyFlash.c ****         if(retValue == CY_SYS_FLASH_SUCCESS)
 138              		.loc 1 145 0 is_stmt 1 discriminator 4
 139 00a6 8C23     		mov	r3, #140
ARM GAS  C:\Users\Sarah\AppData\Local\Temp\ccKMJXyq.s 			page 6


 140 00a8 5B00     		lsl	r3, r3, #1
 141 00aa FB18     		add	r3, r7, r3
 142 00ac 1B68     		ldr	r3, [r3]
 143 00ae 002B     		cmp	r3, #0
 144 00b0 5AD1     		bne	.L7
 146:Generated_Source\PSoC4/CyFlash.c ****         {
 147:Generated_Source\PSoC4/CyFlash.c ****             /***************************************************************
 148:Generated_Source\PSoC4/CyFlash.c ****             * Mask all the exceptions to guarantee that Flash write will
 149:Generated_Source\PSoC4/CyFlash.c ****             * occur in the atomic way. It will not affect system call
 150:Generated_Source\PSoC4/CyFlash.c ****             * execution (flash row write) since it is executed in the NMI
 151:Generated_Source\PSoC4/CyFlash.c ****             * context.
 152:Generated_Source\PSoC4/CyFlash.c ****             ***************************************************************/
 153:Generated_Source\PSoC4/CyFlash.c ****             interruptState = CyEnterCriticalSection();
 145              		.loc 1 153 0
 146 00b2 2023     		mov	r3, #32
 147 00b4 FF33     		add	r3, r3, #255
 148 00b6 FC18     		add	r4, r7, r3
 149 00b8 FFF7FEFF 		bl	CyEnterCriticalSection
 150 00bc 031C     		mov	r3, r0
 151 00be 2370     		strb	r3, [r4]
 154:Generated_Source\PSoC4/CyFlash.c **** 
 155:Generated_Source\PSoC4/CyFlash.c ****             clkCnfRetValue = CySysFlashClockBackup();
 152              		.loc 1 155 0
 153 00c0 FFF7FEFF 		bl	CySysFlashClockBackup
 154 00c4 031C     		mov	r3, r0
 155 00c6 8A22     		mov	r2, #138
 156 00c8 5200     		lsl	r2, r2, #1
 157 00ca BA18     		add	r2, r7, r2
 158 00cc 1360     		str	r3, [r2]
 156:Generated_Source\PSoC4/CyFlash.c **** 
 157:Generated_Source\PSoC4/CyFlash.c ****         #if(CY_IP_SPCIF_SYNCHRONOUS)
 158:Generated_Source\PSoC4/CyFlash.c ****             if(clkCnfRetValue == CY_SYS_FLASH_SUCCESS)
 159:Generated_Source\PSoC4/CyFlash.c ****             {
 160:Generated_Source\PSoC4/CyFlash.c ****                 retValue = CySysFlashClockConfig();
 161:Generated_Source\PSoC4/CyFlash.c ****             }
 162:Generated_Source\PSoC4/CyFlash.c ****         #endif  /* (CY_IP_SPCIF_SYNCHRONOUS) */
 163:Generated_Source\PSoC4/CyFlash.c **** 
 164:Generated_Source\PSoC4/CyFlash.c ****             if(retValue == CY_SYS_FLASH_SUCCESS)
 159              		.loc 1 164 0
 160 00ce 8C23     		mov	r3, #140
 161 00d0 5B00     		lsl	r3, r3, #1
 162 00d2 FB18     		add	r3, r7, r3
 163 00d4 1B68     		ldr	r3, [r3]
 164 00d6 002B     		cmp	r3, #0
 165 00d8 31D1     		bne	.L8
 165:Generated_Source\PSoC4/CyFlash.c ****             {
 166:Generated_Source\PSoC4/CyFlash.c ****                 /* Write Row */
 167:Generated_Source\PSoC4/CyFlash.c ****                 parameters[0u]  = (uint32) (((uint32) CY_FLASH_KEY_TWO(CY_FLASH_API_OPCODE_WRITE_RO
 166              		.loc 1 167 0
 167 00da 2E4B     		ldr	r3, .L14+16
 168 00dc 9022     		mov	r2, #144
 169 00de 5200     		lsl	r2, r2, #1
 170 00e0 9446     		mov	ip, r2
 171 00e2 BC44     		add	ip, ip, r7
 172 00e4 6344     		add	r3, r3, ip
 173 00e6 2F4A     		ldr	r2, .L14+32
 174 00e8 1A60     		str	r2, [r3]
ARM GAS  C:\Users\Sarah\AppData\Local\Temp\ccKMJXyq.s 			page 7


 168:Generated_Source\PSoC4/CyFlash.c ****                 parameters[0u] |= (uint32)(rowNum << 16u);
 175              		.loc 1 168 0
 176 00ea 2A4B     		ldr	r3, .L14+16
 177 00ec 9022     		mov	r2, #144
 178 00ee 5200     		lsl	r2, r2, #1
 179 00f0 9446     		mov	ip, r2
 180 00f2 BC44     		add	ip, ip, r7
 181 00f4 6344     		add	r3, r3, ip
 182 00f6 1A68     		ldr	r2, [r3]
 183 00f8 7B68     		ldr	r3, [r7, #4]
 184 00fa 1B04     		lsl	r3, r3, #16
 185 00fc 1A43     		orr	r2, r3
 186 00fe 254B     		ldr	r3, .L14+16
 187 0100 9021     		mov	r1, #144
 188 0102 4900     		lsl	r1, r1, #1
 189 0104 8C46     		mov	ip, r1
 190 0106 BC44     		add	ip, ip, r7
 191 0108 6344     		add	r3, r3, ip
 192 010a 1A60     		str	r2, [r3]
 169:Generated_Source\PSoC4/CyFlash.c **** 
 170:Generated_Source\PSoC4/CyFlash.c ****                 CY_FLASH_CPUSS_SYSARG_REG = (uint32) &parameters[0u];
 193              		.loc 1 170 0
 194 010c 224B     		ldr	r3, .L14+20
 195 010e 0C22     		mov	r2, #12
 196 0110 BA18     		add	r2, r7, r2
 197 0112 1A60     		str	r2, [r3]
 171:Generated_Source\PSoC4/CyFlash.c ****                 CY_FLASH_CPUSS_SYSREQ_REG = CY_FLASH_CPUSS_REQ_START | CY_FLASH_API_OPCODE_WRITE_RO
 198              		.loc 1 171 0
 199 0114 214B     		ldr	r3, .L14+24
 200 0116 244A     		ldr	r2, .L14+36
 201 0118 1A60     		str	r2, [r3]
 172:Generated_Source\PSoC4/CyFlash.c ****                 retValue = CY_FLASH_API_RETURN;
 202              		.loc 1 172 0
 203 011a 1F4B     		ldr	r3, .L14+20
 204 011c 1B68     		ldr	r3, [r3]
 205 011e 1B0F     		lsr	r3, r3, #28
 206 0120 1A07     		lsl	r2, r3, #28
 207 0122 A023     		mov	r3, #160
 208 0124 1B06     		lsl	r3, r3, #24
 209 0126 9A42     		cmp	r2, r3
 210 0128 04D0     		beq	.L9
 211              		.loc 1 172 0 is_stmt 0 discriminator 1
 212 012a 1B4B     		ldr	r3, .L14+20
 213 012c 1B68     		ldr	r3, [r3]
 214 012e 0F22     		mov	r2, #15
 215 0130 1340     		and	r3, r2
 216 0132 00E0     		b	.L10
 217              	.L9:
 218              		.loc 1 172 0 discriminator 2
 219 0134 0023     		mov	r3, #0
 220              	.L10:
 221              		.loc 1 172 0 discriminator 4
 222 0136 8C22     		mov	r2, #140
 223 0138 5200     		lsl	r2, r2, #1
 224 013a BA18     		add	r2, r7, r2
 225 013c 1360     		str	r3, [r2]
 226              	.L8:
ARM GAS  C:\Users\Sarah\AppData\Local\Temp\ccKMJXyq.s 			page 8


 173:Generated_Source\PSoC4/CyFlash.c ****             }
 174:Generated_Source\PSoC4/CyFlash.c **** 
 175:Generated_Source\PSoC4/CyFlash.c ****             #if (CY_FLASH_CHECKSUM_WORKAROUND)
 176:Generated_Source\PSoC4/CyFlash.c **** 
 177:Generated_Source\PSoC4/CyFlash.c ****                 if ((retValue == CYRET_SUCCESS) && (needChecksumWorkaround != 0u))
 178:Generated_Source\PSoC4/CyFlash.c ****                 {
 179:Generated_Source\PSoC4/CyFlash.c ****                     (void)memset((void *)&parameters[2u], 0, CY_FLASH_SIZEOF_ROW);
 180:Generated_Source\PSoC4/CyFlash.c ****                     parameters[savedIndex] = savedValue;
 181:Generated_Source\PSoC4/CyFlash.c **** 
 182:Generated_Source\PSoC4/CyFlash.c ****                     /* Load Flash Bytes */
 183:Generated_Source\PSoC4/CyFlash.c ****                     parameters[0u] = (uint32) (CY_FLASH_GET_MACRO_FROM_ROW(rowNum)        << CY_FLA
 184:Generated_Source\PSoC4/CyFlash.c ****                                      (uint32) (CY_FLASH_PAGE_LATCH_START_ADDR             << CY_FLA
 185:Generated_Source\PSoC4/CyFlash.c ****                                      (uint32) (CY_FLASH_KEY_TWO(CY_FLASH_API_OPCODE_LOAD) << CY_FLA
 186:Generated_Source\PSoC4/CyFlash.c ****                                      CY_FLASH_KEY_ONE;
 187:Generated_Source\PSoC4/CyFlash.c ****                     parameters[1u] = CY_FLASH_SIZEOF_ROW - 1u;
 188:Generated_Source\PSoC4/CyFlash.c **** 
 189:Generated_Source\PSoC4/CyFlash.c ****                     CY_FLASH_CPUSS_SYSARG_REG = (uint32) &parameters[0u];
 190:Generated_Source\PSoC4/CyFlash.c ****                     CY_FLASH_CPUSS_SYSREQ_REG = CY_FLASH_CPUSS_REQ_START | CY_FLASH_API_OPCODE_LOAD
 191:Generated_Source\PSoC4/CyFlash.c ****                     retValue = CY_FLASH_API_RETURN;
 192:Generated_Source\PSoC4/CyFlash.c **** 
 193:Generated_Source\PSoC4/CyFlash.c **** 
 194:Generated_Source\PSoC4/CyFlash.c ****                     if(retValue == CY_SYS_FLASH_SUCCESS)
 195:Generated_Source\PSoC4/CyFlash.c ****                     {
 196:Generated_Source\PSoC4/CyFlash.c ****                         /* Program Row */
 197:Generated_Source\PSoC4/CyFlash.c ****                         parameters[0u]  =
 198:Generated_Source\PSoC4/CyFlash.c ****                             (uint32) (((uint32) CY_FLASH_KEY_TWO(CY_FLASH_API_OPCODE_PROGRAM_ROW) <
 199:Generated_Source\PSoC4/CyFlash.c ****                                                     CY_FLASH_PARAM_KEY_TWO_OFFSET) | CY_FLASH_KEY_O
 200:Generated_Source\PSoC4/CyFlash.c ****                         parameters[0u] |= (uint32)(rowNum << 16u);
 201:Generated_Source\PSoC4/CyFlash.c **** 
 202:Generated_Source\PSoC4/CyFlash.c ****                         CY_FLASH_CPUSS_SYSARG_REG = (uint32) &parameters[0u];
 203:Generated_Source\PSoC4/CyFlash.c ****                         CY_FLASH_CPUSS_SYSREQ_REG = CY_FLASH_CPUSS_REQ_START | CY_FLASH_API_OPCODE_
 204:Generated_Source\PSoC4/CyFlash.c ****                         retValue = CY_FLASH_API_RETURN;
 205:Generated_Source\PSoC4/CyFlash.c ****                     }
 206:Generated_Source\PSoC4/CyFlash.c ****                 }
 207:Generated_Source\PSoC4/CyFlash.c ****             #endif  /* (CY_FLASH_CHECKSUM_WORKAROUND) */
 208:Generated_Source\PSoC4/CyFlash.c **** 
 209:Generated_Source\PSoC4/CyFlash.c ****             if(clkCnfRetValue == CY_SYS_FLASH_SUCCESS)
 227              		.loc 1 209 0 is_stmt 1
 228 013e 8A23     		mov	r3, #138
 229 0140 5B00     		lsl	r3, r3, #1
 230 0142 FB18     		add	r3, r7, r3
 231 0144 1B68     		ldr	r3, [r3]
 232 0146 002B     		cmp	r3, #0
 233 0148 06D1     		bne	.L11
 210:Generated_Source\PSoC4/CyFlash.c ****             {
 211:Generated_Source\PSoC4/CyFlash.c ****                 clkCnfRetValue = CySysFlashClockRestore();
 234              		.loc 1 211 0
 235 014a FFF7FEFF 		bl	CySysFlashClockRestore
 236 014e 031C     		mov	r3, r0
 237 0150 8A22     		mov	r2, #138
 238 0152 5200     		lsl	r2, r2, #1
 239 0154 BA18     		add	r2, r7, r2
 240 0156 1360     		str	r3, [r2]
 241              	.L11:
 212:Generated_Source\PSoC4/CyFlash.c ****             }
 213:Generated_Source\PSoC4/CyFlash.c **** 
 214:Generated_Source\PSoC4/CyFlash.c ****             CyExitCriticalSection(interruptState);
ARM GAS  C:\Users\Sarah\AppData\Local\Temp\ccKMJXyq.s 			page 9


 242              		.loc 1 214 0
 243 0158 2023     		mov	r3, #32
 244 015a FF33     		add	r3, r3, #255
 245 015c FB18     		add	r3, r7, r3
 246 015e 1B78     		ldrb	r3, [r3]
 247 0160 181C     		mov	r0, r3
 248 0162 FFF7FEFF 		bl	CyExitCriticalSection
 145:Generated_Source\PSoC4/CyFlash.c ****         {
 249              		.loc 1 145 0
 250 0166 05E0     		b	.L12
 251              	.L7:
 252 0168 04E0     		b	.L12
 253              	.L2:
 215:Generated_Source\PSoC4/CyFlash.c ****         }
 216:Generated_Source\PSoC4/CyFlash.c ****     }
 217:Generated_Source\PSoC4/CyFlash.c ****     else
 218:Generated_Source\PSoC4/CyFlash.c ****     {
 219:Generated_Source\PSoC4/CyFlash.c ****         retValue = CY_SYS_FLASH_INVALID_ADDR;
 254              		.loc 1 219 0
 255 016a 0423     		mov	r3, #4
 256 016c 8C22     		mov	r2, #140
 257 016e 5200     		lsl	r2, r2, #1
 258 0170 BA18     		add	r2, r7, r2
 259 0172 1360     		str	r3, [r2]
 260              	.L12:
 220:Generated_Source\PSoC4/CyFlash.c ****     }
 221:Generated_Source\PSoC4/CyFlash.c **** 
 222:Generated_Source\PSoC4/CyFlash.c ****     return (retValue);
 261              		.loc 1 222 0
 262 0174 8C23     		mov	r3, #140
 263 0176 5B00     		lsl	r3, r3, #1
 264 0178 FB18     		add	r3, r7, r3
 265 017a 1B68     		ldr	r3, [r3]
 223:Generated_Source\PSoC4/CyFlash.c **** }
 266              		.loc 1 223 0
 267 017c 181C     		mov	r0, r3
 268 017e BD46     		mov	sp, r7
 269 0180 49B0     		add	sp, sp, #292
 270              		@ sp needed
 271 0182 90BD     		pop	{r4, r7, pc}
 272              	.L15:
 273              		.align	2
 274              	.L14:
 275 0184 FF030000 		.word	1023
 276 0188 FF010000 		.word	511
 277 018c B6D70001 		.word	16832438
 278 0190 B6D70000 		.word	55222
 279 0194 ECFEFFFF 		.word	-276
 280 0198 08001040 		.word	1074790408
 281 019c 04001040 		.word	1074790404
 282 01a0 04000080 		.word	-2147483644
 283 01a4 B6D80000 		.word	55478
 284 01a8 05000080 		.word	-2147483643
 285              		.cfi_endproc
 286              	.LFE2:
 287              		.size	CySysFlashWriteRow, .-CySysFlashWriteRow
 288              		.section	.text.CySysFlashSetWaitCycles,"ax",%progbits
ARM GAS  C:\Users\Sarah\AppData\Local\Temp\ccKMJXyq.s 			page 10


 289              		.align	2
 290              		.global	CySysFlashSetWaitCycles
 291              		.code	16
 292              		.thumb_func
 293              		.type	CySysFlashSetWaitCycles, %function
 294              	CySysFlashSetWaitCycles:
 295              	.LFB3:
 224:Generated_Source\PSoC4/CyFlash.c **** 
 225:Generated_Source\PSoC4/CyFlash.c **** 
 226:Generated_Source\PSoC4/CyFlash.c **** /*******************************************************************************
 227:Generated_Source\PSoC4/CyFlash.c **** * Function Name: CySysFlashSetWaitCycles
 228:Generated_Source\PSoC4/CyFlash.c **** ********************************************************************************
 229:Generated_Source\PSoC4/CyFlash.c **** *
 230:Generated_Source\PSoC4/CyFlash.c **** * Summary:
 231:Generated_Source\PSoC4/CyFlash.c **** *  Sets the number of clock cycles the cache will wait before it samples data
 232:Generated_Source\PSoC4/CyFlash.c **** *  coming back from Flash. This function must be called before increasing the
 233:Generated_Source\PSoC4/CyFlash.c **** *  SYSCLK clock frequency. It can optionally be called after lowering SYSCLK
 234:Generated_Source\PSoC4/CyFlash.c **** *  clock frequency in order to improve the CPU performance.
 235:Generated_Source\PSoC4/CyFlash.c **** *
 236:Generated_Source\PSoC4/CyFlash.c **** * Parameters:
 237:Generated_Source\PSoC4/CyFlash.c **** *  freq: The System clock frequency in MHz. Note: Invalid frequency will be
 238:Generated_Source\PSoC4/CyFlash.c **** *  ignored in Release mode and the CPU will be halted if project is compiled in
 239:Generated_Source\PSoC4/CyFlash.c **** *  Debug mode.
 240:Generated_Source\PSoC4/CyFlash.c **** *
 241:Generated_Source\PSoC4/CyFlash.c **** * Return:
 242:Generated_Source\PSoC4/CyFlash.c **** *  None
 243:Generated_Source\PSoC4/CyFlash.c **** *
 244:Generated_Source\PSoC4/CyFlash.c **** *******************************************************************************/
 245:Generated_Source\PSoC4/CyFlash.c **** void CySysFlashSetWaitCycles(uint32 freq)
 246:Generated_Source\PSoC4/CyFlash.c **** {
 296              		.loc 1 246 0
 297              		.cfi_startproc
 298 0000 90B5     		push	{r4, r7, lr}
 299              		.cfi_def_cfa_offset 12
 300              		.cfi_offset 4, -12
 301              		.cfi_offset 7, -8
 302              		.cfi_offset 14, -4
 303 0002 85B0     		sub	sp, sp, #20
 304              		.cfi_def_cfa_offset 32
 305 0004 00AF     		add	r7, sp, #0
 306              		.cfi_def_cfa_register 7
 307 0006 7860     		str	r0, [r7, #4]
 247:Generated_Source\PSoC4/CyFlash.c ****     uint8  interruptState;
 248:Generated_Source\PSoC4/CyFlash.c **** 
 249:Generated_Source\PSoC4/CyFlash.c ****     interruptState = CyEnterCriticalSection();
 308              		.loc 1 249 0
 309 0008 0F23     		mov	r3, #15
 310 000a FC18     		add	r4, r7, r3
 311 000c FFF7FEFF 		bl	CyEnterCriticalSection
 312 0010 031C     		mov	r3, r0
 313 0012 2370     		strb	r3, [r4]
 250:Generated_Source\PSoC4/CyFlash.c **** 
 251:Generated_Source\PSoC4/CyFlash.c ****     #if (CY_IP_CPUSS)
 252:Generated_Source\PSoC4/CyFlash.c **** 
 253:Generated_Source\PSoC4/CyFlash.c ****         if ( freq <= CY_FLASH_SYSCLK_BOUNDARY_MHZ )
 254:Generated_Source\PSoC4/CyFlash.c ****         {
 255:Generated_Source\PSoC4/CyFlash.c ****             CY_SYS_CLK_SELECT_REG &= (uint32)(~CY_FLASH_WAIT_STATE_EN);
ARM GAS  C:\Users\Sarah\AppData\Local\Temp\ccKMJXyq.s 			page 11


 256:Generated_Source\PSoC4/CyFlash.c ****         }
 257:Generated_Source\PSoC4/CyFlash.c ****         else
 258:Generated_Source\PSoC4/CyFlash.c ****         {
 259:Generated_Source\PSoC4/CyFlash.c ****             CY_SYS_CLK_SELECT_REG |= CY_FLASH_WAIT_STATE_EN;
 260:Generated_Source\PSoC4/CyFlash.c ****         }
 261:Generated_Source\PSoC4/CyFlash.c ****     #else /* CY_IP_CPUSSV2 */
 262:Generated_Source\PSoC4/CyFlash.c **** 
 263:Generated_Source\PSoC4/CyFlash.c ****         /* CY_IP_FM and CY_IP_FS */
 264:Generated_Source\PSoC4/CyFlash.c ****         if (freq <= CY_FLASH_CTL_WS_0_FREQ_MAX)
 314              		.loc 1 264 0
 315 0014 7B68     		ldr	r3, [r7, #4]
 316 0016 102B     		cmp	r3, #16
 317 0018 06D8     		bhi	.L17
 265:Generated_Source\PSoC4/CyFlash.c ****         {
 266:Generated_Source\PSoC4/CyFlash.c ****             CY_FLASH_CTL_REG = (CY_FLASH_CTL_REG & ~CY_FLASH_CTL_WS_MASK) | CY_FLASH_CTL_WS_0_VALUE
 318              		.loc 1 266 0
 319 001a 154B     		ldr	r3, .L21
 320 001c 144A     		ldr	r2, .L21
 321 001e 1268     		ldr	r2, [r2]
 322 0020 0321     		mov	r1, #3
 323 0022 8A43     		bic	r2, r1
 324 0024 1A60     		str	r2, [r3]
 325 0026 1AE0     		b	.L18
 326              	.L17:
 267:Generated_Source\PSoC4/CyFlash.c ****         } else
 268:Generated_Source\PSoC4/CyFlash.c ****         if (freq <= CY_FLASH_CTL_WS_1_FREQ_MAX)
 327              		.loc 1 268 0
 328 0028 7B68     		ldr	r3, [r7, #4]
 329 002a 202B     		cmp	r3, #32
 330 002c 08D8     		bhi	.L19
 269:Generated_Source\PSoC4/CyFlash.c ****         {
 270:Generated_Source\PSoC4/CyFlash.c ****             CY_FLASH_CTL_REG = (CY_FLASH_CTL_REG & ~CY_FLASH_CTL_WS_MASK) | CY_FLASH_CTL_WS_1_VALUE
 331              		.loc 1 270 0
 332 002e 104B     		ldr	r3, .L21
 333 0030 0F4A     		ldr	r2, .L21
 334 0032 1268     		ldr	r2, [r2]
 335 0034 0321     		mov	r1, #3
 336 0036 8A43     		bic	r2, r1
 337 0038 0121     		mov	r1, #1
 338 003a 0A43     		orr	r2, r1
 339 003c 1A60     		str	r2, [r3]
 340 003e 0EE0     		b	.L18
 341              	.L19:
 271:Generated_Source\PSoC4/CyFlash.c ****         } else
 272:Generated_Source\PSoC4/CyFlash.c ****     #if (CY_IP_FMLT || CY_IP_FSLT)
 273:Generated_Source\PSoC4/CyFlash.c ****         if (freq <= CY_FLASH_CTL_WS_2_FREQ_MAX)
 342              		.loc 1 273 0
 343 0040 7B68     		ldr	r3, [r7, #4]
 344 0042 302B     		cmp	r3, #48
 345 0044 08D8     		bhi	.L20
 274:Generated_Source\PSoC4/CyFlash.c ****         {
 275:Generated_Source\PSoC4/CyFlash.c ****             CY_FLASH_CTL_REG = (CY_FLASH_CTL_REG & ~CY_FLASH_CTL_WS_MASK) | CY_FLASH_CTL_WS_2_VALUE
 346              		.loc 1 275 0
 347 0046 0A4B     		ldr	r3, .L21
 348 0048 094A     		ldr	r2, .L21
 349 004a 1268     		ldr	r2, [r2]
 350 004c 0321     		mov	r1, #3
ARM GAS  C:\Users\Sarah\AppData\Local\Temp\ccKMJXyq.s 			page 12


 351 004e 8A43     		bic	r2, r1
 352 0050 0221     		mov	r1, #2
 353 0052 0A43     		orr	r2, r1
 354 0054 1A60     		str	r2, [r3]
 355 0056 02E0     		b	.L18
 356              	.L20:
 276:Generated_Source\PSoC4/CyFlash.c ****         }
 277:Generated_Source\PSoC4/CyFlash.c ****         else
 278:Generated_Source\PSoC4/CyFlash.c ****     #endif  /* (CY_IP_FMLT || CY_IP_FSLT) */
 279:Generated_Source\PSoC4/CyFlash.c ****         {
 280:Generated_Source\PSoC4/CyFlash.c ****             /* Halt CPU in debug mode if frequency is invalid */
 281:Generated_Source\PSoC4/CyFlash.c ****             CYASSERT(0u != 0u);
 357              		.loc 1 281 0 discriminator 1
 358 0058 0020     		mov	r0, #0
 359 005a FFF7FEFF 		bl	CyHalt
 360              	.L18:
 282:Generated_Source\PSoC4/CyFlash.c ****         }
 283:Generated_Source\PSoC4/CyFlash.c **** 
 284:Generated_Source\PSoC4/CyFlash.c ****     #endif  /* (CY_IP_CPUSS) */
 285:Generated_Source\PSoC4/CyFlash.c **** 
 286:Generated_Source\PSoC4/CyFlash.c ****     CyExitCriticalSection(interruptState);
 361              		.loc 1 286 0
 362 005e 0F23     		mov	r3, #15
 363 0060 FB18     		add	r3, r7, r3
 364 0062 1B78     		ldrb	r3, [r3]
 365 0064 181C     		mov	r0, r3
 366 0066 FFF7FEFF 		bl	CyExitCriticalSection
 287:Generated_Source\PSoC4/CyFlash.c **** }
 367              		.loc 1 287 0
 368 006a BD46     		mov	sp, r7
 369 006c 05B0     		add	sp, sp, #20
 370              		@ sp needed
 371 006e 90BD     		pop	{r4, r7, pc}
 372              	.L22:
 373              		.align	2
 374              	.L21:
 375 0070 30001040 		.word	1074790448
 376              		.cfi_endproc
 377              	.LFE3:
 378              		.size	CySysFlashSetWaitCycles, .-CySysFlashSetWaitCycles
 379              		.section	.text.CySysSFlashWriteUserRow,"ax",%progbits
 380              		.align	2
 381              		.global	CySysSFlashWriteUserRow
 382              		.code	16
 383              		.thumb_func
 384              		.type	CySysSFlashWriteUserRow, %function
 385              	CySysSFlashWriteUserRow:
 386              	.LFB4:
 288:Generated_Source\PSoC4/CyFlash.c **** 
 289:Generated_Source\PSoC4/CyFlash.c **** #if (CY_SFLASH_XTRA_ROWS)
 290:Generated_Source\PSoC4/CyFlash.c **** /*******************************************************************************
 291:Generated_Source\PSoC4/CyFlash.c **** * Function Name: CySysSFlashWriteUserRow
 292:Generated_Source\PSoC4/CyFlash.c **** ********************************************************************************
 293:Generated_Source\PSoC4/CyFlash.c **** *
 294:Generated_Source\PSoC4/CyFlash.c **** * Summary:
 295:Generated_Source\PSoC4/CyFlash.c **** *  Writes data to a row of SFlash user configurable area.
 296:Generated_Source\PSoC4/CyFlash.c **** *
ARM GAS  C:\Users\Sarah\AppData\Local\Temp\ccKMJXyq.s 			page 13


 297:Generated_Source\PSoC4/CyFlash.c **** *  This API is applicable for PSoC 4100 BLE, PSoC 4200 BLE, PSoC 4100M,
 298:Generated_Source\PSoC4/CyFlash.c **** *  PSoC 4200M, and PSoC 4200L family of devices.
 299:Generated_Source\PSoC4/CyFlash.c **** *
 300:Generated_Source\PSoC4/CyFlash.c **** * Parameters:
 301:Generated_Source\PSoC4/CyFlash.c **** *  uint16 rowNum:
 302:Generated_Source\PSoC4/CyFlash.c **** *   The flash row number. The flash row number. The number of the flash rows is
 303:Generated_Source\PSoC4/CyFlash.c **** *   defined by the CY_SFLASH_NUMBER_USERROWS macro for the selected device.
 304:Generated_Source\PSoC4/CyFlash.c **** *   Valid range is 0-3. Refer to the device TRM for details.
 305:Generated_Source\PSoC4/CyFlash.c **** *
 306:Generated_Source\PSoC4/CyFlash.c **** *  uint8* rowData:
 307:Generated_Source\PSoC4/CyFlash.c **** *   Array of bytes to write. The size of the array must be equal to the flash
 308:Generated_Source\PSoC4/CyFlash.c **** *   row size. The flash row size for the selected device is defined by the
 309:Generated_Source\PSoC4/CyFlash.c **** *   CY_SFLASH_SIZEOF_USERROW macro. Refer to the device TRM for the details.
 310:Generated_Source\PSoC4/CyFlash.c **** *
 311:Generated_Source\PSoC4/CyFlash.c **** * Return:
 312:Generated_Source\PSoC4/CyFlash.c **** *  Status
 313:Generated_Source\PSoC4/CyFlash.c **** *     Value                     Description
 314:Generated_Source\PSoC4/CyFlash.c **** *    CY_SYS_SFLASH_SUCCESS          Successful
 315:Generated_Source\PSoC4/CyFlash.c **** *    CY_SYS_SFLASH_INVALID_ADDR     Specified flash row address is invalid
 316:Generated_Source\PSoC4/CyFlash.c **** *    CY_SYS_SFLASH_PROTECTED        Specified flash row is protected
 317:Generated_Source\PSoC4/CyFlash.c **** *    Other non-zero                 Failure
 318:Generated_Source\PSoC4/CyFlash.c **** *
 319:Generated_Source\PSoC4/CyFlash.c **** *******************************************************************************/
 320:Generated_Source\PSoC4/CyFlash.c **** uint32 CySysSFlashWriteUserRow(uint32 rowNum, const uint8 rowData[])
 321:Generated_Source\PSoC4/CyFlash.c **** {
 387              		.loc 1 321 0
 388              		.cfi_startproc
 389 0000 90B5     		push	{r4, r7, lr}
 390              		.cfi_def_cfa_offset 12
 391              		.cfi_offset 4, -12
 392              		.cfi_offset 7, -8
 393              		.cfi_offset 14, -4
 394 0002 C9B0     		sub	sp, sp, #292
 395              		.cfi_def_cfa_offset 304
 396 0004 00AF     		add	r7, sp, #0
 397              		.cfi_def_cfa_register 7
 398 0006 7860     		str	r0, [r7, #4]
 399 0008 3960     		str	r1, [r7]
 322:Generated_Source\PSoC4/CyFlash.c ****     volatile uint32 retValue = CY_SYS_FLASH_SUCCESS;
 400              		.loc 1 322 0
 401 000a 0023     		mov	r3, #0
 402 000c 8C22     		mov	r2, #140
 403 000e 5200     		lsl	r2, r2, #1
 404 0010 BA18     		add	r2, r7, r2
 405 0012 1360     		str	r3, [r2]
 323:Generated_Source\PSoC4/CyFlash.c ****     volatile uint32 clkCnfRetValue = CY_SYS_FLASH_SUCCESS;
 406              		.loc 1 323 0
 407 0014 0023     		mov	r3, #0
 408 0016 8A22     		mov	r2, #138
 409 0018 5200     		lsl	r2, r2, #1
 410 001a BA18     		add	r2, r7, r2
 411 001c 1360     		str	r3, [r2]
 324:Generated_Source\PSoC4/CyFlash.c ****     volatile uint32 parameters[(CY_FLASH_SIZEOF_ROW + CY_FLASH_SRAM_ROM_DATA)/4u];
 325:Generated_Source\PSoC4/CyFlash.c ****     uint8  interruptState;
 326:Generated_Source\PSoC4/CyFlash.c **** 
 327:Generated_Source\PSoC4/CyFlash.c **** 
 328:Generated_Source\PSoC4/CyFlash.c ****     if ((rowNum < CY_SFLASH_NUMBER_USERROWS) && (rowData != 0u))
ARM GAS  C:\Users\Sarah\AppData\Local\Temp\ccKMJXyq.s 			page 14


 412              		.loc 1 328 0
 413 001e 7B68     		ldr	r3, [r7, #4]
 414 0020 032B     		cmp	r3, #3
 415 0022 00D9     		bls	.LCB361
 416 0024 97E0     		b	.L24	@long jump
 417              	.LCB361:
 418              		.loc 1 328 0 is_stmt 0 discriminator 1
 419 0026 3B68     		ldr	r3, [r7]
 420 0028 002B     		cmp	r3, #0
 421 002a 00D1     		bne	.LCB364
 422 002c 93E0     		b	.L24	@long jump
 423              	.LCB364:
 329:Generated_Source\PSoC4/CyFlash.c ****     {
 330:Generated_Source\PSoC4/CyFlash.c ****         /* Load Flash Bytes */
 331:Generated_Source\PSoC4/CyFlash.c ****         parameters[0u] = (uint32) (CY_FLASH_GET_MACRO_FROM_ROW(rowNum)        << CY_FLASH_PARAM_MAC
 332:Generated_Source\PSoC4/CyFlash.c ****                          (uint32) (CY_FLASH_PAGE_LATCH_START_ADDR             << CY_FLASH_PARAM_ADD
 333:Generated_Source\PSoC4/CyFlash.c ****                          (uint32) (CY_FLASH_KEY_TWO(CY_FLASH_API_OPCODE_LOAD) << CY_FLASH_PARAM_KEY
 424              		.loc 1 333 0 is_stmt 1
 425 002e 7B68     		ldr	r3, [r7, #4]
 426 0030 4F4A     		ldr	r2, .L36
 427 0032 9342     		cmp	r3, r2
 428 0034 01D9     		bls	.L25
 429              		.loc 1 333 0 is_stmt 0 discriminator 1
 430 0036 4F4A     		ldr	r2, .L36+4
 431 0038 00E0     		b	.L26
 432              	.L25:
 433              		.loc 1 333 0 discriminator 2
 434 003a 4F4A     		ldr	r2, .L36+8
 435              	.L26:
 331:Generated_Source\PSoC4/CyFlash.c ****                          (uint32) (CY_FLASH_PAGE_LATCH_START_ADDR             << CY_FLASH_PARAM_ADD
 436              		.loc 1 331 0 is_stmt 1
 437 003c 4F4B     		ldr	r3, .L36+12
 438 003e 9021     		mov	r1, #144
 439 0040 4900     		lsl	r1, r1, #1
 440 0042 8C46     		mov	ip, r1
 441 0044 BC44     		add	ip, ip, r7
 442 0046 6344     		add	r3, r3, ip
 443 0048 1A60     		str	r2, [r3]
 334:Generated_Source\PSoC4/CyFlash.c ****                          CY_FLASH_KEY_ONE;
 335:Generated_Source\PSoC4/CyFlash.c ****         parameters[1u] = CY_FLASH_SIZEOF_ROW - 1u;
 444              		.loc 1 335 0
 445 004a 4C4B     		ldr	r3, .L36+12
 446 004c 9022     		mov	r2, #144
 447 004e 5200     		lsl	r2, r2, #1
 448 0050 9446     		mov	ip, r2
 449 0052 BC44     		add	ip, ip, r7
 450 0054 6344     		add	r3, r3, ip
 451 0056 FF22     		mov	r2, #255
 452 0058 5A60     		str	r2, [r3, #4]
 336:Generated_Source\PSoC4/CyFlash.c **** 
 337:Generated_Source\PSoC4/CyFlash.c ****         (void)memcpy((void *)&parameters[2u], rowData, CY_FLASH_SIZEOF_ROW);
 453              		.loc 1 337 0
 454 005a 0C23     		mov	r3, #12
 455 005c FB18     		add	r3, r7, r3
 456 005e 0833     		add	r3, r3, #8
 457 0060 191C     		mov	r1, r3
 458 0062 3A68     		ldr	r2, [r7]
ARM GAS  C:\Users\Sarah\AppData\Local\Temp\ccKMJXyq.s 			page 15


 459 0064 8023     		mov	r3, #128
 460 0066 5B00     		lsl	r3, r3, #1
 461 0068 081C     		mov	r0, r1
 462 006a 111C     		mov	r1, r2
 463 006c 1A1C     		mov	r2, r3
 464 006e FFF7FEFF 		bl	memcpy
 338:Generated_Source\PSoC4/CyFlash.c ****         CY_FLASH_CPUSS_SYSARG_REG = (uint32) &parameters[0u];
 465              		.loc 1 338 0
 466 0072 434B     		ldr	r3, .L36+16
 467 0074 0C22     		mov	r2, #12
 468 0076 BA18     		add	r2, r7, r2
 469 0078 1A60     		str	r2, [r3]
 339:Generated_Source\PSoC4/CyFlash.c ****         CY_FLASH_CPUSS_SYSREQ_REG = CY_FLASH_CPUSS_REQ_START | CY_FLASH_API_OPCODE_LOAD;
 470              		.loc 1 339 0
 471 007a 424B     		ldr	r3, .L36+20
 472 007c 424A     		ldr	r2, .L36+24
 473 007e 1A60     		str	r2, [r3]
 340:Generated_Source\PSoC4/CyFlash.c ****         retValue = CY_FLASH_API_RETURN;
 474              		.loc 1 340 0
 475 0080 3F4B     		ldr	r3, .L36+16
 476 0082 1B68     		ldr	r3, [r3]
 477 0084 1B0F     		lsr	r3, r3, #28
 478 0086 1A07     		lsl	r2, r3, #28
 479 0088 A023     		mov	r3, #160
 480 008a 1B06     		lsl	r3, r3, #24
 481 008c 9A42     		cmp	r2, r3
 482 008e 04D0     		beq	.L27
 483              		.loc 1 340 0 is_stmt 0 discriminator 1
 484 0090 3B4B     		ldr	r3, .L36+16
 485 0092 1B68     		ldr	r3, [r3]
 486 0094 0F22     		mov	r2, #15
 487 0096 1340     		and	r3, r2
 488 0098 00E0     		b	.L28
 489              	.L27:
 490              		.loc 1 340 0 discriminator 2
 491 009a 0023     		mov	r3, #0
 492              	.L28:
 493              		.loc 1 340 0 discriminator 4
 494 009c 8C22     		mov	r2, #140
 495 009e 5200     		lsl	r2, r2, #1
 496 00a0 BA18     		add	r2, r7, r2
 497 00a2 1360     		str	r3, [r2]
 341:Generated_Source\PSoC4/CyFlash.c **** 
 342:Generated_Source\PSoC4/CyFlash.c ****         if(retValue == CY_SYS_FLASH_SUCCESS)
 498              		.loc 1 342 0 is_stmt 1 discriminator 4
 499 00a4 8C23     		mov	r3, #140
 500 00a6 5B00     		lsl	r3, r3, #1
 501 00a8 FB18     		add	r3, r7, r3
 502 00aa 1B68     		ldr	r3, [r3]
 503 00ac 002B     		cmp	r3, #0
 504 00ae 51D1     		bne	.L29
 343:Generated_Source\PSoC4/CyFlash.c ****         {
 344:Generated_Source\PSoC4/CyFlash.c ****             /***************************************************************
 345:Generated_Source\PSoC4/CyFlash.c ****             * Mask all the exceptions to guarantee that Flash write will
 346:Generated_Source\PSoC4/CyFlash.c ****             * occur in the atomic way. It will not affect system call
 347:Generated_Source\PSoC4/CyFlash.c ****             * execution (flash row write) since it is executed in the NMI
 348:Generated_Source\PSoC4/CyFlash.c ****             * context.
ARM GAS  C:\Users\Sarah\AppData\Local\Temp\ccKMJXyq.s 			page 16


 349:Generated_Source\PSoC4/CyFlash.c ****             ***************************************************************/
 350:Generated_Source\PSoC4/CyFlash.c ****             interruptState = CyEnterCriticalSection();
 505              		.loc 1 350 0
 506 00b0 2023     		mov	r3, #32
 507 00b2 FF33     		add	r3, r3, #255
 508 00b4 FC18     		add	r4, r7, r3
 509 00b6 FFF7FEFF 		bl	CyEnterCriticalSection
 510 00ba 031C     		mov	r3, r0
 511 00bc 2370     		strb	r3, [r4]
 351:Generated_Source\PSoC4/CyFlash.c **** 
 352:Generated_Source\PSoC4/CyFlash.c ****             clkCnfRetValue = CySysFlashClockBackup();
 512              		.loc 1 352 0
 513 00be FFF7FEFF 		bl	CySysFlashClockBackup
 514 00c2 031C     		mov	r3, r0
 515 00c4 8A22     		mov	r2, #138
 516 00c6 5200     		lsl	r2, r2, #1
 517 00c8 BA18     		add	r2, r7, r2
 518 00ca 1360     		str	r3, [r2]
 353:Generated_Source\PSoC4/CyFlash.c **** 
 354:Generated_Source\PSoC4/CyFlash.c ****         #if(CY_IP_SPCIF_SYNCHRONOUS)
 355:Generated_Source\PSoC4/CyFlash.c ****             if(clkCnfRetValue == CY_SYS_FLASH_SUCCESS)
 356:Generated_Source\PSoC4/CyFlash.c ****             {
 357:Generated_Source\PSoC4/CyFlash.c ****                 retValue = CySysFlashClockConfig();
 358:Generated_Source\PSoC4/CyFlash.c ****             }
 359:Generated_Source\PSoC4/CyFlash.c ****         #endif  /* (CY_IP_SPCIF_SYNCHRONOUS) */
 360:Generated_Source\PSoC4/CyFlash.c **** 
 361:Generated_Source\PSoC4/CyFlash.c ****             if(retValue == CY_SYS_FLASH_SUCCESS)
 519              		.loc 1 361 0
 520 00cc 8C23     		mov	r3, #140
 521 00ce 5B00     		lsl	r3, r3, #1
 522 00d0 FB18     		add	r3, r7, r3
 523 00d2 1B68     		ldr	r3, [r3]
 524 00d4 002B     		cmp	r3, #0
 525 00d6 28D1     		bne	.L30
 362:Generated_Source\PSoC4/CyFlash.c ****             {
 363:Generated_Source\PSoC4/CyFlash.c ****                 /* Write User Sflash Row */
 364:Generated_Source\PSoC4/CyFlash.c ****                 parameters[0u]  = (uint32) (((uint32) CY_FLASH_KEY_TWO(CY_FLASH_API_OPCODE_WRITE_SF
 526              		.loc 1 364 0
 527 00d8 284B     		ldr	r3, .L36+12
 528 00da 9022     		mov	r2, #144
 529 00dc 5200     		lsl	r2, r2, #1
 530 00de 9446     		mov	ip, r2
 531 00e0 BC44     		add	ip, ip, r7
 532 00e2 6344     		add	r3, r3, ip
 533 00e4 294A     		ldr	r2, .L36+28
 534 00e6 1A60     		str	r2, [r3]
 365:Generated_Source\PSoC4/CyFlash.c ****                 parameters[1u] = (uint32) rowNum;
 535              		.loc 1 365 0
 536 00e8 244B     		ldr	r3, .L36+12
 537 00ea 9022     		mov	r2, #144
 538 00ec 5200     		lsl	r2, r2, #1
 539 00ee 9446     		mov	ip, r2
 540 00f0 BC44     		add	ip, ip, r7
 541 00f2 6344     		add	r3, r3, ip
 542 00f4 7A68     		ldr	r2, [r7, #4]
 543 00f6 5A60     		str	r2, [r3, #4]
 366:Generated_Source\PSoC4/CyFlash.c **** 
ARM GAS  C:\Users\Sarah\AppData\Local\Temp\ccKMJXyq.s 			page 17


 367:Generated_Source\PSoC4/CyFlash.c ****                 CY_FLASH_CPUSS_SYSARG_REG = (uint32) &parameters[0u];
 544              		.loc 1 367 0
 545 00f8 214B     		ldr	r3, .L36+16
 546 00fa 0C22     		mov	r2, #12
 547 00fc BA18     		add	r2, r7, r2
 548 00fe 1A60     		str	r2, [r3]
 368:Generated_Source\PSoC4/CyFlash.c ****                 CY_FLASH_CPUSS_SYSREQ_REG = CY_FLASH_CPUSS_REQ_START | CY_FLASH_API_OPCODE_WRITE_SF
 549              		.loc 1 368 0
 550 0100 204B     		ldr	r3, .L36+20
 551 0102 234A     		ldr	r2, .L36+32
 552 0104 1A60     		str	r2, [r3]
 369:Generated_Source\PSoC4/CyFlash.c ****                 retValue = CY_FLASH_API_RETURN;
 553              		.loc 1 369 0
 554 0106 1E4B     		ldr	r3, .L36+16
 555 0108 1B68     		ldr	r3, [r3]
 556 010a 1B0F     		lsr	r3, r3, #28
 557 010c 1A07     		lsl	r2, r3, #28
 558 010e A023     		mov	r3, #160
 559 0110 1B06     		lsl	r3, r3, #24
 560 0112 9A42     		cmp	r2, r3
 561 0114 04D0     		beq	.L31
 562              		.loc 1 369 0 is_stmt 0 discriminator 1
 563 0116 1A4B     		ldr	r3, .L36+16
 564 0118 1B68     		ldr	r3, [r3]
 565 011a 0F22     		mov	r2, #15
 566 011c 1340     		and	r3, r2
 567 011e 00E0     		b	.L32
 568              	.L31:
 569              		.loc 1 369 0 discriminator 2
 570 0120 0023     		mov	r3, #0
 571              	.L32:
 572              		.loc 1 369 0 discriminator 4
 573 0122 8C22     		mov	r2, #140
 574 0124 5200     		lsl	r2, r2, #1
 575 0126 BA18     		add	r2, r7, r2
 576 0128 1360     		str	r3, [r2]
 577              	.L30:
 370:Generated_Source\PSoC4/CyFlash.c ****             }
 371:Generated_Source\PSoC4/CyFlash.c **** 
 372:Generated_Source\PSoC4/CyFlash.c ****             if(clkCnfRetValue == CY_SYS_FLASH_SUCCESS)
 578              		.loc 1 372 0 is_stmt 1
 579 012a 8A23     		mov	r3, #138
 580 012c 5B00     		lsl	r3, r3, #1
 581 012e FB18     		add	r3, r7, r3
 582 0130 1B68     		ldr	r3, [r3]
 583 0132 002B     		cmp	r3, #0
 584 0134 06D1     		bne	.L33
 373:Generated_Source\PSoC4/CyFlash.c ****             {
 374:Generated_Source\PSoC4/CyFlash.c ****                 clkCnfRetValue = CySysFlashClockRestore();
 585              		.loc 1 374 0
 586 0136 FFF7FEFF 		bl	CySysFlashClockRestore
 587 013a 031C     		mov	r3, r0
 588 013c 8A22     		mov	r2, #138
 589 013e 5200     		lsl	r2, r2, #1
 590 0140 BA18     		add	r2, r7, r2
 591 0142 1360     		str	r3, [r2]
 592              	.L33:
ARM GAS  C:\Users\Sarah\AppData\Local\Temp\ccKMJXyq.s 			page 18


 375:Generated_Source\PSoC4/CyFlash.c ****             }
 376:Generated_Source\PSoC4/CyFlash.c ****             CyExitCriticalSection(interruptState);
 593              		.loc 1 376 0
 594 0144 2023     		mov	r3, #32
 595 0146 FF33     		add	r3, r3, #255
 596 0148 FB18     		add	r3, r7, r3
 597 014a 1B78     		ldrb	r3, [r3]
 598 014c 181C     		mov	r0, r3
 599 014e FFF7FEFF 		bl	CyExitCriticalSection
 342:Generated_Source\PSoC4/CyFlash.c ****         {
 600              		.loc 1 342 0
 601 0152 05E0     		b	.L34
 602              	.L29:
 603 0154 04E0     		b	.L34
 604              	.L24:
 377:Generated_Source\PSoC4/CyFlash.c ****         }
 378:Generated_Source\PSoC4/CyFlash.c ****     }
 379:Generated_Source\PSoC4/CyFlash.c ****     else
 380:Generated_Source\PSoC4/CyFlash.c ****     {
 381:Generated_Source\PSoC4/CyFlash.c ****         retValue = CY_SYS_FLASH_INVALID_ADDR;
 605              		.loc 1 381 0
 606 0156 0423     		mov	r3, #4
 607 0158 8C22     		mov	r2, #140
 608 015a 5200     		lsl	r2, r2, #1
 609 015c BA18     		add	r2, r7, r2
 610 015e 1360     		str	r3, [r2]
 611              	.L34:
 382:Generated_Source\PSoC4/CyFlash.c ****     }
 383:Generated_Source\PSoC4/CyFlash.c **** 
 384:Generated_Source\PSoC4/CyFlash.c ****     return (retValue);
 612              		.loc 1 384 0
 613 0160 8C23     		mov	r3, #140
 614 0162 5B00     		lsl	r3, r3, #1
 615 0164 FB18     		add	r3, r7, r3
 616 0166 1B68     		ldr	r3, [r3]
 385:Generated_Source\PSoC4/CyFlash.c **** }
 617              		.loc 1 385 0
 618 0168 181C     		mov	r0, r3
 619 016a BD46     		mov	sp, r7
 620 016c 49B0     		add	sp, sp, #292
 621              		@ sp needed
 622 016e 90BD     		pop	{r4, r7, pc}
 623              	.L37:
 624              		.align	2
 625              	.L36:
 626 0170 FF010000 		.word	511
 627 0174 B6D70001 		.word	16832438
 628 0178 B6D70000 		.word	55222
 629 017c ECFEFFFF 		.word	-276
 630 0180 08001040 		.word	1074790408
 631 0184 04001040 		.word	1074790404
 632 0188 04000080 		.word	-2147483644
 633 018c B6EB0000 		.word	60342
 634 0190 18000080 		.word	-2147483624
 635              		.cfi_endproc
 636              	.LFE4:
 637              		.size	CySysSFlashWriteUserRow, .-CySysSFlashWriteUserRow
ARM GAS  C:\Users\Sarah\AppData\Local\Temp\ccKMJXyq.s 			page 19


 638              		.section	.text.CySysFlashClockBackup,"ax",%progbits
 639              		.align	2
 640              		.code	16
 641              		.thumb_func
 642              		.type	CySysFlashClockBackup, %function
 643              	CySysFlashClockBackup:
 644              	.LFB5:
 386:Generated_Source\PSoC4/CyFlash.c **** #endif /* (CY_SFLASH_XTRA_ROWS) */
 387:Generated_Source\PSoC4/CyFlash.c **** 
 388:Generated_Source\PSoC4/CyFlash.c **** 
 389:Generated_Source\PSoC4/CyFlash.c **** /*******************************************************************************
 390:Generated_Source\PSoC4/CyFlash.c **** * Function Name: CySysFlashClockBackup
 391:Generated_Source\PSoC4/CyFlash.c **** ********************************************************************************
 392:Generated_Source\PSoC4/CyFlash.c **** *
 393:Generated_Source\PSoC4/CyFlash.c **** * Summary:
 394:Generated_Source\PSoC4/CyFlash.c **** *  Backups the device clock configuration.
 395:Generated_Source\PSoC4/CyFlash.c **** *
 396:Generated_Source\PSoC4/CyFlash.c **** * Parameters:
 397:Generated_Source\PSoC4/CyFlash.c **** *  None
 398:Generated_Source\PSoC4/CyFlash.c **** *
 399:Generated_Source\PSoC4/CyFlash.c **** * Return:
 400:Generated_Source\PSoC4/CyFlash.c **** *  The same as CySysFlashWriteRow().
 401:Generated_Source\PSoC4/CyFlash.c **** *
 402:Generated_Source\PSoC4/CyFlash.c **** *******************************************************************************/
 403:Generated_Source\PSoC4/CyFlash.c **** static cystatus CySysFlashClockBackup(void)
 404:Generated_Source\PSoC4/CyFlash.c **** {
 645              		.loc 1 404 0
 646              		.cfi_startproc
 647 0000 80B5     		push	{r7, lr}
 648              		.cfi_def_cfa_offset 8
 649              		.cfi_offset 7, -8
 650              		.cfi_offset 14, -4
 651 0002 82B0     		sub	sp, sp, #8
 652              		.cfi_def_cfa_offset 16
 653 0004 00AF     		add	r7, sp, #0
 654              		.cfi_def_cfa_register 7
 405:Generated_Source\PSoC4/CyFlash.c ****     cystatus retValue = CY_SYS_FLASH_SUCCESS;
 655              		.loc 1 405 0
 656 0006 0023     		mov	r3, #0
 657 0008 7B60     		str	r3, [r7, #4]
 406:Generated_Source\PSoC4/CyFlash.c **** #if(!CY_IP_FM)
 407:Generated_Source\PSoC4/CyFlash.c ****     #if !(CY_PSOC4_4000)
 408:Generated_Source\PSoC4/CyFlash.c ****         #if (CY_IP_SPCIF_SYNCHRONOUS)
 409:Generated_Source\PSoC4/CyFlash.c ****             volatile uint32   parameters[2u];
 410:Generated_Source\PSoC4/CyFlash.c ****         #endif /* (CY_IP_SPCIF_SYNCHRONOUS) */
 411:Generated_Source\PSoC4/CyFlash.c ****     #endif  /* !(CY_PSOC4_4000) */
 412:Generated_Source\PSoC4/CyFlash.c **** #endif  /* (!CY_IP_FM) */
 413:Generated_Source\PSoC4/CyFlash.c **** 
 414:Generated_Source\PSoC4/CyFlash.c **** #if(CY_IP_FM)
 415:Generated_Source\PSoC4/CyFlash.c **** 
 416:Generated_Source\PSoC4/CyFlash.c ****     /***************************************************************
 417:Generated_Source\PSoC4/CyFlash.c ****     * Preserve IMO configuration that could be changed during
 418:Generated_Source\PSoC4/CyFlash.c ****     * system call execution (Cypress ID #150448).
 419:Generated_Source\PSoC4/CyFlash.c ****     ***************************************************************/
 420:Generated_Source\PSoC4/CyFlash.c ****     cySysFlashBackup.imoConfigReg = CY_SYS_CLK_IMO_CONFIG_REG;
 421:Generated_Source\PSoC4/CyFlash.c **** 
 422:Generated_Source\PSoC4/CyFlash.c **** #else   /* (CY_IP_FMLT) */
ARM GAS  C:\Users\Sarah\AppData\Local\Temp\ccKMJXyq.s 			page 20


 423:Generated_Source\PSoC4/CyFlash.c **** 
 424:Generated_Source\PSoC4/CyFlash.c ****     #if (CY_PSOC4_4000)
 425:Generated_Source\PSoC4/CyFlash.c **** 
 426:Generated_Source\PSoC4/CyFlash.c ****         /***************************************************************************
 427:Generated_Source\PSoC4/CyFlash.c ****         * Perform firmware clock settings backup for the PSOC4 4000 devices (the
 428:Generated_Source\PSoC4/CyFlash.c ****         * corresponding system call is not available).
 429:Generated_Source\PSoC4/CyFlash.c ****         ***************************************************************************/
 430:Generated_Source\PSoC4/CyFlash.c **** 
 431:Generated_Source\PSoC4/CyFlash.c ****         /***************************************************************************
 432:Generated_Source\PSoC4/CyFlash.c ****         * The registers listed below are modified by CySysFlashClockConfig().
 433:Generated_Source\PSoC4/CyFlash.c ****         *
 434:Generated_Source\PSoC4/CyFlash.c ****         * The registers to be saved:
 435:Generated_Source\PSoC4/CyFlash.c ****         * - CY_SYS_CLK_IMO_CONFIG_REG - IMO enable state.
 436:Generated_Source\PSoC4/CyFlash.c ****         * - CY_SYS_CLK_SELECT_REG     - HFCLK source, divider, pump source. Save
 437:Generated_Source\PSoC4/CyFlash.c ****         *                               entire register as it can be directly
 438:Generated_Source\PSoC4/CyFlash.c ****         *                               written on restore (no special
 439:Generated_Source\PSoC4/CyFlash.c ****         *                               requirements).
 440:Generated_Source\PSoC4/CyFlash.c ****         * - CY_SYS_CLK_IMO_SELECT_REG - Save IMO frequency.
 441:Generated_Source\PSoC4/CyFlash.c ****         *
 442:Generated_Source\PSoC4/CyFlash.c ****         * The registers not to be saved:
 443:Generated_Source\PSoC4/CyFlash.c ****         * - CY_SYS_CLK_IMO_TRIM1_REG  - No need to save. Function of frequency.
 444:Generated_Source\PSoC4/CyFlash.c ****         *                               Restored by CySysClkWriteImoFreq().
 445:Generated_Source\PSoC4/CyFlash.c ****         * - CY_SYS_CLK_IMO_TRIM3_REG  - No need to save. Function of frequency.
 446:Generated_Source\PSoC4/CyFlash.c ****         *                               Restored by CySysClkWriteImoFreq().
 447:Generated_Source\PSoC4/CyFlash.c ****         * - REG_CPUSS_FLASH_CTL       - Flash wait cycles. Unmodified due to system
 448:Generated_Source\PSoC4/CyFlash.c ****         *                               clock 16 MHz limit.
 449:Generated_Source\PSoC4/CyFlash.c ****         ***************************************************************************/
 450:Generated_Source\PSoC4/CyFlash.c **** 
 451:Generated_Source\PSoC4/CyFlash.c ****         cySysFlashBackup.clkSelectReg = CY_SYS_CLK_SELECT_REG;
 452:Generated_Source\PSoC4/CyFlash.c ****         cySysFlashBackup.clkImoEna    = CY_SYS_CLK_IMO_CONFIG_REG & CY_SYS_CLK_IMO_CONFIG_ENABLE;
 453:Generated_Source\PSoC4/CyFlash.c ****         cySysFlashBackup.clkImoFreq   = CY_SYS_CLK_IMO_MIN_FREQ_MHZ + (CY_SYS_CLK_IMO_SELECT_REG <<
 454:Generated_Source\PSoC4/CyFlash.c **** 
 455:Generated_Source\PSoC4/CyFlash.c ****     #else
 456:Generated_Source\PSoC4/CyFlash.c **** 
 457:Generated_Source\PSoC4/CyFlash.c ****         #if (CY_IP_SPCIF_SYNCHRONOUS)
 458:Generated_Source\PSoC4/CyFlash.c ****             /* FM-Lite Clock Backup System Call */
 459:Generated_Source\PSoC4/CyFlash.c ****             parameters[0u] =
 460:Generated_Source\PSoC4/CyFlash.c ****                 (uint32) ((CY_FLASH_KEY_TWO(CY_FLASH_API_OPCODE_CLK_BACKUP) <<  CY_FLASH_PARAM_KEY_
 461:Generated_Source\PSoC4/CyFlash.c ****                             CY_FLASH_KEY_ONE);
 462:Generated_Source\PSoC4/CyFlash.c ****             parameters[1u] = (uint32) &cySysFlashBackup.clockSettings[0u];
 463:Generated_Source\PSoC4/CyFlash.c ****             CY_FLASH_CPUSS_SYSARG_REG = (uint32) &parameters[0u];
 464:Generated_Source\PSoC4/CyFlash.c ****             CY_FLASH_CPUSS_SYSREQ_REG = CY_FLASH_CPUSS_REQ_START | CY_FLASH_API_OPCODE_CLK_BACKUP;
 465:Generated_Source\PSoC4/CyFlash.c ****             retValue = CY_FLASH_API_RETURN;
 466:Generated_Source\PSoC4/CyFlash.c ****         #endif /* (CY_IP_SPCIF_SYNCHRONOUS) */
 467:Generated_Source\PSoC4/CyFlash.c **** 
 468:Generated_Source\PSoC4/CyFlash.c ****     #endif  /* (CY_PSOC4_4000) */
 469:Generated_Source\PSoC4/CyFlash.c **** 
 470:Generated_Source\PSoC4/CyFlash.c **** #endif  /* (CY_IP_FM) */
 471:Generated_Source\PSoC4/CyFlash.c **** 
 472:Generated_Source\PSoC4/CyFlash.c ****     return (retValue);
 658              		.loc 1 472 0
 659 000a 7B68     		ldr	r3, [r7, #4]
 473:Generated_Source\PSoC4/CyFlash.c **** }
 660              		.loc 1 473 0
 661 000c 181C     		mov	r0, r3
 662 000e BD46     		mov	sp, r7
 663 0010 02B0     		add	sp, sp, #8
ARM GAS  C:\Users\Sarah\AppData\Local\Temp\ccKMJXyq.s 			page 21


 664              		@ sp needed
 665 0012 80BD     		pop	{r7, pc}
 666              		.cfi_endproc
 667              	.LFE5:
 668              		.size	CySysFlashClockBackup, .-CySysFlashClockBackup
 669              		.section	.text.CySysFlashClockRestore,"ax",%progbits
 670              		.align	2
 671              		.code	16
 672              		.thumb_func
 673              		.type	CySysFlashClockRestore, %function
 674              	CySysFlashClockRestore:
 675              	.LFB6:
 474:Generated_Source\PSoC4/CyFlash.c **** 
 475:Generated_Source\PSoC4/CyFlash.c **** 
 476:Generated_Source\PSoC4/CyFlash.c **** #if(CY_IP_SPCIF_SYNCHRONOUS)
 477:Generated_Source\PSoC4/CyFlash.c **** /*******************************************************************************
 478:Generated_Source\PSoC4/CyFlash.c **** * Function Name: CySysFlashClockConfig
 479:Generated_Source\PSoC4/CyFlash.c **** ********************************************************************************
 480:Generated_Source\PSoC4/CyFlash.c **** *
 481:Generated_Source\PSoC4/CyFlash.c **** * Summary:
 482:Generated_Source\PSoC4/CyFlash.c **** *  Configures the device clocks for the flash writing.
 483:Generated_Source\PSoC4/CyFlash.c **** *
 484:Generated_Source\PSoC4/CyFlash.c **** * Parameters:
 485:Generated_Source\PSoC4/CyFlash.c **** *  None
 486:Generated_Source\PSoC4/CyFlash.c **** *
 487:Generated_Source\PSoC4/CyFlash.c **** * Return:
 488:Generated_Source\PSoC4/CyFlash.c **** *  The same as CySysFlashWriteRow().
 489:Generated_Source\PSoC4/CyFlash.c **** *
 490:Generated_Source\PSoC4/CyFlash.c **** *******************************************************************************/
 491:Generated_Source\PSoC4/CyFlash.c **** static cystatus CySysFlashClockConfig(void)
 492:Generated_Source\PSoC4/CyFlash.c **** {
 493:Generated_Source\PSoC4/CyFlash.c ****     cystatus retValue = CY_SYS_FLASH_SUCCESS;
 494:Generated_Source\PSoC4/CyFlash.c **** 
 495:Generated_Source\PSoC4/CyFlash.c ****     /***************************************************************************
 496:Generated_Source\PSoC4/CyFlash.c ****     * The FM-Lite IP uses the IMO at 48MHz for the pump clock and SPC timer
 497:Generated_Source\PSoC4/CyFlash.c ****     * clock. The PUMP_SEL and HF clock must be set to IMO before calling Flash
 498:Generated_Source\PSoC4/CyFlash.c ****     * write or erase operation.
 499:Generated_Source\PSoC4/CyFlash.c ****     ***************************************************************************/
 500:Generated_Source\PSoC4/CyFlash.c **** #if (CY_PSOC4_4000)
 501:Generated_Source\PSoC4/CyFlash.c **** 
 502:Generated_Source\PSoC4/CyFlash.c ****     /***************************************************************************
 503:Generated_Source\PSoC4/CyFlash.c ****     * Perform firmware clock settings setup for the PSOC4 4000 devices (the
 504:Generated_Source\PSoC4/CyFlash.c ****     * corresponding system call is not reliable):
 505:Generated_Source\PSoC4/CyFlash.c ****     * - The IMO frequency should be 48 MHz
 506:Generated_Source\PSoC4/CyFlash.c ****     * - The IMO should be source for the HFCLK
 507:Generated_Source\PSoC4/CyFlash.c ****     * - The IMO should be the source for the charge pump clock
 508:Generated_Source\PSoC4/CyFlash.c ****     *
 509:Generated_Source\PSoC4/CyFlash.c ****     * Note The structure members used below are initialized by
 510:Generated_Source\PSoC4/CyFlash.c ****     * the CySysFlashClockBackup() function.
 511:Generated_Source\PSoC4/CyFlash.c ****     ***************************************************************************/
 512:Generated_Source\PSoC4/CyFlash.c ****     if ((cySysFlashBackup.clkImoFreq != 48u) ||
 513:Generated_Source\PSoC4/CyFlash.c ****         ((cySysFlashBackup.clkSelectReg & CY_SYS_CLK_SELECT_DIRECT_SEL_MASK) != CY_SYS_CLK_HFCLK_IM
 514:Generated_Source\PSoC4/CyFlash.c ****         (((cySysFlashBackup.clkSelectReg >> CY_SYS_CLK_SELECT_PUMP_SEL_SHIFT) & CY_SYS_CLK_SELECT_P
 515:Generated_Source\PSoC4/CyFlash.c ****             CY_SYS_CLK_SELECT_PUMP_SEL_IMO))
 516:Generated_Source\PSoC4/CyFlash.c ****     {
 517:Generated_Source\PSoC4/CyFlash.c ****         /***********************************************************************
 518:Generated_Source\PSoC4/CyFlash.c ****          Set HFCLK divider to divide-by-4 to ensure that System clock frequency
ARM GAS  C:\Users\Sarah\AppData\Local\Temp\ccKMJXyq.s 			page 22


 519:Generated_Source\PSoC4/CyFlash.c ****         * is within the valid limit (16 MHz for the PSoC4 4000).
 520:Generated_Source\PSoC4/CyFlash.c ****         ***********************************************************************/
 521:Generated_Source\PSoC4/CyFlash.c ****         CySysClkWriteHfclkDiv(CY_SYS_CLK_HFCLK_DIV_4);
 522:Generated_Source\PSoC4/CyFlash.c **** 
 523:Generated_Source\PSoC4/CyFlash.c ****         /* The IMO frequency should be 48 MHz */
 524:Generated_Source\PSoC4/CyFlash.c ****         if (cySysFlashBackup.clkImoFreq != 48u)
 525:Generated_Source\PSoC4/CyFlash.c ****         {
 526:Generated_Source\PSoC4/CyFlash.c ****             CySysClkWriteImoFreq(48u);
 527:Generated_Source\PSoC4/CyFlash.c ****         }
 528:Generated_Source\PSoC4/CyFlash.c ****         CySysClkImoStart();
 529:Generated_Source\PSoC4/CyFlash.c **** 
 530:Generated_Source\PSoC4/CyFlash.c ****         /* The IMO should be source for the HFCLK */
 531:Generated_Source\PSoC4/CyFlash.c ****         CySysClkWriteHfclkDirect(CY_SYS_CLK_HFCLK_IMO);
 532:Generated_Source\PSoC4/CyFlash.c **** 
 533:Generated_Source\PSoC4/CyFlash.c ****         /* The IMO should be the source for the charge pump clock */
 534:Generated_Source\PSoC4/CyFlash.c ****         CY_SYS_CLK_SELECT_REG =  (CY_SYS_CLK_SELECT_REG &
 535:Generated_Source\PSoC4/CyFlash.c ****             ((uint32)~(uint32)(CY_SYS_CLK_SELECT_PUMP_SEL_MASK << CY_SYS_CLK_SELECT_PUMP_SEL_SHIFT)
 536:Generated_Source\PSoC4/CyFlash.c ****             ((uint32)((uint32)1u << CY_SYS_CLK_SELECT_PUMP_SEL_SHIFT));
 537:Generated_Source\PSoC4/CyFlash.c ****     }
 538:Generated_Source\PSoC4/CyFlash.c **** 
 539:Generated_Source\PSoC4/CyFlash.c **** #else
 540:Generated_Source\PSoC4/CyFlash.c **** 
 541:Generated_Source\PSoC4/CyFlash.c ****     /* FM-Lite Clock Configuration */
 542:Generated_Source\PSoC4/CyFlash.c ****     CY_FLASH_CPUSS_SYSARG_REG =
 543:Generated_Source\PSoC4/CyFlash.c ****         (uint32) ((CY_FLASH_KEY_TWO(CY_FLASH_API_OPCODE_CLK_CONFIG) <<  CY_FLASH_PARAM_KEY_TWO_OFFS
 544:Generated_Source\PSoC4/CyFlash.c ****                     CY_FLASH_KEY_ONE);
 545:Generated_Source\PSoC4/CyFlash.c ****     CY_FLASH_CPUSS_SYSREQ_REG = CY_FLASH_CPUSS_REQ_START | CY_FLASH_API_OPCODE_CLK_CONFIG;
 546:Generated_Source\PSoC4/CyFlash.c ****     retValue = CY_FLASH_API_RETURN;
 547:Generated_Source\PSoC4/CyFlash.c **** 
 548:Generated_Source\PSoC4/CyFlash.c **** #endif  /* (CY_PSOC4_4000) */
 549:Generated_Source\PSoC4/CyFlash.c **** 
 550:Generated_Source\PSoC4/CyFlash.c ****     return (retValue);
 551:Generated_Source\PSoC4/CyFlash.c **** }
 552:Generated_Source\PSoC4/CyFlash.c **** #endif  /* (CY_IP_SPCIF_SYNCHRONOUS) */
 553:Generated_Source\PSoC4/CyFlash.c **** 
 554:Generated_Source\PSoC4/CyFlash.c **** 
 555:Generated_Source\PSoC4/CyFlash.c **** /*******************************************************************************
 556:Generated_Source\PSoC4/CyFlash.c **** * Function Name: CySysFlashClockRestore
 557:Generated_Source\PSoC4/CyFlash.c **** ********************************************************************************
 558:Generated_Source\PSoC4/CyFlash.c **** *
 559:Generated_Source\PSoC4/CyFlash.c **** * Summary:
 560:Generated_Source\PSoC4/CyFlash.c **** *  Restores the device clock configuration.
 561:Generated_Source\PSoC4/CyFlash.c **** *
 562:Generated_Source\PSoC4/CyFlash.c **** * Parameters:
 563:Generated_Source\PSoC4/CyFlash.c **** *  None
 564:Generated_Source\PSoC4/CyFlash.c **** *
 565:Generated_Source\PSoC4/CyFlash.c **** * Return:
 566:Generated_Source\PSoC4/CyFlash.c **** *  The same as CySysFlashWriteRow().
 567:Generated_Source\PSoC4/CyFlash.c **** *
 568:Generated_Source\PSoC4/CyFlash.c **** *******************************************************************************/
 569:Generated_Source\PSoC4/CyFlash.c **** static cystatus CySysFlashClockRestore(void)
 570:Generated_Source\PSoC4/CyFlash.c **** {
 676              		.loc 1 570 0
 677              		.cfi_startproc
 678 0000 80B5     		push	{r7, lr}
 679              		.cfi_def_cfa_offset 8
 680              		.cfi_offset 7, -8
ARM GAS  C:\Users\Sarah\AppData\Local\Temp\ccKMJXyq.s 			page 23


 681              		.cfi_offset 14, -4
 682 0002 82B0     		sub	sp, sp, #8
 683              		.cfi_def_cfa_offset 16
 684 0004 00AF     		add	r7, sp, #0
 685              		.cfi_def_cfa_register 7
 571:Generated_Source\PSoC4/CyFlash.c ****     cystatus retValue = CY_SYS_FLASH_SUCCESS;
 686              		.loc 1 571 0
 687 0006 0023     		mov	r3, #0
 688 0008 7B60     		str	r3, [r7, #4]
 572:Generated_Source\PSoC4/CyFlash.c **** #if(!CY_IP_FM)
 573:Generated_Source\PSoC4/CyFlash.c ****     #if !(CY_PSOC4_4000)
 574:Generated_Source\PSoC4/CyFlash.c ****         #if (CY_IP_SPCIF_SYNCHRONOUS)
 575:Generated_Source\PSoC4/CyFlash.c ****             volatile uint32   parameters[2u];
 576:Generated_Source\PSoC4/CyFlash.c ****         #endif /* (CY_IP_SPCIF_SYNCHRONOUS) */
 577:Generated_Source\PSoC4/CyFlash.c ****     #endif  /* !(CY_PSOC4_4000) */
 578:Generated_Source\PSoC4/CyFlash.c **** #endif  /* (!CY_IP_FM) */
 579:Generated_Source\PSoC4/CyFlash.c **** 
 580:Generated_Source\PSoC4/CyFlash.c **** #if(CY_IP_FM)
 581:Generated_Source\PSoC4/CyFlash.c **** 
 582:Generated_Source\PSoC4/CyFlash.c ****     /***************************************************************
 583:Generated_Source\PSoC4/CyFlash.c ****     * Restore IMO configuration that could be changed during
 584:Generated_Source\PSoC4/CyFlash.c ****     * system call execution (Cypress ID #150448).
 585:Generated_Source\PSoC4/CyFlash.c ****     ***************************************************************/
 586:Generated_Source\PSoC4/CyFlash.c ****     CY_SYS_CLK_IMO_CONFIG_REG = cySysFlashBackup.imoConfigReg;
 587:Generated_Source\PSoC4/CyFlash.c **** 
 588:Generated_Source\PSoC4/CyFlash.c **** #else
 589:Generated_Source\PSoC4/CyFlash.c **** 
 590:Generated_Source\PSoC4/CyFlash.c ****     #if (CY_PSOC4_4000)
 591:Generated_Source\PSoC4/CyFlash.c **** 
 592:Generated_Source\PSoC4/CyFlash.c ****         /***************************************************************************
 593:Generated_Source\PSoC4/CyFlash.c ****         * Perform firmware clock settings restore for the PSOC4 4000 devices (the
 594:Generated_Source\PSoC4/CyFlash.c ****         * corresponding system call is not available).
 595:Generated_Source\PSoC4/CyFlash.c ****         ***************************************************************************/
 596:Generated_Source\PSoC4/CyFlash.c **** 
 597:Generated_Source\PSoC4/CyFlash.c ****         /* Restore clock settings */
 598:Generated_Source\PSoC4/CyFlash.c ****         if ((cySysFlashBackup.clkImoFreq != 48u) ||
 599:Generated_Source\PSoC4/CyFlash.c ****             ((cySysFlashBackup.clkSelectReg & CY_SYS_CLK_SELECT_DIRECT_SEL_MASK) != CY_SYS_CLK_HFCL
 600:Generated_Source\PSoC4/CyFlash.c ****             (((cySysFlashBackup.clkSelectReg >> CY_SYS_CLK_SELECT_PUMP_SEL_SHIFT) & CY_SYS_CLK_SELE
 601:Generated_Source\PSoC4/CyFlash.c ****                 CY_SYS_CLK_SELECT_PUMP_SEL_IMO))
 602:Generated_Source\PSoC4/CyFlash.c ****         {
 603:Generated_Source\PSoC4/CyFlash.c ****             /* Restore IMO frequency if needed */
 604:Generated_Source\PSoC4/CyFlash.c ****             if (cySysFlashBackup.clkImoFreq != 48u)
 605:Generated_Source\PSoC4/CyFlash.c ****             {
 606:Generated_Source\PSoC4/CyFlash.c ****                 CySysClkWriteImoFreq(cySysFlashBackup.clkImoFreq);
 607:Generated_Source\PSoC4/CyFlash.c ****             }
 608:Generated_Source\PSoC4/CyFlash.c **** 
 609:Generated_Source\PSoC4/CyFlash.c ****             /* Restore HFCLK clock source */
 610:Generated_Source\PSoC4/CyFlash.c ****             CySysClkWriteHfclkDirect(cySysFlashBackup.clkSelectReg & CY_SYS_CLK_SELECT_DIRECT_SEL_M
 611:Generated_Source\PSoC4/CyFlash.c **** 
 612:Generated_Source\PSoC4/CyFlash.c ****             /* Restore HFCLK divider and source for pump  */
 613:Generated_Source\PSoC4/CyFlash.c ****             CY_SYS_CLK_SELECT_REG = cySysFlashBackup.clkSelectReg;
 614:Generated_Source\PSoC4/CyFlash.c **** 
 615:Generated_Source\PSoC4/CyFlash.c ****             /* Stop IMO if needed */
 616:Generated_Source\PSoC4/CyFlash.c ****             if (0u == cySysFlashBackup.clkImoEna)
 617:Generated_Source\PSoC4/CyFlash.c ****             {
 618:Generated_Source\PSoC4/CyFlash.c ****                 CySysClkImoStop();
 619:Generated_Source\PSoC4/CyFlash.c ****             }
ARM GAS  C:\Users\Sarah\AppData\Local\Temp\ccKMJXyq.s 			page 24


 620:Generated_Source\PSoC4/CyFlash.c ****         }
 621:Generated_Source\PSoC4/CyFlash.c **** 
 622:Generated_Source\PSoC4/CyFlash.c ****     #else
 623:Generated_Source\PSoC4/CyFlash.c **** 
 624:Generated_Source\PSoC4/CyFlash.c ****         #if (CY_IP_SPCIF_SYNCHRONOUS)
 625:Generated_Source\PSoC4/CyFlash.c ****             /* FM-Lite Clock Restore */
 626:Generated_Source\PSoC4/CyFlash.c ****             parameters[0u] =
 627:Generated_Source\PSoC4/CyFlash.c ****                 (uint32) ((CY_FLASH_KEY_TWO(CY_FLASH_API_OPCODE_CLK_RESTORE) <<  CY_FLASH_PARAM_KEY
 628:Generated_Source\PSoC4/CyFlash.c ****                             CY_FLASH_KEY_ONE);
 629:Generated_Source\PSoC4/CyFlash.c ****             parameters[1u] = (uint32) &cySysFlashBackup.clockSettings[0u];
 630:Generated_Source\PSoC4/CyFlash.c ****             CY_FLASH_CPUSS_SYSARG_REG = (uint32) &parameters[0u];
 631:Generated_Source\PSoC4/CyFlash.c ****             CY_FLASH_CPUSS_SYSREQ_REG = CY_FLASH_CPUSS_REQ_START | CY_FLASH_API_OPCODE_CLK_RESTORE;
 632:Generated_Source\PSoC4/CyFlash.c ****             retValue = CY_FLASH_API_RETURN;
 633:Generated_Source\PSoC4/CyFlash.c ****         #endif /* (CY_IP_SPCIF_SYNCHRONOUS) */
 634:Generated_Source\PSoC4/CyFlash.c **** 
 635:Generated_Source\PSoC4/CyFlash.c ****     #endif  /* (CY_PSOC4_4000) */
 636:Generated_Source\PSoC4/CyFlash.c **** 
 637:Generated_Source\PSoC4/CyFlash.c **** #endif  /* (CY_IP_FM) */
 638:Generated_Source\PSoC4/CyFlash.c **** 
 639:Generated_Source\PSoC4/CyFlash.c ****     return (retValue);
 689              		.loc 1 639 0
 690 000a 7B68     		ldr	r3, [r7, #4]
 640:Generated_Source\PSoC4/CyFlash.c **** }
 691              		.loc 1 640 0
 692 000c 181C     		mov	r0, r3
 693 000e BD46     		mov	sp, r7
 694 0010 02B0     		add	sp, sp, #8
 695              		@ sp needed
 696 0012 80BD     		pop	{r7, pc}
 697              		.cfi_endproc
 698              	.LFE6:
 699              		.size	CySysFlashClockRestore, .-CySysFlashClockRestore
 700              		.text
 701              	.Letext0:
 702              		.file 2 "Generated_Source\\PSoC4\\cytypes.h"