ARM GAS  C:\Users\Sarah\AppData\Local\Temp\cczcQ39g.s 			page 1


   1              		.cpu cortex-m0
   2              		.fpu softvfp
   3              		.eabi_attribute 20, 1
   4              		.eabi_attribute 21, 1
   5              		.eabi_attribute 23, 3
   6              		.eabi_attribute 24, 1
   7              		.eabi_attribute 25, 1
   8              		.eabi_attribute 26, 1
   9              		.eabi_attribute 30, 1
  10              		.eabi_attribute 34, 0
  11              		.eabi_attribute 18, 4
  12              		.code	16
  13              		.file	"BLE_1_custom.c"
  14              		.text
  15              	.Ltext0:
  16              		.cfi_sections	.debug_frame
  17              		.section	.text.CyBle_CustomInit,"ax",%progbits
  18              		.align	2
  19              		.global	CyBle_CustomInit
  20              		.code	16
  21              		.thumb_func
  22              		.type	CyBle_CustomInit, %function
  23              	CyBle_CustomInit:
  24              	.LFB2:
  25              		.file 1 "Generated_Source\\PSoC4\\BLE_1_custom.c"
   1:Generated_Source\PSoC4/BLE_1_custom.c **** /***************************************************************************//**
   2:Generated_Source\PSoC4/BLE_1_custom.c **** * \file CYBLE_custom.c
   3:Generated_Source\PSoC4/BLE_1_custom.c **** * \version 3.30
   4:Generated_Source\PSoC4/BLE_1_custom.c **** * 
   5:Generated_Source\PSoC4/BLE_1_custom.c **** * \brief
   6:Generated_Source\PSoC4/BLE_1_custom.c **** *  Contains the source code for the Custom Service.
   7:Generated_Source\PSoC4/BLE_1_custom.c **** * 
   8:Generated_Source\PSoC4/BLE_1_custom.c **** ********************************************************************************
   9:Generated_Source\PSoC4/BLE_1_custom.c **** * \copyright
  10:Generated_Source\PSoC4/BLE_1_custom.c **** * Copyright 2014-2016, Cypress Semiconductor Corporation.  All rights reserved.
  11:Generated_Source\PSoC4/BLE_1_custom.c **** * You may use this file only in accordance with the license, terms, conditions,
  12:Generated_Source\PSoC4/BLE_1_custom.c **** * disclaimers, and limitations in the end user license agreement accompanying
  13:Generated_Source\PSoC4/BLE_1_custom.c **** * the software package with which this file was provided.
  14:Generated_Source\PSoC4/BLE_1_custom.c **** *******************************************************************************/
  15:Generated_Source\PSoC4/BLE_1_custom.c **** 
  16:Generated_Source\PSoC4/BLE_1_custom.c **** 
  17:Generated_Source\PSoC4/BLE_1_custom.c **** #include "BLE_1_eventHandler.h"
  18:Generated_Source\PSoC4/BLE_1_custom.c **** 
  19:Generated_Source\PSoC4/BLE_1_custom.c **** #ifdef CYBLE_CUSTOM_SERVER
  20:Generated_Source\PSoC4/BLE_1_custom.c **** 
  21:Generated_Source\PSoC4/BLE_1_custom.c **** /* If any custom service with custom characterisctis is defined in the
  22:Generated_Source\PSoC4/BLE_1_custom.c **** * customizer's GUI their handles will be present in this array.
  23:Generated_Source\PSoC4/BLE_1_custom.c **** */
  24:Generated_Source\PSoC4/BLE_1_custom.c **** /* This array contains attribute handles for the defined Custom Services and their characteristics 
  25:Generated_Source\PSoC4/BLE_1_custom.c ****    The array index definitions are located in the CYBLE_custom.h file. */
  26:Generated_Source\PSoC4/BLE_1_custom.c **** 
  27:Generated_Source\PSoC4/BLE_1_custom.c **** 
  28:Generated_Source\PSoC4/BLE_1_custom.c **** #endif /* (CYBLE_CUSTOM_SERVER) */
  29:Generated_Source\PSoC4/BLE_1_custom.c **** 
  30:Generated_Source\PSoC4/BLE_1_custom.c **** #ifdef CYBLE_CUSTOM_CLIENT
  31:Generated_Source\PSoC4/BLE_1_custom.c ****     
  32:Generated_Source\PSoC4/BLE_1_custom.c **** static const CYBLE_UUID128_T cyBle_customUuid128[] = {
ARM GAS  C:\Users\Sarah\AppData\Local\Temp\cczcQ39g.s 			page 2


  33:Generated_Source\PSoC4/BLE_1_custom.c ****     /* VentService */
  34:Generated_Source\PSoC4/BLE_1_custom.c ****     { {0xE7u, 0x67u, 0xDAu, 0xECu, 0xC3u, 0x57u, 0x01u, 0x8Du, 0xB8u, 0x4Du, 0x65u, 0xD1u, 0x12u, 0
  35:Generated_Source\PSoC4/BLE_1_custom.c ****     /* Custom Characteristic */
  36:Generated_Source\PSoC4/BLE_1_custom.c ****     { {0x9Bu, 0xC3u, 0xFDu, 0x81u, 0x12u, 0xB1u, 0x5Fu, 0x9Fu, 0xC1u, 0x49u, 0x01u, 0x3Du, 0xC8u, 0
  37:Generated_Source\PSoC4/BLE_1_custom.c **** };
  38:Generated_Source\PSoC4/BLE_1_custom.c **** 
  39:Generated_Source\PSoC4/BLE_1_custom.c **** static const CYBLE_UUID16 cyBle_customUuid16[] = {
  40:Generated_Source\PSoC4/BLE_1_custom.c ****     /* Characteristic User Description */
  41:Generated_Source\PSoC4/BLE_1_custom.c ****     0x2901u,
  42:Generated_Source\PSoC4/BLE_1_custom.c **** };
  43:Generated_Source\PSoC4/BLE_1_custom.c **** 
  44:Generated_Source\PSoC4/BLE_1_custom.c **** static CYBLE_CUSTOMC_DESC_T cyBle_customCDesc[0x01u] = {
  45:Generated_Source\PSoC4/BLE_1_custom.c **** 
  46:Generated_Source\PSoC4/BLE_1_custom.c ****     /* Characteristic User Description */
  47:Generated_Source\PSoC4/BLE_1_custom.c ****     {
  48:Generated_Source\PSoC4/BLE_1_custom.c ****         CYBLE_GATT_INVALID_ATTR_HANDLE_VALUE, /* Descriptor handle */ 
  49:Generated_Source\PSoC4/BLE_1_custom.c ****         (const CYBLE_UUID16 *) &cyBle_customUuid16[0], /* 16-bit UUID */ 
  50:Generated_Source\PSoC4/BLE_1_custom.c ****         0x01u, /* UUID Format - 16-bit (0x01) or 128-bit (0x02) */ 
  51:Generated_Source\PSoC4/BLE_1_custom.c ****     },
  52:Generated_Source\PSoC4/BLE_1_custom.c **** };
  53:Generated_Source\PSoC4/BLE_1_custom.c **** 
  54:Generated_Source\PSoC4/BLE_1_custom.c **** static CYBLE_CUSTOMC_CHAR_T cyBle_customCChar[0x01u] = {
  55:Generated_Source\PSoC4/BLE_1_custom.c **** 
  56:Generated_Source\PSoC4/BLE_1_custom.c ****     /* Custom Characteristic */
  57:Generated_Source\PSoC4/BLE_1_custom.c ****     {
  58:Generated_Source\PSoC4/BLE_1_custom.c ****         CYBLE_GATT_INVALID_ATTR_HANDLE_VALUE, /* Characteristic handle */ 
  59:Generated_Source\PSoC4/BLE_1_custom.c ****         CYBLE_GATT_INVALID_ATTR_HANDLE_VALUE, /* Characteristic end handle */ 
  60:Generated_Source\PSoC4/BLE_1_custom.c ****         (const CYBLE_UUID128_T *) &cyBle_customUuid128[1], /* 128-bit UUID */ 
  61:Generated_Source\PSoC4/BLE_1_custom.c ****         0x02u, /* UUID Format - 16-bit (0x01) or 128-bit (0x02) */ 
  62:Generated_Source\PSoC4/BLE_1_custom.c ****         0x00u, /* Characteristic properties */ 
  63:Generated_Source\PSoC4/BLE_1_custom.c ****         0x01u, /* Number of descriptors */ 
  64:Generated_Source\PSoC4/BLE_1_custom.c ****         &cyBle_customCDesc[0], /* Characteristic Descriptors */ 
  65:Generated_Source\PSoC4/BLE_1_custom.c ****     },
  66:Generated_Source\PSoC4/BLE_1_custom.c **** };
  67:Generated_Source\PSoC4/BLE_1_custom.c **** 
  68:Generated_Source\PSoC4/BLE_1_custom.c **** CYBLE_CUSTOMC_T cyBle_customCServ[CYBLE_CUSTOMC_SERVICE_COUNT] = {
  69:Generated_Source\PSoC4/BLE_1_custom.c **** 
  70:Generated_Source\PSoC4/BLE_1_custom.c ****     /* VentService */
  71:Generated_Source\PSoC4/BLE_1_custom.c ****     {
  72:Generated_Source\PSoC4/BLE_1_custom.c ****         CYBLE_GATT_INVALID_ATTR_HANDLE_VALUE, /* Custom Service handle */ 
  73:Generated_Source\PSoC4/BLE_1_custom.c ****         (const CYBLE_UUID128_T *) &cyBle_customUuid128[0], /* 128-bit UUID */ 
  74:Generated_Source\PSoC4/BLE_1_custom.c ****         0x02u, /* UUID Format - 16-bit (0x01) or 128-bit (0x02) */ 
  75:Generated_Source\PSoC4/BLE_1_custom.c ****         0x01u, /* Number of characteristics */ 
  76:Generated_Source\PSoC4/BLE_1_custom.c ****         &cyBle_customCChar[0], /* Custom Service Characteristics */ 
  77:Generated_Source\PSoC4/BLE_1_custom.c ****     },
  78:Generated_Source\PSoC4/BLE_1_custom.c **** };
  79:Generated_Source\PSoC4/BLE_1_custom.c **** 
  80:Generated_Source\PSoC4/BLE_1_custom.c **** 
  81:Generated_Source\PSoC4/BLE_1_custom.c **** static uint16 cyBle_customDisServIndex;
  82:Generated_Source\PSoC4/BLE_1_custom.c **** static uint16 cyBle_customDisCharIndex;
  83:Generated_Source\PSoC4/BLE_1_custom.c **** 
  84:Generated_Source\PSoC4/BLE_1_custom.c **** #endif /* (CYBLE_CUSTOM_CLIENT) */
  85:Generated_Source\PSoC4/BLE_1_custom.c **** 
  86:Generated_Source\PSoC4/BLE_1_custom.c **** 
  87:Generated_Source\PSoC4/BLE_1_custom.c **** /****************************************************************************** 
  88:Generated_Source\PSoC4/BLE_1_custom.c **** * Function Name: CyBle_CustomInit
  89:Generated_Source\PSoC4/BLE_1_custom.c **** ***************************************************************************//**
ARM GAS  C:\Users\Sarah\AppData\Local\Temp\cczcQ39g.s 			page 3


  90:Generated_Source\PSoC4/BLE_1_custom.c **** * 
  91:Generated_Source\PSoC4/BLE_1_custom.c **** *  This function initializes Custom Service.
  92:Generated_Source\PSoC4/BLE_1_custom.c **** * 
  93:Generated_Source\PSoC4/BLE_1_custom.c **** * \return
  94:Generated_Source\PSoC4/BLE_1_custom.c **** *  None
  95:Generated_Source\PSoC4/BLE_1_custom.c **** * 
  96:Generated_Source\PSoC4/BLE_1_custom.c **** ******************************************************************************/
  97:Generated_Source\PSoC4/BLE_1_custom.c **** void CyBle_CustomInit(void)
  98:Generated_Source\PSoC4/BLE_1_custom.c **** {
  26              		.loc 1 98 0
  27              		.cfi_startproc
  28 0000 F0B5     		push	{r4, r5, r6, r7, lr}
  29              		.cfi_def_cfa_offset 20
  30              		.cfi_offset 4, -20
  31              		.cfi_offset 5, -16
  32              		.cfi_offset 6, -12
  33              		.cfi_offset 7, -8
  34              		.cfi_offset 14, -4
  35              	.LVL0:
  99:Generated_Source\PSoC4/BLE_1_custom.c ****     
 100:Generated_Source\PSoC4/BLE_1_custom.c **** #ifdef CYBLE_CUSTOM_CLIENT
 101:Generated_Source\PSoC4/BLE_1_custom.c **** 
 102:Generated_Source\PSoC4/BLE_1_custom.c ****     uint16 locServIndex;
 103:Generated_Source\PSoC4/BLE_1_custom.c ****     uint16 locCharIndex;
 104:Generated_Source\PSoC4/BLE_1_custom.c ****     uint16 locDescIndex;
 105:Generated_Source\PSoC4/BLE_1_custom.c ****     
 106:Generated_Source\PSoC4/BLE_1_custom.c ****     for(locServIndex = 0u; locServIndex < CYBLE_CUSTOMC_SERVICE_COUNT; locServIndex++)
  36              		.loc 1 106 0
  37 0002 0026     		mov	r6, #0
  38 0004 30E0     		b	.L2
  39              	.LVL1:
  40              	.L8:
 107:Generated_Source\PSoC4/BLE_1_custom.c ****     {
 108:Generated_Source\PSoC4/BLE_1_custom.c ****         if(cyBle_serverInfo[CYBLE_SRVI_CUSTOMS + locServIndex].range.startHandle == CYBLE_GATT_INVA
  41              		.loc 1 108 0
  42 0006 301C     		mov	r0, r6
  43 0008 B31C     		add	r3, r6, #2
  44 000a 5A00     		lsl	r2, r3, #1
  45 000c D318     		add	r3, r2, r3
  46 000e 5B00     		lsl	r3, r3, #1
  47 0010 174A     		ldr	r2, .L10
  48 0012 9B5A     		ldrh	r3, [r3, r2]
  49 0014 002B     		cmp	r3, #0
  50 0016 1ED0     		beq	.L9
  51 0018 24E0     		b	.L4
  52              	.LVL2:
  53              	.L7:
 109:Generated_Source\PSoC4/BLE_1_custom.c ****         {
 110:Generated_Source\PSoC4/BLE_1_custom.c ****             for(locCharIndex = 0u; locCharIndex < cyBle_customCServ[locServIndex].charCount; locCha
 111:Generated_Source\PSoC4/BLE_1_custom.c ****             {
 112:Generated_Source\PSoC4/BLE_1_custom.c ****                 cyBle_customCServ[locServIndex].customServChar[locCharIndex].
  54              		.loc 1 112 0
  55 001a 0301     		lsl	r3, r0, #4
  56 001c 154A     		ldr	r2, .L10+4
  57 001e D318     		add	r3, r2, r3
  58 0020 DB68     		ldr	r3, [r3, #12]
  59 0022 2C01     		lsl	r4, r5, #4
ARM GAS  C:\Users\Sarah\AppData\Local\Temp\cczcQ39g.s 			page 4


  60 0024 1B19     		add	r3, r3, r4
 113:Generated_Source\PSoC4/BLE_1_custom.c ****                     customServCharHandle = 0u;
  61              		.loc 1 113 0
  62 0026 0022     		mov	r2, #0
  63 0028 1A80     		strh	r2, [r3]
  64              	.LVL3:
 114:Generated_Source\PSoC4/BLE_1_custom.c ****                 
 115:Generated_Source\PSoC4/BLE_1_custom.c ****                 for(locDescIndex = 0u; locDescIndex < 
  65              		.loc 1 115 0
  66 002a 0021     		mov	r1, #0
  67 002c 08E0     		b	.L5
  68              	.LVL4:
  69              	.L6:
 116:Generated_Source\PSoC4/BLE_1_custom.c ****                     cyBle_customCServ[locServIndex].customServChar[locCharIndex].descCount; 
 117:Generated_Source\PSoC4/BLE_1_custom.c ****                         locDescIndex++)
 118:Generated_Source\PSoC4/BLE_1_custom.c ****                 {
 119:Generated_Source\PSoC4/BLE_1_custom.c ****                     cyBle_customCServ[locServIndex].customServChar[locCharIndex].
  70              		.loc 1 119 0
  71 002e DF68     		ldr	r7, [r3, #12]
 120:Generated_Source\PSoC4/BLE_1_custom.c ****                         customServCharDesc[locDescIndex].descHandle = 0u;
  72              		.loc 1 120 0
  73 0030 4A00     		lsl	r2, r1, #1
  74 0032 5318     		add	r3, r2, r1
  75 0034 9B00     		lsl	r3, r3, #2
  76 0036 FB18     		add	r3, r7, r3
  77 0038 0022     		mov	r2, #0
  78 003a 1A80     		strh	r2, [r3]
 117:Generated_Source\PSoC4/BLE_1_custom.c ****                 {
  79              		.loc 1 117 0
  80 003c 0131     		add	r1, r1, #1
  81              	.LVL5:
  82 003e 89B2     		uxth	r1, r1
  83              	.LVL6:
  84              	.L5:
 116:Generated_Source\PSoC4/BLE_1_custom.c ****                     cyBle_customCServ[locServIndex].customServChar[locCharIndex].descCount; 
  85              		.loc 1 116 0 discriminator 1
  86 0040 0301     		lsl	r3, r0, #4
  87 0042 0C4A     		ldr	r2, .L10+4
  88 0044 D318     		add	r3, r2, r3
  89 0046 DB68     		ldr	r3, [r3, #12]
  90 0048 1B19     		add	r3, r3, r4
 115:Generated_Source\PSoC4/BLE_1_custom.c ****                     cyBle_customCServ[locServIndex].customServChar[locCharIndex].descCount; 
  91              		.loc 1 115 0 discriminator 1
  92 004a 9A7A     		ldrb	r2, [r3, #10]
  93 004c 8A42     		cmp	r2, r1
  94 004e EED8     		bhi	.L6
 110:Generated_Source\PSoC4/BLE_1_custom.c ****             {
  95              		.loc 1 110 0 discriminator 2
  96 0050 0135     		add	r5, r5, #1
  97              	.LVL7:
  98 0052 ADB2     		uxth	r5, r5
  99              	.LVL8:
 100 0054 00E0     		b	.L3
 101              	.LVL9:
 102              	.L9:
 103 0056 0025     		mov	r5, #0
 104              	.L3:
ARM GAS  C:\Users\Sarah\AppData\Local\Temp\cczcQ39g.s 			page 5


 105              	.LVL10:
 110:Generated_Source\PSoC4/BLE_1_custom.c ****             {
 106              		.loc 1 110 0 is_stmt 0 discriminator 1
 107 0058 0301     		lsl	r3, r0, #4
 108 005a 064A     		ldr	r2, .L10+4
 109 005c D318     		add	r3, r2, r3
 110 005e 5B7A     		ldrb	r3, [r3, #9]
 111 0060 AB42     		cmp	r3, r5
 112 0062 DAD8     		bhi	.L7
 113              	.LVL11:
 114              	.L4:
 106:Generated_Source\PSoC4/BLE_1_custom.c ****     {
 115              		.loc 1 106 0 is_stmt 1 discriminator 2
 116 0064 0136     		add	r6, r6, #1
 117              	.LVL12:
 118 0066 B6B2     		uxth	r6, r6
 119              	.LVL13:
 120              	.L2:
 106:Generated_Source\PSoC4/BLE_1_custom.c ****     {
 121              		.loc 1 106 0 is_stmt 0 discriminator 1
 122 0068 002E     		cmp	r6, #0
 123 006a CCD0     		beq	.L8
 121:Generated_Source\PSoC4/BLE_1_custom.c ****                 }
 122:Generated_Source\PSoC4/BLE_1_custom.c ****             }
 123:Generated_Source\PSoC4/BLE_1_custom.c ****         }
 124:Generated_Source\PSoC4/BLE_1_custom.c ****     }
 125:Generated_Source\PSoC4/BLE_1_custom.c **** 
 126:Generated_Source\PSoC4/BLE_1_custom.c **** #endif /* (CYBLE_CUSTOM_CLIENT) */
 127:Generated_Source\PSoC4/BLE_1_custom.c **** }
 124              		.loc 1 127 0 is_stmt 1
 125              		@ sp needed
 126              	.LVL14:
 127 006c F0BD     		pop	{r4, r5, r6, r7, pc}
 128              	.L11:
 129 006e C046     		.align	2
 130              	.L10:
 131 0070 00000000 		.word	cyBle_serverInfo
 132 0074 00000000 		.word	.LANCHOR0
 133              		.cfi_endproc
 134              	.LFE2:
 135              		.size	CyBle_CustomInit, .-CyBle_CustomInit
 136              		.section	.text.CyBle_CustomcDiscoverServiceEventHandler,"ax",%progbits
 137              		.align	2
 138              		.global	CyBle_CustomcDiscoverServiceEventHandler
 139              		.code	16
 140              		.thumb_func
 141              		.type	CyBle_CustomcDiscoverServiceEventHandler, %function
 142              	CyBle_CustomcDiscoverServiceEventHandler:
 143              	.LFB3:
 128:Generated_Source\PSoC4/BLE_1_custom.c **** 
 129:Generated_Source\PSoC4/BLE_1_custom.c **** 
 130:Generated_Source\PSoC4/BLE_1_custom.c **** #ifdef CYBLE_CUSTOM_CLIENT
 131:Generated_Source\PSoC4/BLE_1_custom.c **** 
 132:Generated_Source\PSoC4/BLE_1_custom.c ****     
 133:Generated_Source\PSoC4/BLE_1_custom.c **** /******************************************************************************
 134:Generated_Source\PSoC4/BLE_1_custom.c **** * Function Name: CyBle_CustomcDiscoverServiceEventHandler
 135:Generated_Source\PSoC4/BLE_1_custom.c **** ***************************************************************************//**
ARM GAS  C:\Users\Sarah\AppData\Local\Temp\cczcQ39g.s 			page 6


 136:Generated_Source\PSoC4/BLE_1_custom.c **** * 
 137:Generated_Source\PSoC4/BLE_1_custom.c **** *  This function is called on receiving a Read By Group Response event or 
 138:Generated_Source\PSoC4/BLE_1_custom.c **** *  Read response with 128-bit service uuid. 
 139:Generated_Source\PSoC4/BLE_1_custom.c **** * 
 140:Generated_Source\PSoC4/BLE_1_custom.c **** *  \param *discServInfo: The pointer to a service information structure.
 141:Generated_Source\PSoC4/BLE_1_custom.c **** * 
 142:Generated_Source\PSoC4/BLE_1_custom.c **** * \return
 143:Generated_Source\PSoC4/BLE_1_custom.c **** *  None
 144:Generated_Source\PSoC4/BLE_1_custom.c **** * 
 145:Generated_Source\PSoC4/BLE_1_custom.c **** ******************************************************************************/
 146:Generated_Source\PSoC4/BLE_1_custom.c **** void CyBle_CustomcDiscoverServiceEventHandler(const CYBLE_DISC_SRVC128_INFO_T *discServInfo)
 147:Generated_Source\PSoC4/BLE_1_custom.c **** {
 144              		.loc 1 147 0
 145              		.cfi_startproc
 146              	.LVL15:
 147 0000 F8B5     		push	{r3, r4, r5, r6, r7, lr}
 148              		.cfi_def_cfa_offset 24
 149              		.cfi_offset 3, -24
 150              		.cfi_offset 4, -20
 151              		.cfi_offset 5, -16
 152              		.cfi_offset 6, -12
 153              		.cfi_offset 7, -8
 154              		.cfi_offset 14, -4
 155 0002 061C     		mov	r6, r0
 156              	.LVL16:
 148:Generated_Source\PSoC4/BLE_1_custom.c ****     uint16 j;
 149:Generated_Source\PSoC4/BLE_1_custom.c ****     uint8 flag = 0u;
 157              		.loc 1 149 0
 158 0004 0027     		mov	r7, #0
 150:Generated_Source\PSoC4/BLE_1_custom.c ****     
 151:Generated_Source\PSoC4/BLE_1_custom.c ****     /* Services with 128 bit UUID have discServInfo->uuid equal to 0 and address to 
 152:Generated_Source\PSoC4/BLE_1_custom.c ****        128 uuid is stored in cyBle_customCServ.uuid128
 153:Generated_Source\PSoC4/BLE_1_custom.c ****     */
 154:Generated_Source\PSoC4/BLE_1_custom.c **** 	for(j = 0u; (j < CYBLE_CUSTOMC_SERVICE_COUNT) && (flag == 0u); j++)
 159              		.loc 1 154 0
 160 0006 0024     		mov	r4, #0
 161 0008 26E0     		b	.L13
 162              	.LVL17:
 163              	.L16:
 155:Generated_Source\PSoC4/BLE_1_custom.c ****     {
 156:Generated_Source\PSoC4/BLE_1_custom.c ****         if(cyBle_customCServ[j].uuidFormat == CYBLE_GATT_128_BIT_UUID_FORMAT)
 164              		.loc 1 156 0
 165 000a 251C     		mov	r5, r4
 166 000c 2301     		lsl	r3, r4, #4
 167 000e 154A     		ldr	r2, .L17
 168 0010 D318     		add	r3, r2, r3
 169 0012 1B7A     		ldrb	r3, [r3, #8]
 170 0014 022B     		cmp	r3, #2
 171 0016 1DD1     		bne	.L14
 157:Generated_Source\PSoC4/BLE_1_custom.c ****         {
 158:Generated_Source\PSoC4/BLE_1_custom.c ****             if(memcmp(cyBle_customCServ[j].uuid, &discServInfo->uuid.uuid128, CYBLE_GATT_128_BIT_UU
 172              		.loc 1 158 0
 173 0018 311D     		add	r1, r6, #4
 174 001a 2301     		lsl	r3, r4, #4
 175 001c D318     		add	r3, r2, r3
 176 001e 5868     		ldr	r0, [r3, #4]
 177 0020 1022     		mov	r2, #16
ARM GAS  C:\Users\Sarah\AppData\Local\Temp\cczcQ39g.s 			page 7


 178 0022 FFF7FEFF 		bl	memcmp
 179              	.LVL18:
 180 0026 0028     		cmp	r0, #0
 181 0028 14D1     		bne	.L14
 159:Generated_Source\PSoC4/BLE_1_custom.c ****             {
 160:Generated_Source\PSoC4/BLE_1_custom.c ****                 if(cyBle_serverInfo[j + (uint16)CYBLE_SRVI_CUSTOMS].range.startHandle == 
 182              		.loc 1 160 0
 183 002a 0235     		add	r5, r5, #2
 184 002c 6B00     		lsl	r3, r5, #1
 185 002e 5B19     		add	r3, r3, r5
 186 0030 5B00     		lsl	r3, r3, #1
 187 0032 0D4A     		ldr	r2, .L17+4
 188 0034 9B5A     		ldrh	r3, [r3, r2]
 189 0036 002B     		cmp	r3, #0
 190 0038 0CD1     		bne	.L14
 161:Generated_Source\PSoC4/BLE_1_custom.c ****                    CYBLE_GATT_INVALID_ATTR_HANDLE_VALUE)
 162:Generated_Source\PSoC4/BLE_1_custom.c ****                 {
 163:Generated_Source\PSoC4/BLE_1_custom.c ****                     cyBle_serverInfo[j + (uint16)CYBLE_SRVI_CUSTOMS].range = discServInfo->range;
 191              		.loc 1 163 0
 192 003a 6800     		lsl	r0, r5, #1
 193 003c 4519     		add	r5, r0, r5
 194 003e 6D00     		lsl	r5, r5, #1
 195 0040 5019     		add	r0, r2, r5
 196 0042 311C     		mov	r1, r6
 197 0044 0422     		mov	r2, #4
 198 0046 FFF7FEFF 		bl	memcpy
 199              	.LVL19:
 164:Generated_Source\PSoC4/BLE_1_custom.c ****                     cyBle_disCount++;
 200              		.loc 1 164 0
 201 004a 084A     		ldr	r2, .L17+8
 202 004c 1378     		ldrb	r3, [r2]
 203 004e 0133     		add	r3, r3, #1
 204 0050 1370     		strb	r3, [r2]
 205              	.LVL20:
 165:Generated_Source\PSoC4/BLE_1_custom.c ****                     flag = 1u;
 206              		.loc 1 165 0
 207 0052 0127     		mov	r7, #1
 208              	.LVL21:
 209              	.L14:
 154:Generated_Source\PSoC4/BLE_1_custom.c ****     {
 210              		.loc 1 154 0 discriminator 2
 211 0054 0134     		add	r4, r4, #1
 212              	.LVL22:
 213 0056 A4B2     		uxth	r4, r4
 214              	.LVL23:
 215              	.L13:
 154:Generated_Source\PSoC4/BLE_1_custom.c ****     {
 216              		.loc 1 154 0 is_stmt 0 discriminator 1
 217 0058 002C     		cmp	r4, #0
 218 005a 01D1     		bne	.L12
 154:Generated_Source\PSoC4/BLE_1_custom.c ****     {
 219              		.loc 1 154 0 discriminator 3
 220 005c 002F     		cmp	r7, #0
 221 005e D4D0     		beq	.L16
 222              	.L12:
 166:Generated_Source\PSoC4/BLE_1_custom.c ****                 }
 167:Generated_Source\PSoC4/BLE_1_custom.c ****             }
ARM GAS  C:\Users\Sarah\AppData\Local\Temp\cczcQ39g.s 			page 8


 168:Generated_Source\PSoC4/BLE_1_custom.c ****         }
 169:Generated_Source\PSoC4/BLE_1_custom.c ****     }
 170:Generated_Source\PSoC4/BLE_1_custom.c **** }
 223              		.loc 1 170 0 is_stmt 1
 224              		@ sp needed
 225              	.LVL24:
 226              	.LVL25:
 227              	.LVL26:
 228 0060 F8BD     		pop	{r3, r4, r5, r6, r7, pc}
 229              	.L18:
 230 0062 C046     		.align	2
 231              	.L17:
 232 0064 00000000 		.word	.LANCHOR0
 233 0068 00000000 		.word	cyBle_serverInfo
 234 006c 00000000 		.word	cyBle_disCount
 235              		.cfi_endproc
 236              	.LFE3:
 237              		.size	CyBle_CustomcDiscoverServiceEventHandler, .-CyBle_CustomcDiscoverServiceEventHandler
 238              		.section	.text.CyBle_CustomcDiscoverCharacteristicsEventHandler,"ax",%progbits
 239              		.align	2
 240              		.global	CyBle_CustomcDiscoverCharacteristicsEventHandler
 241              		.code	16
 242              		.thumb_func
 243              		.type	CyBle_CustomcDiscoverCharacteristicsEventHandler, %function
 244              	CyBle_CustomcDiscoverCharacteristicsEventHandler:
 245              	.LFB4:
 171:Generated_Source\PSoC4/BLE_1_custom.c **** 
 172:Generated_Source\PSoC4/BLE_1_custom.c **** 
 173:Generated_Source\PSoC4/BLE_1_custom.c **** /******************************************************************************
 174:Generated_Source\PSoC4/BLE_1_custom.c **** * Function Name: CyBle_CustomcDiscoverCharacteristicsEventHandler
 175:Generated_Source\PSoC4/BLE_1_custom.c **** ***************************************************************************//**
 176:Generated_Source\PSoC4/BLE_1_custom.c **** * 
 177:Generated_Source\PSoC4/BLE_1_custom.c **** *  This function is called on receiving a CYBLE_EVT_GATTC_READ_BY_TYPE_RSP
 178:Generated_Source\PSoC4/BLE_1_custom.c **** *  event. Based on the service index, an appropriate data structure is populated
 179:Generated_Source\PSoC4/BLE_1_custom.c **** *  using the data received as part of the callback.
 180:Generated_Source\PSoC4/BLE_1_custom.c **** * 
 181:Generated_Source\PSoC4/BLE_1_custom.c **** *  \param *discCharInfo: The pointer to a characteristic information structure.
 182:Generated_Source\PSoC4/BLE_1_custom.c **** *  \param discoveryService: The index of the service instance.
 183:Generated_Source\PSoC4/BLE_1_custom.c **** * 
 184:Generated_Source\PSoC4/BLE_1_custom.c **** * \return
 185:Generated_Source\PSoC4/BLE_1_custom.c **** *  None
 186:Generated_Source\PSoC4/BLE_1_custom.c **** * 
 187:Generated_Source\PSoC4/BLE_1_custom.c **** ******************************************************************************/
 188:Generated_Source\PSoC4/BLE_1_custom.c **** void CyBle_CustomcDiscoverCharacteristicsEventHandler(uint16 discoveryService, const CYBLE_DISC_CHA
 189:Generated_Source\PSoC4/BLE_1_custom.c **** {
 246              		.loc 1 189 0
 247              		.cfi_startproc
 248              	.LVL27:
 249 0000 F8B5     		push	{r3, r4, r5, r6, r7, lr}
 250              		.cfi_def_cfa_offset 24
 251              		.cfi_offset 3, -24
 252              		.cfi_offset 4, -20
 253              		.cfi_offset 5, -16
 254              		.cfi_offset 6, -12
 255              		.cfi_offset 7, -8
 256              		.cfi_offset 14, -4
 257 0002 4F46     		mov	r7, r9
ARM GAS  C:\Users\Sarah\AppData\Local\Temp\cczcQ39g.s 			page 9


 258 0004 4646     		mov	r6, r8
 259 0006 C0B4     		push	{r6, r7}
 260              		.cfi_def_cfa_offset 32
 261              		.cfi_offset 8, -32
 262              		.cfi_offset 9, -28
 263 0008 061C     		mov	r6, r0
 264 000a 0F1C     		mov	r7, r1
 265              	.LVL28:
 190:Generated_Source\PSoC4/BLE_1_custom.c ****     uint16 locCharIndex;
 191:Generated_Source\PSoC4/BLE_1_custom.c ****     static CYBLE_GATT_DB_ATTR_HANDLE_T *customsLastEndHandle = NULL;
 192:Generated_Source\PSoC4/BLE_1_custom.c ****     static uint16 discoveryLastServ = 0u;    
 193:Generated_Source\PSoC4/BLE_1_custom.c ****     uint8 locReqHandle = 0u;
 194:Generated_Source\PSoC4/BLE_1_custom.c **** 
 195:Generated_Source\PSoC4/BLE_1_custom.c ****     /* Update last characteristic endHandle to declaration handle of this characteristic */
 196:Generated_Source\PSoC4/BLE_1_custom.c ****     if(customsLastEndHandle != NULL)
 266              		.loc 1 196 0
 267 000c 3E4B     		ldr	r3, .L33
 268 000e 1B68     		ldr	r3, [r3]
 269 0010 002B     		cmp	r3, #0
 270 0012 09D0     		beq	.L20
 197:Generated_Source\PSoC4/BLE_1_custom.c ****     {
 198:Generated_Source\PSoC4/BLE_1_custom.c ****         if(discoveryLastServ == discoveryService)
 271              		.loc 1 198 0
 272 0014 3C4A     		ldr	r2, .L33
 273 0016 9288     		ldrh	r2, [r2, #4]
 274 0018 8242     		cmp	r2, r0
 275 001a 02D1     		bne	.L21
 199:Generated_Source\PSoC4/BLE_1_custom.c ****         {
 200:Generated_Source\PSoC4/BLE_1_custom.c ****             *customsLastEndHandle = discCharInfo->charDeclHandle - 1u;
 276              		.loc 1 200 0
 277 001c 0A88     		ldrh	r2, [r1]
 278 001e 013A     		sub	r2, r2, #1
 279 0020 1A80     		strh	r2, [r3]
 280              	.L21:
 201:Generated_Source\PSoC4/BLE_1_custom.c ****         }
 202:Generated_Source\PSoC4/BLE_1_custom.c ****         customsLastEndHandle = NULL;
 281              		.loc 1 202 0
 282 0022 0022     		mov	r2, #0
 283 0024 384B     		ldr	r3, .L33
 284 0026 1A60     		str	r2, [r3]
 285              	.L20:
 286              	.LBB2:
 203:Generated_Source\PSoC4/BLE_1_custom.c ****     }
 204:Generated_Source\PSoC4/BLE_1_custom.c ****     
 205:Generated_Source\PSoC4/BLE_1_custom.c ****     for(locCharIndex = 0u; (locCharIndex < cyBle_customCServ[discoveryService].charCount) && (locRe
 206:Generated_Source\PSoC4/BLE_1_custom.c ****         locCharIndex++)
 207:Generated_Source\PSoC4/BLE_1_custom.c ****     {
 208:Generated_Source\PSoC4/BLE_1_custom.c ****         uint8 flag = 0u;
 209:Generated_Source\PSoC4/BLE_1_custom.c ****         
 210:Generated_Source\PSoC4/BLE_1_custom.c ****         /* Support 128 bit uuid */
 211:Generated_Source\PSoC4/BLE_1_custom.c ****         if((discCharInfo->uuidFormat == CYBLE_GATT_128_BIT_UUID_FORMAT) &&
 212:Generated_Source\PSoC4/BLE_1_custom.c ****            (cyBle_customCServ[discoveryService].customServChar[locCharIndex].uuidFormat == 
 213:Generated_Source\PSoC4/BLE_1_custom.c ****                 CYBLE_GATT_128_BIT_UUID_FORMAT))
 214:Generated_Source\PSoC4/BLE_1_custom.c ****         {
 215:Generated_Source\PSoC4/BLE_1_custom.c ****             if(memcmp(cyBle_customCServ[discoveryService].customServChar[locCharIndex].uuid, 
 216:Generated_Source\PSoC4/BLE_1_custom.c ****                 &discCharInfo->uuid.uuid128, CYBLE_GATT_128_BIT_UUID_SIZE) == 0u)
 217:Generated_Source\PSoC4/BLE_1_custom.c ****             {
ARM GAS  C:\Users\Sarah\AppData\Local\Temp\cczcQ39g.s 			page 10


 218:Generated_Source\PSoC4/BLE_1_custom.c ****                 flag = 1u;
 219:Generated_Source\PSoC4/BLE_1_custom.c ****             }
 220:Generated_Source\PSoC4/BLE_1_custom.c ****         }
 221:Generated_Source\PSoC4/BLE_1_custom.c ****         
 222:Generated_Source\PSoC4/BLE_1_custom.c ****         /* And support 16 bit uuid */
 223:Generated_Source\PSoC4/BLE_1_custom.c ****         if((discCharInfo->uuidFormat == CYBLE_GATT_16_BIT_UUID_FORMAT) &&
 224:Generated_Source\PSoC4/BLE_1_custom.c ****            (cyBle_customCServ[discoveryService].customServChar[locCharIndex].uuidFormat == 
 225:Generated_Source\PSoC4/BLE_1_custom.c ****                 CYBLE_GATT_16_BIT_UUID_FORMAT))
 226:Generated_Source\PSoC4/BLE_1_custom.c ****         {
 227:Generated_Source\PSoC4/BLE_1_custom.c ****             if(memcmp(cyBle_customCServ[discoveryService].customServChar[locCharIndex].uuid, 
 228:Generated_Source\PSoC4/BLE_1_custom.c ****                 &discCharInfo->uuid.uuid16, CYBLE_GATT_16_BIT_UUID_SIZE) == 0u)
 229:Generated_Source\PSoC4/BLE_1_custom.c ****             {
 230:Generated_Source\PSoC4/BLE_1_custom.c ****                 flag = 1u;
 231:Generated_Source\PSoC4/BLE_1_custom.c ****             }
 232:Generated_Source\PSoC4/BLE_1_custom.c ****         }
 233:Generated_Source\PSoC4/BLE_1_custom.c ****         
 234:Generated_Source\PSoC4/BLE_1_custom.c ****         if((flag == 1u) && 
 235:Generated_Source\PSoC4/BLE_1_custom.c ****            (cyBle_customCServ[discoveryService].customServChar[locCharIndex].customServCharHandle
 236:Generated_Source\PSoC4/BLE_1_custom.c ****                 == CYBLE_GATT_INVALID_ATTR_HANDLE_VALUE))
 237:Generated_Source\PSoC4/BLE_1_custom.c ****         {
 238:Generated_Source\PSoC4/BLE_1_custom.c ****             cyBle_customCServ[discoveryService].customServChar[locCharIndex].customServCharHandle =
 239:Generated_Source\PSoC4/BLE_1_custom.c ****                 discCharInfo->valueHandle;
 240:Generated_Source\PSoC4/BLE_1_custom.c ****             cyBle_customCServ[discoveryService].customServChar[locCharIndex].properties = 
 241:Generated_Source\PSoC4/BLE_1_custom.c ****                 discCharInfo->properties;
 242:Generated_Source\PSoC4/BLE_1_custom.c ****             /* Init pointer to characteristic endHandle */
 243:Generated_Source\PSoC4/BLE_1_custom.c ****             customsLastEndHandle = &cyBle_customCServ[discoveryService].customServChar[locCharIndex
 244:Generated_Source\PSoC4/BLE_1_custom.c ****                                     customServCharEndHandle;
 245:Generated_Source\PSoC4/BLE_1_custom.c ****             /* Init service index of discovered characteristic */
 246:Generated_Source\PSoC4/BLE_1_custom.c ****             discoveryLastServ = discoveryService;
 247:Generated_Source\PSoC4/BLE_1_custom.c ****             locReqHandle = 1u;
 287              		.loc 1 247 0 discriminator 1
 288 0028 0023     		mov	r3, #0
 289 002a 9846     		mov	r8, r3
 290 002c 0024     		mov	r4, #0
 291 002e 51E0     		b	.L22
 292              	.LVL29:
 293              	.L27:
 211:Generated_Source\PSoC4/BLE_1_custom.c ****            (cyBle_customCServ[discoveryService].customServChar[locCharIndex].uuidFormat == 
 294              		.loc 1 211 0
 295 0030 BD7D     		ldrb	r5, [r7, #22]
 296 0032 022D     		cmp	r5, #2
 297 0034 12D1     		bne	.L29
 212:Generated_Source\PSoC4/BLE_1_custom.c ****                 CYBLE_GATT_128_BIT_UUID_FORMAT))
 298              		.loc 1 212 0 discriminator 1
 299 0036 3301     		lsl	r3, r6, #4
 300 0038 344A     		ldr	r2, .L33+4
 301 003a D318     		add	r3, r2, r3
 302 003c DA68     		ldr	r2, [r3, #12]
 303 003e 2301     		lsl	r3, r4, #4
 304 0040 D318     		add	r3, r2, r3
 305 0042 1A7A     		ldrb	r2, [r3, #8]
 211:Generated_Source\PSoC4/BLE_1_custom.c ****            (cyBle_customCServ[discoveryService].customServChar[locCharIndex].uuidFormat == 
 306              		.loc 1 211 0 discriminator 1
 307 0044 022A     		cmp	r2, #2
 308 0046 0CD1     		bne	.L30
 216:Generated_Source\PSoC4/BLE_1_custom.c ****             {
 309              		.loc 1 216 0
ARM GAS  C:\Users\Sarah\AppData\Local\Temp\cczcQ39g.s 			page 11


 310 0048 B91D     		add	r1, r7, #6
 215:Generated_Source\PSoC4/BLE_1_custom.c ****                 &discCharInfo->uuid.uuid128, CYBLE_GATT_128_BIT_UUID_SIZE) == 0u)
 311              		.loc 1 215 0
 312 004a 5868     		ldr	r0, [r3, #4]
 313 004c 0E32     		add	r2, r2, #14
 314 004e FFF7FEFF 		bl	memcmp
 315              	.LVL30:
 316 0052 0028     		cmp	r0, #0
 317 0054 08D0     		beq	.L31
 208:Generated_Source\PSoC4/BLE_1_custom.c ****         
 318              		.loc 1 208 0
 319 0056 0023     		mov	r3, #0
 320 0058 9946     		mov	r9, r3
 321 005a 07E0     		b	.L23
 322              	.L29:
 323 005c 0023     		mov	r3, #0
 324 005e 9946     		mov	r9, r3
 325 0060 04E0     		b	.L23
 326              	.L30:
 327 0062 0023     		mov	r3, #0
 328 0064 9946     		mov	r9, r3
 329 0066 01E0     		b	.L23
 330              	.L31:
 218:Generated_Source\PSoC4/BLE_1_custom.c ****             }
 331              		.loc 1 218 0
 332 0068 0123     		mov	r3, #1
 333 006a 9946     		mov	r9, r3
 334              	.L23:
 335              	.LVL31:
 223:Generated_Source\PSoC4/BLE_1_custom.c ****            (cyBle_customCServ[discoveryService].customServChar[locCharIndex].uuidFormat == 
 336              		.loc 1 223 0
 337 006c 012D     		cmp	r5, #1
 338 006e 11D1     		bne	.L24
 224:Generated_Source\PSoC4/BLE_1_custom.c ****                 CYBLE_GATT_16_BIT_UUID_FORMAT))
 339              		.loc 1 224 0 discriminator 1
 340 0070 3301     		lsl	r3, r6, #4
 341 0072 264A     		ldr	r2, .L33+4
 342 0074 D318     		add	r3, r2, r3
 343 0076 DA68     		ldr	r2, [r3, #12]
 344 0078 2301     		lsl	r3, r4, #4
 345 007a D318     		add	r3, r2, r3
 346 007c 1A7A     		ldrb	r2, [r3, #8]
 223:Generated_Source\PSoC4/BLE_1_custom.c ****            (cyBle_customCServ[discoveryService].customServChar[locCharIndex].uuidFormat == 
 347              		.loc 1 223 0 discriminator 1
 348 007e 012A     		cmp	r2, #1
 349 0080 08D1     		bne	.L24
 228:Generated_Source\PSoC4/BLE_1_custom.c ****             {
 350              		.loc 1 228 0
 351 0082 B91D     		add	r1, r7, #6
 227:Generated_Source\PSoC4/BLE_1_custom.c ****                 &discCharInfo->uuid.uuid16, CYBLE_GATT_16_BIT_UUID_SIZE) == 0u)
 352              		.loc 1 227 0
 353 0084 5868     		ldr	r0, [r3, #4]
 354 0086 0132     		add	r2, r2, #1
 355 0088 FFF7FEFF 		bl	memcmp
 356              	.LVL32:
 357 008c 0028     		cmp	r0, #0
 358 008e 01D1     		bne	.L24
ARM GAS  C:\Users\Sarah\AppData\Local\Temp\cczcQ39g.s 			page 12


 230:Generated_Source\PSoC4/BLE_1_custom.c ****             }
 359              		.loc 1 230 0
 360 0090 0123     		mov	r3, #1
 361 0092 9946     		mov	r9, r3
 362              	.LVL33:
 363              	.L24:
 234:Generated_Source\PSoC4/BLE_1_custom.c ****            (cyBle_customCServ[discoveryService].customServChar[locCharIndex].customServCharHandle
 364              		.loc 1 234 0
 365 0094 4B46     		mov	r3, r9
 366 0096 012B     		cmp	r3, #1
 367 0098 1AD1     		bne	.L25
 235:Generated_Source\PSoC4/BLE_1_custom.c ****                 == CYBLE_GATT_INVALID_ATTR_HANDLE_VALUE))
 368              		.loc 1 235 0 discriminator 1
 369 009a 3301     		lsl	r3, r6, #4
 370 009c 1B4A     		ldr	r2, .L33+4
 371 009e D318     		add	r3, r2, r3
 372 00a0 DA68     		ldr	r2, [r3, #12]
 373 00a2 2301     		lsl	r3, r4, #4
 374 00a4 D218     		add	r2, r2, r3
 375 00a6 1188     		ldrh	r1, [r2]
 234:Generated_Source\PSoC4/BLE_1_custom.c ****            (cyBle_customCServ[discoveryService].customServChar[locCharIndex].customServCharHandle
 376              		.loc 1 234 0 discriminator 1
 377 00a8 0029     		cmp	r1, #0
 378 00aa 11D1     		bne	.L25
 239:Generated_Source\PSoC4/BLE_1_custom.c ****             cyBle_customCServ[discoveryService].customServChar[locCharIndex].properties = 
 379              		.loc 1 239 0
 380 00ac B988     		ldrh	r1, [r7, #4]
 238:Generated_Source\PSoC4/BLE_1_custom.c ****                 discCharInfo->valueHandle;
 381              		.loc 1 238 0
 382 00ae 1180     		strh	r1, [r2]
 240:Generated_Source\PSoC4/BLE_1_custom.c ****                 discCharInfo->properties;
 383              		.loc 1 240 0
 384 00b0 3101     		lsl	r1, r6, #4
 385 00b2 164A     		ldr	r2, .L33+4
 386 00b4 5218     		add	r2, r2, r1
 387 00b6 D168     		ldr	r1, [r2, #12]
 388 00b8 0832     		add	r2, r2, #8
 389 00ba C918     		add	r1, r1, r3
 241:Generated_Source\PSoC4/BLE_1_custom.c ****             /* Init pointer to characteristic endHandle */
 390              		.loc 1 241 0
 391 00bc B878     		ldrb	r0, [r7, #2]
 240:Generated_Source\PSoC4/BLE_1_custom.c ****                 discCharInfo->properties;
 392              		.loc 1 240 0
 393 00be 4872     		strb	r0, [r1, #9]
 243:Generated_Source\PSoC4/BLE_1_custom.c ****                                     customServCharEndHandle;
 394              		.loc 1 243 0
 395 00c0 5268     		ldr	r2, [r2, #4]
 396 00c2 D318     		add	r3, r2, r3
 397 00c4 0233     		add	r3, r3, #2
 398 00c6 104A     		ldr	r2, .L33
 399 00c8 1360     		str	r3, [r2]
 246:Generated_Source\PSoC4/BLE_1_custom.c ****             locReqHandle = 1u;
 400              		.loc 1 246 0
 401 00ca 9680     		strh	r6, [r2, #4]
 402              	.LVL34:
 403              		.loc 1 247 0
 404 00cc 0123     		mov	r3, #1
ARM GAS  C:\Users\Sarah\AppData\Local\Temp\cczcQ39g.s 			page 13


 405 00ce 9846     		mov	r8, r3
 406              	.LVL35:
 407              	.L25:
 408              	.LBE2:
 206:Generated_Source\PSoC4/BLE_1_custom.c ****     {
 409              		.loc 1 206 0
 410 00d0 0134     		add	r4, r4, #1
 411              	.LVL36:
 412 00d2 A4B2     		uxth	r4, r4
 413              	.LVL37:
 414              	.L22:
 205:Generated_Source\PSoC4/BLE_1_custom.c ****         locCharIndex++)
 415              		.loc 1 205 0 discriminator 1
 416 00d4 3301     		lsl	r3, r6, #4
 417 00d6 0D4A     		ldr	r2, .L33+4
 418 00d8 D318     		add	r3, r2, r3
 419 00da 5B7A     		ldrb	r3, [r3, #9]
 420 00dc A342     		cmp	r3, r4
 421 00de 02D9     		bls	.L26
 205:Generated_Source\PSoC4/BLE_1_custom.c ****         locCharIndex++)
 422              		.loc 1 205 0 is_stmt 0 discriminator 2
 423 00e0 4346     		mov	r3, r8
 424 00e2 002B     		cmp	r3, #0
 425 00e4 A4D0     		beq	.L27
 426              	.L26:
 248:Generated_Source\PSoC4/BLE_1_custom.c ****         }
 249:Generated_Source\PSoC4/BLE_1_custom.c ****     }
 250:Generated_Source\PSoC4/BLE_1_custom.c ****     
 251:Generated_Source\PSoC4/BLE_1_custom.c ****     /* Init characteristic endHandle to Service endHandle.
 252:Generated_Source\PSoC4/BLE_1_custom.c ****        Characteristic endHandle will be updated to the declaration
 253:Generated_Source\PSoC4/BLE_1_custom.c ****        Handler of the following characteristic,
 254:Generated_Source\PSoC4/BLE_1_custom.c ****        in the following characteristic discovery procedure. */
 255:Generated_Source\PSoC4/BLE_1_custom.c ****     if(customsLastEndHandle != NULL)
 427              		.loc 1 255 0 is_stmt 1
 428 00e6 084B     		ldr	r3, .L33
 429 00e8 1A68     		ldr	r2, [r3]
 430 00ea 002A     		cmp	r2, #0
 431 00ec 08D0     		beq	.L19
 256:Generated_Source\PSoC4/BLE_1_custom.c ****     {
 257:Generated_Source\PSoC4/BLE_1_custom.c ****         *customsLastEndHandle = cyBle_serverInfo[cyBle_disCount].range.endHandle;
 432              		.loc 1 257 0
 433 00ee 084B     		ldr	r3, .L33+8
 434 00f0 1B78     		ldrb	r3, [r3]
 435 00f2 5900     		lsl	r1, r3, #1
 436 00f4 CB18     		add	r3, r1, r3
 437 00f6 5B00     		lsl	r3, r3, #1
 438 00f8 0649     		ldr	r1, .L33+12
 439 00fa CB18     		add	r3, r1, r3
 440 00fc 5B88     		ldrh	r3, [r3, #2]
 441 00fe 1380     		strh	r3, [r2]
 442              	.L19:
 258:Generated_Source\PSoC4/BLE_1_custom.c ****     }
 259:Generated_Source\PSoC4/BLE_1_custom.c **** }
 443              		.loc 1 259 0
 444              		@ sp needed
 445              	.LVL38:
 446              	.LVL39:
ARM GAS  C:\Users\Sarah\AppData\Local\Temp\cczcQ39g.s 			page 14


 447              	.LVL40:
 448 0100 0CBC     		pop	{r2, r3}
 449 0102 9046     		mov	r8, r2
 450 0104 9946     		mov	r9, r3
 451 0106 F8BD     		pop	{r3, r4, r5, r6, r7, pc}
 452              	.L34:
 453              		.align	2
 454              	.L33:
 455 0108 00000000 		.word	.LANCHOR1
 456 010c 00000000 		.word	.LANCHOR0
 457 0110 00000000 		.word	cyBle_disCount
 458 0114 00000000 		.word	cyBle_serverInfo
 459              		.cfi_endproc
 460              	.LFE4:
 461              		.size	CyBle_CustomcDiscoverCharacteristicsEventHandler, .-CyBle_CustomcDiscoverCharacteristicsEven
 462              		.section	.text.CyBle_CustomcGetCharRange,"ax",%progbits
 463              		.align	2
 464              		.global	CyBle_CustomcGetCharRange
 465              		.code	16
 466              		.thumb_func
 467              		.type	CyBle_CustomcGetCharRange, %function
 468              	CyBle_CustomcGetCharRange:
 469              	.LFB5:
 260:Generated_Source\PSoC4/BLE_1_custom.c **** 
 261:Generated_Source\PSoC4/BLE_1_custom.c **** 
 262:Generated_Source\PSoC4/BLE_1_custom.c **** /****************************************************************************** 
 263:Generated_Source\PSoC4/BLE_1_custom.c **** * Function Name: CyBle_GetCustomCharRange
 264:Generated_Source\PSoC4/BLE_1_custom.c **** ***************************************************************************//**
 265:Generated_Source\PSoC4/BLE_1_custom.c **** * 
 266:Generated_Source\PSoC4/BLE_1_custom.c **** *  Returns a possible range of the current characteristic descriptor
 267:Generated_Source\PSoC4/BLE_1_custom.c **** *  which is pointed by custom service and char index.
 268:Generated_Source\PSoC4/BLE_1_custom.c **** * 
 269:Generated_Source\PSoC4/BLE_1_custom.c **** *  \param incrementIndex: Not zero value indicates that service and characteristic index
 270:Generated_Source\PSoC4/BLE_1_custom.c **** *                  should be incremented.
 271:Generated_Source\PSoC4/BLE_1_custom.c **** * \return
 272:Generated_Source\PSoC4/BLE_1_custom.c **** *  CYBLE_GATT_ATTR_HANDLE_RANGE_T range: the block of start and end handles.
 273:Generated_Source\PSoC4/BLE_1_custom.c **** * 
 274:Generated_Source\PSoC4/BLE_1_custom.c **** ******************************************************************************/
 275:Generated_Source\PSoC4/BLE_1_custom.c **** CYBLE_GATT_ATTR_HANDLE_RANGE_T CyBle_CustomcGetCharRange(uint8 incrementIndex)
 276:Generated_Source\PSoC4/BLE_1_custom.c **** {
 470              		.loc 1 276 0
 471              		.cfi_startproc
 472              	.LVL41:
 473 0000 30B5     		push	{r4, r5, lr}
 474              		.cfi_def_cfa_offset 12
 475              		.cfi_offset 4, -12
 476              		.cfi_offset 5, -8
 477              		.cfi_offset 14, -4
 478 0002 83B0     		sub	sp, sp, #12
 479              		.cfi_def_cfa_offset 24
 277:Generated_Source\PSoC4/BLE_1_custom.c ****     CYBLE_GATT_ATTR_HANDLE_RANGE_T charRange = {CYBLE_GATT_INVALID_ATTR_HANDLE_VALUE, CYBLE_GATT_IN
 480              		.loc 1 277 0
 481 0004 0023     		mov	r3, #0
 482 0006 6A46     		mov	r2, sp
 483 0008 1380     		strh	r3, [r2]
 484 000a 5380     		strh	r3, [r2, #2]
 485              	.L43:
ARM GAS  C:\Users\Sarah\AppData\Local\Temp\cczcQ39g.s 			page 15


 278:Generated_Source\PSoC4/BLE_1_custom.c **** 
 279:Generated_Source\PSoC4/BLE_1_custom.c ****     do{
 280:Generated_Source\PSoC4/BLE_1_custom.c ****         if(incrementIndex != CYBLE_DISCOVERY_INIT)
 486              		.loc 1 280 0
 487 000c 0028     		cmp	r0, #0
 488 000e 1CD0     		beq	.L36
 281:Generated_Source\PSoC4/BLE_1_custom.c ****         {
 282:Generated_Source\PSoC4/BLE_1_custom.c ****             if((cyBle_customDisCharIndex + 1u) < cyBle_customCServ[cyBle_customDisServIndex].charCo
 489              		.loc 1 282 0
 490 0010 284A     		ldr	r2, .L44
 491 0012 D388     		ldrh	r3, [r2, #6]
 492 0014 5C1C     		add	r4, r3, #1
 493 0016 1189     		ldrh	r1, [r2, #8]
 494 0018 0A01     		lsl	r2, r1, #4
 495 001a 274D     		ldr	r5, .L44+4
 496 001c AA18     		add	r2, r5, r2
 497 001e 527A     		ldrb	r2, [r2, #9]
 498 0020 9442     		cmp	r4, r2
 499 0022 02D2     		bcs	.L37
 283:Generated_Source\PSoC4/BLE_1_custom.c ****             {
 284:Generated_Source\PSoC4/BLE_1_custom.c ****                 cyBle_customDisCharIndex++;
 500              		.loc 1 284 0
 501 0024 234A     		ldr	r2, .L44
 502 0026 D480     		strh	r4, [r2, #6]
 503 0028 14E0     		b	.L38
 504              	.L37:
 285:Generated_Source\PSoC4/BLE_1_custom.c ****             }
 286:Generated_Source\PSoC4/BLE_1_custom.c ****             else 
 287:Generated_Source\PSoC4/BLE_1_custom.c ****             {
 288:Generated_Source\PSoC4/BLE_1_custom.c ****                 if((cyBle_customDisServIndex + 1u) < CYBLE_CUSTOMC_SERVICE_COUNT)
 505              		.loc 1 288 0
 506 002a 4A1C     		add	r2, r1, #1
 507 002c 05D1     		bne	.L39
 289:Generated_Source\PSoC4/BLE_1_custom.c ****                 {
 290:Generated_Source\PSoC4/BLE_1_custom.c ****                     cyBle_customDisServIndex++;      /* Discover descriptors for next custom servic
 508              		.loc 1 290 0
 509 002e 214B     		ldr	r3, .L44
 510 0030 0131     		add	r1, r1, #1
 511 0032 1981     		strh	r1, [r3, #8]
 291:Generated_Source\PSoC4/BLE_1_custom.c ****                     /* Set characteristic index to first characteristic of custom service */
 292:Generated_Source\PSoC4/BLE_1_custom.c ****                     cyBle_customDisCharIndex = 0u;
 512              		.loc 1 292 0
 513 0034 0022     		mov	r2, #0
 514 0036 DA80     		strh	r2, [r3, #6]
 515 0038 0CE0     		b	.L38
 516              	.L39:
 293:Generated_Source\PSoC4/BLE_1_custom.c ****                 }
 294:Generated_Source\PSoC4/BLE_1_custom.c ****                 else /* Increment general discovery index when custom characteristic discovery is d
 295:Generated_Source\PSoC4/BLE_1_custom.c ****                 {
 296:Generated_Source\PSoC4/BLE_1_custom.c ****                     cyBle_disCount++;  
 517              		.loc 1 296 0
 518 003a 2049     		ldr	r1, .L44+8
 519 003c 0A78     		ldrb	r2, [r1]
 520 003e 0132     		add	r2, r2, #1
 521 0040 0A70     		strb	r2, [r1]
 297:Generated_Source\PSoC4/BLE_1_custom.c ****                     cyBle_customDisCharIndex++;
 522              		.loc 1 297 0
ARM GAS  C:\Users\Sarah\AppData\Local\Temp\cczcQ39g.s 			page 16


 523 0042 0133     		add	r3, r3, #1
 524 0044 1B4A     		ldr	r2, .L44
 525 0046 D380     		strh	r3, [r2, #6]
 526 0048 04E0     		b	.L38
 527              	.L36:
 298:Generated_Source\PSoC4/BLE_1_custom.c ****                 }
 299:Generated_Source\PSoC4/BLE_1_custom.c ****             }
 300:Generated_Source\PSoC4/BLE_1_custom.c ****         }
 301:Generated_Source\PSoC4/BLE_1_custom.c ****         else    /* Increment indexes in the following loop */
 302:Generated_Source\PSoC4/BLE_1_custom.c ****         {
 303:Generated_Source\PSoC4/BLE_1_custom.c ****             cyBle_customDisServIndex = 0u;
 528              		.loc 1 303 0
 529 004a 1A4B     		ldr	r3, .L44
 530 004c 0022     		mov	r2, #0
 531 004e 1A81     		strh	r2, [r3, #8]
 304:Generated_Source\PSoC4/BLE_1_custom.c ****             cyBle_customDisCharIndex = 0u;
 532              		.loc 1 304 0
 533 0050 DA80     		strh	r2, [r3, #6]
 534              	.LVL42:
 305:Generated_Source\PSoC4/BLE_1_custom.c ****             incrementIndex = 1u;
 535              		.loc 1 305 0
 536 0052 0120     		mov	r0, #1
 537              	.LVL43:
 538              	.L38:
 306:Generated_Source\PSoC4/BLE_1_custom.c ****         }            
 307:Generated_Source\PSoC4/BLE_1_custom.c ****         /* Read characteristic range */
 308:Generated_Source\PSoC4/BLE_1_custom.c ****         if(cyBle_customDisCharIndex < (cyBle_customCServ[cyBle_customDisServIndex].charCount))
 539              		.loc 1 308 0
 540 0054 1749     		ldr	r1, .L44
 541 0056 0B89     		ldrh	r3, [r1, #8]
 542 0058 1A01     		lsl	r2, r3, #4
 543 005a 174C     		ldr	r4, .L44+4
 544 005c A218     		add	r2, r4, r2
 545 005e 547A     		ldrb	r4, [r2, #9]
 546 0060 CA88     		ldrh	r2, [r1, #6]
 547 0062 9442     		cmp	r4, r2
 548 0064 0BD9     		bls	.L40
 309:Generated_Source\PSoC4/BLE_1_custom.c ****         {
 310:Generated_Source\PSoC4/BLE_1_custom.c ****             charRange.startHandle = cyBle_customCServ[cyBle_customDisServIndex].
 549              		.loc 1 310 0
 550 0066 1B01     		lsl	r3, r3, #4
 551 0068 1349     		ldr	r1, .L44+4
 552 006a CB18     		add	r3, r1, r3
 553 006c D968     		ldr	r1, [r3, #12]
 311:Generated_Source\PSoC4/BLE_1_custom.c ****                                 customServChar[cyBle_customDisCharIndex].customServCharHandle + 1u;
 554              		.loc 1 311 0
 555 006e 1301     		lsl	r3, r2, #4
 556 0070 CB18     		add	r3, r1, r3
 557 0072 1988     		ldrh	r1, [r3]
 310:Generated_Source\PSoC4/BLE_1_custom.c ****                                 customServChar[cyBle_customDisCharIndex].customServCharHandle + 1u;
 558              		.loc 1 310 0
 559 0074 0131     		add	r1, r1, #1
 560 0076 6D46     		mov	r5, sp
 561 0078 2980     		strh	r1, [r5]
 312:Generated_Source\PSoC4/BLE_1_custom.c ****             charRange.endHandle = cyBle_customCServ[cyBle_customDisServIndex].
 313:Generated_Source\PSoC4/BLE_1_custom.c ****                                 customServChar[cyBle_customDisCharIndex].customServCharEndHandle;
 562              		.loc 1 313 0
ARM GAS  C:\Users\Sarah\AppData\Local\Temp\cczcQ39g.s 			page 17


 563 007a 5B88     		ldrh	r3, [r3, #2]
 312:Generated_Source\PSoC4/BLE_1_custom.c ****             charRange.endHandle = cyBle_customCServ[cyBle_customDisServIndex].
 564              		.loc 1 312 0
 565 007c 6B80     		strh	r3, [r5, #2]
 566              	.L40:
 314:Generated_Source\PSoC4/BLE_1_custom.c ****         }
 315:Generated_Source\PSoC4/BLE_1_custom.c ****     }while(((charRange.startHandle <= cyBle_gattcDiscoveryRange.startHandle) || 
 567              		.loc 1 315 0
 568 007e 6B46     		mov	r3, sp
 569 0080 1B88     		ldrh	r3, [r3]
 570 0082 0F49     		ldr	r1, .L44+12
 571 0084 0988     		ldrh	r1, [r1]
 316:Generated_Source\PSoC4/BLE_1_custom.c ****             (charRange.startHandle > cyBle_gattcDiscoveryRange.endHandle) ||
 317:Generated_Source\PSoC4/BLE_1_custom.c ****             (charRange.endHandle < cyBle_gattcDiscoveryRange.startHandle) ||
 318:Generated_Source\PSoC4/BLE_1_custom.c ****             (charRange.startHandle > charRange.endHandle)) && 
 319:Generated_Source\PSoC4/BLE_1_custom.c ****             (cyBle_customDisCharIndex < cyBle_customCServ[cyBle_customDisServIndex].charCount));
 572              		.loc 1 319 0
 573 0086 8B42     		cmp	r3, r1
 574 0088 09D9     		bls	.L41
 316:Generated_Source\PSoC4/BLE_1_custom.c ****             (charRange.startHandle > cyBle_gattcDiscoveryRange.endHandle) ||
 575              		.loc 1 316 0
 576 008a 0D4D     		ldr	r5, .L44+12
 577 008c 6D88     		ldrh	r5, [r5, #2]
 315:Generated_Source\PSoC4/BLE_1_custom.c ****             (charRange.startHandle > cyBle_gattcDiscoveryRange.endHandle) ||
 578              		.loc 1 315 0
 579 008e AB42     		cmp	r3, r5
 580 0090 05D8     		bhi	.L41
 317:Generated_Source\PSoC4/BLE_1_custom.c ****             (charRange.startHandle > charRange.endHandle)) && 
 581              		.loc 1 317 0
 582 0092 6D46     		mov	r5, sp
 583 0094 6D88     		ldrh	r5, [r5, #2]
 316:Generated_Source\PSoC4/BLE_1_custom.c ****             (charRange.startHandle > cyBle_gattcDiscoveryRange.endHandle) ||
 584              		.loc 1 316 0
 585 0096 A942     		cmp	r1, r5
 586 0098 01D8     		bhi	.L41
 317:Generated_Source\PSoC4/BLE_1_custom.c ****             (charRange.startHandle > charRange.endHandle)) && 
 587              		.loc 1 317 0
 588 009a AB42     		cmp	r3, r5
 589 009c 01D9     		bls	.L42
 590              	.L41:
 318:Generated_Source\PSoC4/BLE_1_custom.c ****             (cyBle_customDisCharIndex < cyBle_customCServ[cyBle_customDisServIndex].charCount));
 591              		.loc 1 318 0 discriminator 1
 592 009e 9442     		cmp	r4, r2
 593 00a0 B4D8     		bhi	.L43
 594              	.L42:
 320:Generated_Source\PSoC4/BLE_1_custom.c ****     
 321:Generated_Source\PSoC4/BLE_1_custom.c ****     return(charRange);
 595              		.loc 1 321 0
 596 00a2 009B     		ldr	r3, [sp]
 597 00a4 180C     		lsr	r0, r3, #16
 598              	.LVL44:
 599 00a6 0004     		lsl	r0, r0, #16
 600 00a8 1B04     		lsl	r3, r3, #16
 601 00aa 1B0C     		lsr	r3, r3, #16
 602 00ac 1843     		orr	r0, r3
 322:Generated_Source\PSoC4/BLE_1_custom.c **** }
 603              		.loc 1 322 0
ARM GAS  C:\Users\Sarah\AppData\Local\Temp\cczcQ39g.s 			page 18


 604 00ae 03B0     		add	sp, sp, #12
 605              		@ sp needed
 606 00b0 30BD     		pop	{r4, r5, pc}
 607              	.L45:
 608 00b2 C046     		.align	2
 609              	.L44:
 610 00b4 00000000 		.word	.LANCHOR1
 611 00b8 00000000 		.word	.LANCHOR0
 612 00bc 00000000 		.word	cyBle_disCount
 613 00c0 00000000 		.word	cyBle_gattcDiscoveryRange
 614              		.cfi_endproc
 615              	.LFE5:
 616              		.size	CyBle_CustomcGetCharRange, .-CyBle_CustomcGetCharRange
 617              		.section	.text.CyBle_CustomcDiscoverCharDescriptorsEventHandler,"ax",%progbits
 618              		.align	2
 619              		.global	CyBle_CustomcDiscoverCharDescriptorsEventHandler
 620              		.code	16
 621              		.thumb_func
 622              		.type	CyBle_CustomcDiscoverCharDescriptorsEventHandler, %function
 623              	CyBle_CustomcDiscoverCharDescriptorsEventHandler:
 624              	.LFB6:
 323:Generated_Source\PSoC4/BLE_1_custom.c **** 
 324:Generated_Source\PSoC4/BLE_1_custom.c **** 
 325:Generated_Source\PSoC4/BLE_1_custom.c **** /******************************************************************************
 326:Generated_Source\PSoC4/BLE_1_custom.c **** * Function Name: CyBle_CustomcDiscoverCharDescriptorsEventHandler
 327:Generated_Source\PSoC4/BLE_1_custom.c **** ***************************************************************************//**
 328:Generated_Source\PSoC4/BLE_1_custom.c **** * 
 329:Generated_Source\PSoC4/BLE_1_custom.c **** *  This function is called on receiving a CYBLE_EVT_GATTC_FIND_INFO_RSP event.
 330:Generated_Source\PSoC4/BLE_1_custom.c **** *  Based on the descriptor UUID, an appropriate data structure is populated using
 331:Generated_Source\PSoC4/BLE_1_custom.c **** *  the data received as part of the callback.
 332:Generated_Source\PSoC4/BLE_1_custom.c **** * 
 333:Generated_Source\PSoC4/BLE_1_custom.c **** *  \param *discDescrInfo: The pointer to a descriptor information structure.
 334:Generated_Source\PSoC4/BLE_1_custom.c **** * 
 335:Generated_Source\PSoC4/BLE_1_custom.c **** * \return
 336:Generated_Source\PSoC4/BLE_1_custom.c **** *  None
 337:Generated_Source\PSoC4/BLE_1_custom.c **** * 
 338:Generated_Source\PSoC4/BLE_1_custom.c **** ******************************************************************************/
 339:Generated_Source\PSoC4/BLE_1_custom.c **** void CyBle_CustomcDiscoverCharDescriptorsEventHandler(const CYBLE_DISC_DESCR_INFO_T *discDescrInfo)
 340:Generated_Source\PSoC4/BLE_1_custom.c **** {
 625              		.loc 1 340 0
 626              		.cfi_startproc
 627              	.LVL45:
 628 0000 F8B5     		push	{r3, r4, r5, r6, r7, lr}
 629              		.cfi_def_cfa_offset 24
 630              		.cfi_offset 3, -24
 631              		.cfi_offset 4, -20
 632              		.cfi_offset 5, -16
 633              		.cfi_offset 6, -12
 634              		.cfi_offset 7, -8
 635              		.cfi_offset 14, -4
 636 0002 4F46     		mov	r7, r9
 637 0004 4646     		mov	r6, r8
 638 0006 C0B4     		push	{r6, r7}
 639              		.cfi_def_cfa_offset 32
 640              		.cfi_offset 8, -32
 641              		.cfi_offset 9, -28
 642 0008 061C     		mov	r6, r0
ARM GAS  C:\Users\Sarah\AppData\Local\Temp\cczcQ39g.s 			page 19


 643              	.LVL46:
 341:Generated_Source\PSoC4/BLE_1_custom.c ****     uint8 locDescIndex;
 342:Generated_Source\PSoC4/BLE_1_custom.c ****     uint8 locReqHandle = 0u;
 644              		.loc 1 342 0
 645 000a 0023     		mov	r3, #0
 646 000c 9846     		mov	r8, r3
 343:Generated_Source\PSoC4/BLE_1_custom.c **** 
 344:Generated_Source\PSoC4/BLE_1_custom.c ****     for(locDescIndex = 0u; (locDescIndex < cyBle_customCServ[cyBle_customDisServIndex].
 647              		.loc 1 344 0
 648 000e 0025     		mov	r5, #0
 649 0010 42E0     		b	.L47
 650              	.LVL47:
 651              	.L52:
 652              	.LBB3:
 345:Generated_Source\PSoC4/BLE_1_custom.c ****           customServChar[cyBle_customDisCharIndex].descCount) && (locReqHandle == 0u); locDescIndex
 346:Generated_Source\PSoC4/BLE_1_custom.c ****     {
 347:Generated_Source\PSoC4/BLE_1_custom.c ****         uint8 flag = 0u;
 348:Generated_Source\PSoC4/BLE_1_custom.c ****         
 349:Generated_Source\PSoC4/BLE_1_custom.c ****         if((discDescrInfo->uuidFormat == CYBLE_GATT_128_BIT_UUID_FORMAT) &&
 653              		.loc 1 349 0
 654 0012 377D     		ldrb	r7, [r6, #20]
 655 0014 022F     		cmp	r7, #2
 656 0016 12D1     		bne	.L53
 350:Generated_Source\PSoC4/BLE_1_custom.c ****            (cyBle_customCServ[cyBle_customDisServIndex].customServChar[cyBle_customDisCharIndex].
 351:Generated_Source\PSoC4/BLE_1_custom.c ****              customServCharDesc[locDescIndex].uuidFormat == CYBLE_GATT_128_BIT_UUID_FORMAT))
 657              		.loc 1 351 0 discriminator 1
 658 0018 6B00     		lsl	r3, r5, #1
 659 001a 5B19     		add	r3, r3, r5
 660 001c 9B00     		lsl	r3, r3, #2
 661 001e E268     		ldr	r2, [r4, #12]
 662 0020 9446     		mov	ip, r2
 663 0022 6344     		add	r3, r3, ip
 664 0024 1A7A     		ldrb	r2, [r3, #8]
 349:Generated_Source\PSoC4/BLE_1_custom.c ****            (cyBle_customCServ[cyBle_customDisServIndex].customServChar[cyBle_customDisCharIndex].
 665              		.loc 1 349 0 discriminator 1
 666 0026 022A     		cmp	r2, #2
 667 0028 0CD1     		bne	.L54
 352:Generated_Source\PSoC4/BLE_1_custom.c ****         {
 353:Generated_Source\PSoC4/BLE_1_custom.c ****             if(memcmp(cyBle_customCServ[cyBle_customDisServIndex].
 354:Generated_Source\PSoC4/BLE_1_custom.c ****                 customServChar[cyBle_customDisCharIndex].customServCharDesc[locDescIndex].uuid, 
 355:Generated_Source\PSoC4/BLE_1_custom.c ****                 &discDescrInfo->uuid.uuid128, CYBLE_GATT_128_BIT_UUID_SIZE) == 0u)
 668              		.loc 1 355 0
 669 002a 311D     		add	r1, r6, #4
 353:Generated_Source\PSoC4/BLE_1_custom.c ****                 customServChar[cyBle_customDisCharIndex].customServCharDesc[locDescIndex].uuid, 
 670              		.loc 1 353 0
 671 002c 5868     		ldr	r0, [r3, #4]
 672 002e 0E32     		add	r2, r2, #14
 673 0030 FFF7FEFF 		bl	memcmp
 674              	.LVL48:
 675 0034 0028     		cmp	r0, #0
 676 0036 08D0     		beq	.L55
 347:Generated_Source\PSoC4/BLE_1_custom.c ****         
 677              		.loc 1 347 0
 678 0038 0023     		mov	r3, #0
 679 003a 9946     		mov	r9, r3
 680 003c 07E0     		b	.L48
 681              	.L53:
ARM GAS  C:\Users\Sarah\AppData\Local\Temp\cczcQ39g.s 			page 20


 682 003e 0023     		mov	r3, #0
 683 0040 9946     		mov	r9, r3
 684 0042 04E0     		b	.L48
 685              	.L54:
 686 0044 0023     		mov	r3, #0
 687 0046 9946     		mov	r9, r3
 688 0048 01E0     		b	.L48
 689              	.L55:
 356:Generated_Source\PSoC4/BLE_1_custom.c ****             {
 357:Generated_Source\PSoC4/BLE_1_custom.c ****                 flag = 1u;
 690              		.loc 1 357 0
 691 004a 0123     		mov	r3, #1
 692 004c 9946     		mov	r9, r3
 693              	.L48:
 694              	.LVL49:
 358:Generated_Source\PSoC4/BLE_1_custom.c ****             }
 359:Generated_Source\PSoC4/BLE_1_custom.c ****         }
 360:Generated_Source\PSoC4/BLE_1_custom.c ****         
 361:Generated_Source\PSoC4/BLE_1_custom.c ****         if((discDescrInfo->uuidFormat == CYBLE_GATT_16_BIT_UUID_FORMAT) &&
 695              		.loc 1 361 0
 696 004e 012F     		cmp	r7, #1
 697 0050 11D1     		bne	.L49
 362:Generated_Source\PSoC4/BLE_1_custom.c ****            (cyBle_customCServ[cyBle_customDisServIndex].customServChar[cyBle_customDisCharIndex].
 363:Generated_Source\PSoC4/BLE_1_custom.c ****              customServCharDesc[locDescIndex].uuidFormat == CYBLE_GATT_16_BIT_UUID_FORMAT))
 698              		.loc 1 363 0 discriminator 1
 699 0052 6B00     		lsl	r3, r5, #1
 700 0054 5B19     		add	r3, r3, r5
 701 0056 9B00     		lsl	r3, r3, #2
 702 0058 E268     		ldr	r2, [r4, #12]
 703 005a 9446     		mov	ip, r2
 704 005c 6344     		add	r3, r3, ip
 705 005e 1A7A     		ldrb	r2, [r3, #8]
 361:Generated_Source\PSoC4/BLE_1_custom.c ****            (cyBle_customCServ[cyBle_customDisServIndex].customServChar[cyBle_customDisCharIndex].
 706              		.loc 1 361 0 discriminator 1
 707 0060 012A     		cmp	r2, #1
 708 0062 08D1     		bne	.L49
 364:Generated_Source\PSoC4/BLE_1_custom.c ****         {
 365:Generated_Source\PSoC4/BLE_1_custom.c ****             if(memcmp(cyBle_customCServ[cyBle_customDisServIndex].
 366:Generated_Source\PSoC4/BLE_1_custom.c ****                 customServChar[cyBle_customDisCharIndex].customServCharDesc[locDescIndex].uuid, 
 367:Generated_Source\PSoC4/BLE_1_custom.c ****                 &discDescrInfo->uuid.uuid16, CYBLE_GATT_16_BIT_UUID_SIZE) == 0u)
 709              		.loc 1 367 0
 710 0064 311D     		add	r1, r6, #4
 365:Generated_Source\PSoC4/BLE_1_custom.c ****                 customServChar[cyBle_customDisCharIndex].customServCharDesc[locDescIndex].uuid, 
 711              		.loc 1 365 0
 712 0066 5868     		ldr	r0, [r3, #4]
 713 0068 0132     		add	r2, r2, #1
 714 006a FFF7FEFF 		bl	memcmp
 715              	.LVL50:
 716 006e 0028     		cmp	r0, #0
 717 0070 01D1     		bne	.L49
 368:Generated_Source\PSoC4/BLE_1_custom.c ****             {
 369:Generated_Source\PSoC4/BLE_1_custom.c ****                 flag = 1u;
 718              		.loc 1 369 0
 719 0072 0123     		mov	r3, #1
 720 0074 9946     		mov	r9, r3
 721              	.LVL51:
 722              	.L49:
ARM GAS  C:\Users\Sarah\AppData\Local\Temp\cczcQ39g.s 			page 21


 370:Generated_Source\PSoC4/BLE_1_custom.c ****             }
 371:Generated_Source\PSoC4/BLE_1_custom.c ****         }
 372:Generated_Source\PSoC4/BLE_1_custom.c ****         
 373:Generated_Source\PSoC4/BLE_1_custom.c ****         if((flag == 1u) && 
 723              		.loc 1 373 0
 724 0076 4B46     		mov	r3, r9
 725 0078 012B     		cmp	r3, #1
 726 007a 0BD1     		bne	.L50
 374:Generated_Source\PSoC4/BLE_1_custom.c ****            (cyBle_customCServ[cyBle_customDisServIndex].customServChar[cyBle_customDisCharIndex].
 727              		.loc 1 374 0 discriminator 1
 728 007c E168     		ldr	r1, [r4, #12]
 375:Generated_Source\PSoC4/BLE_1_custom.c ****                customServCharDesc[locDescIndex].descHandle == CYBLE_GATT_INVALID_ATTR_HANDLE_VALUE)
 729              		.loc 1 375 0 discriminator 1
 730 007e 6A00     		lsl	r2, r5, #1
 731 0080 5319     		add	r3, r2, r5
 732 0082 9B00     		lsl	r3, r3, #2
 733 0084 CB18     		add	r3, r1, r3
 734 0086 1A88     		ldrh	r2, [r3]
 373:Generated_Source\PSoC4/BLE_1_custom.c ****            (cyBle_customCServ[cyBle_customDisServIndex].customServChar[cyBle_customDisCharIndex].
 735              		.loc 1 373 0 discriminator 1
 736 0088 002A     		cmp	r2, #0
 737 008a 03D1     		bne	.L50
 376:Generated_Source\PSoC4/BLE_1_custom.c ****         {
 377:Generated_Source\PSoC4/BLE_1_custom.c ****             cyBle_customCServ[cyBle_customDisServIndex].customServChar[cyBle_customDisCharIndex].
 378:Generated_Source\PSoC4/BLE_1_custom.c ****                 customServCharDesc[locDescIndex].descHandle = discDescrInfo->descrHandle;
 738              		.loc 1 378 0
 739 008c 7288     		ldrh	r2, [r6, #2]
 740 008e 1A80     		strh	r2, [r3]
 741              	.LVL52:
 379:Generated_Source\PSoC4/BLE_1_custom.c ****             locReqHandle = 1u;
 742              		.loc 1 379 0
 743 0090 0123     		mov	r3, #1
 744 0092 9846     		mov	r8, r3
 745              	.LVL53:
 746              	.L50:
 747              	.LBE3:
 345:Generated_Source\PSoC4/BLE_1_custom.c ****     {
 748              		.loc 1 345 0
 749 0094 0135     		add	r5, r5, #1
 750              	.LVL54:
 751 0096 EDB2     		uxtb	r5, r5
 752              	.LVL55:
 753              	.L47:
 344:Generated_Source\PSoC4/BLE_1_custom.c ****           customServChar[cyBle_customDisCharIndex].descCount) && (locReqHandle == 0u); locDescIndex
 754              		.loc 1 344 0 discriminator 1
 755 0098 094A     		ldr	r2, .L57
 756 009a 1389     		ldrh	r3, [r2, #8]
 757 009c 1B01     		lsl	r3, r3, #4
 758 009e 0949     		ldr	r1, .L57+4
 759 00a0 CB18     		add	r3, r1, r3
 760 00a2 DB68     		ldr	r3, [r3, #12]
 345:Generated_Source\PSoC4/BLE_1_custom.c ****     {
 761              		.loc 1 345 0 discriminator 1
 762 00a4 D488     		ldrh	r4, [r2, #6]
 763 00a6 2401     		lsl	r4, r4, #4
 764 00a8 1C19     		add	r4, r3, r4
 765 00aa A37A     		ldrb	r3, [r4, #10]
ARM GAS  C:\Users\Sarah\AppData\Local\Temp\cczcQ39g.s 			page 22


 344:Generated_Source\PSoC4/BLE_1_custom.c ****           customServChar[cyBle_customDisCharIndex].descCount) && (locReqHandle == 0u); locDescIndex
 766              		.loc 1 344 0 discriminator 1
 767 00ac AB42     		cmp	r3, r5
 768 00ae 02D9     		bls	.L46
 345:Generated_Source\PSoC4/BLE_1_custom.c ****     {
 769              		.loc 1 345 0
 770 00b0 4346     		mov	r3, r8
 771 00b2 002B     		cmp	r3, #0
 772 00b4 ADD0     		beq	.L52
 773              	.L46:
 380:Generated_Source\PSoC4/BLE_1_custom.c ****         }
 381:Generated_Source\PSoC4/BLE_1_custom.c ****     }
 382:Generated_Source\PSoC4/BLE_1_custom.c **** }
 774              		.loc 1 382 0
 775              		@ sp needed
 776              	.LVL56:
 777              	.LVL57:
 778              	.LVL58:
 779 00b6 0CBC     		pop	{r2, r3}
 780 00b8 9046     		mov	r8, r2
 781 00ba 9946     		mov	r9, r3
 782 00bc F8BD     		pop	{r3, r4, r5, r6, r7, pc}
 783              	.L58:
 784 00be C046     		.align	2
 785              	.L57:
 786 00c0 00000000 		.word	.LANCHOR1
 787 00c4 00000000 		.word	.LANCHOR0
 788              		.cfi_endproc
 789              	.LFE6:
 790              		.size	CyBle_CustomcDiscoverCharDescriptorsEventHandler, .-CyBle_CustomcDiscoverCharDescriptorsEven
 791              		.global	cyBle_customCServ
 792              		.section	.rodata
 793              		.align	2
 794              		.type	cyBle_customUuid16, %object
 795              		.size	cyBle_customUuid16, 2
 796              	cyBle_customUuid16:
 797 0000 0129     		.short	10497
 798 0002 0000     		.space	2
 799              		.type	cyBle_customUuid128, %object
 800              		.size	cyBle_customUuid128, 32
 801              	cyBle_customUuid128:
 802 0004 E7       		.byte	-25
 803 0005 67       		.byte	103
 804 0006 DA       		.byte	-38
 805 0007 EC       		.byte	-20
 806 0008 C3       		.byte	-61
 807 0009 57       		.byte	87
 808 000a 01       		.byte	1
 809 000b 8D       		.byte	-115
 810 000c B8       		.byte	-72
 811 000d 4D       		.byte	77
 812 000e 65       		.byte	101
 813 000f D1       		.byte	-47
 814 0010 12       		.byte	18
 815 0011 BA       		.byte	-70
 816 0012 A2       		.byte	-94
 817 0013 27       		.byte	39
ARM GAS  C:\Users\Sarah\AppData\Local\Temp\cczcQ39g.s 			page 23


 818 0014 9B       		.byte	-101
 819 0015 C3       		.byte	-61
 820 0016 FD       		.byte	-3
 821 0017 81       		.byte	-127
 822 0018 12       		.byte	18
 823 0019 B1       		.byte	-79
 824 001a 5F       		.byte	95
 825 001b 9F       		.byte	-97
 826 001c C1       		.byte	-63
 827 001d 49       		.byte	73
 828 001e 01       		.byte	1
 829 001f 3D       		.byte	61
 830 0020 C8       		.byte	-56
 831 0021 F4       		.byte	-12
 832 0022 9B       		.byte	-101
 833 0023 44       		.byte	68
 834              		.data
 835              		.align	2
 836              		.set	.LANCHOR0,. + 0
 837              		.type	cyBle_customCServ, %object
 838              		.size	cyBle_customCServ, 16
 839              	cyBle_customCServ:
 840 0000 0000     		.short	0
 841 0002 0000     		.space	2
 842 0004 04000000 		.word	cyBle_customUuid128
 843 0008 02       		.byte	2
 844 0009 01       		.byte	1
 845 000a 0000     		.space	2
 846 000c 10000000 		.word	cyBle_customCChar
 847              		.type	cyBle_customCChar, %object
 848              		.size	cyBle_customCChar, 16
 849              	cyBle_customCChar:
 850 0010 0000     		.short	0
 851 0012 0000     		.short	0
 852 0014 14000000 		.word	cyBle_customUuid128+16
 853 0018 02       		.byte	2
 854 0019 00       		.byte	0
 855 001a 01       		.byte	1
 856 001b 00       		.space	1
 857 001c 20000000 		.word	cyBle_customCDesc
 858              		.type	cyBle_customCDesc, %object
 859              		.size	cyBle_customCDesc, 12
 860              	cyBle_customCDesc:
 861 0020 0000     		.short	0
 862 0022 0000     		.space	2
 863 0024 00000000 		.word	cyBle_customUuid16
 864 0028 01       		.byte	1
 865 0029 000000   		.space	3
 866              		.bss
 867              		.align	2
 868              		.set	.LANCHOR1,. + 0
 869              		.type	customsLastEndHandle.6599, %object
 870              		.size	customsLastEndHandle.6599, 4
 871              	customsLastEndHandle.6599:
 872 0000 00000000 		.space	4
 873              		.type	discoveryLastServ.6600, %object
 874              		.size	discoveryLastServ.6600, 2
ARM GAS  C:\Users\Sarah\AppData\Local\Temp\cczcQ39g.s 			page 24


 875              	discoveryLastServ.6600:
 876 0004 0000     		.space	2
 877              		.type	cyBle_customDisCharIndex, %object
 878              		.size	cyBle_customDisCharIndex, 2
 879              	cyBle_customDisCharIndex:
 880 0006 0000     		.space	2
 881              		.type	cyBle_customDisServIndex, %object
 882              		.size	cyBle_customDisServIndex, 2
 883              	cyBle_customDisServIndex:
 884 0008 0000     		.space	2
 885 000a 0000     		.text
 886              	.Letext0:
 887              		.file 2 "Generated_Source\\PSoC4\\cytypes.h"
 888              		.file 3 "c:\\program files (x86)\\cypress\\psoc creator\\4.0\\psoc creator\\import\\gnu\\arm\\4.9.
 889              		.file 4 "Generated_Source\\PSoC4\\BLE_1_StackGatt.h"
 890              		.file 5 "Generated_Source\\PSoC4\\BLE_1_gatt.h"
 891              		.file 6 "Generated_Source\\PSoC4\\BLE_1_custom.h"
 892              		.file 7 "Generated_Source\\PSoC4\\BLE_1_Stack.h"
 893              		.file 8 "Generated_Source\\PSoC4\\BLE_1_eventHandler.h"
 894              		.file 9 "c:\\program files (x86)\\cypress\\psoc creator\\4.0\\psoc creator\\import\\gnu\\arm\\4.9.