ARM GAS  C:\Users\Sarah\AppData\Local\Temp\ccXRs73K.s 			page 1


   1              		.cpu cortex-m0
   2              		.fpu softvfp
   3              		.eabi_attribute 20, 1
   4              		.eabi_attribute 21, 1
   5              		.eabi_attribute 23, 3
   6              		.eabi_attribute 24, 1
   7              		.eabi_attribute 25, 1
   8              		.eabi_attribute 26, 1
   9              		.eabi_attribute 30, 6
  10              		.eabi_attribute 34, 0
  11              		.eabi_attribute 18, 4
  12              		.code	16
  13              		.file	"BLE.c"
  14              		.text
  15              	.Ltext0:
  16              		.cfi_sections	.debug_frame
  17              		.global	cyBle_initVar
  18              		.bss
  19              		.type	cyBle_initVar, %object
  20              		.size	cyBle_initVar, 1
  21              	cyBle_initVar:
  22 0000 00       		.space	1
  23              		.global	cyBle_stackMemoryRam
  24              		.section	.noinit,"aw",%progbits
  25              		.align	3
  26              		.type	cyBle_stackMemoryRam, %object
  27              		.size	cyBle_stackMemoryRam, 2784
  28              	cyBle_stackMemoryRam:
  29 0000 00000000 		.space	2784
  29      00000000 
  29      00000000 
  29      00000000 
  29      00000000 
  30              		.global	cyBle_discoveryParam
  31              		.data
  32              		.align	2
  33              		.type	cyBle_discoveryParam, %object
  34              		.size	cyBle_discoveryParam, 16
  35              	cyBle_discoveryParam:
  36 0000 2000     		.short	32
  37 0002 3000     		.short	48
  38 0004 00       		.byte	0
  39 0005 00       		.byte	0
  40 0006 00       		.byte	0
  41 0007 13       		.byte	19
  42 0008 23       		.byte	35
  43 0009 CC       		.byte	-52
  44 000a 50       		.byte	80
  45 000b A0       		.byte	-96
  46 000c 00       		.byte	0
  47 000d 07       		.byte	7
  48 000e 00       		.byte	0
  49 000f 00       		.space	1
  50              		.global	cyBle_discoveryData
  51              		.align	2
  52              		.type	cyBle_discoveryData, %object
  53              		.size	cyBle_discoveryData, 32
ARM GAS  C:\Users\Sarah\AppData\Local\Temp\ccXRs73K.s 			page 2


  54              	cyBle_discoveryData:
  55 0010 02       		.byte	2
  56 0011 01       		.byte	1
  57 0012 06       		.byte	6
  58 0013 09       		.byte	9
  59 0014 09       		.byte	9
  60 0015 56       		.byte	86
  61 0016 65       		.byte	101
  62 0017 6E       		.byte	110
  63 0018 74       		.byte	116
  64 0019 55       		.byte	85
  65 001a 6E       		.byte	110
  66 001b 69       		.byte	105
  67 001c 74       		.byte	116
  68 001d 11       		.byte	17
  69 001e 07       		.byte	7
  70 001f F0       		.byte	-16
  71 0020 34       		.byte	52
  72 0021 9B       		.byte	-101
  73 0022 5F       		.byte	95
  74 0023 80       		.byte	-128
  75 0024 00       		.byte	0
  76 0025 00       		.byte	0
  77 0026 80       		.byte	-128
  78 0027 00       		.byte	0
  79 0028 10       		.byte	16
  80 0029 00       		.byte	0
  81 002a 00       		.byte	0
  82 002b 12       		.byte	18
  83 002c BA       		.byte	-70
  84 002d 00       		.byte	0
  85 002e 00       		.byte	0
  86 002f 1F       		.byte	31
  87              		.global	cyBle_scanRspData
  88              		.bss
  89 0001 000000   		.align	2
  90              		.type	cyBle_scanRspData, %object
  91              		.size	cyBle_scanRspData, 32
  92              	cyBle_scanRspData:
  93 0004 00000000 		.space	32
  93      00000000 
  93      00000000 
  93      00000000 
  93      00000000 
  94              		.global	cyBle_discoveryModeInfo
  95              		.data
  96              		.align	2
  97              		.type	cyBle_discoveryModeInfo, %object
  98              		.size	cyBle_discoveryModeInfo, 20
  99              	cyBle_discoveryModeInfo:
 100 0030 02       		.byte	2
 101 0031 000000   		.space	3
 102 0034 00000000 		.word	cyBle_discoveryParam
 103 0038 00000000 		.word	cyBle_discoveryData
 104 003c 00000000 		.word	cyBle_scanRspData
 105 0040 1E00     		.short	30
 106 0042 0000     		.space	2
ARM GAS  C:\Users\Sarah\AppData\Local\Temp\ccXRs73K.s 			page 3


 107              		.comm	CyBle_ApplCallback,4,4
 108              		.global	cyBle_deviceAddress
 109              		.align	2
 110              		.type	cyBle_deviceAddress, %object
 111              		.size	cyBle_deviceAddress, 7
 112              	cyBle_deviceAddress:
 113 0044 13       		.byte	19
 114 0045 23       		.byte	35
 115 0046 CC       		.byte	-52
 116 0047 50       		.byte	80
 117 0048 A0       		.byte	-96
 118 0049 00       		.byte	0
 119 004a 00       		.byte	0
 120              		.global	cyBle_sflashDeviceAddress
 121 004b 00       		.align	2
 122              		.type	cyBle_sflashDeviceAddress, %object
 123              		.size	cyBle_sflashDeviceAddress, 4
 124              	cyBle_sflashDeviceAddress:
 125 004c 00F4FF0F 		.word	268432384
 126              		.section	.text.CyBle_Init,"ax",%progbits
 127              		.align	2
 128              		.global	CyBle_Init
 129              		.code	16
 130              		.thumb_func
 131              		.type	CyBle_Init, %function
 132              	CyBle_Init:
 133              	.LFB2:
 134              		.file 1 "Generated_Source\\PSoC4\\BLE.c"
   1:Generated_Source\PSoC4/BLE.c **** /***************************************************************************//**
   2:Generated_Source\PSoC4/BLE.c **** * \file CYBLE.c
   3:Generated_Source\PSoC4/BLE.c **** * \version 3.30
   4:Generated_Source\PSoC4/BLE.c **** * 
   5:Generated_Source\PSoC4/BLE.c **** * \brief
   6:Generated_Source\PSoC4/BLE.c **** *  This file contains the source code for the Common APIs of the BLE Component.
   7:Generated_Source\PSoC4/BLE.c **** * 
   8:Generated_Source\PSoC4/BLE.c **** ********************************************************************************
   9:Generated_Source\PSoC4/BLE.c **** * \copyright
  10:Generated_Source\PSoC4/BLE.c **** * Copyright 2014-2016, Cypress Semiconductor Corporation.  All rights reserved.
  11:Generated_Source\PSoC4/BLE.c **** * You may use this file only in accordance with the license, terms, conditions,
  12:Generated_Source\PSoC4/BLE.c **** * disclaimers, and limitations in the end user license agreement accompanying
  13:Generated_Source\PSoC4/BLE.c **** * the software package with which this file was provided.
  14:Generated_Source\PSoC4/BLE.c **** *******************************************************************************/
  15:Generated_Source\PSoC4/BLE.c **** 
  16:Generated_Source\PSoC4/BLE.c **** #include "BLE_eventHandler.h"
  17:Generated_Source\PSoC4/BLE.c **** #include "BLE_HAL_PVT.h"
  18:Generated_Source\PSoC4/BLE.c **** #include <stdlib.h>
  19:Generated_Source\PSoC4/BLE.c **** 
  20:Generated_Source\PSoC4/BLE.c **** 
  21:Generated_Source\PSoC4/BLE.c **** /***************************************
  22:Generated_Source\PSoC4/BLE.c **** * Function Prototypes
  23:Generated_Source\PSoC4/BLE.c **** ***************************************/
  24:Generated_Source\PSoC4/BLE.c **** 
  25:Generated_Source\PSoC4/BLE.c **** #if(CYBLE_GATT_ROLE_SERVER)
  26:Generated_Source\PSoC4/BLE.c ****     #if(CYBLE_GAP_ROLE_PERIPHERAL)
  27:Generated_Source\PSoC4/BLE.c ****         static void CyBle_ChangeAdLocalName(const char8 name[], uint8 dest);
  28:Generated_Source\PSoC4/BLE.c ****     #endif /* (CYBLE_GAP_ROLE_PERIPHERAL) */
  29:Generated_Source\PSoC4/BLE.c **** #endif /* (CYBLE_GATT_ROLE_SERVER) */
ARM GAS  C:\Users\Sarah\AppData\Local\Temp\ccXRs73K.s 			page 4


  30:Generated_Source\PSoC4/BLE.c ****     
  31:Generated_Source\PSoC4/BLE.c **** 
  32:Generated_Source\PSoC4/BLE.c **** /***************************************
  33:Generated_Source\PSoC4/BLE.c **** * Global Variables
  34:Generated_Source\PSoC4/BLE.c **** ***************************************/
  35:Generated_Source\PSoC4/BLE.c **** 
  36:Generated_Source\PSoC4/BLE.c **** /* Indicates whether the BLE has been initialized. The variable is initialized to
  37:Generated_Source\PSoC4/BLE.c ****    0 and set to 1 the first time CyBle_Start() is called. This allows the component
  38:Generated_Source\PSoC4/BLE.c ****    to restart without reinitialization after the first call to the CyBle_Start() 
  39:Generated_Source\PSoC4/BLE.c ****    routine. If reinitialization of the component is required, the variable should 
  40:Generated_Source\PSoC4/BLE.c ****    be set to 0 before the CyBle_Start() routine is called. Alternatively, the BLE
  41:Generated_Source\PSoC4/BLE.c ****    can be reinitialized by calling the CyBle_Init() function.
  42:Generated_Source\PSoC4/BLE.c **** */
  43:Generated_Source\PSoC4/BLE.c **** uint8  cyBle_initVar = 0u;
  44:Generated_Source\PSoC4/BLE.c **** 
  45:Generated_Source\PSoC4/BLE.c **** /* Allocate RAM memory for stack. This buffer could be reused by application when 
  46:Generated_Source\PSoC4/BLE.c ****    BLE component is stopped. For export mode buffer is allocated in heap.
  47:Generated_Source\PSoC4/BLE.c **** */
  48:Generated_Source\PSoC4/BLE.c **** #if(CYBLE_SHARING_MODE_EXPORT)
  49:Generated_Source\PSoC4/BLE.c ****     
  50:Generated_Source\PSoC4/BLE.c **** uint8 *cyBle_stackMemoryRam = NULL;
  51:Generated_Source\PSoC4/BLE.c **** 
  52:Generated_Source\PSoC4/BLE.c **** #else
  53:Generated_Source\PSoC4/BLE.c **** 
  54:Generated_Source\PSoC4/BLE.c **** CYBLE_CYALIGNED_BEGIN CY_NOINIT uint8 cyBle_stackMemoryRam[CYBLE_STACK_RAM_SIZE] CYBLE_CYALIGNED_EN
  55:Generated_Source\PSoC4/BLE.c **** 
  56:Generated_Source\PSoC4/BLE.c **** #endif  /* CYBLE_SHARING_MODE_EXPORT */
  57:Generated_Source\PSoC4/BLE.c **** 
  58:Generated_Source\PSoC4/BLE.c **** #if(CYBLE_GAP_ROLE_PERIPHERAL || CYBLE_GAP_ROLE_BROADCASTER)
  59:Generated_Source\PSoC4/BLE.c **** 
  60:Generated_Source\PSoC4/BLE.c **** CYBLE_GAPP_DISC_PARAM_T cyBle_discoveryParam =
  61:Generated_Source\PSoC4/BLE.c **** {
  62:Generated_Source\PSoC4/BLE.c ****     0x0020u,    /* uint16 advertising_interval_min */
  63:Generated_Source\PSoC4/BLE.c ****     0x0030u,    /* uint16 advertising_interval_max */
  64:Generated_Source\PSoC4/BLE.c ****     CYBLE_GAPP_CONNECTABLE_UNDIRECTED_ADV, /* uint8 advertising_type */
  65:Generated_Source\PSoC4/BLE.c ****     0x00u,      /* uint8 own_addr_type */
  66:Generated_Source\PSoC4/BLE.c ****     0x00u,      /* uint8 direct_addr_type */
  67:Generated_Source\PSoC4/BLE.c ****     {0x13u, 0x23u, 0xCCu, 0x50u, 0xA0u, 0x00u}, /* uint8* direct_addr */
  68:Generated_Source\PSoC4/BLE.c ****     0x07u,      /* uint8 advertising_channel_map */
  69:Generated_Source\PSoC4/BLE.c ****     0x00u,      /* uint8 advertising_filter_policy */
  70:Generated_Source\PSoC4/BLE.c **** };
  71:Generated_Source\PSoC4/BLE.c **** 
  72:Generated_Source\PSoC4/BLE.c **** CYBLE_GAPP_DISC_DATA_T cyBle_discoveryData =
  73:Generated_Source\PSoC4/BLE.c **** {
  74:Generated_Source\PSoC4/BLE.c ****     { 0x02u, 0x01u, 0x06u, 0x09u, 0x09u, 0x56u, 0x65u,
  75:Generated_Source\PSoC4/BLE.c ****     0x6Eu, 0x74u, 0x55u, 0x6Eu, 0x69u, 0x74u, 0x11u, 0x07u,
  76:Generated_Source\PSoC4/BLE.c ****     0xF0u, 0x34u, 0x9Bu, 0x5Fu, 0x80u, 0x00u, 0x00u, 0x80u,
  77:Generated_Source\PSoC4/BLE.c ****     0x00u, 0x10u, 0x00u, 0x00u, 0x12u, 0xBAu, 0x00u, 0x00u }, /* uint8 advertising_data[CYBLE_MAX_A
  78:Generated_Source\PSoC4/BLE.c ****     0x1Fu,      /* uint8 adv_data_length */
  79:Generated_Source\PSoC4/BLE.c **** };
  80:Generated_Source\PSoC4/BLE.c **** 
  81:Generated_Source\PSoC4/BLE.c **** CYBLE_GAPP_SCAN_RSP_DATA_T cyBle_scanRspData =
  82:Generated_Source\PSoC4/BLE.c **** {
  83:Generated_Source\PSoC4/BLE.c ****     { 0x00u, 0x00u, 0x00u, 0x00u, 0x00u, 0x00u, 0x00u,
  84:Generated_Source\PSoC4/BLE.c ****     0x00u, 0x00u, 0x00u, 0x00u, 0x00u, 0x00u, 0x00u, 0x00u,
  85:Generated_Source\PSoC4/BLE.c ****     0x00u, 0x00u, 0x00u, 0x00u, 0x00u, 0x00u, 0x00u, 0x00u,
  86:Generated_Source\PSoC4/BLE.c ****     0x00u, 0x00u, 0x00u, 0x00u, 0x00u, 0x00u, 0x00u, 0x00u }, /* uint8 scan_rsp_data[CYBLE_MAX_SCAN
ARM GAS  C:\Users\Sarah\AppData\Local\Temp\ccXRs73K.s 			page 5


  87:Generated_Source\PSoC4/BLE.c ****     0x00u,      /* uint8 scan_rsp_data_length */
  88:Generated_Source\PSoC4/BLE.c **** };
  89:Generated_Source\PSoC4/BLE.c **** 
  90:Generated_Source\PSoC4/BLE.c **** /* This variable of type CYBLE_GAPP_DISC_MODE_INFO_T is present only when 
  91:Generated_Source\PSoC4/BLE.c ****    the BLE component is configured for Peripheral GAP role or Central and 
  92:Generated_Source\PSoC4/BLE.c ****    Peripheral GAP role. It contains the Advertisement settings and also the 
  93:Generated_Source\PSoC4/BLE.c ****    Advertisement and Scan response data parameters entered in the customizer.
  94:Generated_Source\PSoC4/BLE.c ****    This variable can be used by advanced users to change Advertisement settings,
  95:Generated_Source\PSoC4/BLE.c ****    Advertisement or Scan response data in runtime. 
  96:Generated_Source\PSoC4/BLE.c **** */
  97:Generated_Source\PSoC4/BLE.c **** CYBLE_GAPP_DISC_MODE_INFO_T cyBle_discoveryModeInfo =
  98:Generated_Source\PSoC4/BLE.c **** {
  99:Generated_Source\PSoC4/BLE.c ****     0x02u,      /* uint8 discMode */
 100:Generated_Source\PSoC4/BLE.c ****     &cyBle_discoveryParam,
 101:Generated_Source\PSoC4/BLE.c ****     &cyBle_discoveryData,
 102:Generated_Source\PSoC4/BLE.c ****     &cyBle_scanRspData,
 103:Generated_Source\PSoC4/BLE.c ****     0x001Eu,    /* uint16 advTo */
 104:Generated_Source\PSoC4/BLE.c **** };
 105:Generated_Source\PSoC4/BLE.c **** 
 106:Generated_Source\PSoC4/BLE.c **** 
 107:Generated_Source\PSoC4/BLE.c **** #endif /* CYBLE_GAP_ROLE_PERIPHERAL || CYBLE_GAP_ROLE_BROADCASTER */
 108:Generated_Source\PSoC4/BLE.c **** 
 109:Generated_Source\PSoC4/BLE.c **** #if(CYBLE_GAP_ROLE_CENTRAL)
 110:Generated_Source\PSoC4/BLE.c ****     
 111:Generated_Source\PSoC4/BLE.c **** CYBLE_GAPC_CONN_PARAM_T cyBle_connectionParameters;
 112:Generated_Source\PSoC4/BLE.c **** 
 113:Generated_Source\PSoC4/BLE.c **** /* Connecting timeout is set to 30 seconds in CyBle_Init function. 
 114:Generated_Source\PSoC4/BLE.c ****    Not zero value starts timer in CyBle_GapcConnectDevice API.
 115:Generated_Source\PSoC4/BLE.c **** */
 116:Generated_Source\PSoC4/BLE.c **** uint16 cyBle_connectingTimeout;
 117:Generated_Source\PSoC4/BLE.c ****     
 118:Generated_Source\PSoC4/BLE.c **** #endif /* CYBLE_GAP_ROLE_CENTRAL */
 119:Generated_Source\PSoC4/BLE.c **** 
 120:Generated_Source\PSoC4/BLE.c **** #if(CYBLE_GAP_ROLE_CENTRAL || CYBLE_GAP_ROLE_OBSERVER)
 121:Generated_Source\PSoC4/BLE.c ****     
 122:Generated_Source\PSoC4/BLE.c **** 
 123:Generated_Source\PSoC4/BLE.c ****     
 124:Generated_Source\PSoC4/BLE.c **** #endif /* CYBLE_GAP_ROLE_CENTRAL || CYBLE_GAP_ROLE_OBSERVER */
 125:Generated_Source\PSoC4/BLE.c **** 
 126:Generated_Source\PSoC4/BLE.c **** #if((CYBLE_GAP_ROLE_PERIPHERAL || CYBLE_GAP_ROLE_CENTRAL) && (CYBLE_BONDING_REQUIREMENT == CYBLE_BO
 127:Generated_Source\PSoC4/BLE.c **** 
 128:Generated_Source\PSoC4/BLE.c **** uint8 cyBle_peerBonding;
 129:Generated_Source\PSoC4/BLE.c **** uint8 cyBle_pendingFlashWrite;
 130:Generated_Source\PSoC4/BLE.c ****     
 131:Generated_Source\PSoC4/BLE.c **** #if(CYBLE_GATT_DB_CCCD_COUNT != 0u)
 132:Generated_Source\PSoC4/BLE.c ****     static uint8 cyBle_pendingFlashClearCccdHandle;
 133:Generated_Source\PSoC4/BLE.c **** #endif /* CYBLE_GATT_DB_CCCD_COUNT != 0u */
 134:Generated_Source\PSoC4/BLE.c ****     
 135:Generated_Source\PSoC4/BLE.c **** #endif  /* (CYBLE_BONDING_REQUIREMENT == CYBLE_BONDING_YES) */
 136:Generated_Source\PSoC4/BLE.c **** 
 137:Generated_Source\PSoC4/BLE.c **** CYBLE_CALLBACK_T CyBle_ApplCallback;
 138:Generated_Source\PSoC4/BLE.c **** CYBLE_GAP_BD_ADDR_T cyBle_deviceAddress = {{0x13u, 0x23u, 0xCCu, 0x50u, 0xA0u, 0x00u}, 0x00u };
 139:Generated_Source\PSoC4/BLE.c **** CYBLE_GAP_BD_ADDR_T * cyBle_sflashDeviceAddress = CYBLE_SFLASH_DEVICE_ADDRESS_PTR;
 140:Generated_Source\PSoC4/BLE.c **** 
 141:Generated_Source\PSoC4/BLE.c **** 
 142:Generated_Source\PSoC4/BLE.c **** /******************************************************************************
 143:Generated_Source\PSoC4/BLE.c **** * Function Name: CyBle_Init
ARM GAS  C:\Users\Sarah\AppData\Local\Temp\ccXRs73K.s 			page 6


 144:Generated_Source\PSoC4/BLE.c **** ***************************************************************************//**
 145:Generated_Source\PSoC4/BLE.c **** *
 146:Generated_Source\PSoC4/BLE.c **** *   Initializes the component with the parameters set in the customizer.
 147:Generated_Source\PSoC4/BLE.c **** * 
 148:Generated_Source\PSoC4/BLE.c **** *  \return
 149:Generated_Source\PSoC4/BLE.c **** *   None
 150:Generated_Source\PSoC4/BLE.c **** * 
 151:Generated_Source\PSoC4/BLE.c **** ******************************************************************************/
 152:Generated_Source\PSoC4/BLE.c **** void CyBle_Init(void)
 153:Generated_Source\PSoC4/BLE.c **** {
 135              		.loc 1 153 0
 136              		.cfi_startproc
 137 0000 80B5     		push	{r7, lr}
 138              		.cfi_def_cfa_offset 8
 139              		.cfi_offset 7, -8
 140              		.cfi_offset 14, -4
 141 0002 00AF     		add	r7, sp, #0
 142              		.cfi_def_cfa_register 7
 154:Generated_Source\PSoC4/BLE.c ****     cyBle_eventHandlerFlag = 0u;
 143              		.loc 1 154 0
 144 0004 064B     		ldr	r3, .L2
 145 0006 0022     		mov	r2, #0
 146 0008 1A70     		strb	r2, [r3]
 155:Generated_Source\PSoC4/BLE.c ****     cyBle_busyStatus = CYBLE_STACK_STATE_FREE;
 147              		.loc 1 155 0
 148 000a 064B     		ldr	r3, .L2+4
 149 000c 0022     		mov	r2, #0
 150 000e 1A70     		strb	r2, [r3]
 156:Generated_Source\PSoC4/BLE.c **** 
 157:Generated_Source\PSoC4/BLE.c ****     #if(CYBLE_GAP_ROLE_PERIPHERAL || CYBLE_GAP_ROLE_BROADCASTER) 
 158:Generated_Source\PSoC4/BLE.c ****         cyBle_advertisingIntervalType = CYBLE_ADVERTISING_FAST; 
 151              		.loc 1 158 0
 152 0010 054B     		ldr	r3, .L2+8
 153 0012 0022     		mov	r2, #0
 154 0014 1A70     		strb	r2, [r3]
 159:Generated_Source\PSoC4/BLE.c ****     #endif /* (CYBLE_GAP_ROLE_PERIPHERAL || CYBLE_GAP_ROLE_BROADCASTER)  */
 160:Generated_Source\PSoC4/BLE.c ****     #if(CYBLE_GAP_ROLE_CENTRAL || CYBLE_GAP_ROLE_OBSERVER)
 161:Generated_Source\PSoC4/BLE.c ****         cyBle_scanningIntervalType = CYBLE_SCANNING_FAST; 
 162:Generated_Source\PSoC4/BLE.c ****     #endif /* (CYBLE_GAP_ROLE_CENTRAL || CYBLE_GAP_ROLE_OBSERVER) */
 163:Generated_Source\PSoC4/BLE.c ****         
 164:Generated_Source\PSoC4/BLE.c ****     /* Init default connection parameters. 
 165:Generated_Source\PSoC4/BLE.c ****        Application may change it before initiating a connection */
 166:Generated_Source\PSoC4/BLE.c ****     #if(CYBLE_GAP_ROLE_CENTRAL)
 167:Generated_Source\PSoC4/BLE.c ****         cyBle_connectionParameters.scanIntv = cyBle_discoveryInfo.scanIntv;
 168:Generated_Source\PSoC4/BLE.c ****         cyBle_connectionParameters.scanWindow = cyBle_discoveryInfo.scanWindow;
 169:Generated_Source\PSoC4/BLE.c ****         cyBle_connectionParameters.ownAddrType = cyBle_discoveryInfo.ownAddrType;
 170:Generated_Source\PSoC4/BLE.c ****         cyBle_connectionParameters.initiatorFilterPolicy = cyBle_discoveryInfo.scanFilterPolicy;
 171:Generated_Source\PSoC4/BLE.c ****         cyBle_connectionParameters.connIntvMin = CYBLE_GAPC_CONNECTION_INTERVAL_MIN;
 172:Generated_Source\PSoC4/BLE.c ****         cyBle_connectionParameters.connIntvMax = CYBLE_GAPC_CONNECTION_INTERVAL_MAX;
 173:Generated_Source\PSoC4/BLE.c ****         cyBle_connectionParameters.connLatency = CYBLE_GAPC_CONNECTION_SLAVE_LATENCY;
 174:Generated_Source\PSoC4/BLE.c ****         cyBle_connectionParameters.supervisionTO = CYBLE_GAPC_CONNECTION_TIME_OUT;
 175:Generated_Source\PSoC4/BLE.c ****         cyBle_connectionParameters.minCeLength = 0x0000u;
 176:Generated_Source\PSoC4/BLE.c ****         cyBle_connectionParameters.maxCeLength = 0xFFFFu;
 177:Generated_Source\PSoC4/BLE.c ****         
 178:Generated_Source\PSoC4/BLE.c ****         cyBle_connectingTimeout = CYBLE_GAPC_CONNECTING_TIMEOUT;
 179:Generated_Source\PSoC4/BLE.c ****     #endif /* CYBLE_GAP_ROLE_CENTRAL */
 180:Generated_Source\PSoC4/BLE.c **** 
ARM GAS  C:\Users\Sarah\AppData\Local\Temp\ccXRs73K.s 			page 7


 181:Generated_Source\PSoC4/BLE.c ****     CyBle_ServiceInit();
 155              		.loc 1 181 0
 156 0016 FFF7FEFF 		bl	CyBle_ServiceInit
 182:Generated_Source\PSoC4/BLE.c **** 
 183:Generated_Source\PSoC4/BLE.c ****     #if((CYBLE_GAP_ROLE_PERIPHERAL || CYBLE_GAP_ROLE_CENTRAL) && (CYBLE_BONDING_REQUIREMENT == CYBL
 184:Generated_Source\PSoC4/BLE.c ****         cyBle_pendingFlashWrite = 0u;
 185:Generated_Source\PSoC4/BLE.c ****         cyBle_peerBonding = CYBLE_GAP_BONDING_NONE;
 186:Generated_Source\PSoC4/BLE.c ****     #endif  /* (CYBLE_BONDING_REQUIREMENT == CYBLE_BONDING_YES) */
 187:Generated_Source\PSoC4/BLE.c **** 
 188:Generated_Source\PSoC4/BLE.c **** }
 157              		.loc 1 188 0
 158 001a BD46     		mov	sp, r7
 159              		@ sp needed
 160 001c 80BD     		pop	{r7, pc}
 161              	.L3:
 162 001e C046     		.align	2
 163              	.L2:
 164 0020 00000000 		.word	cyBle_eventHandlerFlag
 165 0024 00000000 		.word	cyBle_busyStatus
 166 0028 00000000 		.word	cyBle_advertisingIntervalType
 167              		.cfi_endproc
 168              	.LFE2:
 169              		.size	CyBle_Init, .-CyBle_Init
 170              		.section	.text.CyBle_ServiceInit,"ax",%progbits
 171              		.align	2
 172              		.global	CyBle_ServiceInit
 173              		.code	16
 174              		.thumb_func
 175              		.type	CyBle_ServiceInit, %function
 176              	CyBle_ServiceInit:
 177              	.LFB3:
 189:Generated_Source\PSoC4/BLE.c **** 
 190:Generated_Source\PSoC4/BLE.c **** 
 191:Generated_Source\PSoC4/BLE.c **** /******************************************************************************
 192:Generated_Source\PSoC4/BLE.c **** * Function Name: CyBle_ServiceInit
 193:Generated_Source\PSoC4/BLE.c **** ***************************************************************************//**
 194:Generated_Source\PSoC4/BLE.c **** * 
 195:Generated_Source\PSoC4/BLE.c **** *  Initializes all included services.
 196:Generated_Source\PSoC4/BLE.c **** * 
 197:Generated_Source\PSoC4/BLE.c **** * \return
 198:Generated_Source\PSoC4/BLE.c **** *  None
 199:Generated_Source\PSoC4/BLE.c **** * 
 200:Generated_Source\PSoC4/BLE.c **** ******************************************************************************/
 201:Generated_Source\PSoC4/BLE.c **** void CyBle_ServiceInit(void)
 202:Generated_Source\PSoC4/BLE.c **** {
 178              		.loc 1 202 0
 179              		.cfi_startproc
 180 0000 80B5     		push	{r7, lr}
 181              		.cfi_def_cfa_offset 8
 182              		.cfi_offset 7, -8
 183              		.cfi_offset 14, -4
 184 0002 00AF     		add	r7, sp, #0
 185              		.cfi_def_cfa_register 7
 203:Generated_Source\PSoC4/BLE.c ****     #if(CYBLE_GATT_ROLE_CLIENT)
 204:Generated_Source\PSoC4/BLE.c ****         /* Check service range before clearing to support partial discovery */
 205:Generated_Source\PSoC4/BLE.c ****         if(cyBle_serverInfo[CYBLE_SRVI_GAP].range.startHandle == CYBLE_GATT_INVALID_ATTR_HANDLE_VAL
 206:Generated_Source\PSoC4/BLE.c ****         {
ARM GAS  C:\Users\Sarah\AppData\Local\Temp\ccXRs73K.s 			page 8


 207:Generated_Source\PSoC4/BLE.c ****             (void)memset(&cyBle_gapc, 0, sizeof(cyBle_gapc));
 208:Generated_Source\PSoC4/BLE.c ****         }
 209:Generated_Source\PSoC4/BLE.c ****         if(cyBle_serverInfo[CYBLE_SRVI_GATT].range.startHandle == CYBLE_GATT_INVALID_ATTR_HANDLE_VA
 210:Generated_Source\PSoC4/BLE.c ****         {
 211:Generated_Source\PSoC4/BLE.c ****             (void)memset(&cyBle_gattc, 0, sizeof(cyBle_gattc));
 212:Generated_Source\PSoC4/BLE.c ****         }
 213:Generated_Source\PSoC4/BLE.c ****     #endif /* CYBLE_GATT_ROLE_CLIENT */
 214:Generated_Source\PSoC4/BLE.c **** 
 215:Generated_Source\PSoC4/BLE.c ****    	#ifdef CYBLE_AIOS
 216:Generated_Source\PSoC4/BLE.c ****         CyBle_AiosInit();
 217:Generated_Source\PSoC4/BLE.c ****     #endif /* CYBLE_AIOS */
 218:Generated_Source\PSoC4/BLE.c **** 
 219:Generated_Source\PSoC4/BLE.c **** 	#ifdef CYBLE_ANCS
 220:Generated_Source\PSoC4/BLE.c ****         CyBle_AncsInit();
 221:Generated_Source\PSoC4/BLE.c ****     #endif /* CYBLE_ANCS */
 222:Generated_Source\PSoC4/BLE.c **** 	
 223:Generated_Source\PSoC4/BLE.c ****     #ifdef CYBLE_ANS
 224:Generated_Source\PSoC4/BLE.c ****         CyBle_AnsInit();
 225:Generated_Source\PSoC4/BLE.c ****     #endif /* CYBLE_ANS */
 226:Generated_Source\PSoC4/BLE.c ****     
 227:Generated_Source\PSoC4/BLE.c ****     #ifdef CYBLE_BAS
 228:Generated_Source\PSoC4/BLE.c ****         CyBle_BasInit();
 229:Generated_Source\PSoC4/BLE.c ****     #endif /* CYBLE_BAS */
 230:Generated_Source\PSoC4/BLE.c ****     
 231:Generated_Source\PSoC4/BLE.c ****     #ifdef CYBLE_BCS
 232:Generated_Source\PSoC4/BLE.c ****         CyBle_BcsInit();
 233:Generated_Source\PSoC4/BLE.c ****     #endif /* CYBLE_BCS */
 234:Generated_Source\PSoC4/BLE.c **** 
 235:Generated_Source\PSoC4/BLE.c ****     #ifdef CYBLE_BLS
 236:Generated_Source\PSoC4/BLE.c ****         CyBle_BlsInit();
 237:Generated_Source\PSoC4/BLE.c ****     #endif /* CYBLE_BLS */
 238:Generated_Source\PSoC4/BLE.c ****     
 239:Generated_Source\PSoC4/BLE.c ****     #ifdef CYBLE_BMS
 240:Generated_Source\PSoC4/BLE.c ****         CyBle_BmsInit();
 241:Generated_Source\PSoC4/BLE.c ****     #endif /* CYBLE_BMS */
 242:Generated_Source\PSoC4/BLE.c ****     
 243:Generated_Source\PSoC4/BLE.c ****     #ifdef CYBLE_CGMS
 244:Generated_Source\PSoC4/BLE.c ****         CyBle_CgmsInit();
 245:Generated_Source\PSoC4/BLE.c ****     #endif /* CYBLE_CGMS */
 246:Generated_Source\PSoC4/BLE.c **** 
 247:Generated_Source\PSoC4/BLE.c ****     #ifdef CYBLE_CPS
 248:Generated_Source\PSoC4/BLE.c ****         CyBle_CpsInit();
 249:Generated_Source\PSoC4/BLE.c ****     #endif /* CYBLE_CPS */
 250:Generated_Source\PSoC4/BLE.c **** 
 251:Generated_Source\PSoC4/BLE.c ****     #ifdef CYBLE_CSCS
 252:Generated_Source\PSoC4/BLE.c ****         CyBle_CscsInit();
 253:Generated_Source\PSoC4/BLE.c ****     #endif /* CYBLE_CSCS */
 254:Generated_Source\PSoC4/BLE.c ****     
 255:Generated_Source\PSoC4/BLE.c ****     #ifdef CYBLE_CTS
 256:Generated_Source\PSoC4/BLE.c ****         CyBle_CtsInit();
 257:Generated_Source\PSoC4/BLE.c ****     #endif /* CYBLE_CTS */
 258:Generated_Source\PSoC4/BLE.c **** 
 259:Generated_Source\PSoC4/BLE.c ****     #ifdef CYBLE_CUSTOM
 260:Generated_Source\PSoC4/BLE.c ****         CyBle_CustomInit();
 186              		.loc 1 260 0
 187 0004 FFF7FEFF 		bl	CyBle_CustomInit
 261:Generated_Source\PSoC4/BLE.c ****     #endif /* CYBLE_CUSTOM */
ARM GAS  C:\Users\Sarah\AppData\Local\Temp\ccXRs73K.s 			page 9


 262:Generated_Source\PSoC4/BLE.c **** 
 263:Generated_Source\PSoC4/BLE.c ****     #ifdef CYBLE_DIS
 264:Generated_Source\PSoC4/BLE.c ****         CyBle_DisInit();
 265:Generated_Source\PSoC4/BLE.c ****     #endif /* CYBLE_DIS */
 266:Generated_Source\PSoC4/BLE.c **** 
 267:Generated_Source\PSoC4/BLE.c ****     #ifdef CYBLE_ESS
 268:Generated_Source\PSoC4/BLE.c ****         CyBle_EssInit();
 269:Generated_Source\PSoC4/BLE.c ****     #endif /* CYBLE_ESS */
 270:Generated_Source\PSoC4/BLE.c ****     
 271:Generated_Source\PSoC4/BLE.c ****     #ifdef CYBLE_GLS
 272:Generated_Source\PSoC4/BLE.c ****         CyBle_GlsInit();
 273:Generated_Source\PSoC4/BLE.c ****     #endif /* CYBLE_GLS */
 274:Generated_Source\PSoC4/BLE.c ****     
 275:Generated_Source\PSoC4/BLE.c ****     #ifdef CYBLE_HIDS
 276:Generated_Source\PSoC4/BLE.c ****         CyBle_HidsInit();
 277:Generated_Source\PSoC4/BLE.c ****     #endif /* CYBLE_HIDS */
 278:Generated_Source\PSoC4/BLE.c **** 
 279:Generated_Source\PSoC4/BLE.c ****     #ifdef CYBLE_HPS
 280:Generated_Source\PSoC4/BLE.c ****         CyBle_HpsInit();
 281:Generated_Source\PSoC4/BLE.c ****     #endif /* CYBLE_HPS */
 282:Generated_Source\PSoC4/BLE.c **** 
 283:Generated_Source\PSoC4/BLE.c ****     #ifdef CYBLE_HRS
 284:Generated_Source\PSoC4/BLE.c ****         CyBle_HrsInit();
 285:Generated_Source\PSoC4/BLE.c ****     #endif /* CYBLE_HRS */
 286:Generated_Source\PSoC4/BLE.c ****     
 287:Generated_Source\PSoC4/BLE.c ****     #ifdef CYBLE_HTS
 288:Generated_Source\PSoC4/BLE.c ****         CyBle_HtsInit();
 289:Generated_Source\PSoC4/BLE.c ****     #endif /* CYBLE_RSCS */
 290:Generated_Source\PSoC4/BLE.c **** 
 291:Generated_Source\PSoC4/BLE.c ****     #ifdef CYBLE_IAS
 292:Generated_Source\PSoC4/BLE.c ****         CyBle_IasInit();
 293:Generated_Source\PSoC4/BLE.c ****     #endif /* CYBLE_IAS */
 294:Generated_Source\PSoC4/BLE.c **** 
 295:Generated_Source\PSoC4/BLE.c ****     #ifdef CYBLE_IPS
 296:Generated_Source\PSoC4/BLE.c ****         CyBle_IpsInit();
 297:Generated_Source\PSoC4/BLE.c ****     #endif /* CYBLE_IPS */
 298:Generated_Source\PSoC4/BLE.c ****     
 299:Generated_Source\PSoC4/BLE.c ****     #ifdef CYBLE_LLS
 300:Generated_Source\PSoC4/BLE.c ****         CyBle_LlsInit();
 301:Generated_Source\PSoC4/BLE.c ****     #endif /* CYBLE_LLS */
 302:Generated_Source\PSoC4/BLE.c **** 
 303:Generated_Source\PSoC4/BLE.c ****     #ifdef CYBLE_LNS
 304:Generated_Source\PSoC4/BLE.c ****         CyBle_LnsInit();
 305:Generated_Source\PSoC4/BLE.c ****     #endif /* CYBLE_LNS */
 306:Generated_Source\PSoC4/BLE.c ****     
 307:Generated_Source\PSoC4/BLE.c ****     #ifdef CYBLE_NDCS
 308:Generated_Source\PSoC4/BLE.c ****         CyBle_NdcsInit();
 309:Generated_Source\PSoC4/BLE.c ****     #endif /* CYBLE_NDCS */
 310:Generated_Source\PSoC4/BLE.c ****     
 311:Generated_Source\PSoC4/BLE.c ****     #ifdef CYBLE_PASS
 312:Generated_Source\PSoC4/BLE.c ****         CyBle_PassInit();
 313:Generated_Source\PSoC4/BLE.c ****     #endif /* CYBLE_PASS */
 314:Generated_Source\PSoC4/BLE.c ****     
 315:Generated_Source\PSoC4/BLE.c ****     #ifdef CYBLE_PLXS
 316:Generated_Source\PSoC4/BLE.c ****         CyBle_PlxsInit();
 317:Generated_Source\PSoC4/BLE.c ****     #endif /* CYBLE_PLXS */
 318:Generated_Source\PSoC4/BLE.c ****     
ARM GAS  C:\Users\Sarah\AppData\Local\Temp\ccXRs73K.s 			page 10


 319:Generated_Source\PSoC4/BLE.c ****     #ifdef CYBLE_RSCS
 320:Generated_Source\PSoC4/BLE.c ****         CyBle_RscsInit();
 321:Generated_Source\PSoC4/BLE.c ****     #endif /* CYBLE_RSCS */
 322:Generated_Source\PSoC4/BLE.c **** 
 323:Generated_Source\PSoC4/BLE.c ****     #ifdef CYBLE_RTUS
 324:Generated_Source\PSoC4/BLE.c ****         CyBle_RtusInit();
 325:Generated_Source\PSoC4/BLE.c ****     #endif /* CYBLE_RTUS */
 326:Generated_Source\PSoC4/BLE.c **** 
 327:Generated_Source\PSoC4/BLE.c ****     #ifdef CYBLE_SCPS
 328:Generated_Source\PSoC4/BLE.c ****         CyBle_ScpsInit();
 329:Generated_Source\PSoC4/BLE.c ****     #endif /* CYBLE_SCPS */
 330:Generated_Source\PSoC4/BLE.c ****     
 331:Generated_Source\PSoC4/BLE.c ****     #ifdef CYBLE_TPS
 332:Generated_Source\PSoC4/BLE.c ****         CyBle_TpsInit();
 333:Generated_Source\PSoC4/BLE.c ****     #endif /* CYBLE_TPS */
 334:Generated_Source\PSoC4/BLE.c ****     
 335:Generated_Source\PSoC4/BLE.c ****     #ifdef CYBLE_UDS
 336:Generated_Source\PSoC4/BLE.c ****         CyBle_UdsInit();
 337:Generated_Source\PSoC4/BLE.c ****     #endif /* CYBLE_UDS */
 338:Generated_Source\PSoC4/BLE.c **** 
 339:Generated_Source\PSoC4/BLE.c ****     #ifdef CYBLE_WPTS
 340:Generated_Source\PSoC4/BLE.c ****         CyBle_WptsInit();
 341:Generated_Source\PSoC4/BLE.c ****     #endif /* CYBLE_WPTS */
 342:Generated_Source\PSoC4/BLE.c **** 
 343:Generated_Source\PSoC4/BLE.c ****     #ifdef CYBLE_WSS
 344:Generated_Source\PSoC4/BLE.c ****         CyBle_WssInit();
 345:Generated_Source\PSoC4/BLE.c ****     #endif /* CYBLE_WSS */
 346:Generated_Source\PSoC4/BLE.c **** }
 188              		.loc 1 346 0
 189 0008 BD46     		mov	sp, r7
 190              		@ sp needed
 191 000a 80BD     		pop	{r7, pc}
 192              		.cfi_endproc
 193              	.LFE3:
 194              		.size	CyBle_ServiceInit, .-CyBle_ServiceInit
 195              		.section	.rodata
 196              		.align	2
 197              	.LC0:
 198 0000 2400     		.short	36
 199 0002 03       		.byte	3
 200 0003 00       		.space	1
 201 0004 3000     		.short	48
 202 0006 01       		.byte	1
 203 0007 00       		.space	1
 204 0008 2800     		.short	40
 205 000a 02       		.byte	2
 206 000b 00       		.space	1
 207 000c 2400     		.short	36
 208 000e 01       		.byte	1
 209 000f 00       		.space	1
 210 0010 2400     		.short	36
 211 0012 01       		.byte	1
 212 0013 00       		.space	1
 213              		.section	.text.CyBle_Start,"ax",%progbits
 214              		.align	2
 215              		.global	CyBle_Start
 216              		.code	16
ARM GAS  C:\Users\Sarah\AppData\Local\Temp\ccXRs73K.s 			page 11


 217              		.thumb_func
 218              		.type	CyBle_Start, %function
 219              	CyBle_Start:
 220              	.LFB4:
 347:Generated_Source\PSoC4/BLE.c **** 
 348:Generated_Source\PSoC4/BLE.c **** 
 349:Generated_Source\PSoC4/BLE.c **** /******************************************************************************
 350:Generated_Source\PSoC4/BLE.c **** * Function Name: CyBle_Start
 351:Generated_Source\PSoC4/BLE.c **** ***************************************************************************//**
 352:Generated_Source\PSoC4/BLE.c **** * 
 353:Generated_Source\PSoC4/BLE.c **** *  This function initializes the BLE Stack, which consists of the BLE Stack 
 354:Generated_Source\PSoC4/BLE.c **** *  Manager, BLE Controller, and BLE Host modules. It takes care of initializing
 355:Generated_Source\PSoC4/BLE.c **** *  the Profile layer, schedulers, Timer and other platform related
 356:Generated_Source\PSoC4/BLE.c **** *  resources required for the BLE component. It also registers the callback 
 357:Generated_Source\PSoC4/BLE.c **** *  function for BLE events that will be registered in the BLE stack.
 358:Generated_Source\PSoC4/BLE.c **** * 
 359:Generated_Source\PSoC4/BLE.c **** *  Note that this function does not reset the BLE Stack.
 360:Generated_Source\PSoC4/BLE.c **** * 
 361:Generated_Source\PSoC4/BLE.c **** *  For HCI-Mode of operation, this function will not initialize the BLE Host 
 362:Generated_Source\PSoC4/BLE.c **** *  module.
 363:Generated_Source\PSoC4/BLE.c **** * 
 364:Generated_Source\PSoC4/BLE.c **** *  Calling this function results in the generation of CYBLE_EVT_STACK_ON event
 365:Generated_Source\PSoC4/BLE.c **** *  on successful initialization of the BLE Stack.
 366:Generated_Source\PSoC4/BLE.c **** * 
 367:Generated_Source\PSoC4/BLE.c **** *  \param callbackFunc: Event callback function to receive events from BLE stack.
 368:Generated_Source\PSoC4/BLE.c **** *   CYBLE_CALLBACK_T is a function pointer type.
 369:Generated_Source\PSoC4/BLE.c **** * 
 370:Generated_Source\PSoC4/BLE.c **** * \return
 371:Generated_Source\PSoC4/BLE.c **** *  CYBLE_API_RESULT_T : Return value indicates if the function succeeded or 
 372:Generated_Source\PSoC4/BLE.c **** *  failed. Following are the possible error codes.
 373:Generated_Source\PSoC4/BLE.c **** * 
 374:Generated_Source\PSoC4/BLE.c **** *   <table>
 375:Generated_Source\PSoC4/BLE.c **** *  	  <tr>
 376:Generated_Source\PSoC4/BLE.c **** *       <th>Error codes</th>
 377:Generated_Source\PSoC4/BLE.c **** *       <th>Description</th>
 378:Generated_Source\PSoC4/BLE.c **** *     </tr>
 379:Generated_Source\PSoC4/BLE.c **** *     <tr>
 380:Generated_Source\PSoC4/BLE.c **** *       <td>CYBLE_ERROR_OK</td>
 381:Generated_Source\PSoC4/BLE.c **** *       <td>On successful operation.</td>
 382:Generated_Source\PSoC4/BLE.c **** *     </tr>
 383:Generated_Source\PSoC4/BLE.c **** *     <tr>
 384:Generated_Source\PSoC4/BLE.c **** *       <td>CYBLE_ERROR_INVALID_PARAMETER</td>
 385:Generated_Source\PSoC4/BLE.c **** *       <td>On passing a NULL pointer to the function. 
 386:Generated_Source\PSoC4/BLE.c **** *		</td>
 387:Generated_Source\PSoC4/BLE.c **** *     </tr>
 388:Generated_Source\PSoC4/BLE.c **** *     <tr>
 389:Generated_Source\PSoC4/BLE.c **** *       <td>CYBLE_ERROR_REPEATED_ATTEMPTS</td>
 390:Generated_Source\PSoC4/BLE.c **** *       <td>On invoking this function more than once without calling CyBle_Shutdown() 
 391:Generated_Source\PSoC4/BLE.c **** *           function between calls to this function.</td>
 392:Generated_Source\PSoC4/BLE.c **** *     </tr>
 393:Generated_Source\PSoC4/BLE.c **** *     <tr>
 394:Generated_Source\PSoC4/BLE.c **** *       <td>CYBLE_ERROR_MEMORY_ALLOCATION_FAILED</td>
 395:Generated_Source\PSoC4/BLE.c **** *       <td>There is insufficient memory available.</td>
 396:Generated_Source\PSoC4/BLE.c **** *     </tr>
 397:Generated_Source\PSoC4/BLE.c **** *   </table>
 398:Generated_Source\PSoC4/BLE.c **** * 
 399:Generated_Source\PSoC4/BLE.c **** *  \globalvars
ARM GAS  C:\Users\Sarah\AppData\Local\Temp\ccXRs73K.s 			page 12


 400:Generated_Source\PSoC4/BLE.c **** *   The CyBle_initVar variable is used to indicate initial
 401:Generated_Source\PSoC4/BLE.c **** *   configuration of this component. The variable is initialized to zero (0u)
 402:Generated_Source\PSoC4/BLE.c **** *   and set to one (1u) the first time CyBle_Start() is called. This
 403:Generated_Source\PSoC4/BLE.c **** *   allows for component initialization without re-initialization in all
 404:Generated_Source\PSoC4/BLE.c **** *   subsequent calls to the CyBle_Start() routine.
 405:Generated_Source\PSoC4/BLE.c **** * 
 406:Generated_Source\PSoC4/BLE.c **** ******************************************************************************/
 407:Generated_Source\PSoC4/BLE.c **** CYBLE_API_RESULT_T CyBle_Start(CYBLE_CALLBACK_T callbackFunc)
 408:Generated_Source\PSoC4/BLE.c **** {
 221              		.loc 1 408 0
 222              		.cfi_startproc
 223 0000 B0B5     		push	{r4, r5, r7, lr}
 224              		.cfi_def_cfa_offset 16
 225              		.cfi_offset 4, -16
 226              		.cfi_offset 5, -12
 227              		.cfi_offset 7, -8
 228              		.cfi_offset 14, -4
 229 0002 94B0     		sub	sp, sp, #80
 230              		.cfi_def_cfa_offset 96
 231 0004 04AF     		add	r7, sp, #16
 232              		.cfi_def_cfa 7, 80
 233 0006 7860     		str	r0, [r7, #4]
 409:Generated_Source\PSoC4/BLE.c ****     CYBLE_API_RESULT_T apiResult = CYBLE_ERROR_OK;
 234              		.loc 1 409 0
 235 0008 3E23     		mov	r3, #62
 236 000a FB18     		add	r3, r7, r3
 237 000c 0022     		mov	r2, #0
 238 000e 1A80     		strh	r2, [r3]
 410:Generated_Source\PSoC4/BLE.c ****     
 411:Generated_Source\PSoC4/BLE.c ****     #if(CYBLE_MODE_PROFILE)
 412:Generated_Source\PSoC4/BLE.c ****     
 413:Generated_Source\PSoC4/BLE.c ****     CYBLE_STK_APP_DATA_BUFF_T cyBle_stackDataBuff[CYBLE_STACK_APP_MIN_POOL] = 
 239              		.loc 1 413 0
 240 0010 2823     		mov	r3, #40
 241 0012 FA18     		add	r2, r7, r3
 242 0014 3E4B     		ldr	r3, .L12
 243 0016 111C     		mov	r1, r2
 244 0018 1A1C     		mov	r2, r3
 245 001a 1423     		mov	r3, #20
 246 001c 081C     		mov	r0, r1
 247 001e 111C     		mov	r1, r2
 248 0020 1A1C     		mov	r2, r3
 249 0022 FFF7FEFF 		bl	memcpy
 414:Generated_Source\PSoC4/BLE.c ****     {
 415:Generated_Source\PSoC4/BLE.c ****         {CYBLE_GATT_MTU_PLUS_L2CAP_MEM_EXT, CYBLE_GATT_MTU_BUFF_COUNT + CYBLE_GATT_MAX_ATTR_BUFF_CO
 416:Generated_Source\PSoC4/BLE.c ****         {CYBLE_L2CAP_PSM_PLUS_L2CAP_MEM_EXT, CYBLE_L2CAP_PSM_COUNT},
 417:Generated_Source\PSoC4/BLE.c ****         {CYBLE_L2CAP_CBFC_PLUS_L2CAP_MEM_EXT, 2u * CYBLE_L2CAP_LOGICAL_CHANNEL_COUNT},
 418:Generated_Source\PSoC4/BLE.c ****         {CYBLE_L2CAP_MTU_PLUS_L2CAP_MEM_EXT, CYBLE_L2CAP_LOGICAL_CHANNEL_COUNT},
 419:Generated_Source\PSoC4/BLE.c ****         {CYBLE_L2CAP_MPS_PLUS_L2CAP_MEM_EXT, CYBLE_L2CAP_LOGICAL_CHANNEL_COUNT * (CYBLE_L2CAP_MTU_M
 420:Generated_Source\PSoC4/BLE.c ****     }; 
 421:Generated_Source\PSoC4/BLE.c **** 
 422:Generated_Source\PSoC4/BLE.c ****     #endif /* CYBLE_MODE_PROFILE */
 423:Generated_Source\PSoC4/BLE.c ****     
 424:Generated_Source\PSoC4/BLE.c ****     /* If not initialized then initialize all the required hardware and software */
 425:Generated_Source\PSoC4/BLE.c ****     if(cyBle_initVar == 0u)
 250              		.loc 1 425 0
 251 0026 3B4B     		ldr	r3, .L12+4
ARM GAS  C:\Users\Sarah\AppData\Local\Temp\ccXRs73K.s 			page 13


 252 0028 1B78     		ldrb	r3, [r3]
 253 002a 002B     		cmp	r3, #0
 254 002c 04D1     		bne	.L6
 426:Generated_Source\PSoC4/BLE.c ****     {
 427:Generated_Source\PSoC4/BLE.c ****         CyBle_Init();
 255              		.loc 1 427 0
 256 002e FFF7FEFF 		bl	CyBle_Init
 428:Generated_Source\PSoC4/BLE.c ****         cyBle_initVar = 1u;
 257              		.loc 1 428 0
 258 0032 384B     		ldr	r3, .L12+4
 259 0034 0122     		mov	r2, #1
 260 0036 1A70     		strb	r2, [r3]
 261              	.L6:
 429:Generated_Source\PSoC4/BLE.c ****     }
 430:Generated_Source\PSoC4/BLE.c ****     
 431:Generated_Source\PSoC4/BLE.c ****     if(callbackFunc != NULL)
 262              		.loc 1 431 0
 263 0038 7B68     		ldr	r3, [r7, #4]
 264 003a 002B     		cmp	r3, #0
 265 003c 5CD0     		beq	.L7
 432:Generated_Source\PSoC4/BLE.c ****     {
 433:Generated_Source\PSoC4/BLE.c ****         CyBle_ApplCallback = callbackFunc;
 266              		.loc 1 433 0
 267 003e 364B     		ldr	r3, .L12+8
 268 0040 7A68     		ldr	r2, [r7, #4]
 269 0042 1A60     		str	r2, [r3]
 434:Generated_Source\PSoC4/BLE.c ****         
 435:Generated_Source\PSoC4/BLE.c ****     #if(CYBLE_SHARING_MODE_EXPORT)
 436:Generated_Source\PSoC4/BLE.c ****         if(cyBle_stackMemoryRam == NULL)
 437:Generated_Source\PSoC4/BLE.c ****         {
 438:Generated_Source\PSoC4/BLE.c ****             cyBle_stackMemoryRam = (uint8 *)malloc(CYBLE_STACK_RAM_SIZE);
 439:Generated_Source\PSoC4/BLE.c ****             if(cyBle_stackMemoryRam == NULL)
 440:Generated_Source\PSoC4/BLE.c ****             {
 441:Generated_Source\PSoC4/BLE.c ****                 apiResult = CYBLE_ERROR_MEMORY_ALLOCATION_FAILED;
 442:Generated_Source\PSoC4/BLE.c ****             }
 443:Generated_Source\PSoC4/BLE.c ****         }
 444:Generated_Source\PSoC4/BLE.c ****     #endif /* CYBLE_SHARING_MODE_EXPORT */
 445:Generated_Source\PSoC4/BLE.c ****         if(apiResult == CYBLE_ERROR_OK)
 270              		.loc 1 445 0
 271 0044 3E23     		mov	r3, #62
 272 0046 FB18     		add	r3, r7, r3
 273 0048 1B88     		ldrh	r3, [r3]
 274 004a 002B     		cmp	r3, #0
 275 004c 29D1     		bne	.L8
 276              	.LBB2:
 446:Generated_Source\PSoC4/BLE.c ****         {
 447:Generated_Source\PSoC4/BLE.c ****             CYBLE_DLE_CONFIG_PARAM_T dleConfigParams;
 448:Generated_Source\PSoC4/BLE.c ****             CYBLE_PRIVACY_1_2_CONFIG_PARAM_T privacyConfigParams;
 449:Generated_Source\PSoC4/BLE.c ****             CYBLE_STACK_CONFIG_PARAM_T stackConfig;
 450:Generated_Source\PSoC4/BLE.c ****             uint16 featureHeapReq;
 451:Generated_Source\PSoC4/BLE.c ****             
 452:Generated_Source\PSoC4/BLE.c ****             stackConfig.privacyConfig = &privacyConfigParams;
 277              		.loc 1 452 0
 278 004e 1023     		mov	r3, #16
 279 0050 FB18     		add	r3, r7, r3
 280 0052 1C22     		mov	r2, #28
 281 0054 BA18     		add	r2, r7, r2
ARM GAS  C:\Users\Sarah\AppData\Local\Temp\ccXRs73K.s 			page 14


 282 0056 5A60     		str	r2, [r3, #4]
 453:Generated_Source\PSoC4/BLE.c ****             stackConfig.dleConfig = &dleConfigParams;
 283              		.loc 1 453 0
 284 0058 1023     		mov	r3, #16
 285 005a FB18     		add	r3, r7, r3
 286 005c 2022     		mov	r2, #32
 287 005e BA18     		add	r2, r7, r2
 288 0060 1A60     		str	r2, [r3]
 454:Generated_Source\PSoC4/BLE.c ****             
 455:Generated_Source\PSoC4/BLE.c ****             /* Configure default BLE 4.1 features and enabled 4.2 features */
 456:Generated_Source\PSoC4/BLE.c ****             stackConfig.feature_mask = CYBLE_DLE_FEATURE | CYBLE_LL_PRIVACY_FEATURE | 
 289              		.loc 1 456 0
 290 0062 1023     		mov	r3, #16
 291 0064 FB18     		add	r3, r7, r3
 292 0066 0022     		mov	r2, #0
 293 0068 1A81     		strh	r2, [r3, #8]
 457:Generated_Source\PSoC4/BLE.c ****                                        CYBLE_SECURE_CONN_FEATURE;
 458:Generated_Source\PSoC4/BLE.c **** 
 459:Generated_Source\PSoC4/BLE.c ****             /* Configure DLE */
 460:Generated_Source\PSoC4/BLE.c ****             dleConfigParams.dleMaxTxCapability = CYBLE_LL_MAX_TX_PAYLOAD_SIZE;
 294              		.loc 1 460 0
 295 006a 2023     		mov	r3, #32
 296 006c FB18     		add	r3, r7, r3
 297 006e 1B22     		mov	r2, #27
 298 0070 1A80     		strh	r2, [r3]
 461:Generated_Source\PSoC4/BLE.c ****             dleConfigParams.dleMaxRxCapability = CYBLE_LL_MAX_RX_PAYLOAD_SIZE;
 299              		.loc 1 461 0
 300 0072 2023     		mov	r3, #32
 301 0074 FB18     		add	r3, r7, r3
 302 0076 1B22     		mov	r2, #27
 303 0078 5A80     		strh	r2, [r3, #2]
 462:Generated_Source\PSoC4/BLE.c ****             dleConfigParams.dleNumTxBuffer = CYBLE_LL_DEFAULT_NUM_ACL_TX_PACKETS;
 304              		.loc 1 462 0
 305 007a 2023     		mov	r3, #32
 306 007c FB18     		add	r3, r7, r3
 307 007e 0422     		mov	r2, #4
 308 0080 1A71     		strb	r2, [r3, #4]
 463:Generated_Source\PSoC4/BLE.c ****         #if(CYBLE_DLE_FEATURE_ENABLED)
 464:Generated_Source\PSoC4/BLE.c ****             CyBle_EnableDleFeature();              /* Enable DLE code in stack */
 465:Generated_Source\PSoC4/BLE.c ****         #endif /* CYBLE_DLE_FEATURE_ENABLED */
 466:Generated_Source\PSoC4/BLE.c ****         
 467:Generated_Source\PSoC4/BLE.c ****             /* Configure LL Privacy */
 468:Generated_Source\PSoC4/BLE.c ****             privacyConfigParams.resolvingListSize = CYBLE_MAX_RESOLVABLE_DEVICES;
 309              		.loc 1 468 0
 310 0082 1C23     		mov	r3, #28
 311 0084 FB18     		add	r3, r7, r3
 312 0086 0822     		mov	r2, #8
 313 0088 1A70     		strb	r2, [r3]
 469:Generated_Source\PSoC4/BLE.c ****         #if(CYBLE_LL_PRIVACY_FEATURE_ENABLED)
 470:Generated_Source\PSoC4/BLE.c ****             CyBle_EnablePrivacyFeature();          /* Enable LL Privacy code in stack */
 471:Generated_Source\PSoC4/BLE.c ****         #endif /* CYBLE_LL_PRIVACY_FEATURE_ENABLED */
 472:Generated_Source\PSoC4/BLE.c **** 
 473:Generated_Source\PSoC4/BLE.c ****             apiResult = CyBle_StackSetFeatureConfig(&stackConfig, &featureHeapReq);
 314              		.loc 1 473 0
 315 008a 3E23     		mov	r3, #62
 316 008c FC18     		add	r4, r7, r3
 317 008e 1023     		mov	r3, #16
ARM GAS  C:\Users\Sarah\AppData\Local\Temp\ccXRs73K.s 			page 15


 318 0090 FA18     		add	r2, r7, r3
 319 0092 0E23     		mov	r3, #14
 320 0094 FB18     		add	r3, r7, r3
 321 0096 101C     		mov	r0, r2
 322 0098 191C     		mov	r1, r3
 323 009a FFF7FEFF 		bl	CyBle_StackSetFeatureConfig
 324 009e 031C     		mov	r3, r0
 325 00a0 2380     		strh	r3, [r4]
 326              	.L8:
 327              	.LBE2:
 474:Generated_Source\PSoC4/BLE.c ****             }
 475:Generated_Source\PSoC4/BLE.c ****     
 476:Generated_Source\PSoC4/BLE.c ****         if(apiResult == CYBLE_ERROR_OK)
 328              		.loc 1 476 0
 329 00a2 3E23     		mov	r3, #62
 330 00a4 FB18     		add	r3, r7, r3
 331 00a6 1B88     		ldrh	r3, [r3]
 332 00a8 002B     		cmp	r3, #0
 333 00aa 29D1     		bne	.L10
 477:Generated_Source\PSoC4/BLE.c ****         {
 478:Generated_Source\PSoC4/BLE.c ****         
 479:Generated_Source\PSoC4/BLE.c ****         #if(CYBLE_MODE_PROFILE)
 480:Generated_Source\PSoC4/BLE.c ****             #if(CYBLE_BONDING_REQUIREMENT == CYBLE_BONDING_YES)
 481:Generated_Source\PSoC4/BLE.c ****                 apiResult = CyBle_StackInit(&CyBle_EventHandler, cyBle_stackMemoryRam, 
 482:Generated_Source\PSoC4/BLE.c ****                     CYBLE_STACK_RAM_SIZE - CYBLE_GATT_PREPARE_WRITE_BUFF_LEN, cyBle_stackDataBuff, 
 483:Generated_Source\PSoC4/BLE.c ****                     CYBLE_STACK_APP_MIN_POOL, cyBle_flashStorage.stackFlashptr, CYBLE_STACK_FLASH_S
 484:Generated_Source\PSoC4/BLE.c ****             #else
 485:Generated_Source\PSoC4/BLE.c ****                 apiResult = CyBle_StackInit(&CyBle_EventHandler, cyBle_stackMemoryRam, 
 334              		.loc 1 485 0
 335 00ac 3E23     		mov	r3, #62
 336 00ae FC18     		add	r4, r7, r3
 337 00b0 1A48     		ldr	r0, .L12+12
 338 00b2 1B49     		ldr	r1, .L12+16
 339 00b4 AE23     		mov	r3, #174
 340 00b6 1A01     		lsl	r2, r3, #4
 341 00b8 2823     		mov	r3, #40
 342 00ba FD18     		add	r5, r7, r3
 343 00bc 0523     		mov	r3, #5
 344 00be 0093     		str	r3, [sp]
 345 00c0 0023     		mov	r3, #0
 346 00c2 0193     		str	r3, [sp, #4]
 347 00c4 0023     		mov	r3, #0
 348 00c6 0293     		str	r3, [sp, #8]
 349 00c8 2B1C     		mov	r3, r5
 350 00ca FFF7FEFF 		bl	CyBle_StackInit
 351 00ce 031C     		mov	r3, r0
 352 00d0 2380     		strh	r3, [r4]
 486:Generated_Source\PSoC4/BLE.c ****                     CYBLE_STACK_RAM_SIZE - CYBLE_GATT_PREPARE_WRITE_BUFF_LEN, cyBle_stackDataBuff, 
 487:Generated_Source\PSoC4/BLE.c ****                     CYBLE_STACK_APP_MIN_POOL, NULL, 0u);
 488:Generated_Source\PSoC4/BLE.c ****             #endif  /* CYBLE_BONDING_REQUIREMENT == CYBLE_BONDING_YES */
 489:Generated_Source\PSoC4/BLE.c ****         #else /* HCI mode */
 490:Generated_Source\PSoC4/BLE.c ****             /* The following will perform preparation to use HCI over UART or over
 491:Generated_Source\PSoC4/BLE.c ****                software. But the following fucntions will not initialize the HCI
 492:Generated_Source\PSoC4/BLE.c ****                Transport. This will be done as part of Stack initialization, so
 493:Generated_Source\PSoC4/BLE.c ****                the functions should be called prior CyBle_StackInit().
 494:Generated_Source\PSoC4/BLE.c ****             */
 495:Generated_Source\PSoC4/BLE.c ****             #if (CYBLE_HCI_TYPE == CYBLE_HCI_OVER_UART)
ARM GAS  C:\Users\Sarah\AppData\Local\Temp\ccXRs73K.s 			page 16


 496:Generated_Source\PSoC4/BLE.c ****                 CyBle_HciUartTransportEnable();
 497:Generated_Source\PSoC4/BLE.c ****             #else
 498:Generated_Source\PSoC4/BLE.c ****                 CyBle_HciSoftTransportEnable();
 499:Generated_Source\PSoC4/BLE.c ****             #endif /* (CYBLE_HCI_TYPE == CYBLE_HCI_OVER_UART) */
 500:Generated_Source\PSoC4/BLE.c ****             /* This will initialize BLE stack for HCI mode operation */
 501:Generated_Source\PSoC4/BLE.c ****             apiResult = CyBle_StackInit(&CyBle_EventHandler, cyBle_stackMemoryRam, CYBLE_STACK_RAM_
 502:Generated_Source\PSoC4/BLE.c ****                 NULL, 0u, NULL, 0u);
 503:Generated_Source\PSoC4/BLE.c ****         #endif /* CYBLE_MODE_PROFILE */
 504:Generated_Source\PSoC4/BLE.c **** 
 505:Generated_Source\PSoC4/BLE.c ****             if(apiResult == CYBLE_ERROR_OK)
 353              		.loc 1 505 0
 354 00d2 3E23     		mov	r3, #62
 355 00d4 FB18     		add	r3, r7, r3
 356 00d6 1B88     		ldrh	r3, [r3]
 357 00d8 002B     		cmp	r3, #0
 358 00da 11D1     		bne	.L10
 506:Generated_Source\PSoC4/BLE.c ****             {
 507:Generated_Source\PSoC4/BLE.c ****                 CyBle_SetState(CYBLE_STATE_INITIALIZING);
 359              		.loc 1 507 0
 360 00dc 114B     		ldr	r3, .L12+20
 361 00de 0122     		mov	r2, #1
 362 00e0 1A70     		strb	r2, [r3]
 508:Generated_Source\PSoC4/BLE.c ****                 
 509:Generated_Source\PSoC4/BLE.c ****             #if (CYBLE_GATT_ROLE_CLIENT)
 510:Generated_Source\PSoC4/BLE.c ****                 CyBle_SetClientState(CYBLE_CLIENT_STATE_DISCONNECTED);
 511:Generated_Source\PSoC4/BLE.c ****             #endif /* CYBLE_GATT_ROLE_CLIENT */
 512:Generated_Source\PSoC4/BLE.c ****                 
 513:Generated_Source\PSoC4/BLE.c ****             #if(CYBLE_GATT_ROLE_SERVER)
 514:Generated_Source\PSoC4/BLE.c ****                 apiResult = CyBle_GattsDbRegister(cyBle_gattDB, CYBLE_GATT_DB_INDEX_COUNT, CYBLE_GA
 363              		.loc 1 514 0
 364 00e2 3E23     		mov	r3, #62
 365 00e4 FC18     		add	r4, r7, r3
 366 00e6 104B     		ldr	r3, .L12+24
 367 00e8 181C     		mov	r0, r3
 368 00ea 1621     		mov	r1, #22
 369 00ec 0E22     		mov	r2, #14
 370 00ee FFF7FEFF 		bl	CyBle_GattsDbRegister
 371 00f2 031C     		mov	r3, r0
 372 00f4 2380     		strh	r3, [r4]
 373 00f6 03E0     		b	.L10
 374              	.L7:
 515:Generated_Source\PSoC4/BLE.c ****             #endif /* CYBLE_GATT_ROLE_SERVER */
 516:Generated_Source\PSoC4/BLE.c ****             }
 517:Generated_Source\PSoC4/BLE.c ****         }
 518:Generated_Source\PSoC4/BLE.c ****     }
 519:Generated_Source\PSoC4/BLE.c ****     else
 520:Generated_Source\PSoC4/BLE.c ****     {
 521:Generated_Source\PSoC4/BLE.c ****         apiResult = CYBLE_ERROR_INVALID_PARAMETER;
 375              		.loc 1 521 0
 376 00f8 3E23     		mov	r3, #62
 377 00fa FB18     		add	r3, r7, r3
 378 00fc 0122     		mov	r2, #1
 379 00fe 1A80     		strh	r2, [r3]
 380              	.L10:
 522:Generated_Source\PSoC4/BLE.c ****     }
 523:Generated_Source\PSoC4/BLE.c **** 
 524:Generated_Source\PSoC4/BLE.c ****     return (apiResult);
ARM GAS  C:\Users\Sarah\AppData\Local\Temp\ccXRs73K.s 			page 17


 381              		.loc 1 524 0
 382 0100 3E23     		mov	r3, #62
 383 0102 FB18     		add	r3, r7, r3
 384 0104 1B88     		ldrh	r3, [r3]
 525:Generated_Source\PSoC4/BLE.c **** }
 385              		.loc 1 525 0
 386 0106 181C     		mov	r0, r3
 387 0108 BD46     		mov	sp, r7
 388 010a 10B0     		add	sp, sp, #64
 389              		@ sp needed
 390 010c B0BD     		pop	{r4, r5, r7, pc}
 391              	.L13:
 392 010e C046     		.align	2
 393              	.L12:
 394 0110 00000000 		.word	.LC0
 395 0114 00000000 		.word	cyBle_initVar
 396 0118 00000000 		.word	CyBle_ApplCallback
 397 011c 00000000 		.word	CyBle_EventHandler
 398 0120 00000000 		.word	cyBle_stackMemoryRam
 399 0124 00000000 		.word	cyBle_state
 400 0128 00000000 		.word	cyBle_gattDB
 401              		.cfi_endproc
 402              	.LFE4:
 403              		.size	CyBle_Start, .-CyBle_Start
 404              		.section	.text.CyBle_Stop,"ax",%progbits
 405              		.align	2
 406              		.global	CyBle_Stop
 407              		.code	16
 408              		.thumb_func
 409              		.type	CyBle_Stop, %function
 410              	CyBle_Stop:
 411              	.LFB5:
 526:Generated_Source\PSoC4/BLE.c **** 
 527:Generated_Source\PSoC4/BLE.c **** 
 528:Generated_Source\PSoC4/BLE.c **** /******************************************************************************
 529:Generated_Source\PSoC4/BLE.c **** * Function Name: CyBle_Stop
 530:Generated_Source\PSoC4/BLE.c **** ***************************************************************************//**
 531:Generated_Source\PSoC4/BLE.c **** * 
 532:Generated_Source\PSoC4/BLE.c **** *  This function stops any ongoing operation in the BLE Stack and forces the 
 533:Generated_Source\PSoC4/BLE.c **** *  BLE Stack to shut down. The only function that can be called after calling
 534:Generated_Source\PSoC4/BLE.c **** *  this function is CyBle_Start(). 
 535:Generated_Source\PSoC4/BLE.c **** * 
 536:Generated_Source\PSoC4/BLE.c **** * \return
 537:Generated_Source\PSoC4/BLE.c **** *  None
 538:Generated_Source\PSoC4/BLE.c **** * 
 539:Generated_Source\PSoC4/BLE.c **** ******************************************************************************/
 540:Generated_Source\PSoC4/BLE.c **** void CyBle_Stop(void)
 541:Generated_Source\PSoC4/BLE.c **** {
 412              		.loc 1 541 0
 413              		.cfi_startproc
 414 0000 80B5     		push	{r7, lr}
 415              		.cfi_def_cfa_offset 8
 416              		.cfi_offset 7, -8
 417              		.cfi_offset 14, -4
 418 0002 00AF     		add	r7, sp, #0
 419              		.cfi_def_cfa_register 7
 542:Generated_Source\PSoC4/BLE.c ****     CyBle_Shutdown();                         /* Stop all ongoing activities */
ARM GAS  C:\Users\Sarah\AppData\Local\Temp\ccXRs73K.s 			page 18


 420              		.loc 1 542 0
 421 0004 FFF7FEFF 		bl	CyBle_Shutdown
 543:Generated_Source\PSoC4/BLE.c ****     CyBle_SetState(CYBLE_STATE_STOPPED);
 422              		.loc 1 543 0
 423 0008 024B     		ldr	r3, .L15
 424 000a 0022     		mov	r2, #0
 425 000c 1A70     		strb	r2, [r3]
 544:Generated_Source\PSoC4/BLE.c ****     #if(CYBLE_SHARING_MODE_EXPORT)
 545:Generated_Source\PSoC4/BLE.c ****         if(cyBle_stackMemoryRam != NULL)
 546:Generated_Source\PSoC4/BLE.c ****         {
 547:Generated_Source\PSoC4/BLE.c ****             free(cyBle_stackMemoryRam);
 548:Generated_Source\PSoC4/BLE.c ****         }
 549:Generated_Source\PSoC4/BLE.c ****     #endif /* CYBLE_SHARING_MODE_EXPORT */
 550:Generated_Source\PSoC4/BLE.c **** }
 426              		.loc 1 550 0
 427 000e BD46     		mov	sp, r7
 428              		@ sp needed
 429 0010 80BD     		pop	{r7, pc}
 430              	.L16:
 431 0012 C046     		.align	2
 432              	.L15:
 433 0014 00000000 		.word	cyBle_state
 434              		.cfi_endproc
 435              	.LFE5:
 436              		.size	CyBle_Stop, .-CyBle_Stop
 437              		.section	.text.CyBle_GappStartAdvertisement,"ax",%progbits
 438              		.align	2
 439              		.global	CyBle_GappStartAdvertisement
 440              		.code	16
 441              		.thumb_func
 442              		.type	CyBle_GappStartAdvertisement, %function
 443              	CyBle_GappStartAdvertisement:
 444              	.LFB6:
 551:Generated_Source\PSoC4/BLE.c **** 
 552:Generated_Source\PSoC4/BLE.c **** 
 553:Generated_Source\PSoC4/BLE.c **** #if((CYBLE_GAP_ROLE_PERIPHERAL || CYBLE_GAP_ROLE_CENTRAL) && (CYBLE_BONDING_REQUIREMENT == CYBLE_BO
 554:Generated_Source\PSoC4/BLE.c **** 
 555:Generated_Source\PSoC4/BLE.c ****     
 556:Generated_Source\PSoC4/BLE.c **** /******************************************************************************
 557:Generated_Source\PSoC4/BLE.c **** * Function Name: CyBle_StoreBondingData
 558:Generated_Source\PSoC4/BLE.c **** ***************************************************************************//**
 559:Generated_Source\PSoC4/BLE.c **** * 
 560:Generated_Source\PSoC4/BLE.c **** *  This function writes the new bonding data from RAM to the dedicated Flash 
 561:Generated_Source\PSoC4/BLE.c **** *  location as defined by the component. It performs data comparing between RAM
 562:Generated_Source\PSoC4/BLE.c **** *  and Flash before writing to Flash. If there is no change between RAM and Flash
 563:Generated_Source\PSoC4/BLE.c **** *  data, then no write is performed. It writes only one flash row in one call.
 564:Generated_Source\PSoC4/BLE.c **** *  Application should keep calling this function till API return CYBLE_ERROR_OK. 
 565:Generated_Source\PSoC4/BLE.c **** *  This function is available only when Bonding requirement is selected in
 566:Generated_Source\PSoC4/BLE.c **** *  Security settings.    
 567:Generated_Source\PSoC4/BLE.c **** * 
 568:Generated_Source\PSoC4/BLE.c **** *  \param isForceWrite:  If value is set to 0, then stack will check if flash write 
 569:Generated_Source\PSoC4/BLE.c **** *                 is permissible. 
 570:Generated_Source\PSoC4/BLE.c **** *  
 571:Generated_Source\PSoC4/BLE.c **** * \return
 572:Generated_Source\PSoC4/BLE.c **** *  Return value is of type CYBLE_API_RESULT_T.
 573:Generated_Source\PSoC4/BLE.c **** *
 574:Generated_Source\PSoC4/BLE.c **** *   Errors codes                         | Description
ARM GAS  C:\Users\Sarah\AppData\Local\Temp\ccXRs73K.s 			page 19


 575:Generated_Source\PSoC4/BLE.c **** *   ----------------------------------   | ------------------------------------
 576:Generated_Source\PSoC4/BLE.c **** *   CYBLE_ERROR_OK                       | On successful operation
 577:Generated_Source\PSoC4/BLE.c **** *   CYBLE_ERROR_FLASH_WRITE_NOT_PERMITED | Flash Write is not complete
 578:Generated_Source\PSoC4/BLE.c **** *   CYBLE_ERROR_INVALID_PARAMETER        | Invalid input parameter  
 579:Generated_Source\PSoC4/BLE.c **** *   CYBLE_ERROR_FLASH_WRITE              | Error in flash Write	
 580:Generated_Source\PSoC4/BLE.c ****     
 581:Generated_Source\PSoC4/BLE.c **** *  \sideeffect
 582:Generated_Source\PSoC4/BLE.c **** *   For BLE devices with 128K of Flash memory this API will automatically 
 583:Generated_Source\PSoC4/BLE.c **** *   modify the clock settings for the device.
 584:Generated_Source\PSoC4/BLE.c **** *   Writing to flash requires changes to be done to the IMO (set to 48 MHz)
 585:Generated_Source\PSoC4/BLE.c **** *   and HFCLK (source set to IMO) settings. The configuration is restored before
 586:Generated_Source\PSoC4/BLE.c **** *   returning. This will impact the operation of most of the hardware in the
 587:Generated_Source\PSoC4/BLE.c **** *   device.
 588:Generated_Source\PSoC4/BLE.c **** * 
 589:Generated_Source\PSoC4/BLE.c **** *  \globalvars
 590:Generated_Source\PSoC4/BLE.c **** *   The cyBle_pendingFlashWrite variable is used to detect status
 591:Generated_Source\PSoC4/BLE.c **** *   of pending write to flash operation for stack data and CCCD.
 592:Generated_Source\PSoC4/BLE.c **** *   This API automatically clears pending bits after write operation complete.
 593:Generated_Source\PSoC4/BLE.c **** *     
 594:Generated_Source\PSoC4/BLE.c **** ******************************************************************************/
 595:Generated_Source\PSoC4/BLE.c **** CYBLE_API_RESULT_T CyBle_StoreBondingData(uint8 isForceWrite)
 596:Generated_Source\PSoC4/BLE.c **** {
 597:Generated_Source\PSoC4/BLE.c ****     CYBLE_API_RESULT_T apiResult = CYBLE_ERROR_OK;
 598:Generated_Source\PSoC4/BLE.c ****     
 599:Generated_Source\PSoC4/BLE.c ****     /* Store Stack data */
 600:Generated_Source\PSoC4/BLE.c ****     if((cyBle_pendingFlashWrite & CYBLE_PENDING_STACK_FLASH_WRITE_BIT) != 0u)
 601:Generated_Source\PSoC4/BLE.c ****     {
 602:Generated_Source\PSoC4/BLE.c ****         apiResult = CyBle_StoreStackData(isForceWrite);
 603:Generated_Source\PSoC4/BLE.c ****         if(apiResult == CYBLE_ERROR_OK)
 604:Generated_Source\PSoC4/BLE.c ****         {
 605:Generated_Source\PSoC4/BLE.c ****             cyBle_pendingFlashWrite &= (uint8)~CYBLE_PENDING_STACK_FLASH_WRITE_BIT;
 606:Generated_Source\PSoC4/BLE.c ****             /* Change apiResult if there are more pending data to store */
 607:Generated_Source\PSoC4/BLE.c ****             if((cyBle_pendingFlashWrite & CYBLE_PENDING_CCCD_FLASH_WRITE_BIT) != 0u)
 608:Generated_Source\PSoC4/BLE.c ****             {
 609:Generated_Source\PSoC4/BLE.c ****                 apiResult = CYBLE_ERROR_FLASH_WRITE_NOT_PERMITED;
 610:Generated_Source\PSoC4/BLE.c ****             }
 611:Generated_Source\PSoC4/BLE.c ****         }
 612:Generated_Source\PSoC4/BLE.c ****     }
 613:Generated_Source\PSoC4/BLE.c **** #if(CYBLE_GATT_DB_CCCD_COUNT != 0u)
 614:Generated_Source\PSoC4/BLE.c ****     /* Store CCCD values */
 615:Generated_Source\PSoC4/BLE.c ****     if( ((apiResult == CYBLE_ERROR_OK) || (isForceWrite != 0u)) && 
 616:Generated_Source\PSoC4/BLE.c ****         ((cyBle_pendingFlashWrite & CYBLE_PENDING_CCCD_FLASH_WRITE_BIT) != 0u) &&
 617:Generated_Source\PSoC4/BLE.c ****         (cyBle_connHandle.bdHandle <= CYBLE_GAP_MAX_BONDED_DEVICE))
 618:Generated_Source\PSoC4/BLE.c ****     {
 619:Generated_Source\PSoC4/BLE.c ****         apiResult = CyBle_StoreAppData(cyBle_attValuesCCCD, cyBle_flashStorage.attValuesCCCDFlashMe
 620:Generated_Source\PSoC4/BLE.c ****                         cyBle_connHandle.bdHandle], CYBLE_GATT_DB_CCCD_COUNT, isForceWrite);
 621:Generated_Source\PSoC4/BLE.c ****         if(apiResult == CYBLE_ERROR_OK)
 622:Generated_Source\PSoC4/BLE.c ****         {
 623:Generated_Source\PSoC4/BLE.c ****             cyBle_pendingFlashWrite &= (uint8)~CYBLE_PENDING_CCCD_FLASH_WRITE_BIT;
 624:Generated_Source\PSoC4/BLE.c ****         }
 625:Generated_Source\PSoC4/BLE.c ****     }
 626:Generated_Source\PSoC4/BLE.c ****     /* Clear requested CCCD values */
 627:Generated_Source\PSoC4/BLE.c ****     if( ((apiResult == CYBLE_ERROR_OK) || (isForceWrite != 0u)) && 
 628:Generated_Source\PSoC4/BLE.c ****         ((cyBle_pendingFlashWrite & CYBLE_PENDING_CCCD_FLASH_CLEAR_MASK) != 0u) )
 629:Generated_Source\PSoC4/BLE.c ****     {
 630:Generated_Source\PSoC4/BLE.c ****         if((cyBle_pendingFlashWrite & CYBLE_PENDING_CCCD_FLASH_CLEAR_ALL_BIT) != 0u)
 631:Generated_Source\PSoC4/BLE.c ****         {
ARM GAS  C:\Users\Sarah\AppData\Local\Temp\ccXRs73K.s 			page 20


 632:Generated_Source\PSoC4/BLE.c ****             /* Remove cccd values for all bonded devices */
 633:Generated_Source\PSoC4/BLE.c ****             uint8 defaultValuesCCCD[CYBLE_GAP_MAX_BONDED_DEVICE + 1u][CYBLE_GATT_DB_CCCD_COUNT];
 634:Generated_Source\PSoC4/BLE.c ****             
 635:Generated_Source\PSoC4/BLE.c ****             (void)memset(defaultValuesCCCD, 0, sizeof(defaultValuesCCCD));
 636:Generated_Source\PSoC4/BLE.c **** 
 637:Generated_Source\PSoC4/BLE.c ****             apiResult = CyBle_StoreAppData((uint8 *)defaultValuesCCCD, 
 638:Generated_Source\PSoC4/BLE.c ****                 (const uint8 *)cyBle_flashStorage.attValuesCCCDFlashMemory, sizeof(defaultValuesCCC
 639:Generated_Source\PSoC4/BLE.c ****             if(apiResult == CYBLE_ERROR_OK)
 640:Generated_Source\PSoC4/BLE.c ****             {
 641:Generated_Source\PSoC4/BLE.c ****                 cyBle_pendingFlashWrite &= (uint8)~CYBLE_PENDING_CCCD_FLASH_CLEAR_ALL_BIT;
 642:Generated_Source\PSoC4/BLE.c ****             }
 643:Generated_Source\PSoC4/BLE.c ****         }
 644:Generated_Source\PSoC4/BLE.c ****         else /* Remove cccd values for particular device */
 645:Generated_Source\PSoC4/BLE.c ****         {
 646:Generated_Source\PSoC4/BLE.c ****             uint8 defaultValuesCCCD[CYBLE_GATT_DB_CCCD_COUNT] = {0u};
 647:Generated_Source\PSoC4/BLE.c ****             
 648:Generated_Source\PSoC4/BLE.c ****             apiResult = CyBle_StoreAppData(defaultValuesCCCD, cyBle_flashStorage.attValuesCCCDFlash
 649:Generated_Source\PSoC4/BLE.c ****                                     cyBle_pendingFlashClearCccdHandle], CYBLE_GATT_DB_CCCD_COUNT, i
 650:Generated_Source\PSoC4/BLE.c ****             if(apiResult == CYBLE_ERROR_OK)
 651:Generated_Source\PSoC4/BLE.c ****             {
 652:Generated_Source\PSoC4/BLE.c ****                 cyBle_pendingFlashWrite &= (uint8)~CYBLE_PENDING_CCCD_FLASH_CLEAR_BIT;
 653:Generated_Source\PSoC4/BLE.c ****             }
 654:Generated_Source\PSoC4/BLE.c ****         }
 655:Generated_Source\PSoC4/BLE.c ****     }
 656:Generated_Source\PSoC4/BLE.c **** #endif /* CYBLE_GATT_DB_CCCD_COUNT != 0u */
 657:Generated_Source\PSoC4/BLE.c ****     return(apiResult);
 658:Generated_Source\PSoC4/BLE.c **** }
 659:Generated_Source\PSoC4/BLE.c **** 
 660:Generated_Source\PSoC4/BLE.c **** 
 661:Generated_Source\PSoC4/BLE.c **** /******************************************************************************
 662:Generated_Source\PSoC4/BLE.c **** * Function Name: CyBle_GapRemoveBondedDevice
 663:Generated_Source\PSoC4/BLE.c **** ***************************************************************************//**
 664:Generated_Source\PSoC4/BLE.c **** * 
 665:Generated_Source\PSoC4/BLE.c **** *  This function marks the device untrusted. It removes the bonding information
 666:Generated_Source\PSoC4/BLE.c **** *  of the device including CCCD values. This function removes device from the
 667:Generated_Source\PSoC4/BLE.c **** *  white list also when autopopulate white list with bonded devices option is
 668:Generated_Source\PSoC4/BLE.c **** *  enabled.
 669:Generated_Source\PSoC4/BLE.c **** * 
 670:Generated_Source\PSoC4/BLE.c **** *  This function is available only when Bonding requirement is selected in
 671:Generated_Source\PSoC4/BLE.c **** *  Security settings.    
 672:Generated_Source\PSoC4/BLE.c **** *
 673:Generated_Source\PSoC4/BLE.c **** *  \param bdAddr: Pointer to peer device address, of type CYBLE_GAP_BD_ADDR_T.
 674:Generated_Source\PSoC4/BLE.c **** *                 If device address is set to 0, then all devices shall be
 675:Generated_Source\PSoC4/BLE.c **** *                 removed from trusted list and white list.
 676:Generated_Source\PSoC4/BLE.c **** *
 677:Generated_Source\PSoC4/BLE.c **** * \return
 678:Generated_Source\PSoC4/BLE.c **** *  CYBLE_API_RESULT_T : Return value indicates if the function succeeded or
 679:Generated_Source\PSoC4/BLE.c **** *  failed. Following are the possible error codes.
 680:Generated_Source\PSoC4/BLE.c **** *
 681:Generated_Source\PSoC4/BLE.c **** *   Errors codes                     | Description
 682:Generated_Source\PSoC4/BLE.c **** *   ---------------------------------| ------------------------------------
 683:Generated_Source\PSoC4/BLE.c **** *   CYBLE_ERROR_OK                   | On successful operation.
 684:Generated_Source\PSoC4/BLE.c **** *   CYBLE_ERROR_INVALID_PARAMETER    | On specifying NULL as input parameter for 'bdAddr'.
 685:Generated_Source\PSoC4/BLE.c **** *   CYBLE_ERROR_INVALID_OPERATION    | Whitelist is already in use or there is pending write to fla
 686:Generated_Source\PSoC4/BLE.c **** *   CYBLE_ERROR_NO_DEVICE_ENTITY     | Device does not exist in the bond list.
 687:Generated_Source\PSoC4/BLE.c **** *
 688:Generated_Source\PSoC4/BLE.c **** *  \globalvars
ARM GAS  C:\Users\Sarah\AppData\Local\Temp\ccXRs73K.s 			page 21


 689:Generated_Source\PSoC4/BLE.c **** *   The bdHandle is set in cyBle_pendingFlashWrite variable to indicate that
 690:Generated_Source\PSoC4/BLE.c **** *   data should be stored to flash by CyBle_StoreBondingData afterwards. 
 691:Generated_Source\PSoC4/BLE.c **** *     
 692:Generated_Source\PSoC4/BLE.c **** ******************************************************************************/
 693:Generated_Source\PSoC4/BLE.c **** CYBLE_API_RESULT_T CyBle_GapRemoveBondedDevice(CYBLE_GAP_BD_ADDR_T* bdAddr)
 694:Generated_Source\PSoC4/BLE.c **** {
 695:Generated_Source\PSoC4/BLE.c ****     CYBLE_API_RESULT_T apiResult = CYBLE_ERROR_OK;
 696:Generated_Source\PSoC4/BLE.c ****     
 697:Generated_Source\PSoC4/BLE.c ****     if(cyBle_pendingFlashWrite == 0u)
 698:Generated_Source\PSoC4/BLE.c ****     {
 699:Generated_Source\PSoC4/BLE.c ****         
 700:Generated_Source\PSoC4/BLE.c ****     #if(CYBLE_GATT_DB_CCCD_COUNT != 0u)
 701:Generated_Source\PSoC4/BLE.c ****         /* Request to clear CCCD values which will be done by CyBle_StoreBondingData API */
 702:Generated_Source\PSoC4/BLE.c ****         uint8 bDevHandle;
 703:Generated_Source\PSoC4/BLE.c ****         CYBLE_GAP_BD_ADDR_T invalidBdAddr = {{0u,0u,0u,0u,0u,0u}, 0u};
 704:Generated_Source\PSoC4/BLE.c **** 
 705:Generated_Source\PSoC4/BLE.c ****         if(memcmp(((uint8 *) &(bdAddr->bdAddr)), ((uint8 *) &(invalidBdAddr.bdAddr)), CYBLE_GAP_BD_
 706:Generated_Source\PSoC4/BLE.c **** 	    {
 707:Generated_Source\PSoC4/BLE.c ****             /* Request to remove all bonded devices by cyBle_StoreBondingData API */
 708:Generated_Source\PSoC4/BLE.c ****             cyBle_pendingFlashWrite |= CYBLE_PENDING_CCCD_FLASH_CLEAR_ALL_BIT;
 709:Generated_Source\PSoC4/BLE.c ****         }
 710:Generated_Source\PSoC4/BLE.c ****         else
 711:Generated_Source\PSoC4/BLE.c ****         {
 712:Generated_Source\PSoC4/BLE.c ****             /* Get the BD handle from Address */
 713:Generated_Source\PSoC4/BLE.c ****             apiResult = CyBle_GapGetPeerBdHandle(&bDevHandle, bdAddr);
 714:Generated_Source\PSoC4/BLE.c ****             if(apiResult == CYBLE_ERROR_OK)
 715:Generated_Source\PSoC4/BLE.c ****             {
 716:Generated_Source\PSoC4/BLE.c ****                 /* Store BD handle to clear cccd values by CyBle_StoreBondingData API */
 717:Generated_Source\PSoC4/BLE.c ****                 cyBle_pendingFlashWrite |= CYBLE_PENDING_CCCD_FLASH_CLEAR_BIT;
 718:Generated_Source\PSoC4/BLE.c ****                 cyBle_pendingFlashClearCccdHandle = bDevHandle;
 719:Generated_Source\PSoC4/BLE.c ****             }
 720:Generated_Source\PSoC4/BLE.c ****         }
 721:Generated_Source\PSoC4/BLE.c ****     #endif /* CYBLE_GATT_DB_CCCD_COUNT != 0u */
 722:Generated_Source\PSoC4/BLE.c ****         if(apiResult == CYBLE_ERROR_OK)
 723:Generated_Source\PSoC4/BLE.c ****         {
 724:Generated_Source\PSoC4/BLE.c ****             apiResult = CyBle_GapRemoveDeviceFromWhiteList(bdAddr);
 725:Generated_Source\PSoC4/BLE.c ****         }
 726:Generated_Source\PSoC4/BLE.c ****     }
 727:Generated_Source\PSoC4/BLE.c ****     else
 728:Generated_Source\PSoC4/BLE.c ****     {
 729:Generated_Source\PSoC4/BLE.c ****         apiResult = CYBLE_ERROR_INVALID_OPERATION;
 730:Generated_Source\PSoC4/BLE.c ****     }
 731:Generated_Source\PSoC4/BLE.c ****     
 732:Generated_Source\PSoC4/BLE.c ****     return(apiResult);
 733:Generated_Source\PSoC4/BLE.c **** }
 734:Generated_Source\PSoC4/BLE.c **** 
 735:Generated_Source\PSoC4/BLE.c **** 
 736:Generated_Source\PSoC4/BLE.c **** #endif /* (CYBLE_GAP_ROLE_PERIPHERAL || CYBLE_GAP_ROLE_CENTRAL) && (CYBLE_BONDING_REQUIREMENT == CY
 737:Generated_Source\PSoC4/BLE.c **** 
 738:Generated_Source\PSoC4/BLE.c **** 
 739:Generated_Source\PSoC4/BLE.c **** #if(CYBLE_GAP_ROLE_PERIPHERAL || CYBLE_GAP_ROLE_BROADCASTER)
 740:Generated_Source\PSoC4/BLE.c **** 
 741:Generated_Source\PSoC4/BLE.c ****     /******************************************************************************
 742:Generated_Source\PSoC4/BLE.c ****     *  Function Name: CyBle_GappStartAdvertisement
 743:Generated_Source\PSoC4/BLE.c ****     ***************************************************************************//**
 744:Generated_Source\PSoC4/BLE.c ****     *     
 745:Generated_Source\PSoC4/BLE.c ****     *  This function is used to start the advertisement using the advertisement data 
ARM GAS  C:\Users\Sarah\AppData\Local\Temp\ccXRs73K.s 			page 22


 746:Generated_Source\PSoC4/BLE.c ****     *  set in the component customizer's GUI. After invoking this API, the device 
 747:Generated_Source\PSoC4/BLE.c ****     *  will be available for connection by the devices configured for GAP central 
 748:Generated_Source\PSoC4/BLE.c ****     *  role. It is only included if the device is configured for GAP Peripheral or 
 749:Generated_Source\PSoC4/BLE.c ****     *  GAP Peripheral + Central role.
 750:Generated_Source\PSoC4/BLE.c ****     *  
 751:Generated_Source\PSoC4/BLE.c ****     *  On start of advertisement, GAP Peripheral receives the
 752:Generated_Source\PSoC4/BLE.c ****     *  CYBLE_EVT_GAPP_ADVERTISEMENT_START_STOP event. The following events are 
 753:Generated_Source\PSoC4/BLE.c ****     *  possible on invoking this function:
 754:Generated_Source\PSoC4/BLE.c ****     *  
 755:Generated_Source\PSoC4/BLE.c ****     *  * CYBLE_EVT_GAP_DEVICE_CONNECTED - If the device connects to a GAP Central and 
 756:Generated_Source\PSoC4/BLE.c ****     *    Link Layer Privacy is disabled in component customizer.
 757:Generated_Source\PSoC4/BLE.c ****     *  * CYBLE_EVT_GAP_ENHANCE_CONN_COMPLETE - If the device connects to a GAP Central and 
 758:Generated_Source\PSoC4/BLE.c ****     *    Link Layer Privacy is enabled in component customizer.
 759:Generated_Source\PSoC4/BLE.c ****     *  * CYBLE_EVT_TIMEOUT: If no device in GAP Central mode connects to this 
 760:Generated_Source\PSoC4/BLE.c ****     *                       device within the specified timeout limit. Stack 
 761:Generated_Source\PSoC4/BLE.c ****     *                       automatically initiate stop advertising when Slow 
 762:Generated_Source\PSoC4/BLE.c ****     *                       advertising was initiated, or starts Slow advertising
 763:Generated_Source\PSoC4/BLE.c ****     *                       after Fast advertising timeout occur.
 764:Generated_Source\PSoC4/BLE.c ****     *  * CYBLE_EVT_GAPP_ADVERTISEMENT_START_STOP: If device started or stopped
 765:Generated_Source\PSoC4/BLE.c ****     *                                               advertising. Use CyBle_GetState()
 766:Generated_Source\PSoC4/BLE.c ****     *                                               to determine the state. Sequential 
 767:Generated_Source\PSoC4/BLE.c ****     *                                               advertising could be started when
 768:Generated_Source\PSoC4/BLE.c ****     *                                               CYBLE_STATE_DISCONNECTED state is
 769:Generated_Source\PSoC4/BLE.c ****     *                                               returned.
 770:Generated_Source\PSoC4/BLE.c ****     * 
 771:Generated_Source\PSoC4/BLE.c ****     *  \param advertisingIntervalType: Fast or slow advertising interval with timings
 772:Generated_Source\PSoC4/BLE.c ****     *                                 entered in Advertising settings section of the
 773:Generated_Source\PSoC4/BLE.c ****     *                                 customizer.
 774:Generated_Source\PSoC4/BLE.c ****     *  * CYBLE_ADVERTISING_FAST   0x00u
 775:Generated_Source\PSoC4/BLE.c ****     *  * CYBLE_ADVERTISING_SLOW   0x01u
 776:Generated_Source\PSoC4/BLE.c ****     *  * CYBLE_ADVERTISING_CUSTOM 0x02u
 777:Generated_Source\PSoC4/BLE.c ****     * 
 778:Generated_Source\PSoC4/BLE.c ****     * \return
 779:Generated_Source\PSoC4/BLE.c ****     *  CYBLE_API_RESULT_T : Return value indicates if the function succeeded or
 780:Generated_Source\PSoC4/BLE.c ****     *  failed. Following are the possible error codes.
 781:Generated_Source\PSoC4/BLE.c ****     * 
 782:Generated_Source\PSoC4/BLE.c ****     *   Errors codes                      |  Description
 783:Generated_Source\PSoC4/BLE.c ****     *   --------------------------------- |  --------------------------------
 784:Generated_Source\PSoC4/BLE.c ****     *   CYBLE_ERROR_OK                    |  On successful operation.
 785:Generated_Source\PSoC4/BLE.c ****     *   CYBLE_ERROR_INVALID_PARAMETER     |  On passing an invalid parameter.
 786:Generated_Source\PSoC4/BLE.c ****     *   CYBLE_ERROR_INVALID_STATE         |  On calling this API not in Disconnected state.
 787:Generated_Source\PSoC4/BLE.c ****     *
 788:Generated_Source\PSoC4/BLE.c ****     * 
 789:Generated_Source\PSoC4/BLE.c ****     *******************************************************************************/
 790:Generated_Source\PSoC4/BLE.c ****     CYBLE_API_RESULT_T CyBle_GappStartAdvertisement(uint8 advertisingIntervalType)
 791:Generated_Source\PSoC4/BLE.c ****     {
 445              		.loc 1 791 0
 446              		.cfi_startproc
 447 0000 90B5     		push	{r4, r7, lr}
 448              		.cfi_def_cfa_offset 12
 449              		.cfi_offset 4, -12
 450              		.cfi_offset 7, -8
 451              		.cfi_offset 14, -4
 452 0002 85B0     		sub	sp, sp, #20
 453              		.cfi_def_cfa_offset 32
 454 0004 00AF     		add	r7, sp, #0
 455              		.cfi_def_cfa_register 7
ARM GAS  C:\Users\Sarah\AppData\Local\Temp\ccXRs73K.s 			page 23


 456 0006 021C     		mov	r2, r0
 457 0008 FB1D     		add	r3, r7, #7
 458 000a 1A70     		strb	r2, [r3]
 792:Generated_Source\PSoC4/BLE.c ****         CYBLE_API_RESULT_T apiResult;
 793:Generated_Source\PSoC4/BLE.c ****         
 794:Generated_Source\PSoC4/BLE.c ****         if(advertisingIntervalType > CYBLE_ADVERTISING_CUSTOM)
 459              		.loc 1 794 0
 460 000c FB1D     		add	r3, r7, #7
 461 000e 1B78     		ldrb	r3, [r3]
 462 0010 022B     		cmp	r3, #2
 463 0012 04D9     		bls	.L18
 795:Generated_Source\PSoC4/BLE.c ****         {
 796:Generated_Source\PSoC4/BLE.c ****             apiResult = CYBLE_ERROR_INVALID_PARAMETER;
 464              		.loc 1 796 0
 465 0014 0E23     		mov	r3, #14
 466 0016 FB18     		add	r3, r7, r3
 467 0018 0122     		mov	r2, #1
 468 001a 1A80     		strh	r2, [r3]
 469 001c 4BE0     		b	.L19
 470              	.L18:
 797:Generated_Source\PSoC4/BLE.c ****         }
 798:Generated_Source\PSoC4/BLE.c ****         else if((CYBLE_STATE_DISCONNECTED == CyBle_GetState()) && ((cyBle_eventHandlerFlag & CYBLE_
 471              		.loc 1 798 0
 472 001e 294B     		ldr	r3, .L25
 473 0020 1B78     		ldrb	r3, [r3]
 474 0022 042B     		cmp	r3, #4
 475 0024 42D1     		bne	.L20
 476              		.loc 1 798 0 is_stmt 0 discriminator 1
 477 0026 284B     		ldr	r3, .L25+4
 478 0028 1B78     		ldrb	r3, [r3]
 479 002a DBB2     		uxtb	r3, r3
 480 002c 1A1C     		mov	r2, r3
 481 002e 0423     		mov	r3, #4
 482 0030 1340     		and	r3, r2
 483 0032 3BD1     		bne	.L20
 799:Generated_Source\PSoC4/BLE.c ****         {   
 800:Generated_Source\PSoC4/BLE.c ****             if(advertisingIntervalType == CYBLE_ADVERTISING_FAST)
 484              		.loc 1 800 0 is_stmt 1
 485 0034 FB1D     		add	r3, r7, #7
 486 0036 1B78     		ldrb	r3, [r3]
 487 0038 002B     		cmp	r3, #0
 488 003a 0BD1     		bne	.L21
 801:Generated_Source\PSoC4/BLE.c ****             {
 802:Generated_Source\PSoC4/BLE.c ****                 cyBle_discoveryModeInfo.advTo = CYBLE_FAST_ADV_TIMEOUT;
 489              		.loc 1 802 0
 490 003c 234B     		ldr	r3, .L25+8
 491 003e 1E22     		mov	r2, #30
 492 0040 1A82     		strh	r2, [r3, #16]
 803:Generated_Source\PSoC4/BLE.c ****                 cyBle_discoveryModeInfo.advParam->advIntvMin = CYBLE_FAST_ADV_INT_MIN;
 493              		.loc 1 803 0
 494 0042 224B     		ldr	r3, .L25+8
 495 0044 5B68     		ldr	r3, [r3, #4]
 496 0046 2022     		mov	r2, #32
 497 0048 1A80     		strh	r2, [r3]
 804:Generated_Source\PSoC4/BLE.c ****                 cyBle_discoveryModeInfo.advParam->advIntvMax = CYBLE_FAST_ADV_INT_MAX;
 498              		.loc 1 804 0
 499 004a 204B     		ldr	r3, .L25+8
ARM GAS  C:\Users\Sarah\AppData\Local\Temp\ccXRs73K.s 			page 24


 500 004c 5B68     		ldr	r3, [r3, #4]
 501 004e 3022     		mov	r2, #48
 502 0050 5A80     		strh	r2, [r3, #2]
 503 0052 10E0     		b	.L22
 504              	.L21:
 805:Generated_Source\PSoC4/BLE.c ****             }
 806:Generated_Source\PSoC4/BLE.c ****             else if(advertisingIntervalType == CYBLE_ADVERTISING_SLOW)
 505              		.loc 1 806 0
 506 0054 FB1D     		add	r3, r7, #7
 507 0056 1B78     		ldrb	r3, [r3]
 508 0058 012B     		cmp	r3, #1
 509 005a 0CD1     		bne	.L22
 807:Generated_Source\PSoC4/BLE.c ****             {
 808:Generated_Source\PSoC4/BLE.c ****                 cyBle_discoveryModeInfo.advTo = CYBLE_SLOW_ADV_TIMEOUT;
 510              		.loc 1 808 0
 511 005c 1B4B     		ldr	r3, .L25+8
 512 005e 9622     		mov	r2, #150
 513 0060 1A82     		strh	r2, [r3, #16]
 809:Generated_Source\PSoC4/BLE.c ****                 cyBle_discoveryModeInfo.advParam->advIntvMin = CYBLE_SLOW_ADV_INT_MIN;
 514              		.loc 1 809 0
 515 0062 1A4B     		ldr	r3, .L25+8
 516 0064 5B68     		ldr	r3, [r3, #4]
 517 0066 C822     		mov	r2, #200
 518 0068 D200     		lsl	r2, r2, #3
 519 006a 1A80     		strh	r2, [r3]
 810:Generated_Source\PSoC4/BLE.c ****                 cyBle_discoveryModeInfo.advParam->advIntvMax = CYBLE_SLOW_ADV_INT_MAX;
 520              		.loc 1 810 0
 521 006c 174B     		ldr	r3, .L25+8
 522 006e 5B68     		ldr	r3, [r3, #4]
 523 0070 8022     		mov	r2, #128
 524 0072 D201     		lsl	r2, r2, #7
 525 0074 5A80     		strh	r2, [r3, #2]
 526              	.L22:
 811:Generated_Source\PSoC4/BLE.c ****             }       
 812:Generated_Source\PSoC4/BLE.c ****             else /* Do not update advertising intervals */
 813:Generated_Source\PSoC4/BLE.c ****             {
 814:Generated_Source\PSoC4/BLE.c ****             }
 815:Generated_Source\PSoC4/BLE.c ****             cyBle_advertisingIntervalType = advertisingIntervalType;
 527              		.loc 1 815 0
 528 0076 164B     		ldr	r3, .L25+12
 529 0078 FA1D     		add	r2, r7, #7
 530 007a 1278     		ldrb	r2, [r2]
 531 007c 1A70     		strb	r2, [r3]
 816:Generated_Source\PSoC4/BLE.c ****             apiResult = CyBle_GappEnterDiscoveryMode(&cyBle_discoveryModeInfo);
 532              		.loc 1 816 0
 533 007e 0E23     		mov	r3, #14
 534 0080 FC18     		add	r4, r7, r3
 535 0082 124B     		ldr	r3, .L25+8
 536 0084 181C     		mov	r0, r3
 537 0086 FFF7FEFF 		bl	CyBle_GappEnterDiscoveryMode
 538 008a 031C     		mov	r3, r0
 539 008c 2380     		strh	r3, [r4]
 817:Generated_Source\PSoC4/BLE.c ****         
 818:Generated_Source\PSoC4/BLE.c ****             if(apiResult == CYBLE_ERROR_OK)
 540              		.loc 1 818 0
 541 008e 0E23     		mov	r3, #14
 542 0090 FB18     		add	r3, r7, r3
ARM GAS  C:\Users\Sarah\AppData\Local\Temp\ccXRs73K.s 			page 25


 543 0092 1B88     		ldrh	r3, [r3]
 544 0094 002B     		cmp	r3, #0
 545 0096 08D1     		bne	.L23
 819:Generated_Source\PSoC4/BLE.c ****             {
 820:Generated_Source\PSoC4/BLE.c ****                 cyBle_eventHandlerFlag |= CYBLE_START_FLAG;
 546              		.loc 1 820 0
 547 0098 0B4B     		ldr	r3, .L25+4
 548 009a 1B78     		ldrb	r3, [r3]
 549 009c DBB2     		uxtb	r3, r3
 550 009e 0422     		mov	r2, #4
 551 00a0 1343     		orr	r3, r2
 552 00a2 DAB2     		uxtb	r2, r3
 553 00a4 084B     		ldr	r3, .L25+4
 554 00a6 1A70     		strb	r2, [r3]
 818:Generated_Source\PSoC4/BLE.c ****             {
 555              		.loc 1 818 0
 556 00a8 05E0     		b	.L19
 557              	.L23:
 558 00aa 04E0     		b	.L19
 559              	.L20:
 821:Generated_Source\PSoC4/BLE.c ****             }
 822:Generated_Source\PSoC4/BLE.c ****         }
 823:Generated_Source\PSoC4/BLE.c ****         else
 824:Generated_Source\PSoC4/BLE.c ****         {
 825:Generated_Source\PSoC4/BLE.c ****             apiResult = CYBLE_ERROR_INVALID_STATE;
 560              		.loc 1 825 0
 561 00ac 0E23     		mov	r3, #14
 562 00ae FB18     		add	r3, r7, r3
 563 00b0 0422     		mov	r2, #4
 564 00b2 FF32     		add	r2, r2, #255
 565 00b4 1A80     		strh	r2, [r3]
 566              	.L19:
 826:Generated_Source\PSoC4/BLE.c ****         }
 827:Generated_Source\PSoC4/BLE.c **** 
 828:Generated_Source\PSoC4/BLE.c ****         return (apiResult);
 567              		.loc 1 828 0
 568 00b6 0E23     		mov	r3, #14
 569 00b8 FB18     		add	r3, r7, r3
 570 00ba 1B88     		ldrh	r3, [r3]
 829:Generated_Source\PSoC4/BLE.c ****     }
 571              		.loc 1 829 0
 572 00bc 181C     		mov	r0, r3
 573 00be BD46     		mov	sp, r7
 574 00c0 05B0     		add	sp, sp, #20
 575              		@ sp needed
 576 00c2 90BD     		pop	{r4, r7, pc}
 577              	.L26:
 578              		.align	2
 579              	.L25:
 580 00c4 00000000 		.word	cyBle_state
 581 00c8 00000000 		.word	cyBle_eventHandlerFlag
 582 00cc 00000000 		.word	cyBle_discoveryModeInfo
 583 00d0 00000000 		.word	cyBle_advertisingIntervalType
 584              		.cfi_endproc
 585              	.LFE6:
 586              		.size	CyBle_GappStartAdvertisement, .-CyBle_GappStartAdvertisement
 587              		.section	.text.CyBle_GappStopAdvertisement,"ax",%progbits
ARM GAS  C:\Users\Sarah\AppData\Local\Temp\ccXRs73K.s 			page 26


 588              		.align	2
 589              		.global	CyBle_GappStopAdvertisement
 590              		.code	16
 591              		.thumb_func
 592              		.type	CyBle_GappStopAdvertisement, %function
 593              	CyBle_GappStopAdvertisement:
 594              	.LFB7:
 830:Generated_Source\PSoC4/BLE.c **** 
 831:Generated_Source\PSoC4/BLE.c ****     
 832:Generated_Source\PSoC4/BLE.c ****     /******************************************************************************
 833:Generated_Source\PSoC4/BLE.c ****     * Function Name: CyBle_GappStopAdvertisement
 834:Generated_Source\PSoC4/BLE.c ****     ***************************************************************************//**
 835:Generated_Source\PSoC4/BLE.c ****     * 
 836:Generated_Source\PSoC4/BLE.c ****     *   This function can be used to exit from discovery mode. After the execution 
 837:Generated_Source\PSoC4/BLE.c ****     *   of this function, there will no longer be any advertisements. On stopping 
 838:Generated_Source\PSoC4/BLE.c ****     *   advertising, GAP Peripheral receives CYBLE_EVT_GAPP_ADVERTISEMENT_START_STOP
 839:Generated_Source\PSoC4/BLE.c ****     *   event. It is expected that the application layer tracks the function call 
 840:Generated_Source\PSoC4/BLE.c ****     *   performed before occurrence of this event as this event can occur on making 
 841:Generated_Source\PSoC4/BLE.c ****     *   a call to Cy_BleGappStartAdvertisement(), CyBle_GappEnterDiscoveryMode(), 
 842:Generated_Source\PSoC4/BLE.c ****     *   or CyBle_GappStartAdvertisement() functions as well.
 843:Generated_Source\PSoC4/BLE.c ****     *   
 844:Generated_Source\PSoC4/BLE.c ****     *   The following event occurs on invoking this function:
 845:Generated_Source\PSoC4/BLE.c ****     *   * CYBLE_EVT_GAPP_ADVERTISEMENT_START_STOP
 846:Generated_Source\PSoC4/BLE.c ****     * 
 847:Generated_Source\PSoC4/BLE.c ****     *  \return
 848:Generated_Source\PSoC4/BLE.c ****     *   None
 849:Generated_Source\PSoC4/BLE.c ****     * 
 850:Generated_Source\PSoC4/BLE.c ****     *******************************************************************************/
 851:Generated_Source\PSoC4/BLE.c ****     void CyBle_GappStopAdvertisement(void)
 852:Generated_Source\PSoC4/BLE.c ****     {
 595              		.loc 1 852 0
 596              		.cfi_startproc
 597 0000 80B5     		push	{r7, lr}
 598              		.cfi_def_cfa_offset 8
 599              		.cfi_offset 7, -8
 600              		.cfi_offset 14, -4
 601 0002 00AF     		add	r7, sp, #0
 602              		.cfi_def_cfa_register 7
 853:Generated_Source\PSoC4/BLE.c ****         CyBle_GappExitDiscoveryMode();
 603              		.loc 1 853 0
 604 0004 FFF7FEFF 		bl	CyBle_GappExitDiscoveryMode
 854:Generated_Source\PSoC4/BLE.c ****         cyBle_eventHandlerFlag |= CYBLE_STOP_FLAG;
 605              		.loc 1 854 0
 606 0008 044B     		ldr	r3, .L28
 607 000a 1B78     		ldrb	r3, [r3]
 608 000c DBB2     		uxtb	r3, r3
 609 000e 0822     		mov	r2, #8
 610 0010 1343     		orr	r3, r2
 611 0012 DAB2     		uxtb	r2, r3
 612 0014 014B     		ldr	r3, .L28
 613 0016 1A70     		strb	r2, [r3]
 855:Generated_Source\PSoC4/BLE.c ****     }
 614              		.loc 1 855 0
 615 0018 BD46     		mov	sp, r7
 616              		@ sp needed
 617 001a 80BD     		pop	{r7, pc}
 618              	.L29:
ARM GAS  C:\Users\Sarah\AppData\Local\Temp\ccXRs73K.s 			page 27


 619              		.align	2
 620              	.L28:
 621 001c 00000000 		.word	cyBle_eventHandlerFlag
 622              		.cfi_endproc
 623              	.LFE7:
 624              		.size	CyBle_GappStopAdvertisement, .-CyBle_GappStopAdvertisement
 625              		.section	.text.CyBle_ChangeAdDeviceAddress,"ax",%progbits
 626              		.align	2
 627              		.global	CyBle_ChangeAdDeviceAddress
 628              		.code	16
 629              		.thumb_func
 630              		.type	CyBle_ChangeAdDeviceAddress, %function
 631              	CyBle_ChangeAdDeviceAddress:
 632              	.LFB8:
 856:Generated_Source\PSoC4/BLE.c ****     
 857:Generated_Source\PSoC4/BLE.c ****     
 858:Generated_Source\PSoC4/BLE.c ****     /******************************************************************************
 859:Generated_Source\PSoC4/BLE.c ****     * Function Name: CyBle_ChangeAdDeviceAddress
 860:Generated_Source\PSoC4/BLE.c ****     ***************************************************************************//**
 861:Generated_Source\PSoC4/BLE.c ****     * 
 862:Generated_Source\PSoC4/BLE.c ****     *  This API is used to set the Bluetooth device address into the advertisement 
 863:Generated_Source\PSoC4/BLE.c ****     *  or scan response data structure.
 864:Generated_Source\PSoC4/BLE.c ****     * 
 865:Generated_Source\PSoC4/BLE.c ****     *  \param bdAddr: Bluetooth Device address. The variable is of type CYBLE_GAP_BD_ADDR_T
 866:Generated_Source\PSoC4/BLE.c ****     *  \param dest: 0 - selects advertisement structure, not zero value selects scan 
 867:Generated_Source\PSoC4/BLE.c ****     *               response structure.
 868:Generated_Source\PSoC4/BLE.c ****     * 
 869:Generated_Source\PSoC4/BLE.c ****     * \return
 870:Generated_Source\PSoC4/BLE.c ****     *  None
 871:Generated_Source\PSoC4/BLE.c ****     *  
 872:Generated_Source\PSoC4/BLE.c ****     *******************************************************************************/
 873:Generated_Source\PSoC4/BLE.c ****     void CyBle_ChangeAdDeviceAddress(const CYBLE_GAP_BD_ADDR_T* bdAddr, uint8 dest)
 874:Generated_Source\PSoC4/BLE.c ****     {
 633              		.loc 1 874 0
 634              		.cfi_startproc
 635 0000 80B5     		push	{r7, lr}
 636              		.cfi_def_cfa_offset 8
 637              		.cfi_offset 7, -8
 638              		.cfi_offset 14, -4
 639 0002 84B0     		sub	sp, sp, #16
 640              		.cfi_def_cfa_offset 24
 641 0004 00AF     		add	r7, sp, #0
 642              		.cfi_def_cfa_register 7
 643 0006 7860     		str	r0, [r7, #4]
 644 0008 0A1C     		mov	r2, r1
 645 000a FB1C     		add	r3, r7, #3
 646 000c 1A70     		strb	r2, [r3]
 875:Generated_Source\PSoC4/BLE.c ****         uint8 i;
 876:Generated_Source\PSoC4/BLE.c ****         uint8 *destBuffer = NULL;
 647              		.loc 1 876 0
 648 000e 0023     		mov	r3, #0
 649 0010 BB60     		str	r3, [r7, #8]
 877:Generated_Source\PSoC4/BLE.c ****         
 878:Generated_Source\PSoC4/BLE.c ****         if(dest == 0u)      /* Destination - advertising structure */
 879:Generated_Source\PSoC4/BLE.c ****         {
 880:Generated_Source\PSoC4/BLE.c ****             #ifdef CYBLE_ADV_PKT_INDEX_BLUETOOTH_DEVICE_ADDRESS
 881:Generated_Source\PSoC4/BLE.c ****                 destBuffer = &cyBle_discoveryData.advData[CYBLE_ADV_PKT_INDEX_BLUETOOTH_DEVICE_ADDR
ARM GAS  C:\Users\Sarah\AppData\Local\Temp\ccXRs73K.s 			page 28


 882:Generated_Source\PSoC4/BLE.c ****             #endif /* CYBLE_ADV_PKT_INDEX_BLUETOOTH_DEVICE_ADDRESS */
 883:Generated_Source\PSoC4/BLE.c ****         }
 884:Generated_Source\PSoC4/BLE.c ****         else                /* Destination - scan response structure */
 885:Generated_Source\PSoC4/BLE.c ****         {
 886:Generated_Source\PSoC4/BLE.c ****             #ifdef CYBLE_SCN_PKT_INDEX_BLUETOOTH_DEVICE_ADDRESS
 887:Generated_Source\PSoC4/BLE.c ****                 destBuffer = &cyBle_scanRspData.scanRspData[CYBLE_SCN_PKT_INDEX_BLUETOOTH_DEVICE_AD
 888:Generated_Source\PSoC4/BLE.c ****             #endif /* CYBLE_SCN_PKT_INDEX_BLUETOOTH_DEVICE_ADDRESS */    
 889:Generated_Source\PSoC4/BLE.c ****         }
 890:Generated_Source\PSoC4/BLE.c ****         
 891:Generated_Source\PSoC4/BLE.c ****         if(destBuffer != NULL)
 650              		.loc 1 891 0
 651 0012 BB68     		ldr	r3, [r7, #8]
 652 0014 002B     		cmp	r3, #0
 653 0016 20D0     		beq	.L30
 892:Generated_Source\PSoC4/BLE.c ****         {
 893:Generated_Source\PSoC4/BLE.c ****             /* Update Device Address type */
 894:Generated_Source\PSoC4/BLE.c ****             destBuffer[0u] = bdAddr->type;
 654              		.loc 1 894 0
 655 0018 7B68     		ldr	r3, [r7, #4]
 656 001a 9A79     		ldrb	r2, [r3, #6]
 657 001c BB68     		ldr	r3, [r7, #8]
 658 001e 1A70     		strb	r2, [r3]
 895:Generated_Source\PSoC4/BLE.c ****             
 896:Generated_Source\PSoC4/BLE.c ****             for(i = 0u; i < CYBLE_GAP_BD_ADDR_SIZE; i++)
 659              		.loc 1 896 0
 660 0020 0F23     		mov	r3, #15
 661 0022 FB18     		add	r3, r7, r3
 662 0024 0022     		mov	r2, #0
 663 0026 1A70     		strb	r2, [r3]
 664 0028 12E0     		b	.L32
 665              	.L33:
 897:Generated_Source\PSoC4/BLE.c ****             {
 898:Generated_Source\PSoC4/BLE.c ****                 destBuffer[i + 1u] = bdAddr->bdAddr[i];
 666              		.loc 1 898 0 discriminator 3
 667 002a 0F23     		mov	r3, #15
 668 002c FB18     		add	r3, r7, r3
 669 002e 1B78     		ldrb	r3, [r3]
 670 0030 0133     		add	r3, r3, #1
 671 0032 BA68     		ldr	r2, [r7, #8]
 672 0034 D318     		add	r3, r2, r3
 673 0036 0F22     		mov	r2, #15
 674 0038 BA18     		add	r2, r7, r2
 675 003a 1278     		ldrb	r2, [r2]
 676 003c 7968     		ldr	r1, [r7, #4]
 677 003e 8A5C     		ldrb	r2, [r1, r2]
 678 0040 1A70     		strb	r2, [r3]
 896:Generated_Source\PSoC4/BLE.c ****             {
 679              		.loc 1 896 0 discriminator 3
 680 0042 0F23     		mov	r3, #15
 681 0044 FB18     		add	r3, r7, r3
 682 0046 1A78     		ldrb	r2, [r3]
 683 0048 0F23     		mov	r3, #15
 684 004a FB18     		add	r3, r7, r3
 685 004c 0132     		add	r2, r2, #1
 686 004e 1A70     		strb	r2, [r3]
 687              	.L32:
 896:Generated_Source\PSoC4/BLE.c ****             {
ARM GAS  C:\Users\Sarah\AppData\Local\Temp\ccXRs73K.s 			page 29


 688              		.loc 1 896 0 is_stmt 0 discriminator 1
 689 0050 0F23     		mov	r3, #15
 690 0052 FB18     		add	r3, r7, r3
 691 0054 1B78     		ldrb	r3, [r3]
 692 0056 052B     		cmp	r3, #5
 693 0058 E7D9     		bls	.L33
 694              	.L30:
 899:Generated_Source\PSoC4/BLE.c ****             }
 900:Generated_Source\PSoC4/BLE.c ****         }
 901:Generated_Source\PSoC4/BLE.c ****     }
 695              		.loc 1 901 0 is_stmt 1
 696 005a BD46     		mov	sp, r7
 697 005c 04B0     		add	sp, sp, #16
 698              		@ sp needed
 699 005e 80BD     		pop	{r7, pc}
 700              		.cfi_endproc
 701              	.LFE8:
 702              		.size	CyBle_ChangeAdDeviceAddress, .-CyBle_ChangeAdDeviceAddress
 703              		.section	.text.CyBle_ChangeAdLocalName,"ax",%progbits
 704              		.align	2
 705              		.code	16
 706              		.thumb_func
 707              		.type	CyBle_ChangeAdLocalName, %function
 708              	CyBle_ChangeAdLocalName:
 709              	.LFB9:
 902:Generated_Source\PSoC4/BLE.c ****   
 903:Generated_Source\PSoC4/BLE.c **** #endif /* CYBLE_GAP_ROLE_PERIPHERAL || CYBLE_GAP_ROLE_BROADCASTER */
 904:Generated_Source\PSoC4/BLE.c **** 
 905:Generated_Source\PSoC4/BLE.c **** 
 906:Generated_Source\PSoC4/BLE.c **** #if(CYBLE_GAP_ROLE_CENTRAL || CYBLE_GAP_ROLE_OBSERVER)
 907:Generated_Source\PSoC4/BLE.c **** 
 908:Generated_Source\PSoC4/BLE.c ****     /******************************************************************************
 909:Generated_Source\PSoC4/BLE.c ****     * Function Name: CyBle_GapcStartScan
 910:Generated_Source\PSoC4/BLE.c ****     ***************************************************************************//**
 911:Generated_Source\PSoC4/BLE.c ****     * 
 912:Generated_Source\PSoC4/BLE.c ****     *   This function is used for discovering GAP peripheral devices that are 
 913:Generated_Source\PSoC4/BLE.c ****     *   available for connection. It performs the scanning routine using the 
 914:Generated_Source\PSoC4/BLE.c ****     *   parameters entered in the component's customizer.
 915:Generated_Source\PSoC4/BLE.c ****     *   
 916:Generated_Source\PSoC4/BLE.c ****     *   As soon as the discovery operation starts, CYBLE_EVT_GAPC_SCAN_START_STOP 
 917:Generated_Source\PSoC4/BLE.c ****     *   event is generated. The CYBLE_EVT_GAPC_SCAN_PROGRESS_RESULT event is 
 918:Generated_Source\PSoC4/BLE.c ****     *   generated when a GAP peripheral device is located. There are three discovery
 919:Generated_Source\PSoC4/BLE.c ****     *   procedures can be selected in the customizer's GUI:
 920:Generated_Source\PSoC4/BLE.c ****     *   
 921:Generated_Source\PSoC4/BLE.c ****     *   * Observation procedure: A device performing the observer role receives only
 922:Generated_Source\PSoC4/BLE.c ****     *                            advertisement data from devices irrespective of 
 923:Generated_Source\PSoC4/BLE.c ****     *                            their discoverable mode settings. Advertisement 
 924:Generated_Source\PSoC4/BLE.c ****     *                            data received is provided by the event,      
 925:Generated_Source\PSoC4/BLE.c ****     *                            CYBLE_EVT_GAPC_SCAN_PROGRESS_RESULT. This procedure
 926:Generated_Source\PSoC4/BLE.c ****     *                            requires the scanType sub parameter to be passive
 927:Generated_Source\PSoC4/BLE.c ****     *                            scanning. 
 928:Generated_Source\PSoC4/BLE.c ****     *   
 929:Generated_Source\PSoC4/BLE.c ****     *   * Limited Discovery procedure: A device performing the limited discovery
 930:Generated_Source\PSoC4/BLE.c ****     *                                  procedure receives advertisement data and 
 931:Generated_Source\PSoC4/BLE.c ****     *                                  scan# response data from devices in the 
 932:Generated_Source\PSoC4/BLE.c ****     *                                  limited discoverable mode only. Received data
 933:Generated_Source\PSoC4/BLE.c ****     *                                  is provided by the event, 
ARM GAS  C:\Users\Sarah\AppData\Local\Temp\ccXRs73K.s 			page 30


 934:Generated_Source\PSoC4/BLE.c ****     *                                  CYBLE_EVT_GAPC_SCAN_PROGRESS_RESULT. This 
 935:Generated_Source\PSoC4/BLE.c ****     *                                  procedure requires the scanType sub-parameter 
 936:Generated_Source\PSoC4/BLE.c ****     *                                  to be active scanning.
 937:Generated_Source\PSoC4/BLE.c ****     *   
 938:Generated_Source\PSoC4/BLE.c ****     *   * General Discovery procedure: A device performing the general discovery 
 939:Generated_Source\PSoC4/BLE.c ****     *                                  procedure receives the advertisement data and
 940:Generated_Source\PSoC4/BLE.c ****     *                                  scan response data from devices in both 
 941:Generated_Source\PSoC4/BLE.c ****     *                                  limited discoverable mode and the general 
 942:Generated_Source\PSoC4/BLE.c ****     *                                  discoverable mode. Received data is provided
 943:Generated_Source\PSoC4/BLE.c ****     *                                  by the event,
 944:Generated_Source\PSoC4/BLE.c ****     *                                  CYBLE_EVT_GAPC_SCAN_PROGRESS_RESULT. This 
 945:Generated_Source\PSoC4/BLE.c ****     *                                  procedure requires the scanType sub-parameter
 946:Generated_Source\PSoC4/BLE.c ****     *                                  to be active scanning.
 947:Generated_Source\PSoC4/BLE.c ****     *   
 948:Generated_Source\PSoC4/BLE.c ****     *   Every Advertisement / Scan response packet received results in a new event, 
 949:Generated_Source\PSoC4/BLE.c ****     *   CYBLE_EVT_GAPC_SCAN_PROGRESS_RESULT.
 950:Generated_Source\PSoC4/BLE.c ****     *   If 'scanTo' sub-parameter is a non-zero value, then upon commencement of 
 951:Generated_Source\PSoC4/BLE.c ****     *   discovery procedure and elapsed time = 'scanTo', CYBLE_EVT_TIMEOUT event
 952:Generated_Source\PSoC4/BLE.c ****     *   is generated with the event parameter indicating CYBLE_GAP_SCAN_TO.
 953:Generated_Source\PSoC4/BLE.c ****     *   Possible generated events are:
 954:Generated_Source\PSoC4/BLE.c ****     *   * CYBLE_EVT_GAPC_SCAN_START_STOP: If a device started or stopped scanning. 
 955:Generated_Source\PSoC4/BLE.c ****     *                                     Use CyBle_GetState() to determine the 
 956:Generated_Source\PSoC4/BLE.c ****     *                                     state. Sequential scanning could be 
 957:Generated_Source\PSoC4/BLE.c ****     *                                     started when CYBLE_STATE_DISCONNECTED 
 958:Generated_Source\PSoC4/BLE.c ****     *                                     state is returned. 
 959:Generated_Source\PSoC4/BLE.c ****     *   * CYBLE_EVT_GAPC_SCAN_PROGRESS_RESULT 
 960:Generated_Source\PSoC4/BLE.c ****     *   * CYBLE_EVT_TIMEOUT (CYBLE_GAP_SCAN_TO)
 961:Generated_Source\PSoC4/BLE.c ****     * 
 962:Generated_Source\PSoC4/BLE.c ****     *   \param scanningIntervalType:  Fast or slow scanning interval with
 963:Generated_Source\PSoC4/BLE.c ****     *       timings entered in Scan settings section of the customizer.
 964:Generated_Source\PSoC4/BLE.c ****     * 	  * CYBLE_SCANNING_FAST   0x00u
 965:Generated_Source\PSoC4/BLE.c ****     * 	  * CYBLE_SCANNING_SLOW   0x01u
 966:Generated_Source\PSoC4/BLE.c ****     * 	  * CYBLE_SCANNING_CUSTOM 0x02u
 967:Generated_Source\PSoC4/BLE.c ****     * 
 968:Generated_Source\PSoC4/BLE.c ****     * \return
 969:Generated_Source\PSoC4/BLE.c ****     *  CYBLE_API_RESULT_T : Return value indicates if the function succeeded or
 970:Generated_Source\PSoC4/BLE.c ****     *  failed. Following are the possible error codes.
 971:Generated_Source\PSoC4/BLE.c ****     *
 972:Generated_Source\PSoC4/BLE.c ****     *   Errors codes                       | Description
 973:Generated_Source\PSoC4/BLE.c ****     *   ---------------------------------- | -----------------------------------
 974:Generated_Source\PSoC4/BLE.c ****     *   CYBLE_ERROR_OK                     | On successful operation.
 975:Generated_Source\PSoC4/BLE.c ****     *   CYBLE_ERROR_STACK_INTERNAL         | An error occurred in the BLE stack.
 976:Generated_Source\PSoC4/BLE.c ****     *   CYBLE_ERROR_INVALID_PARAMETER      | On passing an invalid parameter.
 977:Generated_Source\PSoC4/BLE.c ****     *  
 978:Generated_Source\PSoC4/BLE.c ****     *******************************************************************************/
 979:Generated_Source\PSoC4/BLE.c ****     CYBLE_API_RESULT_T CyBle_GapcStartScan(uint8 scanningIntervalType)
 980:Generated_Source\PSoC4/BLE.c ****     {
 981:Generated_Source\PSoC4/BLE.c ****         CYBLE_API_RESULT_T apiResult;
 982:Generated_Source\PSoC4/BLE.c **** 
 983:Generated_Source\PSoC4/BLE.c ****         if(scanningIntervalType > CYBLE_SCANNING_CUSTOM)
 984:Generated_Source\PSoC4/BLE.c ****         {
 985:Generated_Source\PSoC4/BLE.c ****             apiResult = CYBLE_ERROR_INVALID_PARAMETER;
 986:Generated_Source\PSoC4/BLE.c ****         }
 987:Generated_Source\PSoC4/BLE.c ****         else
 988:Generated_Source\PSoC4/BLE.c ****         {
 989:Generated_Source\PSoC4/BLE.c ****             if(scanningIntervalType == CYBLE_SCANNING_FAST)
 990:Generated_Source\PSoC4/BLE.c ****             {
ARM GAS  C:\Users\Sarah\AppData\Local\Temp\ccXRs73K.s 			page 31


 991:Generated_Source\PSoC4/BLE.c ****                 cyBle_discoveryInfo.scanTo = CYBLE_FAST_SCAN_TIMEOUT;
 992:Generated_Source\PSoC4/BLE.c ****                 cyBle_discoveryInfo.scanIntv = CYBLE_FAST_SCAN_INTERVAL;
 993:Generated_Source\PSoC4/BLE.c ****                 cyBle_discoveryInfo.scanWindow = CYBLE_FAST_SCAN_WINDOW;
 994:Generated_Source\PSoC4/BLE.c ****             }
 995:Generated_Source\PSoC4/BLE.c ****             else if(scanningIntervalType == CYBLE_SCANNING_SLOW)
 996:Generated_Source\PSoC4/BLE.c ****             {
 997:Generated_Source\PSoC4/BLE.c ****                 cyBle_discoveryInfo.scanTo = CYBLE_SLOW_SCAN_TIMEOUT;
 998:Generated_Source\PSoC4/BLE.c ****                 cyBle_discoveryInfo.scanIntv = CYBLE_SLOW_SCAN_INTERVAL;
 999:Generated_Source\PSoC4/BLE.c ****                 cyBle_discoveryInfo.scanWindow = CYBLE_SLOW_SCAN_WINDOW;
1000:Generated_Source\PSoC4/BLE.c ****             }       
1001:Generated_Source\PSoC4/BLE.c ****             else /* Do not update scanning intervals */
1002:Generated_Source\PSoC4/BLE.c ****             {
1003:Generated_Source\PSoC4/BLE.c ****             }
1004:Generated_Source\PSoC4/BLE.c ****             
1005:Generated_Source\PSoC4/BLE.c ****             cyBle_scanningIntervalType = scanningIntervalType;
1006:Generated_Source\PSoC4/BLE.c ****             apiResult = CyBle_GapcStartDiscovery(&cyBle_discoveryInfo);
1007:Generated_Source\PSoC4/BLE.c ****         
1008:Generated_Source\PSoC4/BLE.c ****             if(apiResult == CYBLE_ERROR_OK)
1009:Generated_Source\PSoC4/BLE.c ****             {
1010:Generated_Source\PSoC4/BLE.c ****                 cyBle_eventHandlerFlag |= CYBLE_START_FLAG;
1011:Generated_Source\PSoC4/BLE.c ****             }
1012:Generated_Source\PSoC4/BLE.c ****         }
1013:Generated_Source\PSoC4/BLE.c ****        
1014:Generated_Source\PSoC4/BLE.c ****         return (apiResult);
1015:Generated_Source\PSoC4/BLE.c ****     }
1016:Generated_Source\PSoC4/BLE.c ****     
1017:Generated_Source\PSoC4/BLE.c ****     
1018:Generated_Source\PSoC4/BLE.c ****     /******************************************************************************
1019:Generated_Source\PSoC4/BLE.c ****     * Function Name: CyBle_GapcStopScan
1020:Generated_Source\PSoC4/BLE.c ****     ***************************************************************************//**
1021:Generated_Source\PSoC4/BLE.c ****     * 
1022:Generated_Source\PSoC4/BLE.c ****     *   This function used to stop the discovery of devices. On stopping discovery
1023:Generated_Source\PSoC4/BLE.c ****     *   operation, CYBLE_EVT_GAPC_SCAN_START_STOP event is generated. Application
1024:Generated_Source\PSoC4/BLE.c ****     *   layer needs to keep track of the function call made before receiving this
1025:Generated_Source\PSoC4/BLE.c ****     *   event to associate this event with either the start or stop discovery
1026:Generated_Source\PSoC4/BLE.c ****     *   function.
1027:Generated_Source\PSoC4/BLE.c ****     * 
1028:Generated_Source\PSoC4/BLE.c ****     *   Possible events generated are:
1029:Generated_Source\PSoC4/BLE.c ****     *    * CYBLE_EVT_GAPC_SCAN_START_STOP
1030:Generated_Source\PSoC4/BLE.c ****     * 
1031:Generated_Source\PSoC4/BLE.c ****     *  \return
1032:Generated_Source\PSoC4/BLE.c ****     *   None
1033:Generated_Source\PSoC4/BLE.c ****     * 
1034:Generated_Source\PSoC4/BLE.c ****     *******************************************************************************/
1035:Generated_Source\PSoC4/BLE.c ****     void CyBle_GapcStopScan(void)
1036:Generated_Source\PSoC4/BLE.c ****     {
1037:Generated_Source\PSoC4/BLE.c ****         CyBle_GapcStopDiscovery();
1038:Generated_Source\PSoC4/BLE.c ****         
1039:Generated_Source\PSoC4/BLE.c ****         cyBle_eventHandlerFlag |= CYBLE_STOP_FLAG;
1040:Generated_Source\PSoC4/BLE.c ****     }
1041:Generated_Source\PSoC4/BLE.c **** 
1042:Generated_Source\PSoC4/BLE.c ****     
1043:Generated_Source\PSoC4/BLE.c **** #endif /* CYBLE_GAP_ROLE_CENTRAL || CYBLE_GAP_ROLE_OBSERVER */
1044:Generated_Source\PSoC4/BLE.c **** 
1045:Generated_Source\PSoC4/BLE.c **** 
1046:Generated_Source\PSoC4/BLE.c **** #if(CYBLE_GAP_ROLE_CENTRAL)
1047:Generated_Source\PSoC4/BLE.c **** 
ARM GAS  C:\Users\Sarah\AppData\Local\Temp\ccXRs73K.s 			page 32


1048:Generated_Source\PSoC4/BLE.c ****     /******************************************************************************
1049:Generated_Source\PSoC4/BLE.c ****     * Function Name: CyBle_GapcConnectDevice
1050:Generated_Source\PSoC4/BLE.c ****     ***************************************************************************//**
1051:Generated_Source\PSoC4/BLE.c ****     * 
1052:Generated_Source\PSoC4/BLE.c ****     *  This function is used to send a connection request to the remote device with
1053:Generated_Source\PSoC4/BLE.c ****     *  the connection parameters set in the component customizer. This function needs
1054:Generated_Source\PSoC4/BLE.c ****     *  to be called only once after the target device is discovered by 
1055:Generated_Source\PSoC4/BLE.c ****     *  CyBle_GapcStartScan() and further scanning has stopped. Scanning is 
1056:Generated_Source\PSoC4/BLE.c ****     *  successfully stopped on invoking CyBle_GapcStopScan() and then receiving the
1057:Generated_Source\PSoC4/BLE.c ****     *  event CYBLE_EVT_GAPC_SCAN_START_STOP with sub-parameter 'success' = 0x01u.
1058:Generated_Source\PSoC4/BLE.c ****     *  
1059:Generated_Source\PSoC4/BLE.c ****     *  On successful connection, the following events are generated at the GAP 
1060:Generated_Source\PSoC4/BLE.c ****     *  Central device (as well as the GAP Peripheral device), in the following order.
1061:Generated_Source\PSoC4/BLE.c ****     *  * CYBLE_EVT_GATT_CONNECT_IND
1062:Generated_Source\PSoC4/BLE.c ****     *  * CYBLE_EVT_GAP_DEVICE_CONNECTED - If the device connects to a GAP Central and 
1063:Generated_Source\PSoC4/BLE.c ****     *    Link Layer Privacy is disabled in component customizer.
1064:Generated_Source\PSoC4/BLE.c ****     *  * CYBLE_EVT_GAP_ENHANCE_CONN_COMPLETE - If the device connects to a GAP Central and 
1065:Generated_Source\PSoC4/BLE.c ****     *    Link Layer Privacy is enabled in component customizer.
1066:Generated_Source\PSoC4/BLE.c ****     *  * CYBLE_EVT_GAP_DEVICE_CONNECTED
1067:Generated_Source\PSoC4/BLE.c ****     *  
1068:Generated_Source\PSoC4/BLE.c ****     *  A procedure is considered to have timed out if a connection response packet is 
1069:Generated_Source\PSoC4/BLE.c ****     *  not received within time set by cyBle_connectingTimeout global variable
1070:Generated_Source\PSoC4/BLE.c ****     *  (30 seconds by default). CYBLE_EVT_TIMEOUT event with CYBLE_GENERIC_TO parameter
1071:Generated_Source\PSoC4/BLE.c ****     *  will indicate about connection procedure timeout. Connection will automatically
1072:Generated_Source\PSoC4/BLE.c ****     *  be canceled and state will be changed to CYBLE_STATE_DISCONNECTED.
1073:Generated_Source\PSoC4/BLE.c ****     * 
1074:Generated_Source\PSoC4/BLE.c ****     *  \param address: The device address of the remote device to connect to. 
1075:Generated_Source\PSoC4/BLE.c ****     *  
1076:Generated_Source\PSoC4/BLE.c ****     * \return
1077:Generated_Source\PSoC4/BLE.c ****     *  CYBLE_API_RESULT_T : Return value indicates if the function succeeded or 
1078:Generated_Source\PSoC4/BLE.c ****     *  failed. Following are the possible error codes.
1079:Generated_Source\PSoC4/BLE.c ****     *
1080:Generated_Source\PSoC4/BLE.c ****     *   Errors codes                       | Description
1081:Generated_Source\PSoC4/BLE.c ****     *   ------------                       | -----------
1082:Generated_Source\PSoC4/BLE.c ****     *   CYBLE_ERROR_OK                     | On successful operation.
1083:Generated_Source\PSoC4/BLE.c ****     *   CYBLE_ERROR_STACK_INTERNAL         | On error occurred in the BLE stack.
1084:Generated_Source\PSoC4/BLE.c ****     *   CYBLE_ERROR_INVALID_PARAMETER      | On passing an invalid parameter.
1085:Generated_Source\PSoC4/BLE.c ****     *   CYBLE_ERROR_INVALID_STATE          | On calling this API not in Disconnected state.
1086:Generated_Source\PSoC4/BLE.c ****     *  
1087:Generated_Source\PSoC4/BLE.c ****     ******************************************************************************/
1088:Generated_Source\PSoC4/BLE.c ****     CYBLE_API_RESULT_T CyBle_GapcConnectDevice(const CYBLE_GAP_BD_ADDR_T * address)
1089:Generated_Source\PSoC4/BLE.c ****     {
1090:Generated_Source\PSoC4/BLE.c ****         CYBLE_API_RESULT_T apiResult;
1091:Generated_Source\PSoC4/BLE.c ****         uint8 i;
1092:Generated_Source\PSoC4/BLE.c **** 
1093:Generated_Source\PSoC4/BLE.c ****         if(CyBle_GetState() != CYBLE_STATE_DISCONNECTED)
1094:Generated_Source\PSoC4/BLE.c ****         {
1095:Generated_Source\PSoC4/BLE.c ****             apiResult = CYBLE_ERROR_INVALID_STATE;
1096:Generated_Source\PSoC4/BLE.c ****         }
1097:Generated_Source\PSoC4/BLE.c ****         else if(address == NULL)
1098:Generated_Source\PSoC4/BLE.c ****         {
1099:Generated_Source\PSoC4/BLE.c ****             apiResult = CYBLE_ERROR_INVALID_PARAMETER;
1100:Generated_Source\PSoC4/BLE.c ****         }
1101:Generated_Source\PSoC4/BLE.c ****         else
1102:Generated_Source\PSoC4/BLE.c ****         {
1103:Generated_Source\PSoC4/BLE.c ****             for(i = 0u; i < CYBLE_GAP_BD_ADDR_SIZE; i++)
1104:Generated_Source\PSoC4/BLE.c ****             {
ARM GAS  C:\Users\Sarah\AppData\Local\Temp\ccXRs73K.s 			page 33


1105:Generated_Source\PSoC4/BLE.c ****                 cyBle_connectionParameters.peerBdAddr[i] = address->bdAddr[i];
1106:Generated_Source\PSoC4/BLE.c ****             }
1107:Generated_Source\PSoC4/BLE.c ****             cyBle_connectionParameters.peerAddrType = address -> type;
1108:Generated_Source\PSoC4/BLE.c ****             apiResult = CyBle_GapcInitConnection(&cyBle_connectionParameters);
1109:Generated_Source\PSoC4/BLE.c ****             
1110:Generated_Source\PSoC4/BLE.c ****             if(apiResult == CYBLE_ERROR_OK)
1111:Generated_Source\PSoC4/BLE.c ****             {
1112:Generated_Source\PSoC4/BLE.c ****                 CyBle_SetState(CYBLE_STATE_CONNECTING);
1113:Generated_Source\PSoC4/BLE.c ****                 if(cyBle_connectingTimeout != 0u)
1114:Generated_Source\PSoC4/BLE.c ****                 {
1115:Generated_Source\PSoC4/BLE.c ****                     (void)CyBle_StartTimer(cyBle_connectingTimeout);
1116:Generated_Source\PSoC4/BLE.c ****                 }
1117:Generated_Source\PSoC4/BLE.c ****             }
1118:Generated_Source\PSoC4/BLE.c ****         }
1119:Generated_Source\PSoC4/BLE.c ****         return (apiResult);
1120:Generated_Source\PSoC4/BLE.c ****     }
1121:Generated_Source\PSoC4/BLE.c ****     
1122:Generated_Source\PSoC4/BLE.c **** 
1123:Generated_Source\PSoC4/BLE.c ****     /******************************************************************************
1124:Generated_Source\PSoC4/BLE.c ****     * Function Name: CyBle_GapcCancelDeviceConnection
1125:Generated_Source\PSoC4/BLE.c ****     ***************************************************************************//**
1126:Generated_Source\PSoC4/BLE.c ****     * 
1127:Generated_Source\PSoC4/BLE.c ****     *  This function cancels a previously initiated connection with the remote 
1128:Generated_Source\PSoC4/BLE.c ****     *  device. It is a blocking function. No event is generated on calling this 
1129:Generated_Source\PSoC4/BLE.c ****     *  function. If the devices are already connected then this function should not
1130:Generated_Source\PSoC4/BLE.c ****     *  be used. If you intend to disconnect from an existing connection, the function
1131:Generated_Source\PSoC4/BLE.c ****     *  CyBle_GapDisconnect() should be used.
1132:Generated_Source\PSoC4/BLE.c ****     * 
1133:Generated_Source\PSoC4/BLE.c ****     * \return
1134:Generated_Source\PSoC4/BLE.c ****     *  CYBLE_API_RESULT_T : Return value indicates if the function succeeded or 
1135:Generated_Source\PSoC4/BLE.c ****     *  failed. Following are the possible error codes.
1136:Generated_Source\PSoC4/BLE.c ****     *
1137:Generated_Source\PSoC4/BLE.c ****     *   Errors codes                       | Description
1138:Generated_Source\PSoC4/BLE.c ****     *   ---------------------------------- | --------------------------------------
1139:Generated_Source\PSoC4/BLE.c ****     *   CYBLE_ERROR_OK                     | On successful operation.
1140:Generated_Source\PSoC4/BLE.c ****     *   CYBLE_ERROR_STACK_INTERNAL         | An error occurred in the BLE stack.
1141:Generated_Source\PSoC4/BLE.c ****     *   CYBLE_ERROR_INVALID_STATE          | On calling this API not in Connecting state.
1142:Generated_Source\PSoC4/BLE.c ****     *  
1143:Generated_Source\PSoC4/BLE.c ****     *******************************************************************************/
1144:Generated_Source\PSoC4/BLE.c ****     CYBLE_API_RESULT_T CyBle_GapcCancelDeviceConnection(void)
1145:Generated_Source\PSoC4/BLE.c ****     {
1146:Generated_Source\PSoC4/BLE.c ****         CYBLE_API_RESULT_T apiResult;
1147:Generated_Source\PSoC4/BLE.c ****         
1148:Generated_Source\PSoC4/BLE.c ****         if(CyBle_GetState() != CYBLE_STATE_CONNECTING)
1149:Generated_Source\PSoC4/BLE.c ****         {
1150:Generated_Source\PSoC4/BLE.c ****             apiResult = CYBLE_ERROR_INVALID_STATE;
1151:Generated_Source\PSoC4/BLE.c ****         }
1152:Generated_Source\PSoC4/BLE.c ****         else 
1153:Generated_Source\PSoC4/BLE.c ****         {
1154:Generated_Source\PSoC4/BLE.c ****             apiResult = CyBle_GapcCancelConnection();
1155:Generated_Source\PSoC4/BLE.c ****             
1156:Generated_Source\PSoC4/BLE.c ****             if(cyBle_connectingTimeout != 0u)
1157:Generated_Source\PSoC4/BLE.c ****             {
1158:Generated_Source\PSoC4/BLE.c ****                 (void)CyBle_StopTimer();
1159:Generated_Source\PSoC4/BLE.c ****             }
1160:Generated_Source\PSoC4/BLE.c **** 
1161:Generated_Source\PSoC4/BLE.c ****             if(apiResult == CYBLE_ERROR_OK)
ARM GAS  C:\Users\Sarah\AppData\Local\Temp\ccXRs73K.s 			page 34


1162:Generated_Source\PSoC4/BLE.c ****             {
1163:Generated_Source\PSoC4/BLE.c ****                 CyBle_SetState(CYBLE_STATE_DISCONNECTED);
1164:Generated_Source\PSoC4/BLE.c ****             }
1165:Generated_Source\PSoC4/BLE.c ****         }
1166:Generated_Source\PSoC4/BLE.c ****         return (apiResult);
1167:Generated_Source\PSoC4/BLE.c ****     }    
1168:Generated_Source\PSoC4/BLE.c **** 
1169:Generated_Source\PSoC4/BLE.c ****     
1170:Generated_Source\PSoC4/BLE.c **** #endif /* CYBLE_GAP_ROLE_CENTRAL */
1171:Generated_Source\PSoC4/BLE.c **** 
1172:Generated_Source\PSoC4/BLE.c **** 
1173:Generated_Source\PSoC4/BLE.c **** #if(CYBLE_GATT_ROLE_SERVER)
1174:Generated_Source\PSoC4/BLE.c **** 
1175:Generated_Source\PSoC4/BLE.c **** #if(CYBLE_GAP_ROLE_PERIPHERAL)
1176:Generated_Source\PSoC4/BLE.c **** 
1177:Generated_Source\PSoC4/BLE.c ****         /******************************************************************************
1178:Generated_Source\PSoC4/BLE.c ****         * Function Name: CyBle_ChangeAdLocalName
1179:Generated_Source\PSoC4/BLE.c ****         ***************************************************************************//**
1180:Generated_Source\PSoC4/BLE.c ****         *  This API is used to set the local device name in the advertisement or scan 
1181:Generated_Source\PSoC4/BLE.c ****         *  response data structure.
1182:Generated_Source\PSoC4/BLE.c ****         * 
1183:Generated_Source\PSoC4/BLE.c ****         *  \param name: The local device name string to be set in advertisement data 
1184:Generated_Source\PSoC4/BLE.c ****         *            structure.
1185:Generated_Source\PSoC4/BLE.c ****         *  \param dest: 0 - advertisement structure, not zero value selects scan response
1186:Generated_Source\PSoC4/BLE.c ****         *              structure.
1187:Generated_Source\PSoC4/BLE.c ****         * 
1188:Generated_Source\PSoC4/BLE.c ****         * \return
1189:Generated_Source\PSoC4/BLE.c ****         *  None
1190:Generated_Source\PSoC4/BLE.c ****         *  
1191:Generated_Source\PSoC4/BLE.c ****         *******************************************************************************/
1192:Generated_Source\PSoC4/BLE.c ****         static void CyBle_ChangeAdLocalName(const char8 name[], uint8 dest)
1193:Generated_Source\PSoC4/BLE.c ****         {
 710              		.loc 1 1193 0
 711              		.cfi_startproc
 712 0000 80B5     		push	{r7, lr}
 713              		.cfi_def_cfa_offset 8
 714              		.cfi_offset 7, -8
 715              		.cfi_offset 14, -4
 716 0002 86B0     		sub	sp, sp, #24
 717              		.cfi_def_cfa_offset 32
 718 0004 00AF     		add	r7, sp, #0
 719              		.cfi_def_cfa_register 7
 720 0006 7860     		str	r0, [r7, #4]
 721 0008 0A1C     		mov	r2, r1
 722 000a FB1C     		add	r3, r7, #3
 723 000c 1A70     		strb	r2, [r3]
1194:Generated_Source\PSoC4/BLE.c ****             uint8 i;
1195:Generated_Source\PSoC4/BLE.c ****             uint8 flag = 0u;
 724              		.loc 1 1195 0
 725 000e 1623     		mov	r3, #22
 726 0010 FB18     		add	r3, r7, r3
 727 0012 0022     		mov	r2, #0
 728 0014 1A70     		strb	r2, [r3]
1196:Generated_Source\PSoC4/BLE.c ****             uint8 adLength = 0u;
 729              		.loc 1 1196 0
 730 0016 1523     		mov	r3, #21
 731 0018 FB18     		add	r3, r7, r3
ARM GAS  C:\Users\Sarah\AppData\Local\Temp\ccXRs73K.s 			page 35


 732 001a 0022     		mov	r2, #0
 733 001c 1A70     		strb	r2, [r3]
1197:Generated_Source\PSoC4/BLE.c ****             uint8 byteCounter = 0u;
 734              		.loc 1 1197 0
 735 001e 1423     		mov	r3, #20
 736 0020 FB18     		add	r3, r7, r3
 737 0022 0022     		mov	r2, #0
 738 0024 1A70     		strb	r2, [r3]
1198:Generated_Source\PSoC4/BLE.c ****             uint8 *destBuffer;
1199:Generated_Source\PSoC4/BLE.c ****             uint8 maxLength;
1200:Generated_Source\PSoC4/BLE.c ****             
1201:Generated_Source\PSoC4/BLE.c ****             if(dest == 0u)      /* Destination - advertising structure */
 739              		.loc 1 1201 0
 740 0026 FB1C     		add	r3, r7, #3
 741 0028 1B78     		ldrb	r3, [r3]
 742 002a 002B     		cmp	r3, #0
 743 002c 07D1     		bne	.L35
1202:Generated_Source\PSoC4/BLE.c ****             {
1203:Generated_Source\PSoC4/BLE.c ****                 destBuffer = cyBle_discoveryData.advData;
 744              		.loc 1 1203 0
 745 002e 5B4B     		ldr	r3, .L50
 746 0030 3B61     		str	r3, [r7, #16]
1204:Generated_Source\PSoC4/BLE.c ****                 maxLength = cyBle_discoveryData.advDataLen;
 747              		.loc 1 1204 0
 748 0032 0F23     		mov	r3, #15
 749 0034 FB18     		add	r3, r7, r3
 750 0036 594A     		ldr	r2, .L50
 751 0038 D27F     		ldrb	r2, [r2, #31]
 752 003a 1A70     		strb	r2, [r3]
 753 003c 06E0     		b	.L36
 754              	.L35:
1205:Generated_Source\PSoC4/BLE.c ****             }
1206:Generated_Source\PSoC4/BLE.c ****             else                /* Destination - scan response structure */
1207:Generated_Source\PSoC4/BLE.c ****             {
1208:Generated_Source\PSoC4/BLE.c ****                 destBuffer = cyBle_scanRspData.scanRspData;
 755              		.loc 1 1208 0
 756 003e 584B     		ldr	r3, .L50+4
 757 0040 3B61     		str	r3, [r7, #16]
1209:Generated_Source\PSoC4/BLE.c ****                 maxLength = cyBle_scanRspData.scanRspDataLen;
 758              		.loc 1 1209 0
 759 0042 0F23     		mov	r3, #15
 760 0044 FB18     		add	r3, r7, r3
 761 0046 564A     		ldr	r2, .L50+4
 762 0048 D27F     		ldrb	r2, [r2, #31]
 763 004a 1A70     		strb	r2, [r3]
 764              	.L36:
1210:Generated_Source\PSoC4/BLE.c ****             }
1211:Generated_Source\PSoC4/BLE.c ****             
1212:Generated_Source\PSoC4/BLE.c ****             while((byteCounter < maxLength) && (flag == 0u))
 765              		.loc 1 1212 0
 766 004c 35E0     		b	.L37
 767              	.L43:
1213:Generated_Source\PSoC4/BLE.c ****             {
1214:Generated_Source\PSoC4/BLE.c ****                 adLength = destBuffer[byteCounter];
 768              		.loc 1 1214 0
 769 004e 1423     		mov	r3, #20
 770 0050 FB18     		add	r3, r7, r3
ARM GAS  C:\Users\Sarah\AppData\Local\Temp\ccXRs73K.s 			page 36


 771 0052 1B78     		ldrb	r3, [r3]
 772 0054 3A69     		ldr	r2, [r7, #16]
 773 0056 D218     		add	r2, r2, r3
 774 0058 1523     		mov	r3, #21
 775 005a FB18     		add	r3, r7, r3
 776 005c 1278     		ldrb	r2, [r2]
 777 005e 1A70     		strb	r2, [r3]
1215:Generated_Source\PSoC4/BLE.c ****                 
1216:Generated_Source\PSoC4/BLE.c ****                 if(0u != adLength)
 778              		.loc 1 1216 0
 779 0060 1523     		mov	r3, #21
 780 0062 FB18     		add	r3, r7, r3
 781 0064 1B78     		ldrb	r3, [r3]
 782 0066 002B     		cmp	r3, #0
 783 0068 26D0     		beq	.L38
1217:Generated_Source\PSoC4/BLE.c ****                 {
1218:Generated_Source\PSoC4/BLE.c ****                     /* Increment byte counter so it can point to AD type */
1219:Generated_Source\PSoC4/BLE.c ****                     byteCounter++;
 784              		.loc 1 1219 0
 785 006a 1423     		mov	r3, #20
 786 006c FB18     		add	r3, r7, r3
 787 006e 1A78     		ldrb	r2, [r3]
 788 0070 1423     		mov	r3, #20
 789 0072 FB18     		add	r3, r7, r3
 790 0074 0132     		add	r2, r2, #1
 791 0076 1A70     		strb	r2, [r3]
1220:Generated_Source\PSoC4/BLE.c ****                     
1221:Generated_Source\PSoC4/BLE.c ****                     if((destBuffer[byteCounter] == CYBLE_SHORT_LOCAL_NAME) || 
 792              		.loc 1 1221 0
 793 0078 1423     		mov	r3, #20
 794 007a FB18     		add	r3, r7, r3
 795 007c 1B78     		ldrb	r3, [r3]
 796 007e 3A69     		ldr	r2, [r7, #16]
 797 0080 D318     		add	r3, r2, r3
 798 0082 1B78     		ldrb	r3, [r3]
 799 0084 082B     		cmp	r3, #8
 800 0086 07D0     		beq	.L39
1222:Generated_Source\PSoC4/BLE.c ****                        (destBuffer[byteCounter] == CYBLE_COMPLETE_LOCAL_NAME))
 801              		.loc 1 1222 0 discriminator 1
 802 0088 1423     		mov	r3, #20
 803 008a FB18     		add	r3, r7, r3
 804 008c 1B78     		ldrb	r3, [r3]
 805 008e 3A69     		ldr	r2, [r7, #16]
 806 0090 D318     		add	r3, r2, r3
 807 0092 1B78     		ldrb	r3, [r3]
1221:Generated_Source\PSoC4/BLE.c ****                        (destBuffer[byteCounter] == CYBLE_COMPLETE_LOCAL_NAME))
 808              		.loc 1 1221 0 discriminator 1
 809 0094 092B     		cmp	r3, #9
 810 0096 04D1     		bne	.L40
 811              	.L39:
1223:Generated_Source\PSoC4/BLE.c ****                     {
1224:Generated_Source\PSoC4/BLE.c ****                         /* Start of the Local Name AD type was fount. Set flag and exit the loop. *
1225:Generated_Source\PSoC4/BLE.c ****                         flag = 1u;
 812              		.loc 1 1225 0
 813 0098 1623     		mov	r3, #22
 814 009a FB18     		add	r3, r7, r3
 815 009c 0122     		mov	r2, #1
ARM GAS  C:\Users\Sarah\AppData\Local\Temp\ccXRs73K.s 			page 37


 816 009e 1A70     		strb	r2, [r3]
 817 00a0 09E0     		b	.L41
 818              	.L40:
1226:Generated_Source\PSoC4/BLE.c ****                     }
1227:Generated_Source\PSoC4/BLE.c ****                     else
1228:Generated_Source\PSoC4/BLE.c ****                     {
1229:Generated_Source\PSoC4/BLE.c ****                         byteCounter += adLength;
 819              		.loc 1 1229 0
 820 00a2 1423     		mov	r3, #20
 821 00a4 FB18     		add	r3, r7, r3
 822 00a6 1422     		mov	r2, #20
 823 00a8 B918     		add	r1, r7, r2
 824 00aa 1522     		mov	r2, #21
 825 00ac BA18     		add	r2, r7, r2
 826 00ae 0978     		ldrb	r1, [r1]
 827 00b0 1278     		ldrb	r2, [r2]
 828 00b2 8A18     		add	r2, r1, r2
 829 00b4 1A70     		strb	r2, [r3]
 830              	.L41:
 831 00b6 00E0     		b	.L37
 832              	.L38:
1230:Generated_Source\PSoC4/BLE.c ****                     }
1231:Generated_Source\PSoC4/BLE.c ****                 }
1232:Generated_Source\PSoC4/BLE.c ****                 else
1233:Generated_Source\PSoC4/BLE.c ****                 {
1234:Generated_Source\PSoC4/BLE.c ****                     /* The end of advertisement data structure was encountered though exit the loop
1235:Generated_Source\PSoC4/BLE.c ****                     break;
 833              		.loc 1 1235 0
 834 00b8 0CE0     		b	.L42
 835              	.L37:
1212:Generated_Source\PSoC4/BLE.c ****             {
 836              		.loc 1 1212 0
 837 00ba 1423     		mov	r3, #20
 838 00bc FA18     		add	r2, r7, r3
 839 00be 0F23     		mov	r3, #15
 840 00c0 FB18     		add	r3, r7, r3
 841 00c2 1278     		ldrb	r2, [r2]
 842 00c4 1B78     		ldrb	r3, [r3]
 843 00c6 9A42     		cmp	r2, r3
 844 00c8 04D2     		bcs	.L42
1212:Generated_Source\PSoC4/BLE.c ****             {
 845              		.loc 1 1212 0 is_stmt 0 discriminator 1
 846 00ca 1623     		mov	r3, #22
 847 00cc FB18     		add	r3, r7, r3
 848 00ce 1B78     		ldrb	r3, [r3]
 849 00d0 002B     		cmp	r3, #0
 850 00d2 BCD0     		beq	.L43
 851              	.L42:
1236:Generated_Source\PSoC4/BLE.c ****                 }
1237:Generated_Source\PSoC4/BLE.c ****             }
1238:Generated_Source\PSoC4/BLE.c ****             
1239:Generated_Source\PSoC4/BLE.c ****             if(0u != flag)
 852              		.loc 1 1239 0 is_stmt 1
 853 00d4 1623     		mov	r3, #22
 854 00d6 FB18     		add	r3, r7, r3
 855 00d8 1B78     		ldrb	r3, [r3]
 856 00da 002B     		cmp	r3, #0
ARM GAS  C:\Users\Sarah\AppData\Local\Temp\ccXRs73K.s 			page 38


 857 00dc 5BD0     		beq	.L34
1240:Generated_Source\PSoC4/BLE.c ****             {
1241:Generated_Source\PSoC4/BLE.c ****                 /* Reuse "adLength" to hold location of the last character of local name in 
1242:Generated_Source\PSoC4/BLE.c ****                    AD structure. */
1243:Generated_Source\PSoC4/BLE.c ****                 adLength += byteCounter;
 858              		.loc 1 1243 0
 859 00de 1523     		mov	r3, #21
 860 00e0 FB18     		add	r3, r7, r3
 861 00e2 1522     		mov	r2, #21
 862 00e4 B918     		add	r1, r7, r2
 863 00e6 1422     		mov	r2, #20
 864 00e8 BA18     		add	r2, r7, r2
 865 00ea 0978     		ldrb	r1, [r1]
 866 00ec 1278     		ldrb	r2, [r2]
 867 00ee 8A18     		add	r2, r1, r2
 868 00f0 1A70     		strb	r2, [r3]
1244:Generated_Source\PSoC4/BLE.c ****                 
1245:Generated_Source\PSoC4/BLE.c ****                 /* Increment byte counter to point to start of the local Name string */
1246:Generated_Source\PSoC4/BLE.c ****                 byteCounter++;
 869              		.loc 1 1246 0
 870 00f2 1423     		mov	r3, #20
 871 00f4 FB18     		add	r3, r7, r3
 872 00f6 1A78     		ldrb	r2, [r3]
 873 00f8 1423     		mov	r3, #20
 874 00fa FB18     		add	r3, r7, r3
 875 00fc 0132     		add	r2, r2, #1
 876 00fe 1A70     		strb	r2, [r3]
1247:Generated_Source\PSoC4/BLE.c ****                 
1248:Generated_Source\PSoC4/BLE.c ****                 for(i = byteCounter; ((i < (adLength)) && (CYBLE_NULL_CHARCTER != name[i - byteCoun
 877              		.loc 1 1248 0
 878 0100 1723     		mov	r3, #23
 879 0102 FB18     		add	r3, r7, r3
 880 0104 1422     		mov	r2, #20
 881 0106 BA18     		add	r2, r7, r2
 882 0108 1278     		ldrb	r2, [r2]
 883 010a 1A70     		strb	r2, [r3]
 884 010c 17E0     		b	.L45
 885              	.L47:
1249:Generated_Source\PSoC4/BLE.c ****                 {
1250:Generated_Source\PSoC4/BLE.c ****                     destBuffer[i] = (uint8)name[i - byteCounter];
 886              		.loc 1 1250 0 discriminator 4
 887 010e 1723     		mov	r3, #23
 888 0110 FB18     		add	r3, r7, r3
 889 0112 1B78     		ldrb	r3, [r3]
 890 0114 3A69     		ldr	r2, [r7, #16]
 891 0116 D318     		add	r3, r2, r3
 892 0118 1722     		mov	r2, #23
 893 011a BA18     		add	r2, r7, r2
 894 011c 1178     		ldrb	r1, [r2]
 895 011e 1422     		mov	r2, #20
 896 0120 BA18     		add	r2, r7, r2
 897 0122 1278     		ldrb	r2, [r2]
 898 0124 8A1A     		sub	r2, r1, r2
 899 0126 111C     		mov	r1, r2
 900 0128 7A68     		ldr	r2, [r7, #4]
 901 012a 5218     		add	r2, r2, r1
 902 012c 1278     		ldrb	r2, [r2]
ARM GAS  C:\Users\Sarah\AppData\Local\Temp\ccXRs73K.s 			page 39


 903 012e 1A70     		strb	r2, [r3]
1248:Generated_Source\PSoC4/BLE.c ****                 {
 904              		.loc 1 1248 0 discriminator 4
 905 0130 1723     		mov	r3, #23
 906 0132 FB18     		add	r3, r7, r3
 907 0134 1A78     		ldrb	r2, [r3]
 908 0136 1723     		mov	r3, #23
 909 0138 FB18     		add	r3, r7, r3
 910 013a 0132     		add	r2, r2, #1
 911 013c 1A70     		strb	r2, [r3]
 912              	.L45:
1248:Generated_Source\PSoC4/BLE.c ****                 {
 913              		.loc 1 1248 0 is_stmt 0 discriminator 1
 914 013e 1723     		mov	r3, #23
 915 0140 FA18     		add	r2, r7, r3
 916 0142 1523     		mov	r3, #21
 917 0144 FB18     		add	r3, r7, r3
 918 0146 1278     		ldrb	r2, [r2]
 919 0148 1B78     		ldrb	r3, [r3]
 920 014a 9A42     		cmp	r2, r3
 921 014c 0CD2     		bcs	.L46
1248:Generated_Source\PSoC4/BLE.c ****                 {
 922              		.loc 1 1248 0 discriminator 3
 923 014e 1723     		mov	r3, #23
 924 0150 FB18     		add	r3, r7, r3
 925 0152 1A78     		ldrb	r2, [r3]
 926 0154 1423     		mov	r3, #20
 927 0156 FB18     		add	r3, r7, r3
 928 0158 1B78     		ldrb	r3, [r3]
 929 015a D31A     		sub	r3, r2, r3
 930 015c 1A1C     		mov	r2, r3
 931 015e 7B68     		ldr	r3, [r7, #4]
 932 0160 9B18     		add	r3, r3, r2
 933 0162 1B78     		ldrb	r3, [r3]
 934 0164 002B     		cmp	r3, #0
 935 0166 D2D1     		bne	.L47
 936              	.L46:
1251:Generated_Source\PSoC4/BLE.c ****                 }
1252:Generated_Source\PSoC4/BLE.c ****                 
1253:Generated_Source\PSoC4/BLE.c ****                 /* This loop handles the case when new local name is shorted than old one.
1254:Generated_Source\PSoC4/BLE.c ****                    In this case all remaining characters should be null characters. */
1255:Generated_Source\PSoC4/BLE.c ****                 while(adLength > i)
 937              		.loc 1 1255 0 is_stmt 1
 938 0168 0DE0     		b	.L48
 939              	.L49:
1256:Generated_Source\PSoC4/BLE.c ****                 {
1257:Generated_Source\PSoC4/BLE.c ****                     /* Terminate string */
1258:Generated_Source\PSoC4/BLE.c ****                     destBuffer[i] = (uint8)CYBLE_NULL_CHARCTER;
 940              		.loc 1 1258 0
 941 016a 1723     		mov	r3, #23
 942 016c FB18     		add	r3, r7, r3
 943 016e 1B78     		ldrb	r3, [r3]
 944 0170 3A69     		ldr	r2, [r7, #16]
 945 0172 D318     		add	r3, r2, r3
 946 0174 0022     		mov	r2, #0
 947 0176 1A70     		strb	r2, [r3]
1259:Generated_Source\PSoC4/BLE.c ****                     i++;
ARM GAS  C:\Users\Sarah\AppData\Local\Temp\ccXRs73K.s 			page 40


 948              		.loc 1 1259 0
 949 0178 1723     		mov	r3, #23
 950 017a FB18     		add	r3, r7, r3
 951 017c 1A78     		ldrb	r2, [r3]
 952 017e 1723     		mov	r3, #23
 953 0180 FB18     		add	r3, r7, r3
 954 0182 0132     		add	r2, r2, #1
 955 0184 1A70     		strb	r2, [r3]
 956              	.L48:
1255:Generated_Source\PSoC4/BLE.c ****                 {
 957              		.loc 1 1255 0
 958 0186 1523     		mov	r3, #21
 959 0188 FA18     		add	r2, r7, r3
 960 018a 1723     		mov	r3, #23
 961 018c FB18     		add	r3, r7, r3
 962 018e 1278     		ldrb	r2, [r2]
 963 0190 1B78     		ldrb	r3, [r3]
 964 0192 9A42     		cmp	r2, r3
 965 0194 E9D8     		bhi	.L49
 966              	.L34:
1260:Generated_Source\PSoC4/BLE.c ****                 }
1261:Generated_Source\PSoC4/BLE.c ****             }
1262:Generated_Source\PSoC4/BLE.c ****         }
 967              		.loc 1 1262 0
 968 0196 BD46     		mov	sp, r7
 969 0198 06B0     		add	sp, sp, #24
 970              		@ sp needed
 971 019a 80BD     		pop	{r7, pc}
 972              	.L51:
 973              		.align	2
 974              	.L50:
 975 019c 00000000 		.word	cyBle_discoveryData
 976 01a0 00000000 		.word	cyBle_scanRspData
 977              		.cfi_endproc
 978              	.LFE9:
 979              		.size	CyBle_ChangeAdLocalName, .-CyBle_ChangeAdLocalName
 980              		.section	.text.CyBle_GapSetLocalName,"ax",%progbits
 981              		.align	2
 982              		.global	CyBle_GapSetLocalName
 983              		.code	16
 984              		.thumb_func
 985              		.type	CyBle_GapSetLocalName, %function
 986              	CyBle_GapSetLocalName:
 987              	.LFB10:
1263:Generated_Source\PSoC4/BLE.c ****         
1264:Generated_Source\PSoC4/BLE.c **** #endif /* (CYBLE_GAP_ROLE_PERIPHERAL) */  
1265:Generated_Source\PSoC4/BLE.c ****     
1266:Generated_Source\PSoC4/BLE.c ****     
1267:Generated_Source\PSoC4/BLE.c ****     /******************************************************************************
1268:Generated_Source\PSoC4/BLE.c ****     * Function Name: CyBle_GapSetLocalName
1269:Generated_Source\PSoC4/BLE.c ****     ***************************************************************************//**
1270:Generated_Source\PSoC4/BLE.c ****     *  This API is used to set the local device name - a Characteristic of the 
1271:Generated_Source\PSoC4/BLE.c ****     *  GAP Service. If the characteristic length entered in the component customizer
1272:Generated_Source\PSoC4/BLE.c ****     *  is shorter than the string specified by the "name" parameter, the local device
1273:Generated_Source\PSoC4/BLE.c ****     *  name will be cut to the length specified in the customizer.
1274:Generated_Source\PSoC4/BLE.c ****     * 
1275:Generated_Source\PSoC4/BLE.c ****     *  \param name: The local device name string. The name string to be written as
ARM GAS  C:\Users\Sarah\AppData\Local\Temp\ccXRs73K.s 			page 41


1276:Generated_Source\PSoC4/BLE.c ****     *              the local device name. It represents a UTF-8 encoded User
1277:Generated_Source\PSoC4/BLE.c ****     *              Friendly Descriptive Name for the device. The length of the local
1278:Generated_Source\PSoC4/BLE.c ****     *              device string is entered into the component customizer and it can
1279:Generated_Source\PSoC4/BLE.c ****     *              be set to a value from 0 to 248 bytes. If the name contained in
1280:Generated_Source\PSoC4/BLE.c ****     *              the parameter is shorter than the length from the customizer, the
1281:Generated_Source\PSoC4/BLE.c ****     *              end of the name is indicated by a NULL octet (0x00).
1282:Generated_Source\PSoC4/BLE.c ****     * 
1283:Generated_Source\PSoC4/BLE.c ****     * \return
1284:Generated_Source\PSoC4/BLE.c ****     *  CYBLE_API_RESULT_T : Return value indicates if the function succeeded or 
1285:Generated_Source\PSoC4/BLE.c ****     *  failed. Following are the possible error codes.
1286:Generated_Source\PSoC4/BLE.c ****     *
1287:Generated_Source\PSoC4/BLE.c ****     *   Errors codes                       | Description
1288:Generated_Source\PSoC4/BLE.c ****     *   ------------                       | -----------
1289:Generated_Source\PSoC4/BLE.c ****     *   CYBLE_ERROR_OK                     | Function completed successfully.
1290:Generated_Source\PSoC4/BLE.c ****     *   CYBLE_ERROR_INVALID_PARAMETER      | On specifying NULL as input parameter
1291:Generated_Source\PSoC4/BLE.c ****     *  
1292:Generated_Source\PSoC4/BLE.c ****     *******************************************************************************/
1293:Generated_Source\PSoC4/BLE.c ****     CYBLE_API_RESULT_T CyBle_GapSetLocalName(const char8 name[])
1294:Generated_Source\PSoC4/BLE.c ****     {
 988              		.loc 1 1294 0
 989              		.cfi_startproc
 990 0000 80B5     		push	{r7, lr}
 991              		.cfi_def_cfa_offset 8
 992              		.cfi_offset 7, -8
 993              		.cfi_offset 14, -4
 994 0002 86B0     		sub	sp, sp, #24
 995              		.cfi_def_cfa_offset 32
 996 0004 00AF     		add	r7, sp, #0
 997              		.cfi_def_cfa_register 7
 998 0006 7860     		str	r0, [r7, #4]
1295:Generated_Source\PSoC4/BLE.c ****         CYBLE_API_RESULT_T apiResult = CYBLE_ERROR_OK;
 999              		.loc 1 1295 0
 1000 0008 1623     		mov	r3, #22
 1001 000a FB18     		add	r3, r7, r3
 1002 000c 0022     		mov	r2, #0
 1003 000e 1A80     		strh	r2, [r3]
1296:Generated_Source\PSoC4/BLE.c ****         uint8 i;
1297:Generated_Source\PSoC4/BLE.c ****         char8 *ptr;
1298:Generated_Source\PSoC4/BLE.c ****         uint8 charLen;
1299:Generated_Source\PSoC4/BLE.c **** 
1300:Generated_Source\PSoC4/BLE.c ****         if(NULL != name)
 1004              		.loc 1 1300 0
 1005 0010 7B68     		ldr	r3, [r7, #4]
 1006 0012 002B     		cmp	r3, #0
 1007 0014 5CD0     		beq	.L53
1301:Generated_Source\PSoC4/BLE.c ****         {
1302:Generated_Source\PSoC4/BLE.c ****             /* Get the pointer to the Device Name characteristic  */
1303:Generated_Source\PSoC4/BLE.c ****             ptr = (char8 *) CYBLE_GATT_DB_ATTR_GET_ATTR_GEN_PTR(cyBle_gaps.deviceNameCharHandle);
 1008              		.loc 1 1303 0
 1009 0016 344B     		ldr	r3, .L60
 1010 0018 5B88     		ldrh	r3, [r3, #2]
 1011 001a 5A1E     		sub	r2, r3, #1
 1012 001c 3349     		ldr	r1, .L60+4
 1013 001e 131C     		mov	r3, r2
 1014 0020 9B00     		lsl	r3, r3, #2
 1015 0022 9B18     		add	r3, r3, r2
 1016 0024 9B00     		lsl	r3, r3, #2
ARM GAS  C:\Users\Sarah\AppData\Local\Temp\ccXRs73K.s 			page 42


 1017 0026 CB18     		add	r3, r1, r3
 1018 0028 0833     		add	r3, r3, #8
 1019 002a 9B68     		ldr	r3, [r3, #8]
 1020 002c 5B68     		ldr	r3, [r3, #4]
 1021 002e 3B61     		str	r3, [r7, #16]
1304:Generated_Source\PSoC4/BLE.c **** 
1305:Generated_Source\PSoC4/BLE.c ****             /* First need to get the maximum length of the characteristic data in the GATT
1306:Generated_Source\PSoC4/BLE.c ****                 database to make sure there is enough place for the data. The length
1307:Generated_Source\PSoC4/BLE.c ****                 can't be longer than 248, so only the LSB of 16 bit of length is to
1308:Generated_Source\PSoC4/BLE.c ****                 be used. */
1309:Generated_Source\PSoC4/BLE.c ****             charLen = (uint8)CYBLE_GATT_DB_ATTR_GET_ATTR_GEN_MAX_LEN(cyBle_gaps.deviceNameCharHandl
 1022              		.loc 1 1309 0
 1023 0030 2D4B     		ldr	r3, .L60
 1024 0032 5B88     		ldrh	r3, [r3, #2]
 1025 0034 5A1E     		sub	r2, r3, #1
 1026 0036 2D49     		ldr	r1, .L60+4
 1027 0038 131C     		mov	r3, r2
 1028 003a 9B00     		lsl	r3, r3, #2
 1029 003c 9B18     		add	r3, r3, r2
 1030 003e 9B00     		lsl	r3, r3, #2
 1031 0040 CB18     		add	r3, r1, r3
 1032 0042 0833     		add	r3, r3, #8
 1033 0044 9A88     		ldrh	r2, [r3, #4]
 1034 0046 0F23     		mov	r3, #15
 1035 0048 FB18     		add	r3, r7, r3
 1036 004a 1A70     		strb	r2, [r3]
1310:Generated_Source\PSoC4/BLE.c **** 
1311:Generated_Source\PSoC4/BLE.c ****             /* Copy name into characteristic */
1312:Generated_Source\PSoC4/BLE.c ****             for(i = 0u; ((i < charLen) && (CYBLE_NULL_CHARCTER != name[i])); i++)
 1037              		.loc 1 1312 0
 1038 004c 1523     		mov	r3, #21
 1039 004e FB18     		add	r3, r7, r3
 1040 0050 0022     		mov	r2, #0
 1041 0052 1A70     		strb	r2, [r3]
 1042 0054 12E0     		b	.L54
 1043              	.L56:
1313:Generated_Source\PSoC4/BLE.c ****             {
1314:Generated_Source\PSoC4/BLE.c ****                 ptr[i] = name[i];
 1044              		.loc 1 1314 0 discriminator 4
 1045 0056 1523     		mov	r3, #21
 1046 0058 FB18     		add	r3, r7, r3
 1047 005a 1B78     		ldrb	r3, [r3]
 1048 005c 3A69     		ldr	r2, [r7, #16]
 1049 005e D318     		add	r3, r2, r3
 1050 0060 1522     		mov	r2, #21
 1051 0062 BA18     		add	r2, r7, r2
 1052 0064 1278     		ldrb	r2, [r2]
 1053 0066 7968     		ldr	r1, [r7, #4]
 1054 0068 8A18     		add	r2, r1, r2
 1055 006a 1278     		ldrb	r2, [r2]
 1056 006c 1A70     		strb	r2, [r3]
1312:Generated_Source\PSoC4/BLE.c ****             {
 1057              		.loc 1 1312 0 discriminator 4
 1058 006e 1523     		mov	r3, #21
 1059 0070 FB18     		add	r3, r7, r3
 1060 0072 1A78     		ldrb	r2, [r3]
 1061 0074 1523     		mov	r3, #21
ARM GAS  C:\Users\Sarah\AppData\Local\Temp\ccXRs73K.s 			page 43


 1062 0076 FB18     		add	r3, r7, r3
 1063 0078 0132     		add	r2, r2, #1
 1064 007a 1A70     		strb	r2, [r3]
 1065              	.L54:
1312:Generated_Source\PSoC4/BLE.c ****             {
 1066              		.loc 1 1312 0 is_stmt 0 discriminator 1
 1067 007c 1523     		mov	r3, #21
 1068 007e FA18     		add	r2, r7, r3
 1069 0080 0F23     		mov	r3, #15
 1070 0082 FB18     		add	r3, r7, r3
 1071 0084 1278     		ldrb	r2, [r2]
 1072 0086 1B78     		ldrb	r3, [r3]
 1073 0088 9A42     		cmp	r2, r3
 1074 008a 07D2     		bcs	.L55
1312:Generated_Source\PSoC4/BLE.c ****             {
 1075              		.loc 1 1312 0 discriminator 3
 1076 008c 1523     		mov	r3, #21
 1077 008e FB18     		add	r3, r7, r3
 1078 0090 1B78     		ldrb	r3, [r3]
 1079 0092 7A68     		ldr	r2, [r7, #4]
 1080 0094 D318     		add	r3, r2, r3
 1081 0096 1B78     		ldrb	r3, [r3]
 1082 0098 002B     		cmp	r3, #0
 1083 009a DCD1     		bne	.L56
 1084              	.L55:
1315:Generated_Source\PSoC4/BLE.c ****             }
1316:Generated_Source\PSoC4/BLE.c **** 
1317:Generated_Source\PSoC4/BLE.c ****             if(i < charLen)
 1085              		.loc 1 1317 0 is_stmt 1
 1086 009c 1523     		mov	r3, #21
 1087 009e FA18     		add	r2, r7, r3
 1088 00a0 0F23     		mov	r3, #15
 1089 00a2 FB18     		add	r3, r7, r3
 1090 00a4 1278     		ldrb	r2, [r2]
 1091 00a6 1B78     		ldrb	r3, [r3]
 1092 00a8 9A42     		cmp	r2, r3
 1093 00aa 06D2     		bcs	.L57
1318:Generated_Source\PSoC4/BLE.c ****             {
1319:Generated_Source\PSoC4/BLE.c ****                 /* Terminate string */
1320:Generated_Source\PSoC4/BLE.c ****                 ptr[i] = CYBLE_NULL_CHARCTER;
 1094              		.loc 1 1320 0
 1095 00ac 1523     		mov	r3, #21
 1096 00ae FB18     		add	r3, r7, r3
 1097 00b0 1B78     		ldrb	r3, [r3]
 1098 00b2 3A69     		ldr	r2, [r7, #16]
 1099 00b4 D318     		add	r3, r2, r3
 1100 00b6 0022     		mov	r2, #0
 1101 00b8 1A70     		strb	r2, [r3]
 1102              	.L57:
1321:Generated_Source\PSoC4/BLE.c ****             }
1322:Generated_Source\PSoC4/BLE.c ****             
1323:Generated_Source\PSoC4/BLE.c ****             /* Set new actual length */
1324:Generated_Source\PSoC4/BLE.c ****             
1325:Generated_Source\PSoC4/BLE.c ****             /* Update device name in advertising and scan response structure */
1326:Generated_Source\PSoC4/BLE.c ****             #if(CYBLE_GAP_ROLE_PERIPHERAL)
1327:Generated_Source\PSoC4/BLE.c ****                 CyBle_ChangeAdLocalName(name, 0u);
 1103              		.loc 1 1327 0
ARM GAS  C:\Users\Sarah\AppData\Local\Temp\ccXRs73K.s 			page 44


 1104 00ba 7B68     		ldr	r3, [r7, #4]
 1105 00bc 181C     		mov	r0, r3
 1106 00be 0021     		mov	r1, #0
 1107 00c0 FFF7FEFF 		bl	CyBle_ChangeAdLocalName
1328:Generated_Source\PSoC4/BLE.c ****                 CyBle_ChangeAdLocalName(name, 1u);
 1108              		.loc 1 1328 0
 1109 00c4 7B68     		ldr	r3, [r7, #4]
 1110 00c6 181C     		mov	r0, r3
 1111 00c8 0121     		mov	r1, #1
 1112 00ca FFF7FEFF 		bl	CyBle_ChangeAdLocalName
 1113 00ce 03E0     		b	.L58
 1114              	.L53:
1329:Generated_Source\PSoC4/BLE.c ****             #endif /* (CYBLE_GAP_ROLE_PERIPHERAL) */
1330:Generated_Source\PSoC4/BLE.c ****         }
1331:Generated_Source\PSoC4/BLE.c ****         else
1332:Generated_Source\PSoC4/BLE.c ****         {
1333:Generated_Source\PSoC4/BLE.c ****             apiResult = CYBLE_ERROR_INVALID_PARAMETER;
 1115              		.loc 1 1333 0
 1116 00d0 1623     		mov	r3, #22
 1117 00d2 FB18     		add	r3, r7, r3
 1118 00d4 0122     		mov	r2, #1
 1119 00d6 1A80     		strh	r2, [r3]
 1120              	.L58:
1334:Generated_Source\PSoC4/BLE.c ****         }
1335:Generated_Source\PSoC4/BLE.c ****         
1336:Generated_Source\PSoC4/BLE.c ****         return(apiResult);
 1121              		.loc 1 1336 0
 1122 00d8 1623     		mov	r3, #22
 1123 00da FB18     		add	r3, r7, r3
 1124 00dc 1B88     		ldrh	r3, [r3]
1337:Generated_Source\PSoC4/BLE.c ****     }
 1125              		.loc 1 1337 0
 1126 00de 181C     		mov	r0, r3
 1127 00e0 BD46     		mov	sp, r7
 1128 00e2 06B0     		add	sp, sp, #24
 1129              		@ sp needed
 1130 00e4 80BD     		pop	{r7, pc}
 1131              	.L61:
 1132 00e6 C046     		.align	2
 1133              	.L60:
 1134 00e8 00000000 		.word	cyBle_gaps
 1135 00ec 00000000 		.word	cyBle_gattDB
 1136              		.cfi_endproc
 1137              	.LFE10:
 1138              		.size	CyBle_GapSetLocalName, .-CyBle_GapSetLocalName
 1139              		.section	.text.CyBle_GapGetLocalName,"ax",%progbits
 1140              		.align	2
 1141              		.global	CyBle_GapGetLocalName
 1142              		.code	16
 1143              		.thumb_func
 1144              		.type	CyBle_GapGetLocalName, %function
 1145              	CyBle_GapGetLocalName:
 1146              	.LFB11:
1338:Generated_Source\PSoC4/BLE.c **** 
1339:Generated_Source\PSoC4/BLE.c **** 
1340:Generated_Source\PSoC4/BLE.c ****     /******************************************************************************
1341:Generated_Source\PSoC4/BLE.c ****     * Function Name: CyBle_GapGetLocalName
ARM GAS  C:\Users\Sarah\AppData\Local\Temp\ccXRs73K.s 			page 45


1342:Generated_Source\PSoC4/BLE.c ****     ***************************************************************************//**
1343:Generated_Source\PSoC4/BLE.c ****     *  
1344:Generated_Source\PSoC4/BLE.c ****     *  This API is used to read the local device name - a Characteristic of the 
1345:Generated_Source\PSoC4/BLE.c ****     *  GAP Service.
1346:Generated_Source\PSoC4/BLE.c ****     * 
1347:Generated_Source\PSoC4/BLE.c ****     * \param name: The local device name string. Used to read the local name to the
1348:Generated_Source\PSoC4/BLE.c ****     *             given string array. It represents a UTF-8 encoded User Friendly 
1349:Generated_Source\PSoC4/BLE.c ****     *             Descriptive Name for the device. The length of the local device
1350:Generated_Source\PSoC4/BLE.c ****     *             string is entered into the component customizer and it can be set
1351:Generated_Source\PSoC4/BLE.c ****     *             to a value from 0 to 248 bytes. If the name contained in the
1352:Generated_Source\PSoC4/BLE.c ****     *             parameter is shorter than the length from the customizer, the end
1353:Generated_Source\PSoC4/BLE.c ****     *             of the name is indicated by a NULL octet (0x00).
1354:Generated_Source\PSoC4/BLE.c ****     * 
1355:Generated_Source\PSoC4/BLE.c ****     * \return
1356:Generated_Source\PSoC4/BLE.c ****     *  CYBLE_API_RESULT_T : Return value indicates if the function succeeded or 
1357:Generated_Source\PSoC4/BLE.c ****     *  failed. Following are the possible error codes.
1358:Generated_Source\PSoC4/BLE.c ****     *
1359:Generated_Source\PSoC4/BLE.c ****     *   Errors codes                       | Description
1360:Generated_Source\PSoC4/BLE.c ****     *   ------------                       | -----------
1361:Generated_Source\PSoC4/BLE.c ****     *   CYBLE_ERROR_OK                     | Function completed successfully.
1362:Generated_Source\PSoC4/BLE.c ****     *   CYBLE_ERROR_INVALID_PARAMETER      | On specifying NULL as input parameter
1363:Generated_Source\PSoC4/BLE.c ****     *
1364:Generated_Source\PSoC4/BLE.c ****     *******************************************************************************/
1365:Generated_Source\PSoC4/BLE.c ****     CYBLE_API_RESULT_T CyBle_GapGetLocalName(char8 name[])
1366:Generated_Source\PSoC4/BLE.c ****     {
 1147              		.loc 1 1366 0
 1148              		.cfi_startproc
 1149 0000 80B5     		push	{r7, lr}
 1150              		.cfi_def_cfa_offset 8
 1151              		.cfi_offset 7, -8
 1152              		.cfi_offset 14, -4
 1153 0002 86B0     		sub	sp, sp, #24
 1154              		.cfi_def_cfa_offset 32
 1155 0004 00AF     		add	r7, sp, #0
 1156              		.cfi_def_cfa_register 7
 1157 0006 7860     		str	r0, [r7, #4]
1367:Generated_Source\PSoC4/BLE.c ****         CYBLE_API_RESULT_T apiResult = CYBLE_ERROR_OK;
 1158              		.loc 1 1367 0
 1159 0008 1623     		mov	r3, #22
 1160 000a FB18     		add	r3, r7, r3
 1161 000c 0022     		mov	r2, #0
 1162 000e 1A80     		strh	r2, [r3]
1368:Generated_Source\PSoC4/BLE.c ****         uint8 charLen;
1369:Generated_Source\PSoC4/BLE.c ****         uint8 i;
1370:Generated_Source\PSoC4/BLE.c ****         char8 *ptr;
1371:Generated_Source\PSoC4/BLE.c **** 
1372:Generated_Source\PSoC4/BLE.c ****         if(NULL != name)
 1163              		.loc 1 1372 0
 1164 0010 7B68     		ldr	r3, [r7, #4]
 1165 0012 002B     		cmp	r3, #0
 1166 0014 4BD0     		beq	.L63
1373:Generated_Source\PSoC4/BLE.c ****         {
1374:Generated_Source\PSoC4/BLE.c ****             /* Get the pointer to the Device Name characteristic  */
1375:Generated_Source\PSoC4/BLE.c ****             ptr = (char8 *) CYBLE_GATT_DB_ATTR_GET_ATTR_GEN_PTR(cyBle_gaps.deviceNameCharHandle);
 1167              		.loc 1 1375 0
 1168 0016 2B4B     		ldr	r3, .L69
 1169 0018 5B88     		ldrh	r3, [r3, #2]
ARM GAS  C:\Users\Sarah\AppData\Local\Temp\ccXRs73K.s 			page 46


 1170 001a 5A1E     		sub	r2, r3, #1
 1171 001c 2A49     		ldr	r1, .L69+4
 1172 001e 131C     		mov	r3, r2
 1173 0020 9B00     		lsl	r3, r3, #2
 1174 0022 9B18     		add	r3, r3, r2
 1175 0024 9B00     		lsl	r3, r3, #2
 1176 0026 CB18     		add	r3, r1, r3
 1177 0028 0833     		add	r3, r3, #8
 1178 002a 9B68     		ldr	r3, [r3, #8]
 1179 002c 5B68     		ldr	r3, [r3, #4]
 1180 002e 3B61     		str	r3, [r7, #16]
1376:Generated_Source\PSoC4/BLE.c **** 
1377:Generated_Source\PSoC4/BLE.c ****             /* First need to get the length of the characteristic data in the GATT
1378:Generated_Source\PSoC4/BLE.c ****                 database to make sure there is enough place for the data. The length
1379:Generated_Source\PSoC4/BLE.c ****                 can't be longer than 248, so only the LSB of 16 bit of length is to
1380:Generated_Source\PSoC4/BLE.c ****                 be used. */
1381:Generated_Source\PSoC4/BLE.c ****             charLen = (uint8)CYBLE_GATT_DB_ATTR_GET_ATTR_GEN_LEN(cyBle_gaps.deviceNameCharHandle);
 1181              		.loc 1 1381 0
 1182 0030 244B     		ldr	r3, .L69
 1183 0032 5B88     		ldrh	r3, [r3, #2]
 1184 0034 5A1E     		sub	r2, r3, #1
 1185 0036 2449     		ldr	r1, .L69+4
 1186 0038 131C     		mov	r3, r2
 1187 003a 9B00     		lsl	r3, r3, #2
 1188 003c 9B18     		add	r3, r3, r2
 1189 003e 9B00     		lsl	r3, r3, #2
 1190 0040 CB18     		add	r3, r1, r3
 1191 0042 0833     		add	r3, r3, #8
 1192 0044 9B68     		ldr	r3, [r3, #8]
 1193 0046 1A88     		ldrh	r2, [r3]
 1194 0048 0F23     		mov	r3, #15
 1195 004a FB18     		add	r3, r7, r3
 1196 004c 1A70     		strb	r2, [r3]
1382:Generated_Source\PSoC4/BLE.c **** 
1383:Generated_Source\PSoC4/BLE.c ****             /* Copy name from characteristic */
1384:Generated_Source\PSoC4/BLE.c ****             for(i = 0u; ((i < charLen) && (CYBLE_NULL_CHARCTER != ptr[i])); i++)
 1197              		.loc 1 1384 0
 1198 004e 1523     		mov	r3, #21
 1199 0050 FB18     		add	r3, r7, r3
 1200 0052 0022     		mov	r2, #0
 1201 0054 1A70     		strb	r2, [r3]
 1202 0056 12E0     		b	.L64
 1203              	.L66:
1385:Generated_Source\PSoC4/BLE.c ****             {
1386:Generated_Source\PSoC4/BLE.c ****                 name[i] = ptr[i];
 1204              		.loc 1 1386 0 discriminator 4
 1205 0058 1523     		mov	r3, #21
 1206 005a FB18     		add	r3, r7, r3
 1207 005c 1B78     		ldrb	r3, [r3]
 1208 005e 7A68     		ldr	r2, [r7, #4]
 1209 0060 D318     		add	r3, r2, r3
 1210 0062 1522     		mov	r2, #21
 1211 0064 BA18     		add	r2, r7, r2
 1212 0066 1278     		ldrb	r2, [r2]
 1213 0068 3969     		ldr	r1, [r7, #16]
 1214 006a 8A18     		add	r2, r1, r2
 1215 006c 1278     		ldrb	r2, [r2]
ARM GAS  C:\Users\Sarah\AppData\Local\Temp\ccXRs73K.s 			page 47


 1216 006e 1A70     		strb	r2, [r3]
1384:Generated_Source\PSoC4/BLE.c ****             {
 1217              		.loc 1 1384 0 discriminator 4
 1218 0070 1523     		mov	r3, #21
 1219 0072 FB18     		add	r3, r7, r3
 1220 0074 1A78     		ldrb	r2, [r3]
 1221 0076 1523     		mov	r3, #21
 1222 0078 FB18     		add	r3, r7, r3
 1223 007a 0132     		add	r2, r2, #1
 1224 007c 1A70     		strb	r2, [r3]
 1225              	.L64:
1384:Generated_Source\PSoC4/BLE.c ****             {
 1226              		.loc 1 1384 0 is_stmt 0 discriminator 1
 1227 007e 1523     		mov	r3, #21
 1228 0080 FA18     		add	r2, r7, r3
 1229 0082 0F23     		mov	r3, #15
 1230 0084 FB18     		add	r3, r7, r3
 1231 0086 1278     		ldrb	r2, [r2]
 1232 0088 1B78     		ldrb	r3, [r3]
 1233 008a 9A42     		cmp	r2, r3
 1234 008c 07D2     		bcs	.L65
1384:Generated_Source\PSoC4/BLE.c ****             {
 1235              		.loc 1 1384 0 discriminator 3
 1236 008e 1523     		mov	r3, #21
 1237 0090 FB18     		add	r3, r7, r3
 1238 0092 1B78     		ldrb	r3, [r3]
 1239 0094 3A69     		ldr	r2, [r7, #16]
 1240 0096 D318     		add	r3, r2, r3
 1241 0098 1B78     		ldrb	r3, [r3]
 1242 009a 002B     		cmp	r3, #0
 1243 009c DCD1     		bne	.L66
 1244              	.L65:
1387:Generated_Source\PSoC4/BLE.c ****             }
1388:Generated_Source\PSoC4/BLE.c **** 
1389:Generated_Source\PSoC4/BLE.c ****             /* Terminate string */
1390:Generated_Source\PSoC4/BLE.c ****             name[i] = CYBLE_NULL_CHARCTER;
 1245              		.loc 1 1390 0 is_stmt 1
 1246 009e 1523     		mov	r3, #21
 1247 00a0 FB18     		add	r3, r7, r3
 1248 00a2 1B78     		ldrb	r3, [r3]
 1249 00a4 7A68     		ldr	r2, [r7, #4]
 1250 00a6 D318     		add	r3, r2, r3
 1251 00a8 0022     		mov	r2, #0
 1252 00aa 1A70     		strb	r2, [r3]
 1253 00ac 03E0     		b	.L67
 1254              	.L63:
1391:Generated_Source\PSoC4/BLE.c ****         }
1392:Generated_Source\PSoC4/BLE.c ****         else
1393:Generated_Source\PSoC4/BLE.c ****         {
1394:Generated_Source\PSoC4/BLE.c ****             apiResult = CYBLE_ERROR_INVALID_PARAMETER;
 1255              		.loc 1 1394 0
 1256 00ae 1623     		mov	r3, #22
 1257 00b0 FB18     		add	r3, r7, r3
 1258 00b2 0122     		mov	r2, #1
 1259 00b4 1A80     		strh	r2, [r3]
 1260              	.L67:
1395:Generated_Source\PSoC4/BLE.c ****         }
ARM GAS  C:\Users\Sarah\AppData\Local\Temp\ccXRs73K.s 			page 48


1396:Generated_Source\PSoC4/BLE.c ****         
1397:Generated_Source\PSoC4/BLE.c ****         return(apiResult);
 1261              		.loc 1 1397 0
 1262 00b6 1623     		mov	r3, #22
 1263 00b8 FB18     		add	r3, r7, r3
 1264 00ba 1B88     		ldrh	r3, [r3]
1398:Generated_Source\PSoC4/BLE.c ****     }
 1265              		.loc 1 1398 0
 1266 00bc 181C     		mov	r0, r3
 1267 00be BD46     		mov	sp, r7
 1268 00c0 06B0     		add	sp, sp, #24
 1269              		@ sp needed
 1270 00c2 80BD     		pop	{r7, pc}
 1271              	.L70:
 1272              		.align	2
 1273              	.L69:
 1274 00c4 00000000 		.word	cyBle_gaps
 1275 00c8 00000000 		.word	cyBle_gattDB
 1276              		.cfi_endproc
 1277              	.LFE11:
 1278              		.size	CyBle_GapGetLocalName, .-CyBle_GapGetLocalName
 1279              		.section	.text.CyBle_Get16ByPtr,"ax",%progbits
 1280              		.align	2
 1281              		.global	CyBle_Get16ByPtr
 1282              		.code	16
 1283              		.thumb_func
 1284              		.type	CyBle_Get16ByPtr, %function
 1285              	CyBle_Get16ByPtr:
 1286              	.LFB12:
1399:Generated_Source\PSoC4/BLE.c **** 
1400:Generated_Source\PSoC4/BLE.c **** #endif /* (CYBLE_GATT_ROLE_SERVER) */
1401:Generated_Source\PSoC4/BLE.c **** 
1402:Generated_Source\PSoC4/BLE.c **** 
1403:Generated_Source\PSoC4/BLE.c **** /******************************************************************************
1404:Generated_Source\PSoC4/BLE.c **** * Function Name: CyBle_Get16ByPtr
1405:Generated_Source\PSoC4/BLE.c **** ***************************************************************************//**
1406:Generated_Source\PSoC4/BLE.c **** * 
1407:Generated_Source\PSoC4/BLE.c **** *  Returns the two-bytes value by using a pointer to the LSB.
1408:Generated_Source\PSoC4/BLE.c **** * 
1409:Generated_Source\PSoC4/BLE.c **** *  \param ptr: Pointer to the LSB of two-bytes data (little endian).
1410:Generated_Source\PSoC4/BLE.c **** * 
1411:Generated_Source\PSoC4/BLE.c **** *  \return
1412:Generated_Source\PSoC4/BLE.c **** *  uint16: Two-bytes data.
1413:Generated_Source\PSoC4/BLE.c **** * 
1414:Generated_Source\PSoC4/BLE.c **** ******************************************************************************/
1415:Generated_Source\PSoC4/BLE.c **** uint16 CyBle_Get16ByPtr(const uint8 ptr[])
1416:Generated_Source\PSoC4/BLE.c **** {
 1287              		.loc 1 1416 0
 1288              		.cfi_startproc
 1289 0000 80B5     		push	{r7, lr}
 1290              		.cfi_def_cfa_offset 8
 1291              		.cfi_offset 7, -8
 1292              		.cfi_offset 14, -4
 1293 0002 82B0     		sub	sp, sp, #8
 1294              		.cfi_def_cfa_offset 16
 1295 0004 00AF     		add	r7, sp, #0
 1296              		.cfi_def_cfa_register 7
ARM GAS  C:\Users\Sarah\AppData\Local\Temp\ccXRs73K.s 			page 49


 1297 0006 7860     		str	r0, [r7, #4]
1417:Generated_Source\PSoC4/BLE.c ****     return ((uint16) ptr[0u] | ((uint16) (((uint16) ptr[1u]) << 8u)));
 1298              		.loc 1 1417 0
 1299 0008 7B68     		ldr	r3, [r7, #4]
 1300 000a 1B78     		ldrb	r3, [r3]
 1301 000c 9AB2     		uxth	r2, r3
 1302 000e 7B68     		ldr	r3, [r7, #4]
 1303 0010 0133     		add	r3, r3, #1
 1304 0012 1B78     		ldrb	r3, [r3]
 1305 0014 9BB2     		uxth	r3, r3
 1306 0016 1B02     		lsl	r3, r3, #8
 1307 0018 9BB2     		uxth	r3, r3
 1308 001a 1343     		orr	r3, r2
 1309 001c 9BB2     		uxth	r3, r3
1418:Generated_Source\PSoC4/BLE.c **** }
 1310              		.loc 1 1418 0
 1311 001e 181C     		mov	r0, r3
 1312 0020 BD46     		mov	sp, r7
 1313 0022 02B0     		add	sp, sp, #8
 1314              		@ sp needed
 1315 0024 80BD     		pop	{r7, pc}
 1316              		.cfi_endproc
 1317              	.LFE12:
 1318              		.size	CyBle_Get16ByPtr, .-CyBle_Get16ByPtr
 1319 0026 C046     		.section	.text.CyBle_Set16ByPtr,"ax",%progbits
 1320              		.align	2
 1321              		.global	CyBle_Set16ByPtr
 1322              		.code	16
 1323              		.thumb_func
 1324              		.type	CyBle_Set16ByPtr, %function
 1325              	CyBle_Set16ByPtr:
 1326              	.LFB13:
1419:Generated_Source\PSoC4/BLE.c **** 
1420:Generated_Source\PSoC4/BLE.c **** 
1421:Generated_Source\PSoC4/BLE.c **** /******************************************************************************
1422:Generated_Source\PSoC4/BLE.c **** * Function Name: CyBle_Set16ByPtr
1423:Generated_Source\PSoC4/BLE.c **** ***************************************************************************//**
1424:Generated_Source\PSoC4/BLE.c **** * 
1425:Generated_Source\PSoC4/BLE.c **** *  Sets the two-bytes value by using a pointer to the LSB.
1426:Generated_Source\PSoC4/BLE.c **** * 
1427:Generated_Source\PSoC4/BLE.c **** *  \param ptr:    Pointer to the LSB of two-bytes data (little endian).
1428:Generated_Source\PSoC4/BLE.c **** *  \param value:  Two-bytes data to be written.
1429:Generated_Source\PSoC4/BLE.c **** * 
1430:Generated_Source\PSoC4/BLE.c **** *  \return
1431:Generated_Source\PSoC4/BLE.c **** *  None
1432:Generated_Source\PSoC4/BLE.c **** * 
1433:Generated_Source\PSoC4/BLE.c **** ******************************************************************************/
1434:Generated_Source\PSoC4/BLE.c **** void CyBle_Set16ByPtr(uint8 ptr[], uint16 value)
1435:Generated_Source\PSoC4/BLE.c **** {
 1327              		.loc 1 1435 0
 1328              		.cfi_startproc
 1329 0000 80B5     		push	{r7, lr}
 1330              		.cfi_def_cfa_offset 8
 1331              		.cfi_offset 7, -8
 1332              		.cfi_offset 14, -4
 1333 0002 82B0     		sub	sp, sp, #8
 1334              		.cfi_def_cfa_offset 16
ARM GAS  C:\Users\Sarah\AppData\Local\Temp\ccXRs73K.s 			page 50


 1335 0004 00AF     		add	r7, sp, #0
 1336              		.cfi_def_cfa_register 7
 1337 0006 7860     		str	r0, [r7, #4]
 1338 0008 0A1C     		mov	r2, r1
 1339 000a BB1C     		add	r3, r7, #2
 1340 000c 1A80     		strh	r2, [r3]
1436:Generated_Source\PSoC4/BLE.c ****     ptr[0u] = (uint8) value;
 1341              		.loc 1 1436 0
 1342 000e BB1C     		add	r3, r7, #2
 1343 0010 1B88     		ldrh	r3, [r3]
 1344 0012 DAB2     		uxtb	r2, r3
 1345 0014 7B68     		ldr	r3, [r7, #4]
 1346 0016 1A70     		strb	r2, [r3]
1437:Generated_Source\PSoC4/BLE.c ****     ptr[1u] = (uint8) (value >> 8u);
 1347              		.loc 1 1437 0
 1348 0018 7B68     		ldr	r3, [r7, #4]
 1349 001a 0133     		add	r3, r3, #1
 1350 001c BA1C     		add	r2, r7, #2
 1351 001e 1288     		ldrh	r2, [r2]
 1352 0020 120A     		lsr	r2, r2, #8
 1353 0022 92B2     		uxth	r2, r2
 1354 0024 D2B2     		uxtb	r2, r2
 1355 0026 1A70     		strb	r2, [r3]
1438:Generated_Source\PSoC4/BLE.c **** }
 1356              		.loc 1 1438 0
 1357 0028 BD46     		mov	sp, r7
 1358 002a 02B0     		add	sp, sp, #8
 1359              		@ sp needed
 1360 002c 80BD     		pop	{r7, pc}
 1361              		.cfi_endproc
 1362              	.LFE13:
 1363              		.size	CyBle_Set16ByPtr, .-CyBle_Set16ByPtr
 1364 002e C046     		.text
 1365              	.Letext0:
 1366              		.file 2 "Generated_Source\\PSoC4\\cytypes.h"
 1367              		.file 3 "Generated_Source\\PSoC4\\BLE_Stack.h"
 1368              		.file 4 "Generated_Source\\PSoC4\\BLE_StackGap.h"
 1369              		.file 5 "Generated_Source\\PSoC4\\BLE_StackGatt.h"
 1370              		.file 6 "Generated_Source\\PSoC4\\BLE_StackGattDb.h"
 1371              		.file 7 "Generated_Source\\PSoC4\\BLE.h"
 1372              		.file 8 "Generated_Source\\PSoC4\\BLE_eventHandler.h"
 1373              		.file 9 "Generated_Source\\PSoC4\\BLE_gatt.h"
 1374              		.section	.debug_info,"",%progbits
 1375              	.Ldebug_info0:
 1376 0000 270C0000 		.4byte	0xc27
 1377 0004 0400     		.2byte	0x4
 1378 0006 00000000 		.4byte	.Ldebug_abbrev0
 1379 000a 04       		.byte	0x4
 1380 000b 01       		.uleb128 0x1
 1381 000c 6E140000 		.4byte	.LASF237
 1382 0010 01       		.byte	0x1
 1383 0011 E7150000 		.4byte	.LASF238
 1384 0015 D80F0000 		.4byte	.LASF239
 1385 0019 00000000 		.4byte	.Ldebug_ranges0+0
 1386 001d 00000000 		.4byte	0
 1387 0021 00000000 		.4byte	.Ldebug_line0
 1388 0025 02       		.uleb128 0x2
ARM GAS  C:\Users\Sarah\AppData\Local\Temp\ccXRs73K.s 			page 51


 1389 0026 01       		.byte	0x1
 1390 0027 06       		.byte	0x6
 1391 0028 5D040000 		.4byte	.LASF0
 1392 002c 02       		.uleb128 0x2
 1393 002d 01       		.byte	0x1
 1394 002e 08       		.byte	0x8
 1395 002f 5E0E0000 		.4byte	.LASF1
 1396 0033 02       		.uleb128 0x2
 1397 0034 02       		.byte	0x2
 1398 0035 05       		.byte	0x5
 1399 0036 D20E0000 		.4byte	.LASF2
 1400 003a 02       		.uleb128 0x2
 1401 003b 02       		.byte	0x2
 1402 003c 07       		.byte	0x7
 1403 003d 70120000 		.4byte	.LASF3
 1404 0041 02       		.uleb128 0x2
 1405 0042 04       		.byte	0x4
 1406 0043 05       		.byte	0x5
 1407 0044 70020000 		.4byte	.LASF4
 1408 0048 02       		.uleb128 0x2
 1409 0049 04       		.byte	0x4
 1410 004a 07       		.byte	0x7
 1411 004b 95080000 		.4byte	.LASF5
 1412 004f 02       		.uleb128 0x2
 1413 0050 08       		.byte	0x8
 1414 0051 05       		.byte	0x5
 1415 0052 4F040000 		.4byte	.LASF6
 1416 0056 02       		.uleb128 0x2
 1417 0057 08       		.byte	0x8
 1418 0058 07       		.byte	0x7
 1419 0059 9A070000 		.4byte	.LASF7
 1420 005d 03       		.uleb128 0x3
 1421 005e 04       		.byte	0x4
 1422 005f 05       		.byte	0x5
 1423 0060 696E7400 		.ascii	"int\000"
 1424 0064 02       		.uleb128 0x2
 1425 0065 04       		.byte	0x4
 1426 0066 07       		.byte	0x7
 1427 0067 79110000 		.4byte	.LASF8
 1428 006b 04       		.uleb128 0x4
 1429 006c 21060000 		.4byte	.LASF9
 1430 0070 02       		.byte	0x2
 1431 0071 B901     		.2byte	0x1b9
 1432 0073 2C000000 		.4byte	0x2c
 1433 0077 04       		.uleb128 0x4
 1434 0078 6C0E0000 		.4byte	.LASF10
 1435 007c 02       		.byte	0x2
 1436 007d BA01     		.2byte	0x1ba
 1437 007f 3A000000 		.4byte	0x3a
 1438 0083 04       		.uleb128 0x4
 1439 0084 C8060000 		.4byte	.LASF11
 1440 0088 02       		.byte	0x2
 1441 0089 BB01     		.2byte	0x1bb
 1442 008b 48000000 		.4byte	0x48
 1443 008f 02       		.uleb128 0x2
 1444 0090 04       		.byte	0x4
 1445 0091 04       		.byte	0x4
ARM GAS  C:\Users\Sarah\AppData\Local\Temp\ccXRs73K.s 			page 52


 1446 0092 A00D0000 		.4byte	.LASF12
 1447 0096 02       		.uleb128 0x2
 1448 0097 08       		.byte	0x8
 1449 0098 04       		.byte	0x4
 1450 0099 78060000 		.4byte	.LASF13
 1451 009d 04       		.uleb128 0x4
 1452 009e DF110000 		.4byte	.LASF14
 1453 00a2 02       		.byte	0x2
 1454 00a3 CA01     		.2byte	0x1ca
 1455 00a5 A9000000 		.4byte	0xa9
 1456 00a9 02       		.uleb128 0x2
 1457 00aa 01       		.byte	0x1
 1458 00ab 08       		.byte	0x8
 1459 00ac 11110000 		.4byte	.LASF15
 1460 00b0 05       		.uleb128 0x5
 1461 00b1 6B000000 		.4byte	0x6b
 1462 00b5 02       		.uleb128 0x2
 1463 00b6 04       		.byte	0x4
 1464 00b7 07       		.byte	0x7
 1465 00b8 030C0000 		.4byte	.LASF16
 1466 00bc 06       		.uleb128 0x6
 1467 00bd 04       		.byte	0x4
 1468 00be 07       		.uleb128 0x7
 1469 00bf 04       		.byte	0x4
 1470 00c0 C4000000 		.4byte	0xc4
 1471 00c4 08       		.uleb128 0x8
 1472 00c5 D4000000 		.4byte	0xd4
 1473 00c9 09       		.uleb128 0x9
 1474 00ca 83000000 		.4byte	0x83
 1475 00ce 09       		.uleb128 0x9
 1476 00cf BC000000 		.4byte	0xbc
 1477 00d3 00       		.byte	0
 1478 00d4 0A       		.uleb128 0xa
 1479 00d5 01       		.byte	0x1
 1480 00d6 03       		.byte	0x3
 1481 00d7 4D01     		.2byte	0x14d
 1482 00d9 B7020000 		.4byte	0x2b7
 1483 00dd 0B       		.uleb128 0xb
 1484 00de 83090000 		.4byte	.LASF17
 1485 00e2 00       		.sleb128 0
 1486 00e3 0B       		.uleb128 0xb
 1487 00e4 69040000 		.4byte	.LASF18
 1488 00e8 01       		.sleb128 1
 1489 00e9 0B       		.uleb128 0xb
 1490 00ea 5E020000 		.4byte	.LASF19
 1491 00ee 02       		.sleb128 2
 1492 00ef 0B       		.uleb128 0xb
 1493 00f0 FC070000 		.4byte	.LASF20
 1494 00f4 03       		.sleb128 3
 1495 00f5 0B       		.uleb128 0xb
 1496 00f6 2F030000 		.4byte	.LASF21
 1497 00fa 04       		.sleb128 4
 1498 00fb 0B       		.uleb128 0xb
 1499 00fc 23000000 		.4byte	.LASF22
 1500 0100 05       		.sleb128 5
 1501 0101 0B       		.uleb128 0xb
 1502 0102 B8090000 		.4byte	.LASF23
ARM GAS  C:\Users\Sarah\AppData\Local\Temp\ccXRs73K.s 			page 53


 1503 0106 06       		.sleb128 6
 1504 0107 0B       		.uleb128 0xb
 1505 0108 320B0000 		.4byte	.LASF24
 1506 010c 20       		.sleb128 32
 1507 010d 0B       		.uleb128 0xb
 1508 010e E2040000 		.4byte	.LASF25
 1509 0112 21       		.sleb128 33
 1510 0113 0B       		.uleb128 0xb
 1511 0114 DF090000 		.4byte	.LASF26
 1512 0118 22       		.sleb128 34
 1513 0119 0B       		.uleb128 0xb
 1514 011a AC0A0000 		.4byte	.LASF27
 1515 011e 23       		.sleb128 35
 1516 011f 0B       		.uleb128 0xb
 1517 0120 BD0C0000 		.4byte	.LASF28
 1518 0124 24       		.sleb128 36
 1519 0125 0B       		.uleb128 0xb
 1520 0126 310C0000 		.4byte	.LASF29
 1521 012a 25       		.sleb128 37
 1522 012b 0B       		.uleb128 0xb
 1523 012c A5050000 		.4byte	.LASF30
 1524 0130 26       		.sleb128 38
 1525 0131 0B       		.uleb128 0xb
 1526 0132 030A0000 		.4byte	.LASF31
 1527 0136 27       		.sleb128 39
 1528 0137 0B       		.uleb128 0xb
 1529 0138 3F110000 		.4byte	.LASF32
 1530 013c 28       		.sleb128 40
 1531 013d 0B       		.uleb128 0xb
 1532 013e F1030000 		.4byte	.LASF33
 1533 0142 29       		.sleb128 41
 1534 0143 0B       		.uleb128 0xb
 1535 0144 EF000000 		.4byte	.LASF34
 1536 0148 2A       		.sleb128 42
 1537 0149 0B       		.uleb128 0xb
 1538 014a 4C030000 		.4byte	.LASF35
 1539 014e 2B       		.sleb128 43
 1540 014f 0B       		.uleb128 0xb
 1541 0150 42150000 		.4byte	.LASF36
 1542 0154 2C       		.sleb128 44
 1543 0155 0B       		.uleb128 0xb
 1544 0156 0E040000 		.4byte	.LASF37
 1545 015a 2D       		.sleb128 45
 1546 015b 0B       		.uleb128 0xb
 1547 015c 730E0000 		.4byte	.LASF38
 1548 0160 2E       		.sleb128 46
 1549 0161 0B       		.uleb128 0xb
 1550 0162 A6010000 		.4byte	.LASF39
 1551 0166 2F       		.sleb128 47
 1552 0167 0B       		.uleb128 0xb
 1553 0168 9C0C0000 		.4byte	.LASF40
 1554 016c 30       		.sleb128 48
 1555 016d 0B       		.uleb128 0xb
 1556 016e 04160000 		.4byte	.LASF41
 1557 0172 31       		.sleb128 49
 1558 0173 0B       		.uleb128 0xb
 1559 0174 7B0C0000 		.4byte	.LASF42
ARM GAS  C:\Users\Sarah\AppData\Local\Temp\ccXRs73K.s 			page 54


 1560 0178 32       		.sleb128 50
 1561 0179 0B       		.uleb128 0xb
 1562 017a A8100000 		.4byte	.LASF43
 1563 017e 33       		.sleb128 51
 1564 017f 0B       		.uleb128 0xb
 1565 0180 A7080000 		.4byte	.LASF44
 1566 0184 34       		.sleb128 52
 1567 0185 0B       		.uleb128 0xb
 1568 0186 7D070000 		.4byte	.LASF45
 1569 018a 35       		.sleb128 53
 1570 018b 0B       		.uleb128 0xb
 1571 018c 500A0000 		.4byte	.LASF46
 1572 0190 36       		.sleb128 54
 1573 0191 0B       		.uleb128 0xb
 1574 0192 6D0B0000 		.4byte	.LASF47
 1575 0196 37       		.sleb128 55
 1576 0197 0B       		.uleb128 0xb
 1577 0198 F7060000 		.4byte	.LASF48
 1578 019c C000     		.sleb128 64
 1579 019e 0B       		.uleb128 0xb
 1580 019f D20A0000 		.4byte	.LASF49
 1581 01a3 C100     		.sleb128 65
 1582 01a5 0B       		.uleb128 0xb
 1583 01a6 43160000 		.4byte	.LASF50
 1584 01aa C200     		.sleb128 66
 1585 01ac 0B       		.uleb128 0xb
 1586 01ad 03060000 		.4byte	.LASF51
 1587 01b1 C300     		.sleb128 67
 1588 01b3 0B       		.uleb128 0xb
 1589 01b4 D9080000 		.4byte	.LASF52
 1590 01b8 C400     		.sleb128 68
 1591 01ba 0B       		.uleb128 0xb
 1592 01bb 790D0000 		.4byte	.LASF53
 1593 01bf C500     		.sleb128 69
 1594 01c1 0B       		.uleb128 0xb
 1595 01c2 CA0B0000 		.4byte	.LASF54
 1596 01c6 C600     		.sleb128 70
 1597 01c8 0B       		.uleb128 0xb
 1598 01c9 9A090000 		.4byte	.LASF55
 1599 01cd C700     		.sleb128 71
 1600 01cf 0B       		.uleb128 0xb
 1601 01d0 FC140000 		.4byte	.LASF56
 1602 01d4 C800     		.sleb128 72
 1603 01d6 0B       		.uleb128 0xb
 1604 01d7 04050000 		.4byte	.LASF57
 1605 01db C900     		.sleb128 73
 1606 01dd 0B       		.uleb128 0xb
 1607 01de 83130000 		.4byte	.LASF58
 1608 01e2 CA00     		.sleb128 74
 1609 01e4 0B       		.uleb128 0xb
 1610 01e5 CF010000 		.4byte	.LASF59
 1611 01e9 CB00     		.sleb128 75
 1612 01eb 0B       		.uleb128 0xb
 1613 01ec BF080000 		.4byte	.LASF60
 1614 01f0 CC00     		.sleb128 76
 1615 01f2 0B       		.uleb128 0xb
 1616 01f3 610C0000 		.4byte	.LASF61
ARM GAS  C:\Users\Sarah\AppData\Local\Temp\ccXRs73K.s 			page 55


 1617 01f7 CD00     		.sleb128 77
 1618 01f9 0B       		.uleb128 0xb
 1619 01fa 47050000 		.4byte	.LASF62
 1620 01fe CE00     		.sleb128 78
 1621 0200 0B       		.uleb128 0xb
 1622 0201 830F0000 		.4byte	.LASF63
 1623 0205 CF00     		.sleb128 79
 1624 0207 0B       		.uleb128 0xb
 1625 0208 EE010000 		.4byte	.LASF64
 1626 020c D000     		.sleb128 80
 1627 020e 0B       		.uleb128 0xb
 1628 020f 3A060000 		.4byte	.LASF65
 1629 0213 D100     		.sleb128 81
 1630 0215 0B       		.uleb128 0xb
 1631 0216 010D0000 		.4byte	.LASF66
 1632 021a D200     		.sleb128 82
 1633 021c 0B       		.uleb128 0xb
 1634 021d DC0E0000 		.4byte	.LASF67
 1635 0221 D300     		.sleb128 83
 1636 0223 0B       		.uleb128 0xb
 1637 0224 69100000 		.4byte	.LASF68
 1638 0228 D400     		.sleb128 84
 1639 022a 0B       		.uleb128 0xb
 1640 022b F7080000 		.4byte	.LASF69
 1641 022f D500     		.sleb128 85
 1642 0231 0B       		.uleb128 0xb
 1643 0232 DA070000 		.4byte	.LASF70
 1644 0236 D600     		.sleb128 86
 1645 0238 0B       		.uleb128 0xb
 1646 0239 93110000 		.4byte	.LASF71
 1647 023d D700     		.sleb128 87
 1648 023f 0B       		.uleb128 0xb
 1649 0240 B7070000 		.4byte	.LASF72
 1650 0244 D800     		.sleb128 88
 1651 0246 0B       		.uleb128 0xb
 1652 0247 11070000 		.4byte	.LASF73
 1653 024b F000     		.sleb128 112
 1654 024d 0B       		.uleb128 0xb
 1655 024e C1150000 		.4byte	.LASF74
 1656 0252 F100     		.sleb128 113
 1657 0254 0B       		.uleb128 0xb
 1658 0255 70050000 		.4byte	.LASF75
 1659 0259 F200     		.sleb128 114
 1660 025b 0B       		.uleb128 0xb
 1661 025c F00D0000 		.4byte	.LASF76
 1662 0260 F300     		.sleb128 115
 1663 0262 0B       		.uleb128 0xb
 1664 0263 5B0D0000 		.4byte	.LASF77
 1665 0267 F400     		.sleb128 116
 1666 0269 0B       		.uleb128 0xb
 1667 026a 77150000 		.4byte	.LASF78
 1668 026e F500     		.sleb128 117
 1669 0270 0B       		.uleb128 0xb
 1670 0271 26010000 		.4byte	.LASF79
 1671 0275 F600     		.sleb128 118
 1672 0277 0B       		.uleb128 0xb
 1673 0278 53000000 		.4byte	.LASF80
ARM GAS  C:\Users\Sarah\AppData\Local\Temp\ccXRs73K.s 			page 56


 1674 027c F700     		.sleb128 119
 1675 027e 0B       		.uleb128 0xb
 1676 027f 00000000 		.4byte	.LASF81
 1677 0283 F800     		.sleb128 120
 1678 0285 0B       		.uleb128 0xb
 1679 0286 0F0B0000 		.4byte	.LASF82
 1680 028a F900     		.sleb128 121
 1681 028c 0B       		.uleb128 0xb
 1682 028d 46070000 		.4byte	.LASF83
 1683 0291 FA00     		.sleb128 122
 1684 0293 0B       		.uleb128 0xb
 1685 0294 98150000 		.4byte	.LASF84
 1686 0298 FA01     		.sleb128 250
 1687 029a 0B       		.uleb128 0xb
 1688 029b 33080000 		.4byte	.LASF85
 1689 029f FB01     		.sleb128 251
 1690 02a1 0B       		.uleb128 0xb
 1691 02a2 330F0000 		.4byte	.LASF86
 1692 02a6 FC01     		.sleb128 252
 1693 02a8 0B       		.uleb128 0xb
 1694 02a9 89160000 		.4byte	.LASF87
 1695 02ad FD01     		.sleb128 253
 1696 02af 0B       		.uleb128 0xb
 1697 02b0 DA060000 		.4byte	.LASF88
 1698 02b4 FF01     		.sleb128 255
 1699 02b6 00       		.byte	0
 1700 02b7 0A       		.uleb128 0xa
 1701 02b8 02       		.byte	0x2
 1702 02b9 03       		.byte	0x3
 1703 02ba 0204     		.2byte	0x402
 1704 02bc 8E030000 		.4byte	0x38e
 1705 02c0 0B       		.uleb128 0xb
 1706 02c1 E8060000 		.4byte	.LASF89
 1707 02c5 00       		.sleb128 0
 1708 02c6 0B       		.uleb128 0xb
 1709 02c7 88060000 		.4byte	.LASF90
 1710 02cb 01       		.sleb128 1
 1711 02cc 0B       		.uleb128 0xb
 1712 02cd 94120000 		.4byte	.LASF91
 1713 02d1 02       		.sleb128 2
 1714 02d2 0B       		.uleb128 0xb
 1715 02d3 97000000 		.4byte	.LASF92
 1716 02d7 03       		.sleb128 3
 1717 02d8 0B       		.uleb128 0xb
 1718 02d9 0C030000 		.4byte	.LASF93
 1719 02dd 04       		.sleb128 4
 1720 02de 0B       		.uleb128 0xb
 1721 02df 15080000 		.4byte	.LASF94
 1722 02e3 05       		.sleb128 5
 1723 02e4 0B       		.uleb128 0xb
 1724 02e5 450F0000 		.4byte	.LASF95
 1725 02e9 06       		.sleb128 6
 1726 02ea 0B       		.uleb128 0xb
 1727 02eb BA040000 		.4byte	.LASF96
 1728 02ef 07       		.sleb128 7
 1729 02f0 0B       		.uleb128 0xb
 1730 02f1 8A100000 		.4byte	.LASF97
ARM GAS  C:\Users\Sarah\AppData\Local\Temp\ccXRs73K.s 			page 57


 1731 02f5 08       		.sleb128 8
 1732 02f6 0B       		.uleb128 0xb
 1733 02f7 23150000 		.4byte	.LASF98
 1734 02fb 09       		.sleb128 9
 1735 02fc 0B       		.uleb128 0xb
 1736 02fd 2E0E0000 		.4byte	.LASF99
 1737 0301 0A       		.sleb128 10
 1738 0302 0B       		.uleb128 0xb
 1739 0303 16110000 		.4byte	.LASF100
 1740 0307 0B       		.sleb128 11
 1741 0308 0B       		.uleb128 0xb
 1742 0309 B6030000 		.4byte	.LASF101
 1743 030d 0C       		.sleb128 12
 1744 030e 0B       		.uleb128 0xb
 1745 030f E7020000 		.4byte	.LASF102
 1746 0313 0D       		.sleb128 13
 1747 0314 0B       		.uleb128 0xb
 1748 0315 64080000 		.4byte	.LASF103
 1749 0319 0E       		.sleb128 14
 1750 031a 0B       		.uleb128 0xb
 1751 031b 19140000 		.4byte	.LASF104
 1752 031f 0F       		.sleb128 15
 1753 0320 0B       		.uleb128 0xb
 1754 0321 15120000 		.4byte	.LASF105
 1755 0325 10       		.sleb128 16
 1756 0326 0B       		.uleb128 0xb
 1757 0327 CD030000 		.4byte	.LASF106
 1758 032b 11       		.sleb128 17
 1759 032c 0B       		.uleb128 0xb
 1760 032d E0050000 		.4byte	.LASF107
 1761 0331 12       		.sleb128 18
 1762 0332 0B       		.uleb128 0xb
 1763 0333 61160000 		.4byte	.LASF108
 1764 0337 13       		.sleb128 19
 1765 0338 0B       		.uleb128 0xb
 1766 0339 98040000 		.4byte	.LASF109
 1767 033d 27       		.sleb128 39
 1768 033e 0B       		.uleb128 0xb
 1769 033f F0110000 		.4byte	.LASF110
 1770 0343 28       		.sleb128 40
 1771 0344 0B       		.uleb128 0xb
 1772 0345 E4130000 		.4byte	.LASF111
 1773 0349 29       		.sleb128 41
 1774 034a 0B       		.uleb128 0xb
 1775 034b 79020000 		.4byte	.LASF112
 1776 034f 2A       		.sleb128 42
 1777 0350 0B       		.uleb128 0xb
 1778 0351 47010000 		.4byte	.LASF113
 1779 0355 2B       		.sleb128 43
 1780 0356 0B       		.uleb128 0xb
 1781 0357 B20B0000 		.4byte	.LASF114
 1782 035b 2C       		.sleb128 44
 1783 035c 0B       		.uleb128 0xb
 1784 035d D3000000 		.4byte	.LASF115
 1785 0361 FE01     		.sleb128 254
 1786 0363 0B       		.uleb128 0xb
 1787 0364 A20B0000 		.4byte	.LASF116
ARM GAS  C:\Users\Sarah\AppData\Local\Temp\ccXRs73K.s 			page 58


 1788 0368 FF01     		.sleb128 255
 1789 036a 0B       		.uleb128 0xb
 1790 036b 6A090000 		.4byte	.LASF117
 1791 036f 8002     		.sleb128 256
 1792 0371 0B       		.uleb128 0xb
 1793 0372 220D0000 		.4byte	.LASF118
 1794 0376 8102     		.sleb128 257
 1795 0378 0B       		.uleb128 0xb
 1796 0379 AF0E0000 		.4byte	.LASF119
 1797 037d 8202     		.sleb128 258
 1798 037f 0B       		.uleb128 0xb
 1799 0380 1D050000 		.4byte	.LASF120
 1800 0384 8302     		.sleb128 259
 1801 0386 0B       		.uleb128 0xb
 1802 0387 FA100000 		.4byte	.LASF121
 1803 038b 8402     		.sleb128 260
 1804 038d 00       		.byte	0
 1805 038e 04       		.uleb128 0x4
 1806 038f E30C0000 		.4byte	.LASF122
 1807 0393 03       		.byte	0x3
 1808 0394 7104     		.2byte	0x471
 1809 0396 B7020000 		.4byte	0x2b7
 1810 039a 0C       		.uleb128 0xc
 1811 039b 07       		.byte	0x7
 1812 039c 03       		.byte	0x3
 1813 039d 3F05     		.2byte	0x53f
 1814 039f BE030000 		.4byte	0x3be
 1815 03a3 0D       		.uleb128 0xd
 1816 03a4 33060000 		.4byte	.LASF123
 1817 03a8 03       		.byte	0x3
 1818 03a9 4205     		.2byte	0x542
 1819 03ab BE030000 		.4byte	0x3be
 1820 03af 00       		.byte	0
 1821 03b0 0D       		.uleb128 0xd
 1822 03b1 59020000 		.4byte	.LASF124
 1823 03b5 03       		.byte	0x3
 1824 03b6 4405     		.2byte	0x544
 1825 03b8 6B000000 		.4byte	0x6b
 1826 03bc 06       		.byte	0x6
 1827 03bd 00       		.byte	0
 1828 03be 0E       		.uleb128 0xe
 1829 03bf 6B000000 		.4byte	0x6b
 1830 03c3 CE030000 		.4byte	0x3ce
 1831 03c7 0F       		.uleb128 0xf
 1832 03c8 B5000000 		.4byte	0xb5
 1833 03cc 05       		.byte	0x5
 1834 03cd 00       		.byte	0
 1835 03ce 04       		.uleb128 0x4
 1836 03cf A2030000 		.4byte	.LASF125
 1837 03d3 03       		.byte	0x3
 1838 03d4 4505     		.2byte	0x545
 1839 03d6 9A030000 		.4byte	0x39a
 1840 03da 0C       		.uleb128 0xc
 1841 03db 04       		.byte	0x4
 1842 03dc 03       		.byte	0x3
 1843 03dd 4F05     		.2byte	0x54f
 1844 03df FE030000 		.4byte	0x3fe
ARM GAS  C:\Users\Sarah\AppData\Local\Temp\ccXRs73K.s 			page 59


 1845 03e3 0D       		.uleb128 0xd
 1846 03e4 BC110000 		.4byte	.LASF126
 1847 03e8 03       		.byte	0x3
 1848 03e9 5205     		.2byte	0x552
 1849 03eb 77000000 		.4byte	0x77
 1850 03ef 00       		.byte	0
 1851 03f0 0D       		.uleb128 0xd
 1852 03f1 5E090000 		.4byte	.LASF127
 1853 03f5 03       		.byte	0x3
 1854 03f6 5405     		.2byte	0x554
 1855 03f8 6B000000 		.4byte	0x6b
 1856 03fc 02       		.byte	0x2
 1857 03fd 00       		.byte	0
 1858 03fe 04       		.uleb128 0x4
 1859 03ff ED0A0000 		.4byte	.LASF128
 1860 0403 03       		.byte	0x3
 1861 0404 5505     		.2byte	0x555
 1862 0406 DA030000 		.4byte	0x3da
 1863 040a 0C       		.uleb128 0xc
 1864 040b 06       		.byte	0x6
 1865 040c 03       		.byte	0x3
 1866 040d 5905     		.2byte	0x559
 1867 040f 3B040000 		.4byte	0x43b
 1868 0413 0D       		.uleb128 0xd
 1869 0414 46020000 		.4byte	.LASF129
 1870 0418 03       		.byte	0x3
 1871 0419 5C05     		.2byte	0x55c
 1872 041b 77000000 		.4byte	0x77
 1873 041f 00       		.byte	0
 1874 0420 0D       		.uleb128 0xd
 1875 0421 CD050000 		.4byte	.LASF130
 1876 0425 03       		.byte	0x3
 1877 0426 5F05     		.2byte	0x55f
 1878 0428 77000000 		.4byte	0x77
 1879 042c 02       		.byte	0x2
 1880 042d 0D       		.uleb128 0xd
 1881 042e 410A0000 		.4byte	.LASF131
 1882 0432 03       		.byte	0x3
 1883 0433 6205     		.2byte	0x562
 1884 0435 6B000000 		.4byte	0x6b
 1885 0439 04       		.byte	0x4
 1886 043a 00       		.byte	0
 1887 043b 04       		.uleb128 0x4
 1888 043c 00140000 		.4byte	.LASF132
 1889 0440 03       		.byte	0x3
 1890 0441 6305     		.2byte	0x563
 1891 0443 0A040000 		.4byte	0x40a
 1892 0447 0C       		.uleb128 0xc
 1893 0448 01       		.byte	0x1
 1894 0449 03       		.byte	0x3
 1895 044a 6605     		.2byte	0x566
 1896 044c 5E040000 		.4byte	0x45e
 1897 0450 0D       		.uleb128 0xd
 1898 0451 A1160000 		.4byte	.LASF133
 1899 0455 03       		.byte	0x3
 1900 0456 6905     		.2byte	0x569
 1901 0458 6B000000 		.4byte	0x6b
ARM GAS  C:\Users\Sarah\AppData\Local\Temp\ccXRs73K.s 			page 60


 1902 045c 00       		.byte	0
 1903 045d 00       		.byte	0
 1904 045e 04       		.uleb128 0x4
 1905 045f 96020000 		.4byte	.LASF134
 1906 0463 03       		.byte	0x3
 1907 0464 6A05     		.2byte	0x56a
 1908 0466 47040000 		.4byte	0x447
 1909 046a 0C       		.uleb128 0xc
 1910 046b 0C       		.byte	0xc
 1911 046c 03       		.byte	0x3
 1912 046d 7005     		.2byte	0x570
 1913 046f 9B040000 		.4byte	0x49b
 1914 0473 0D       		.uleb128 0xd
 1915 0474 38150000 		.4byte	.LASF135
 1916 0478 03       		.byte	0x3
 1917 0479 7305     		.2byte	0x573
 1918 047b 9B040000 		.4byte	0x49b
 1919 047f 00       		.byte	0
 1920 0480 0D       		.uleb128 0xd
 1921 0481 B2120000 		.4byte	.LASF136
 1922 0485 03       		.byte	0x3
 1923 0486 7605     		.2byte	0x576
 1924 0488 A1040000 		.4byte	0x4a1
 1925 048c 04       		.byte	0x4
 1926 048d 0D       		.uleb128 0xd
 1927 048e 3E130000 		.4byte	.LASF137
 1928 0492 03       		.byte	0x3
 1929 0493 7C05     		.2byte	0x57c
 1930 0495 77000000 		.4byte	0x77
 1931 0499 08       		.byte	0x8
 1932 049a 00       		.byte	0
 1933 049b 07       		.uleb128 0x7
 1934 049c 04       		.byte	0x4
 1935 049d 3B040000 		.4byte	0x43b
 1936 04a1 07       		.uleb128 0x7
 1937 04a2 04       		.byte	0x4
 1938 04a3 5E040000 		.4byte	0x45e
 1939 04a7 04       		.uleb128 0x4
 1940 04a8 43120000 		.4byte	.LASF138
 1941 04ac 03       		.byte	0x3
 1942 04ad 7D05     		.2byte	0x57d
 1943 04af 6A040000 		.4byte	0x46a
 1944 04b3 07       		.uleb128 0x7
 1945 04b4 04       		.byte	0x4
 1946 04b5 6B000000 		.4byte	0x6b
 1947 04b9 10       		.uleb128 0x10
 1948 04ba 01       		.byte	0x1
 1949 04bb 04       		.byte	0x4
 1950 04bc E0       		.byte	0xe0
 1951 04bd E0040000 		.4byte	0x4e0
 1952 04c1 0B       		.uleb128 0xb
 1953 04c2 7C030000 		.4byte	.LASF139
 1954 04c6 00       		.sleb128 0
 1955 04c7 0B       		.uleb128 0xb
 1956 04c8 7A010000 		.4byte	.LASF140
 1957 04cc 01       		.sleb128 1
 1958 04cd 0B       		.uleb128 0xb
ARM GAS  C:\Users\Sarah\AppData\Local\Temp\ccXRs73K.s 			page 61


 1959 04ce 22020000 		.4byte	.LASF141
 1960 04d2 02       		.sleb128 2
 1961 04d3 0B       		.uleb128 0xb
 1962 04d4 59130000 		.4byte	.LASF142
 1963 04d8 03       		.sleb128 3
 1964 04d9 0B       		.uleb128 0xb
 1965 04da AD0F0000 		.4byte	.LASF143
 1966 04de 04       		.sleb128 4
 1967 04df 00       		.byte	0
 1968 04e0 11       		.uleb128 0x11
 1969 04e1 2D130000 		.4byte	.LASF144
 1970 04e5 04       		.byte	0x4
 1971 04e6 F0       		.byte	0xf0
 1972 04e7 B9040000 		.4byte	0x4b9
 1973 04eb 0C       		.uleb128 0xc
 1974 04ec 10       		.byte	0x10
 1975 04ed 04       		.byte	0x4
 1976 04ee 2102     		.2byte	0x221
 1977 04f0 5D050000 		.4byte	0x55d
 1978 04f4 0D       		.uleb128 0xd
 1979 04f5 A20F0000 		.4byte	.LASF145
 1980 04f9 04       		.byte	0x4
 1981 04fa 2702     		.2byte	0x227
 1982 04fc 77000000 		.4byte	0x77
 1983 0500 00       		.byte	0
 1984 0501 0D       		.uleb128 0xd
 1985 0502 65050000 		.4byte	.LASF146
 1986 0506 04       		.byte	0x4
 1987 0507 2D02     		.2byte	0x22d
 1988 0509 77000000 		.4byte	0x77
 1989 050d 02       		.byte	0x2
 1990 050e 0D       		.uleb128 0xd
 1991 050f 44030000 		.4byte	.LASF147
 1992 0513 04       		.byte	0x4
 1993 0514 3602     		.2byte	0x236
 1994 0516 E0040000 		.4byte	0x4e0
 1995 051a 04       		.byte	0x4
 1996 051b 0D       		.uleb128 0xd
 1997 051c 250C0000 		.4byte	.LASF148
 1998 0520 04       		.byte	0x4
 1999 0521 3E02     		.2byte	0x23e
 2000 0523 6B000000 		.4byte	0x6b
 2001 0527 05       		.byte	0x5
 2002 0528 0D       		.uleb128 0xd
 2003 0529 E10D0000 		.4byte	.LASF149
 2004 052d 04       		.byte	0x4
 2005 052e 4502     		.2byte	0x245
 2006 0530 6B000000 		.4byte	0x6b
 2007 0534 06       		.byte	0x6
 2008 0535 0D       		.uleb128 0xd
 2009 0536 D7040000 		.4byte	.LASF150
 2010 053a 04       		.byte	0x4
 2011 053b 4B02     		.2byte	0x24b
 2012 053d BE030000 		.4byte	0x3be
 2013 0541 07       		.byte	0x7
 2014 0542 0D       		.uleb128 0xd
 2015 0543 18010000 		.4byte	.LASF151
ARM GAS  C:\Users\Sarah\AppData\Local\Temp\ccXRs73K.s 			page 62


 2016 0547 04       		.byte	0x4
 2017 0548 5302     		.2byte	0x253
 2018 054a 6B000000 		.4byte	0x6b
 2019 054e 0D       		.byte	0xd
 2020 054f 0D       		.uleb128 0xd
 2021 0550 37050000 		.4byte	.LASF152
 2022 0554 04       		.byte	0x4
 2023 0555 5F02     		.2byte	0x25f
 2024 0557 6B000000 		.4byte	0x6b
 2025 055b 0E       		.byte	0xe
 2026 055c 00       		.byte	0
 2027 055d 04       		.uleb128 0x4
 2028 055e C7110000 		.4byte	.LASF153
 2029 0562 04       		.byte	0x4
 2030 0563 6102     		.2byte	0x261
 2031 0565 EB040000 		.4byte	0x4eb
 2032 0569 0C       		.uleb128 0xc
 2033 056a 20       		.byte	0x20
 2034 056b 04       		.byte	0x4
 2035 056c 6402     		.2byte	0x264
 2036 056e 8D050000 		.4byte	0x58d
 2037 0572 0D       		.uleb128 0xd
 2038 0573 8D080000 		.4byte	.LASF154
 2039 0577 04       		.byte	0x4
 2040 0578 6702     		.2byte	0x267
 2041 057a 8D050000 		.4byte	0x58d
 2042 057e 00       		.byte	0
 2043 057f 0D       		.uleb128 0xd
 2044 0580 72070000 		.4byte	.LASF155
 2045 0584 04       		.byte	0x4
 2046 0585 6A02     		.2byte	0x26a
 2047 0587 6B000000 		.4byte	0x6b
 2048 058b 1F       		.byte	0x1f
 2049 058c 00       		.byte	0
 2050 058d 0E       		.uleb128 0xe
 2051 058e 6B000000 		.4byte	0x6b
 2052 0592 9D050000 		.4byte	0x59d
 2053 0596 0F       		.uleb128 0xf
 2054 0597 B5000000 		.4byte	0xb5
 2055 059b 1E       		.byte	0x1e
 2056 059c 00       		.byte	0
 2057 059d 04       		.uleb128 0x4
 2058 059e BC000000 		.4byte	.LASF156
 2059 05a2 04       		.byte	0x4
 2060 05a3 6C02     		.2byte	0x26c
 2061 05a5 69050000 		.4byte	0x569
 2062 05a9 0C       		.uleb128 0xc
 2063 05aa 20       		.byte	0x20
 2064 05ab 04       		.byte	0x4
 2065 05ac 6F02     		.2byte	0x26f
 2066 05ae CD050000 		.4byte	0x5cd
 2067 05b2 0D       		.uleb128 0xd
 2068 05b3 27060000 		.4byte	.LASF157
 2069 05b7 04       		.byte	0x4
 2070 05b8 7302     		.2byte	0x273
 2071 05ba 8D050000 		.4byte	0x58d
 2072 05be 00       		.byte	0
ARM GAS  C:\Users\Sarah\AppData\Local\Temp\ccXRs73K.s 			page 63


 2073 05bf 0D       		.uleb128 0xd
 2074 05c0 37070000 		.4byte	.LASF158
 2075 05c4 04       		.byte	0x4
 2076 05c5 7602     		.2byte	0x276
 2077 05c7 6B000000 		.4byte	0x6b
 2078 05cb 1F       		.byte	0x1f
 2079 05cc 00       		.byte	0
 2080 05cd 04       		.uleb128 0x4
 2081 05ce 43090000 		.4byte	.LASF159
 2082 05d2 04       		.byte	0x4
 2083 05d3 7802     		.2byte	0x278
 2084 05d5 A9050000 		.4byte	0x5a9
 2085 05d9 0C       		.uleb128 0xc
 2086 05da 14       		.byte	0x14
 2087 05db 04       		.byte	0x4
 2088 05dc 7B02     		.2byte	0x27b
 2089 05de 24060000 		.4byte	0x624
 2090 05e2 0D       		.uleb128 0xd
 2091 05e3 7F060000 		.4byte	.LASF160
 2092 05e7 04       		.byte	0x4
 2093 05e8 8302     		.2byte	0x283
 2094 05ea 6B000000 		.4byte	0x6b
 2095 05ee 00       		.byte	0
 2096 05ef 0D       		.uleb128 0xd
 2097 05f0 17130000 		.4byte	.LASF161
 2098 05f4 04       		.byte	0x4
 2099 05f5 8602     		.2byte	0x286
 2100 05f7 24060000 		.4byte	0x624
 2101 05fb 04       		.byte	0x4
 2102 05fc 0D       		.uleb128 0xd
 2103 05fd 8D080000 		.4byte	.LASF154
 2104 0601 04       		.byte	0x4
 2105 0602 8802     		.2byte	0x288
 2106 0604 2A060000 		.4byte	0x62a
 2107 0608 08       		.byte	0x8
 2108 0609 0D       		.uleb128 0xd
 2109 060a 27060000 		.4byte	.LASF157
 2110 060e 04       		.byte	0x4
 2111 060f 8A02     		.2byte	0x28a
 2112 0611 30060000 		.4byte	0x630
 2113 0615 0C       		.byte	0xc
 2114 0616 0D       		.uleb128 0xd
 2115 0617 3D160000 		.4byte	.LASF162
 2116 061b 04       		.byte	0x4
 2117 061c 9402     		.2byte	0x294
 2118 061e 77000000 		.4byte	0x77
 2119 0622 10       		.byte	0x10
 2120 0623 00       		.byte	0
 2121 0624 07       		.uleb128 0x7
 2122 0625 04       		.byte	0x4
 2123 0626 5D050000 		.4byte	0x55d
 2124 062a 07       		.uleb128 0x7
 2125 062b 04       		.byte	0x4
 2126 062c 9D050000 		.4byte	0x59d
 2127 0630 07       		.uleb128 0x7
 2128 0631 04       		.byte	0x4
 2129 0632 CD050000 		.4byte	0x5cd
ARM GAS  C:\Users\Sarah\AppData\Local\Temp\ccXRs73K.s 			page 64


 2130 0636 04       		.uleb128 0x4
 2131 0637 FB120000 		.4byte	.LASF163
 2132 063b 04       		.byte	0x4
 2133 063c 9602     		.2byte	0x296
 2134 063e D9050000 		.4byte	0x5d9
 2135 0642 04       		.uleb128 0x4
 2136 0643 7C040000 		.4byte	.LASF164
 2137 0647 05       		.byte	0x5
 2138 0648 8901     		.2byte	0x189
 2139 064a 77000000 		.4byte	0x77
 2140 064e 12       		.uleb128 0x12
 2141 064f 08       		.byte	0x8
 2142 0650 06       		.byte	0x6
 2143 0651 C8       		.byte	0xc8
 2144 0652 6F060000 		.4byte	0x66f
 2145 0656 13       		.uleb128 0x13
 2146 0657 930A0000 		.4byte	.LASF165
 2147 065b 06       		.byte	0x6
 2148 065c CB       		.byte	0xcb
 2149 065d 77000000 		.4byte	0x77
 2150 0661 00       		.byte	0
 2151 0662 13       		.uleb128 0x13
 2152 0663 4D0D0000 		.4byte	.LASF166
 2153 0667 06       		.byte	0x6
 2154 0668 D0       		.byte	0xd0
 2155 0669 BC000000 		.4byte	0xbc
 2156 066d 04       		.byte	0x4
 2157 066e 00       		.byte	0
 2158 066f 11       		.uleb128 0x11
 2159 0670 D1120000 		.4byte	.LASF167
 2160 0674 06       		.byte	0x6
 2161 0675 D2       		.byte	0xd2
 2162 0676 4E060000 		.4byte	0x64e
 2163 067a 12       		.uleb128 0x12
 2164 067b 08       		.byte	0x8
 2165 067c 06       		.byte	0x6
 2166 067d D5       		.byte	0xd5
 2167 067e 9B060000 		.4byte	0x69b
 2168 0682 13       		.uleb128 0x13
 2169 0683 220A0000 		.4byte	.LASF168
 2170 0687 06       		.byte	0x6
 2171 0688 D8       		.byte	0xd8
 2172 0689 77000000 		.4byte	0x77
 2173 068d 00       		.byte	0
 2174 068e 13       		.uleb128 0x13
 2175 068f A1130000 		.4byte	.LASF169
 2176 0693 06       		.byte	0x6
 2177 0694 DD       		.byte	0xdd
 2178 0695 9B060000 		.4byte	0x69b
 2179 0699 04       		.byte	0x4
 2180 069a 00       		.byte	0
 2181 069b 07       		.uleb128 0x7
 2182 069c 04       		.byte	0x4
 2183 069d 6F060000 		.4byte	0x66f
 2184 06a1 11       		.uleb128 0x11
 2185 06a2 59060000 		.4byte	.LASF170
 2186 06a6 06       		.byte	0x6
ARM GAS  C:\Users\Sarah\AppData\Local\Temp\ccXRs73K.s 			page 65


 2187 06a7 DF       		.byte	0xdf
 2188 06a8 7A060000 		.4byte	0x67a
 2189 06ac 14       		.uleb128 0x14
 2190 06ad 08       		.byte	0x8
 2191 06ae 06       		.byte	0x6
 2192 06af E2       		.byte	0xe2
 2193 06b0 CB060000 		.4byte	0x6cb
 2194 06b4 15       		.uleb128 0x15
 2195 06b5 34090000 		.4byte	.LASF171
 2196 06b9 06       		.byte	0x6
 2197 06ba E9       		.byte	0xe9
 2198 06bb A1060000 		.4byte	0x6a1
 2199 06bf 15       		.uleb128 0x15
 2200 06c0 400D0000 		.4byte	.LASF172
 2201 06c4 06       		.byte	0x6
 2202 06c5 EC       		.byte	0xec
 2203 06c6 77000000 		.4byte	0x77
 2204 06ca 00       		.byte	0
 2205 06cb 11       		.uleb128 0x11
 2206 06cc A6060000 		.4byte	.LASF173
 2207 06d0 06       		.byte	0x6
 2208 06d1 EE       		.byte	0xee
 2209 06d2 AC060000 		.4byte	0x6ac
 2210 06d6 12       		.uleb128 0x12
 2211 06d7 14       		.byte	0x14
 2212 06d8 06       		.byte	0x6
 2213 06d9 F1       		.byte	0xf1
 2214 06da 1E070000 		.4byte	0x71e
 2215 06de 13       		.uleb128 0x13
 2216 06df BE060000 		.4byte	.LASF174
 2217 06e3 06       		.byte	0x6
 2218 06e4 F4       		.byte	0xf4
 2219 06e5 77000000 		.4byte	0x77
 2220 06e9 00       		.byte	0
 2221 06ea 13       		.uleb128 0x13
 2222 06eb 6A070000 		.4byte	.LASF175
 2223 06ef 06       		.byte	0x6
 2224 06f0 FA       		.byte	0xfa
 2225 06f1 77000000 		.4byte	0x77
 2226 06f5 02       		.byte	0x2
 2227 06f6 0D       		.uleb128 0xd
 2228 06f7 F9040000 		.4byte	.LASF176
 2229 06fb 06       		.byte	0x6
 2230 06fc 0501     		.2byte	0x105
 2231 06fe 83000000 		.4byte	0x83
 2232 0702 04       		.byte	0x4
 2233 0703 0D       		.uleb128 0xd
 2234 0704 86110000 		.4byte	.LASF177
 2235 0708 06       		.byte	0x6
 2236 0709 0801     		.2byte	0x108
 2237 070b 77000000 		.4byte	0x77
 2238 070f 08       		.byte	0x8
 2239 0710 0D       		.uleb128 0xd
 2240 0711 550E0000 		.4byte	.LASF178
 2241 0715 06       		.byte	0x6
 2242 0716 1101     		.2byte	0x111
 2243 0718 CB060000 		.4byte	0x6cb
ARM GAS  C:\Users\Sarah\AppData\Local\Temp\ccXRs73K.s 			page 66


 2244 071c 0C       		.byte	0xc
 2245 071d 00       		.byte	0
 2246 071e 04       		.uleb128 0x4
 2247 071f 83120000 		.4byte	.LASF179
 2248 0723 06       		.byte	0x6
 2249 0724 1201     		.2byte	0x112
 2250 0726 D6060000 		.4byte	0x6d6
 2251 072a 04       		.uleb128 0x4
 2252 072b C0120000 		.4byte	.LASF180
 2253 072f 07       		.byte	0x7
 2254 0730 0302     		.2byte	0x203
 2255 0732 BE000000 		.4byte	0xbe
 2256 0736 0A       		.uleb128 0xa
 2257 0737 01       		.byte	0x1
 2258 0738 08       		.byte	0x8
 2259 0739 5008     		.2byte	0x850
 2260 073b 5E070000 		.4byte	0x75e
 2261 073f 0B       		.uleb128 0xb
 2262 0740 3F000000 		.4byte	.LASF181
 2263 0744 00       		.sleb128 0
 2264 0745 0B       		.uleb128 0xb
 2265 0746 0C0C0000 		.4byte	.LASF182
 2266 074a 01       		.sleb128 1
 2267 074b 0B       		.uleb128 0xb
 2268 074c 58140000 		.4byte	.LASF183
 2269 0750 02       		.sleb128 2
 2270 0751 0B       		.uleb128 0xb
 2271 0752 37040000 		.4byte	.LASF184
 2272 0756 03       		.sleb128 3
 2273 0757 0B       		.uleb128 0xb
 2274 0758 8C050000 		.4byte	.LASF185
 2275 075c 04       		.sleb128 4
 2276 075d 00       		.byte	0
 2277 075e 04       		.uleb128 0x4
 2278 075f 4B130000 		.4byte	.LASF186
 2279 0763 08       		.byte	0x8
 2280 0764 5E08     		.2byte	0x85e
 2281 0766 36070000 		.4byte	0x736
 2282 076a 0C       		.uleb128 0xc
 2283 076b 0C       		.byte	0xc
 2284 076c 08       		.byte	0x8
 2285 076d 9909     		.2byte	0x999
 2286 076f C2070000 		.4byte	0x7c2
 2287 0773 0D       		.uleb128 0xd
 2288 0774 5F0F0000 		.4byte	.LASF187
 2289 0778 08       		.byte	0x8
 2290 0779 9C09     		.2byte	0x99c
 2291 077b 42060000 		.4byte	0x642
 2292 077f 00       		.byte	0
 2293 0780 0D       		.uleb128 0xd
 2294 0781 28160000 		.4byte	.LASF188
 2295 0785 08       		.byte	0x8
 2296 0786 9E09     		.2byte	0x99e
 2297 0788 42060000 		.4byte	0x642
 2298 078c 02       		.byte	0x2
 2299 078d 0D       		.uleb128 0xd
 2300 078e 190F0000 		.4byte	.LASF189
ARM GAS  C:\Users\Sarah\AppData\Local\Temp\ccXRs73K.s 			page 67


 2301 0792 08       		.byte	0x8
 2302 0793 A009     		.2byte	0x9a0
 2303 0795 42060000 		.4byte	0x642
 2304 0799 04       		.byte	0x4
 2305 079a 0D       		.uleb128 0xd
 2306 079b 970E0000 		.4byte	.LASF190
 2307 079f 08       		.byte	0x8
 2308 07a0 A309     		.2byte	0x9a3
 2309 07a2 42060000 		.4byte	0x642
 2310 07a6 06       		.byte	0x6
 2311 07a7 0D       		.uleb128 0xd
 2312 07a8 0E0E0000 		.4byte	.LASF191
 2313 07ac 08       		.byte	0x8
 2314 07ad A509     		.2byte	0x9a5
 2315 07af 42060000 		.4byte	0x642
 2316 07b3 08       		.byte	0x8
 2317 07b4 0D       		.uleb128 0xd
 2318 07b5 5E120000 		.4byte	.LASF192
 2319 07b9 08       		.byte	0x8
 2320 07ba A709     		.2byte	0x9a7
 2321 07bc 42060000 		.4byte	0x642
 2322 07c0 0A       		.byte	0xa
 2323 07c1 00       		.byte	0
 2324 07c2 04       		.uleb128 0x4
 2325 07c3 20130000 		.4byte	.LASF193
 2326 07c7 08       		.byte	0x8
 2327 07c8 A809     		.2byte	0x9a8
 2328 07ca 6A070000 		.4byte	0x76a
 2329 07ce 16       		.uleb128 0x16
 2330 07cf B6150000 		.4byte	.LASF194
 2331 07d3 01       		.byte	0x1
 2332 07d4 98       		.byte	0x98
 2333 07d5 00000000 		.4byte	.LFB2
 2334 07d9 2C000000 		.4byte	.LFE2-.LFB2
 2335 07dd 01       		.uleb128 0x1
 2336 07de 9C       		.byte	0x9c
 2337 07df 16       		.uleb128 0x16
 2338 07e0 52080000 		.4byte	.LASF195
 2339 07e4 01       		.byte	0x1
 2340 07e5 C9       		.byte	0xc9
 2341 07e6 00000000 		.4byte	.LFB3
 2342 07ea 0C000000 		.4byte	.LFE3-.LFB3
 2343 07ee 01       		.uleb128 0x1
 2344 07ef 9C       		.byte	0x9c
 2345 07f0 17       		.uleb128 0x17
 2346 07f1 710A0000 		.4byte	.LASF203
 2347 07f5 01       		.byte	0x1
 2348 07f6 9701     		.2byte	0x197
 2349 07f8 8E030000 		.4byte	0x38e
 2350 07fc 00000000 		.4byte	.LFB4
 2351 0800 2C010000 		.4byte	.LFE4-.LFB4
 2352 0804 01       		.uleb128 0x1
 2353 0805 9C       		.byte	0x9c
 2354 0806 80080000 		.4byte	0x880
 2355 080a 18       		.uleb128 0x18
 2356 080b 480E0000 		.4byte	.LASF205
 2357 080f 01       		.byte	0x1
ARM GAS  C:\Users\Sarah\AppData\Local\Temp\ccXRs73K.s 			page 68


 2358 0810 9701     		.2byte	0x197
 2359 0812 2A070000 		.4byte	0x72a
 2360 0816 03       		.uleb128 0x3
 2361 0817 91       		.byte	0x91
 2362 0818 B47F     		.sleb128 -76
 2363 081a 19       		.uleb128 0x19
 2364 081b D90C0000 		.4byte	.LASF196
 2365 081f 01       		.byte	0x1
 2366 0820 9901     		.2byte	0x199
 2367 0822 8E030000 		.4byte	0x38e
 2368 0826 02       		.uleb128 0x2
 2369 0827 91       		.byte	0x91
 2370 0828 6E       		.sleb128 -18
 2371 0829 19       		.uleb128 0x19
 2372 082a CF100000 		.4byte	.LASF197
 2373 082e 01       		.byte	0x1
 2374 082f 9D01     		.2byte	0x19d
 2375 0831 80080000 		.4byte	0x880
 2376 0835 02       		.uleb128 0x2
 2377 0836 91       		.byte	0x91
 2378 0837 58       		.sleb128 -40
 2379 0838 1A       		.uleb128 0x1a
 2380 0839 4E000000 		.4byte	.LBB2
 2381 083d 54000000 		.4byte	.LBE2-.LBB2
 2382 0841 19       		.uleb128 0x19
 2383 0842 87000000 		.4byte	.LASF198
 2384 0846 01       		.byte	0x1
 2385 0847 BF01     		.2byte	0x1bf
 2386 0849 3B040000 		.4byte	0x43b
 2387 084d 02       		.uleb128 0x2
 2388 084e 91       		.byte	0x91
 2389 084f 50       		.sleb128 -48
 2390 0850 19       		.uleb128 0x19
 2391 0851 20090000 		.4byte	.LASF199
 2392 0855 01       		.byte	0x1
 2393 0856 C001     		.2byte	0x1c0
 2394 0858 5E040000 		.4byte	0x45e
 2395 085c 02       		.uleb128 0x2
 2396 085d 91       		.byte	0x91
 2397 085e 4C       		.sleb128 -52
 2398 085f 19       		.uleb128 0x19
 2399 0860 B2130000 		.4byte	.LASF200
 2400 0864 01       		.byte	0x1
 2401 0865 C101     		.2byte	0x1c1
 2402 0867 A7040000 		.4byte	0x4a7
 2403 086b 02       		.uleb128 0x2
 2404 086c 91       		.byte	0x91
 2405 086d 40       		.sleb128 -64
 2406 086e 19       		.uleb128 0x19
 2407 086f 740F0000 		.4byte	.LASF201
 2408 0873 01       		.byte	0x1
 2409 0874 C201     		.2byte	0x1c2
 2410 0876 77000000 		.4byte	0x77
 2411 087a 03       		.uleb128 0x3
 2412 087b 91       		.byte	0x91
 2413 087c BE7F     		.sleb128 -66
 2414 087e 00       		.byte	0
ARM GAS  C:\Users\Sarah\AppData\Local\Temp\ccXRs73K.s 			page 69


 2415 087f 00       		.byte	0
 2416 0880 0E       		.uleb128 0xe
 2417 0881 FE030000 		.4byte	0x3fe
 2418 0885 90080000 		.4byte	0x890
 2419 0889 0F       		.uleb128 0xf
 2420 088a B5000000 		.4byte	0xb5
 2421 088e 04       		.byte	0x4
 2422 088f 00       		.byte	0
 2423 0890 1B       		.uleb128 0x1b
 2424 0891 F60C0000 		.4byte	.LASF202
 2425 0895 01       		.byte	0x1
 2426 0896 1C02     		.2byte	0x21c
 2427 0898 00000000 		.4byte	.LFB5
 2428 089c 18000000 		.4byte	.LFE5-.LFB5
 2429 08a0 01       		.uleb128 0x1
 2430 08a1 9C       		.byte	0x9c
 2431 08a2 17       		.uleb128 0x17
 2432 08a3 C40D0000 		.4byte	.LASF204
 2433 08a7 01       		.byte	0x1
 2434 08a8 1603     		.2byte	0x316
 2435 08aa 8E030000 		.4byte	0x38e
 2436 08ae 00000000 		.4byte	.LFB6
 2437 08b2 D4000000 		.4byte	.LFE6-.LFB6
 2438 08b6 01       		.uleb128 0x1
 2439 08b7 9C       		.byte	0x9c
 2440 08b8 DB080000 		.4byte	0x8db
 2441 08bc 18       		.uleb128 0x18
 2442 08bd 61110000 		.4byte	.LASF206
 2443 08c1 01       		.byte	0x1
 2444 08c2 1603     		.2byte	0x316
 2445 08c4 6B000000 		.4byte	0x6b
 2446 08c8 02       		.uleb128 0x2
 2447 08c9 91       		.byte	0x91
 2448 08ca 67       		.sleb128 -25
 2449 08cb 19       		.uleb128 0x19
 2450 08cc D90C0000 		.4byte	.LASF196
 2451 08d0 01       		.byte	0x1
 2452 08d1 1803     		.2byte	0x318
 2453 08d3 8E030000 		.4byte	0x38e
 2454 08d7 02       		.uleb128 0x2
 2455 08d8 91       		.byte	0x91
 2456 08d9 6E       		.sleb128 -18
 2457 08da 00       		.byte	0
 2458 08db 1B       		.uleb128 0x1b
 2459 08dc B7020000 		.4byte	.LASF207
 2460 08e0 01       		.byte	0x1
 2461 08e1 5303     		.2byte	0x353
 2462 08e3 00000000 		.4byte	.LFB7
 2463 08e7 20000000 		.4byte	.LFE7-.LFB7
 2464 08eb 01       		.uleb128 0x1
 2465 08ec 9C       		.byte	0x9c
 2466 08ed 1C       		.uleb128 0x1c
 2467 08ee FD0E0000 		.4byte	.LASF219
 2468 08f2 01       		.byte	0x1
 2469 08f3 6903     		.2byte	0x369
 2470 08f5 00000000 		.4byte	.LFB8
 2471 08f9 60000000 		.4byte	.LFE8-.LFB8
ARM GAS  C:\Users\Sarah\AppData\Local\Temp\ccXRs73K.s 			page 70


 2472 08fd 01       		.uleb128 0x1
 2473 08fe 9C       		.byte	0x9c
 2474 08ff 3E090000 		.4byte	0x93e
 2475 0903 18       		.uleb128 0x18
 2476 0904 33060000 		.4byte	.LASF123
 2477 0908 01       		.byte	0x1
 2478 0909 6903     		.2byte	0x369
 2479 090b 3E090000 		.4byte	0x93e
 2480 090f 02       		.uleb128 0x2
 2481 0910 91       		.byte	0x91
 2482 0911 6C       		.sleb128 -20
 2483 0912 18       		.uleb128 0x18
 2484 0913 3B0D0000 		.4byte	.LASF208
 2485 0917 01       		.byte	0x1
 2486 0918 6903     		.2byte	0x369
 2487 091a 6B000000 		.4byte	0x6b
 2488 091e 02       		.uleb128 0x2
 2489 091f 91       		.byte	0x91
 2490 0920 6B       		.sleb128 -21
 2491 0921 1D       		.uleb128 0x1d
 2492 0922 6900     		.ascii	"i\000"
 2493 0924 01       		.byte	0x1
 2494 0925 6B03     		.2byte	0x36b
 2495 0927 6B000000 		.4byte	0x6b
 2496 092b 02       		.uleb128 0x2
 2497 092c 91       		.byte	0x91
 2498 092d 77       		.sleb128 -9
 2499 092e 19       		.uleb128 0x19
 2500 092f CF060000 		.4byte	.LASF209
 2501 0933 01       		.byte	0x1
 2502 0934 6C03     		.2byte	0x36c
 2503 0936 B3040000 		.4byte	0x4b3
 2504 093a 02       		.uleb128 0x2
 2505 093b 91       		.byte	0x91
 2506 093c 70       		.sleb128 -16
 2507 093d 00       		.byte	0
 2508 093e 07       		.uleb128 0x7
 2509 093f 04       		.byte	0x4
 2510 0940 44090000 		.4byte	0x944
 2511 0944 1E       		.uleb128 0x1e
 2512 0945 CE030000 		.4byte	0x3ce
 2513 0949 1F       		.uleb128 0x1f
 2514 094a 51100000 		.4byte	.LASF240
 2515 094e 01       		.byte	0x1
 2516 094f A804     		.2byte	0x4a8
 2517 0951 00000000 		.4byte	.LFB9
 2518 0955 A4010000 		.4byte	.LFE9-.LFB9
 2519 0959 01       		.uleb128 0x1
 2520 095a 9C       		.byte	0x9c
 2521 095b D6090000 		.4byte	0x9d6
 2522 095f 18       		.uleb128 0x18
 2523 0960 1B090000 		.4byte	.LASF210
 2524 0964 01       		.byte	0x1
 2525 0965 A804     		.2byte	0x4a8
 2526 0967 D6090000 		.4byte	0x9d6
 2527 096b 02       		.uleb128 0x2
 2528 096c 91       		.byte	0x91
ARM GAS  C:\Users\Sarah\AppData\Local\Temp\ccXRs73K.s 			page 71


 2529 096d 64       		.sleb128 -28
 2530 096e 18       		.uleb128 0x18
 2531 096f 3B0D0000 		.4byte	.LASF208
 2532 0973 01       		.byte	0x1
 2533 0974 A804     		.2byte	0x4a8
 2534 0976 6B000000 		.4byte	0x6b
 2535 097a 02       		.uleb128 0x2
 2536 097b 91       		.byte	0x91
 2537 097c 63       		.sleb128 -29
 2538 097d 1D       		.uleb128 0x1d
 2539 097e 6900     		.ascii	"i\000"
 2540 0980 01       		.byte	0x1
 2541 0981 AA04     		.2byte	0x4aa
 2542 0983 6B000000 		.4byte	0x6b
 2543 0987 02       		.uleb128 0x2
 2544 0988 91       		.byte	0x91
 2545 0989 77       		.sleb128 -9
 2546 098a 19       		.uleb128 0x19
 2547 098b 2E0F0000 		.4byte	.LASF211
 2548 098f 01       		.byte	0x1
 2549 0990 AB04     		.2byte	0x4ab
 2550 0992 6B000000 		.4byte	0x6b
 2551 0996 02       		.uleb128 0x2
 2552 0997 91       		.byte	0x91
 2553 0998 76       		.sleb128 -10
 2554 0999 19       		.uleb128 0x19
 2555 099a 36110000 		.4byte	.LASF212
 2556 099e 01       		.byte	0x1
 2557 099f AC04     		.2byte	0x4ac
 2558 09a1 6B000000 		.4byte	0x6b
 2559 09a5 02       		.uleb128 0x2
 2560 09a6 91       		.byte	0x91
 2561 09a7 75       		.sleb128 -11
 2562 09a8 19       		.uleb128 0x19
 2563 09a9 EF120000 		.4byte	.LASF213
 2564 09ad 01       		.byte	0x1
 2565 09ae AD04     		.2byte	0x4ad
 2566 09b0 6B000000 		.4byte	0x6b
 2567 09b4 02       		.uleb128 0x2
 2568 09b5 91       		.byte	0x91
 2569 09b6 74       		.sleb128 -12
 2570 09b7 19       		.uleb128 0x19
 2571 09b8 CF060000 		.4byte	.LASF209
 2572 09bc 01       		.byte	0x1
 2573 09bd AE04     		.2byte	0x4ae
 2574 09bf B3040000 		.4byte	0x4b3
 2575 09c3 02       		.uleb128 0x2
 2576 09c4 91       		.byte	0x91
 2577 09c5 70       		.sleb128 -16
 2578 09c6 19       		.uleb128 0x19
 2579 09c7 E3100000 		.4byte	.LASF214
 2580 09cb 01       		.byte	0x1
 2581 09cc AF04     		.2byte	0x4af
 2582 09ce 6B000000 		.4byte	0x6b
 2583 09d2 02       		.uleb128 0x2
 2584 09d3 91       		.byte	0x91
 2585 09d4 6F       		.sleb128 -17
ARM GAS  C:\Users\Sarah\AppData\Local\Temp\ccXRs73K.s 			page 72


 2586 09d5 00       		.byte	0
 2587 09d6 07       		.uleb128 0x7
 2588 09d7 04       		.byte	0x4
 2589 09d8 DC090000 		.4byte	0x9dc
 2590 09dc 1E       		.uleb128 0x1e
 2591 09dd 9D000000 		.4byte	0x9d
 2592 09e1 17       		.uleb128 0x17
 2593 09e2 4B0C0000 		.4byte	.LASF215
 2594 09e6 01       		.byte	0x1
 2595 09e7 0D05     		.2byte	0x50d
 2596 09e9 8E030000 		.4byte	0x38e
 2597 09ed 00000000 		.4byte	.LFB10
 2598 09f1 F0000000 		.4byte	.LFE10-.LFB10
 2599 09f5 01       		.uleb128 0x1
 2600 09f6 9C       		.byte	0x9c
 2601 09f7 450A0000 		.4byte	0xa45
 2602 09fb 18       		.uleb128 0x18
 2603 09fc 1B090000 		.4byte	.LASF210
 2604 0a00 01       		.byte	0x1
 2605 0a01 0D05     		.2byte	0x50d
 2606 0a03 D6090000 		.4byte	0x9d6
 2607 0a07 02       		.uleb128 0x2
 2608 0a08 91       		.byte	0x91
 2609 0a09 64       		.sleb128 -28
 2610 0a0a 19       		.uleb128 0x19
 2611 0a0b D90C0000 		.4byte	.LASF196
 2612 0a0f 01       		.byte	0x1
 2613 0a10 0F05     		.2byte	0x50f
 2614 0a12 8E030000 		.4byte	0x38e
 2615 0a16 02       		.uleb128 0x2
 2616 0a17 91       		.byte	0x91
 2617 0a18 76       		.sleb128 -10
 2618 0a19 1D       		.uleb128 0x1d
 2619 0a1a 6900     		.ascii	"i\000"
 2620 0a1c 01       		.byte	0x1
 2621 0a1d 1005     		.2byte	0x510
 2622 0a1f 6B000000 		.4byte	0x6b
 2623 0a23 02       		.uleb128 0x2
 2624 0a24 91       		.byte	0x91
 2625 0a25 75       		.sleb128 -11
 2626 0a26 1D       		.uleb128 0x1d
 2627 0a27 70747200 		.ascii	"ptr\000"
 2628 0a2b 01       		.byte	0x1
 2629 0a2c 1105     		.2byte	0x511
 2630 0a2e 450A0000 		.4byte	0xa45
 2631 0a32 02       		.uleb128 0x2
 2632 0a33 91       		.byte	0x91
 2633 0a34 70       		.sleb128 -16
 2634 0a35 19       		.uleb128 0x19
 2635 0a36 070B0000 		.4byte	.LASF216
 2636 0a3a 01       		.byte	0x1
 2637 0a3b 1205     		.2byte	0x512
 2638 0a3d 6B000000 		.4byte	0x6b
 2639 0a41 02       		.uleb128 0x2
 2640 0a42 91       		.byte	0x91
 2641 0a43 6F       		.sleb128 -17
 2642 0a44 00       		.byte	0
ARM GAS  C:\Users\Sarah\AppData\Local\Temp\ccXRs73K.s 			page 73


 2643 0a45 07       		.uleb128 0x7
 2644 0a46 04       		.byte	0x4
 2645 0a47 9D000000 		.4byte	0x9d
 2646 0a4b 20       		.uleb128 0x20
 2647 0a4c 7D0A0000 		.4byte	.LASF217
 2648 0a50 01       		.byte	0x1
 2649 0a51 5505     		.2byte	0x555
 2650 0a53 8E030000 		.4byte	0x38e
 2651 0a57 00000000 		.4byte	.LFB11
 2652 0a5b CC000000 		.4byte	.LFE11-.LFB11
 2653 0a5f 01       		.uleb128 0x1
 2654 0a60 9C       		.byte	0x9c
 2655 0a61 AF0A0000 		.4byte	0xaaf
 2656 0a65 18       		.uleb128 0x18
 2657 0a66 1B090000 		.4byte	.LASF210
 2658 0a6a 01       		.byte	0x1
 2659 0a6b 5505     		.2byte	0x555
 2660 0a6d 450A0000 		.4byte	0xa45
 2661 0a71 02       		.uleb128 0x2
 2662 0a72 91       		.byte	0x91
 2663 0a73 64       		.sleb128 -28
 2664 0a74 19       		.uleb128 0x19
 2665 0a75 D90C0000 		.4byte	.LASF196
 2666 0a79 01       		.byte	0x1
 2667 0a7a 5705     		.2byte	0x557
 2668 0a7c 8E030000 		.4byte	0x38e
 2669 0a80 02       		.uleb128 0x2
 2670 0a81 91       		.byte	0x91
 2671 0a82 76       		.sleb128 -10
 2672 0a83 19       		.uleb128 0x19
 2673 0a84 070B0000 		.4byte	.LASF216
 2674 0a88 01       		.byte	0x1
 2675 0a89 5805     		.2byte	0x558
 2676 0a8b 6B000000 		.4byte	0x6b
 2677 0a8f 02       		.uleb128 0x2
 2678 0a90 91       		.byte	0x91
 2679 0a91 6F       		.sleb128 -17
 2680 0a92 1D       		.uleb128 0x1d
 2681 0a93 6900     		.ascii	"i\000"
 2682 0a95 01       		.byte	0x1
 2683 0a96 5905     		.2byte	0x559
 2684 0a98 6B000000 		.4byte	0x6b
 2685 0a9c 02       		.uleb128 0x2
 2686 0a9d 91       		.byte	0x91
 2687 0a9e 75       		.sleb128 -11
 2688 0a9f 1D       		.uleb128 0x1d
 2689 0aa0 70747200 		.ascii	"ptr\000"
 2690 0aa4 01       		.byte	0x1
 2691 0aa5 5A05     		.2byte	0x55a
 2692 0aa7 450A0000 		.4byte	0xa45
 2693 0aab 02       		.uleb128 0x2
 2694 0aac 91       		.byte	0x91
 2695 0aad 70       		.sleb128 -16
 2696 0aae 00       		.byte	0
 2697 0aaf 20       		.uleb128 0x20
 2698 0ab0 66150000 		.4byte	.LASF218
 2699 0ab4 01       		.byte	0x1
ARM GAS  C:\Users\Sarah\AppData\Local\Temp\ccXRs73K.s 			page 74


 2700 0ab5 8705     		.2byte	0x587
 2701 0ab7 77000000 		.4byte	0x77
 2702 0abb 00000000 		.4byte	.LFB12
 2703 0abf 26000000 		.4byte	.LFE12-.LFB12
 2704 0ac3 01       		.uleb128 0x1
 2705 0ac4 9C       		.byte	0x9c
 2706 0ac5 D90A0000 		.4byte	0xad9
 2707 0ac9 21       		.uleb128 0x21
 2708 0aca 70747200 		.ascii	"ptr\000"
 2709 0ace 01       		.byte	0x1
 2710 0acf 8705     		.2byte	0x587
 2711 0ad1 D90A0000 		.4byte	0xad9
 2712 0ad5 02       		.uleb128 0x2
 2713 0ad6 91       		.byte	0x91
 2714 0ad7 74       		.sleb128 -12
 2715 0ad8 00       		.byte	0
 2716 0ad9 07       		.uleb128 0x7
 2717 0ada 04       		.byte	0x4
 2718 0adb DF0A0000 		.4byte	0xadf
 2719 0adf 1E       		.uleb128 0x1e
 2720 0ae0 6B000000 		.4byte	0x6b
 2721 0ae4 1C       		.uleb128 0x1c
 2722 0ae5 300A0000 		.4byte	.LASF220
 2723 0ae9 01       		.byte	0x1
 2724 0aea 9A05     		.2byte	0x59a
 2725 0aec 00000000 		.4byte	.LFB13
 2726 0af0 2E000000 		.4byte	.LFE13-.LFB13
 2727 0af4 01       		.uleb128 0x1
 2728 0af5 9C       		.byte	0x9c
 2729 0af6 190B0000 		.4byte	0xb19
 2730 0afa 21       		.uleb128 0x21
 2731 0afb 70747200 		.ascii	"ptr\000"
 2732 0aff 01       		.byte	0x1
 2733 0b00 9A05     		.2byte	0x59a
 2734 0b02 B3040000 		.4byte	0x4b3
 2735 0b06 02       		.uleb128 0x2
 2736 0b07 91       		.byte	0x91
 2737 0b08 74       		.sleb128 -12
 2738 0b09 18       		.uleb128 0x18
 2739 0b0a B1070000 		.4byte	.LASF221
 2740 0b0e 01       		.byte	0x1
 2741 0b0f 9A05     		.2byte	0x59a
 2742 0b11 77000000 		.4byte	0x77
 2743 0b15 02       		.uleb128 0x2
 2744 0b16 91       		.byte	0x91
 2745 0b17 72       		.sleb128 -14
 2746 0b18 00       		.byte	0
 2747 0b19 22       		.uleb128 0x22
 2748 0b1a 3E100000 		.4byte	.LASF222
 2749 0b1e 01       		.byte	0x1
 2750 0b1f 89       		.byte	0x89
 2751 0b20 2A070000 		.4byte	0x72a
 2752 0b24 05       		.uleb128 0x5
 2753 0b25 03       		.byte	0x3
 2754 0b26 00000000 		.4byte	CyBle_ApplCallback
 2755 0b2a 22       		.uleb128 0x22
 2756 0b2b D1090000 		.4byte	.LASF223
ARM GAS  C:\Users\Sarah\AppData\Local\Temp\ccXRs73K.s 			page 75


 2757 0b2f 01       		.byte	0x1
 2758 0b30 2B       		.byte	0x2b
 2759 0b31 6B000000 		.4byte	0x6b
 2760 0b35 05       		.uleb128 0x5
 2761 0b36 03       		.byte	0x3
 2762 0b37 00000000 		.4byte	cyBle_initVar
 2763 0b3b 0E       		.uleb128 0xe
 2764 0b3c 6B000000 		.4byte	0x6b
 2765 0b40 4C0B0000 		.4byte	0xb4c
 2766 0b44 23       		.uleb128 0x23
 2767 0b45 B5000000 		.4byte	0xb5
 2768 0b49 DF0A     		.2byte	0xadf
 2769 0b4b 00       		.byte	0
 2770 0b4c 22       		.uleb128 0x22
 2771 0b4d 0D020000 		.4byte	.LASF224
 2772 0b51 01       		.byte	0x1
 2773 0b52 36       		.byte	0x36
 2774 0b53 3B0B0000 		.4byte	0xb3b
 2775 0b57 05       		.uleb128 0x5
 2776 0b58 03       		.byte	0x3
 2777 0b59 00000000 		.4byte	cyBle_stackMemoryRam
 2778 0b5d 24       		.uleb128 0x24
 2779 0b5e 560B0000 		.4byte	.LASF225
 2780 0b62 07       		.byte	0x7
 2781 0b63 A302     		.2byte	0x2a3
 2782 0b65 B0000000 		.4byte	0xb0
 2783 0b69 22       		.uleb128 0x22
 2784 0b6a BE130000 		.4byte	.LASF226
 2785 0b6e 01       		.byte	0x1
 2786 0b6f 8A       		.byte	0x8a
 2787 0b70 CE030000 		.4byte	0x3ce
 2788 0b74 05       		.uleb128 0x5
 2789 0b75 03       		.byte	0x3
 2790 0b76 00000000 		.4byte	cyBle_deviceAddress
 2791 0b7a 22       		.uleb128 0x22
 2792 0b7b 3E140000 		.4byte	.LASF227
 2793 0b7f 01       		.byte	0x1
 2794 0b80 8B       		.byte	0x8b
 2795 0b81 8B0B0000 		.4byte	0xb8b
 2796 0b85 05       		.uleb128 0x5
 2797 0b86 03       		.byte	0x3
 2798 0b87 00000000 		.4byte	cyBle_sflashDeviceAddress
 2799 0b8b 07       		.uleb128 0x7
 2800 0b8c 04       		.byte	0x4
 2801 0b8d CE030000 		.4byte	0x3ce
 2802 0b91 22       		.uleb128 0x22
 2803 0b92 72000000 		.4byte	.LASF228
 2804 0b96 01       		.byte	0x1
 2805 0b97 3C       		.byte	0x3c
 2806 0b98 5D050000 		.4byte	0x55d
 2807 0b9c 05       		.uleb128 0x5
 2808 0b9d 03       		.byte	0x3
 2809 0b9e 00000000 		.4byte	cyBle_discoveryParam
 2810 0ba2 22       		.uleb128 0x22
 2811 0ba3 D3020000 		.4byte	.LASF229
 2812 0ba7 01       		.byte	0x1
 2813 0ba8 48       		.byte	0x48
ARM GAS  C:\Users\Sarah\AppData\Local\Temp\ccXRs73K.s 			page 76


 2814 0ba9 9D050000 		.4byte	0x59d
 2815 0bad 05       		.uleb128 0x5
 2816 0bae 03       		.byte	0x3
 2817 0baf 00000000 		.4byte	cyBle_discoveryData
 2818 0bb3 22       		.uleb128 0x22
 2819 0bb4 D2130000 		.4byte	.LASF230
 2820 0bb8 01       		.byte	0x1
 2821 0bb9 51       		.byte	0x51
 2822 0bba CD050000 		.4byte	0x5cd
 2823 0bbe 05       		.uleb128 0x5
 2824 0bbf 03       		.byte	0x3
 2825 0bc0 00000000 		.4byte	cyBle_scanRspData
 2826 0bc4 22       		.uleb128 0x22
 2827 0bc5 EB0B0000 		.4byte	.LASF231
 2828 0bc9 01       		.byte	0x1
 2829 0bca 61       		.byte	0x61
 2830 0bcb 36060000 		.4byte	0x636
 2831 0bcf 05       		.uleb128 0x5
 2832 0bd0 03       		.byte	0x3
 2833 0bd1 00000000 		.4byte	cyBle_discoveryModeInfo
 2834 0bd5 0E       		.uleb128 0xe
 2835 0bd6 1E070000 		.4byte	0x71e
 2836 0bda E50B0000 		.4byte	0xbe5
 2837 0bde 0F       		.uleb128 0xf
 2838 0bdf B5000000 		.4byte	0xb5
 2839 0be3 15       		.byte	0x15
 2840 0be4 00       		.byte	0
 2841 0be5 25       		.uleb128 0x25
 2842 0be6 ED100000 		.4byte	.LASF232
 2843 0bea 09       		.byte	0x9
 2844 0beb E8       		.byte	0xe8
 2845 0bec F00B0000 		.4byte	0xbf0
 2846 0bf0 1E       		.uleb128 0x1e
 2847 0bf1 D50B0000 		.4byte	0xbd5
 2848 0bf5 24       		.uleb128 0x24
 2849 0bf6 A00A0000 		.4byte	.LASF233
 2850 0bfa 08       		.byte	0x8
 2851 0bfb A90A     		.2byte	0xaa9
 2852 0bfd 5E070000 		.4byte	0x75e
 2853 0c01 24       		.uleb128 0x24
 2854 0c02 6B030000 		.4byte	.LASF234
 2855 0c06 08       		.byte	0x8
 2856 0c07 AB0A     		.2byte	0xaab
 2857 0c09 B0000000 		.4byte	0xb0
 2858 0c0d 24       		.uleb128 0x24
 2859 0c0e E5110000 		.4byte	.LASF235
 2860 0c12 08       		.byte	0x8
 2861 0c13 AC0A     		.2byte	0xaac
 2862 0c15 190C0000 		.4byte	0xc19
 2863 0c19 1E       		.uleb128 0x1e
 2864 0c1a C2070000 		.4byte	0x7c2
 2865 0c1e 24       		.uleb128 0x24
 2866 0c1f A60D0000 		.4byte	.LASF236
 2867 0c23 08       		.byte	0x8
 2868 0c24 AF0A     		.2byte	0xaaf
 2869 0c26 6B000000 		.4byte	0x6b
 2870 0c2a 00       		.byte	0
ARM GAS  C:\Users\Sarah\AppData\Local\Temp\ccXRs73K.s 			page 77


 2871              		.section	.debug_abbrev,"",%progbits
 2872              	.Ldebug_abbrev0:
 2873 0000 01       		.uleb128 0x1
 2874 0001 11       		.uleb128 0x11
 2875 0002 01       		.byte	0x1
 2876 0003 25       		.uleb128 0x25
 2877 0004 0E       		.uleb128 0xe
 2878 0005 13       		.uleb128 0x13
 2879 0006 0B       		.uleb128 0xb
 2880 0007 03       		.uleb128 0x3
 2881 0008 0E       		.uleb128 0xe
 2882 0009 1B       		.uleb128 0x1b
 2883 000a 0E       		.uleb128 0xe
 2884 000b 55       		.uleb128 0x55
 2885 000c 17       		.uleb128 0x17
 2886 000d 11       		.uleb128 0x11
 2887 000e 01       		.uleb128 0x1
 2888 000f 10       		.uleb128 0x10
 2889 0010 17       		.uleb128 0x17
 2890 0011 00       		.byte	0
 2891 0012 00       		.byte	0
 2892 0013 02       		.uleb128 0x2
 2893 0014 24       		.uleb128 0x24
 2894 0015 00       		.byte	0
 2895 0016 0B       		.uleb128 0xb
 2896 0017 0B       		.uleb128 0xb
 2897 0018 3E       		.uleb128 0x3e
 2898 0019 0B       		.uleb128 0xb
 2899 001a 03       		.uleb128 0x3
 2900 001b 0E       		.uleb128 0xe
 2901 001c 00       		.byte	0
 2902 001d 00       		.byte	0
 2903 001e 03       		.uleb128 0x3
 2904 001f 24       		.uleb128 0x24
 2905 0020 00       		.byte	0
 2906 0021 0B       		.uleb128 0xb
 2907 0022 0B       		.uleb128 0xb
 2908 0023 3E       		.uleb128 0x3e
 2909 0024 0B       		.uleb128 0xb
 2910 0025 03       		.uleb128 0x3
 2911 0026 08       		.uleb128 0x8
 2912 0027 00       		.byte	0
 2913 0028 00       		.byte	0
 2914 0029 04       		.uleb128 0x4
 2915 002a 16       		.uleb128 0x16
 2916 002b 00       		.byte	0
 2917 002c 03       		.uleb128 0x3
 2918 002d 0E       		.uleb128 0xe
 2919 002e 3A       		.uleb128 0x3a
 2920 002f 0B       		.uleb128 0xb
 2921 0030 3B       		.uleb128 0x3b
 2922 0031 05       		.uleb128 0x5
 2923 0032 49       		.uleb128 0x49
 2924 0033 13       		.uleb128 0x13
 2925 0034 00       		.byte	0
 2926 0035 00       		.byte	0
 2927 0036 05       		.uleb128 0x5
ARM GAS  C:\Users\Sarah\AppData\Local\Temp\ccXRs73K.s 			page 78


 2928 0037 35       		.uleb128 0x35
 2929 0038 00       		.byte	0
 2930 0039 49       		.uleb128 0x49
 2931 003a 13       		.uleb128 0x13
 2932 003b 00       		.byte	0
 2933 003c 00       		.byte	0
 2934 003d 06       		.uleb128 0x6
 2935 003e 0F       		.uleb128 0xf
 2936 003f 00       		.byte	0
 2937 0040 0B       		.uleb128 0xb
 2938 0041 0B       		.uleb128 0xb
 2939 0042 00       		.byte	0
 2940 0043 00       		.byte	0
 2941 0044 07       		.uleb128 0x7
 2942 0045 0F       		.uleb128 0xf
 2943 0046 00       		.byte	0
 2944 0047 0B       		.uleb128 0xb
 2945 0048 0B       		.uleb128 0xb
 2946 0049 49       		.uleb128 0x49
 2947 004a 13       		.uleb128 0x13
 2948 004b 00       		.byte	0
 2949 004c 00       		.byte	0
 2950 004d 08       		.uleb128 0x8
 2951 004e 15       		.uleb128 0x15
 2952 004f 01       		.byte	0x1
 2953 0050 27       		.uleb128 0x27
 2954 0051 19       		.uleb128 0x19
 2955 0052 01       		.uleb128 0x1
 2956 0053 13       		.uleb128 0x13
 2957 0054 00       		.byte	0
 2958 0055 00       		.byte	0
 2959 0056 09       		.uleb128 0x9
 2960 0057 05       		.uleb128 0x5
 2961 0058 00       		.byte	0
 2962 0059 49       		.uleb128 0x49
 2963 005a 13       		.uleb128 0x13
 2964 005b 00       		.byte	0
 2965 005c 00       		.byte	0
 2966 005d 0A       		.uleb128 0xa
 2967 005e 04       		.uleb128 0x4
 2968 005f 01       		.byte	0x1
 2969 0060 0B       		.uleb128 0xb
 2970 0061 0B       		.uleb128 0xb
 2971 0062 3A       		.uleb128 0x3a
 2972 0063 0B       		.uleb128 0xb
 2973 0064 3B       		.uleb128 0x3b
 2974 0065 05       		.uleb128 0x5
 2975 0066 01       		.uleb128 0x1
 2976 0067 13       		.uleb128 0x13
 2977 0068 00       		.byte	0
 2978 0069 00       		.byte	0
 2979 006a 0B       		.uleb128 0xb
 2980 006b 28       		.uleb128 0x28
 2981 006c 00       		.byte	0
 2982 006d 03       		.uleb128 0x3
 2983 006e 0E       		.uleb128 0xe
 2984 006f 1C       		.uleb128 0x1c
ARM GAS  C:\Users\Sarah\AppData\Local\Temp\ccXRs73K.s 			page 79


 2985 0070 0D       		.uleb128 0xd
 2986 0071 00       		.byte	0
 2987 0072 00       		.byte	0
 2988 0073 0C       		.uleb128 0xc
 2989 0074 13       		.uleb128 0x13
 2990 0075 01       		.byte	0x1
 2991 0076 0B       		.uleb128 0xb
 2992 0077 0B       		.uleb128 0xb
 2993 0078 3A       		.uleb128 0x3a
 2994 0079 0B       		.uleb128 0xb
 2995 007a 3B       		.uleb128 0x3b
 2996 007b 05       		.uleb128 0x5
 2997 007c 01       		.uleb128 0x1
 2998 007d 13       		.uleb128 0x13
 2999 007e 00       		.byte	0
 3000 007f 00       		.byte	0
 3001 0080 0D       		.uleb128 0xd
 3002 0081 0D       		.uleb128 0xd
 3003 0082 00       		.byte	0
 3004 0083 03       		.uleb128 0x3
 3005 0084 0E       		.uleb128 0xe
 3006 0085 3A       		.uleb128 0x3a
 3007 0086 0B       		.uleb128 0xb
 3008 0087 3B       		.uleb128 0x3b
 3009 0088 05       		.uleb128 0x5
 3010 0089 49       		.uleb128 0x49
 3011 008a 13       		.uleb128 0x13
 3012 008b 38       		.uleb128 0x38
 3013 008c 0B       		.uleb128 0xb
 3014 008d 00       		.byte	0
 3015 008e 00       		.byte	0
 3016 008f 0E       		.uleb128 0xe
 3017 0090 01       		.uleb128 0x1
 3018 0091 01       		.byte	0x1
 3019 0092 49       		.uleb128 0x49
 3020 0093 13       		.uleb128 0x13
 3021 0094 01       		.uleb128 0x1
 3022 0095 13       		.uleb128 0x13
 3023 0096 00       		.byte	0
 3024 0097 00       		.byte	0
 3025 0098 0F       		.uleb128 0xf
 3026 0099 21       		.uleb128 0x21
 3027 009a 00       		.byte	0
 3028 009b 49       		.uleb128 0x49
 3029 009c 13       		.uleb128 0x13
 3030 009d 2F       		.uleb128 0x2f
 3031 009e 0B       		.uleb128 0xb
 3032 009f 00       		.byte	0
 3033 00a0 00       		.byte	0
 3034 00a1 10       		.uleb128 0x10
 3035 00a2 04       		.uleb128 0x4
 3036 00a3 01       		.byte	0x1
 3037 00a4 0B       		.uleb128 0xb
 3038 00a5 0B       		.uleb128 0xb
 3039 00a6 3A       		.uleb128 0x3a
 3040 00a7 0B       		.uleb128 0xb
 3041 00a8 3B       		.uleb128 0x3b
ARM GAS  C:\Users\Sarah\AppData\Local\Temp\ccXRs73K.s 			page 80


 3042 00a9 0B       		.uleb128 0xb
 3043 00aa 01       		.uleb128 0x1
 3044 00ab 13       		.uleb128 0x13
 3045 00ac 00       		.byte	0
 3046 00ad 00       		.byte	0
 3047 00ae 11       		.uleb128 0x11
 3048 00af 16       		.uleb128 0x16
 3049 00b0 00       		.byte	0
 3050 00b1 03       		.uleb128 0x3
 3051 00b2 0E       		.uleb128 0xe
 3052 00b3 3A       		.uleb128 0x3a
 3053 00b4 0B       		.uleb128 0xb
 3054 00b5 3B       		.uleb128 0x3b
 3055 00b6 0B       		.uleb128 0xb
 3056 00b7 49       		.uleb128 0x49
 3057 00b8 13       		.uleb128 0x13
 3058 00b9 00       		.byte	0
 3059 00ba 00       		.byte	0
 3060 00bb 12       		.uleb128 0x12
 3061 00bc 13       		.uleb128 0x13
 3062 00bd 01       		.byte	0x1
 3063 00be 0B       		.uleb128 0xb
 3064 00bf 0B       		.uleb128 0xb
 3065 00c0 3A       		.uleb128 0x3a
 3066 00c1 0B       		.uleb128 0xb
 3067 00c2 3B       		.uleb128 0x3b
 3068 00c3 0B       		.uleb128 0xb
 3069 00c4 01       		.uleb128 0x1
 3070 00c5 13       		.uleb128 0x13
 3071 00c6 00       		.byte	0
 3072 00c7 00       		.byte	0
 3073 00c8 13       		.uleb128 0x13
 3074 00c9 0D       		.uleb128 0xd
 3075 00ca 00       		.byte	0
 3076 00cb 03       		.uleb128 0x3
 3077 00cc 0E       		.uleb128 0xe
 3078 00cd 3A       		.uleb128 0x3a
 3079 00ce 0B       		.uleb128 0xb
 3080 00cf 3B       		.uleb128 0x3b
 3081 00d0 0B       		.uleb128 0xb
 3082 00d1 49       		.uleb128 0x49
 3083 00d2 13       		.uleb128 0x13
 3084 00d3 38       		.uleb128 0x38
 3085 00d4 0B       		.uleb128 0xb
 3086 00d5 00       		.byte	0
 3087 00d6 00       		.byte	0
 3088 00d7 14       		.uleb128 0x14
 3089 00d8 17       		.uleb128 0x17
 3090 00d9 01       		.byte	0x1
 3091 00da 0B       		.uleb128 0xb
 3092 00db 0B       		.uleb128 0xb
 3093 00dc 3A       		.uleb128 0x3a
 3094 00dd 0B       		.uleb128 0xb
 3095 00de 3B       		.uleb128 0x3b
 3096 00df 0B       		.uleb128 0xb
 3097 00e0 01       		.uleb128 0x1
 3098 00e1 13       		.uleb128 0x13
ARM GAS  C:\Users\Sarah\AppData\Local\Temp\ccXRs73K.s 			page 81


 3099 00e2 00       		.byte	0
 3100 00e3 00       		.byte	0
 3101 00e4 15       		.uleb128 0x15
 3102 00e5 0D       		.uleb128 0xd
 3103 00e6 00       		.byte	0
 3104 00e7 03       		.uleb128 0x3
 3105 00e8 0E       		.uleb128 0xe
 3106 00e9 3A       		.uleb128 0x3a
 3107 00ea 0B       		.uleb128 0xb
 3108 00eb 3B       		.uleb128 0x3b
 3109 00ec 0B       		.uleb128 0xb
 3110 00ed 49       		.uleb128 0x49
 3111 00ee 13       		.uleb128 0x13
 3112 00ef 00       		.byte	0
 3113 00f0 00       		.byte	0
 3114 00f1 16       		.uleb128 0x16
 3115 00f2 2E       		.uleb128 0x2e
 3116 00f3 00       		.byte	0
 3117 00f4 3F       		.uleb128 0x3f
 3118 00f5 19       		.uleb128 0x19
 3119 00f6 03       		.uleb128 0x3
 3120 00f7 0E       		.uleb128 0xe
 3121 00f8 3A       		.uleb128 0x3a
 3122 00f9 0B       		.uleb128 0xb
 3123 00fa 3B       		.uleb128 0x3b
 3124 00fb 0B       		.uleb128 0xb
 3125 00fc 27       		.uleb128 0x27
 3126 00fd 19       		.uleb128 0x19
 3127 00fe 11       		.uleb128 0x11
 3128 00ff 01       		.uleb128 0x1
 3129 0100 12       		.uleb128 0x12
 3130 0101 06       		.uleb128 0x6
 3131 0102 40       		.uleb128 0x40
 3132 0103 18       		.uleb128 0x18
 3133 0104 9642     		.uleb128 0x2116
 3134 0106 19       		.uleb128 0x19
 3135 0107 00       		.byte	0
 3136 0108 00       		.byte	0
 3137 0109 17       		.uleb128 0x17
 3138 010a 2E       		.uleb128 0x2e
 3139 010b 01       		.byte	0x1
 3140 010c 3F       		.uleb128 0x3f
 3141 010d 19       		.uleb128 0x19
 3142 010e 03       		.uleb128 0x3
 3143 010f 0E       		.uleb128 0xe
 3144 0110 3A       		.uleb128 0x3a
 3145 0111 0B       		.uleb128 0xb
 3146 0112 3B       		.uleb128 0x3b
 3147 0113 05       		.uleb128 0x5
 3148 0114 27       		.uleb128 0x27
 3149 0115 19       		.uleb128 0x19
 3150 0116 49       		.uleb128 0x49
 3151 0117 13       		.uleb128 0x13
 3152 0118 11       		.uleb128 0x11
 3153 0119 01       		.uleb128 0x1
 3154 011a 12       		.uleb128 0x12
 3155 011b 06       		.uleb128 0x6
ARM GAS  C:\Users\Sarah\AppData\Local\Temp\ccXRs73K.s 			page 82


 3156 011c 40       		.uleb128 0x40
 3157 011d 18       		.uleb128 0x18
 3158 011e 9642     		.uleb128 0x2116
 3159 0120 19       		.uleb128 0x19
 3160 0121 01       		.uleb128 0x1
 3161 0122 13       		.uleb128 0x13
 3162 0123 00       		.byte	0
 3163 0124 00       		.byte	0
 3164 0125 18       		.uleb128 0x18
 3165 0126 05       		.uleb128 0x5
 3166 0127 00       		.byte	0
 3167 0128 03       		.uleb128 0x3
 3168 0129 0E       		.uleb128 0xe
 3169 012a 3A       		.uleb128 0x3a
 3170 012b 0B       		.uleb128 0xb
 3171 012c 3B       		.uleb128 0x3b
 3172 012d 05       		.uleb128 0x5
 3173 012e 49       		.uleb128 0x49
 3174 012f 13       		.uleb128 0x13
 3175 0130 02       		.uleb128 0x2
 3176 0131 18       		.uleb128 0x18
 3177 0132 00       		.byte	0
 3178 0133 00       		.byte	0
 3179 0134 19       		.uleb128 0x19
 3180 0135 34       		.uleb128 0x34
 3181 0136 00       		.byte	0
 3182 0137 03       		.uleb128 0x3
 3183 0138 0E       		.uleb128 0xe
 3184 0139 3A       		.uleb128 0x3a
 3185 013a 0B       		.uleb128 0xb
 3186 013b 3B       		.uleb128 0x3b
 3187 013c 05       		.uleb128 0x5
 3188 013d 49       		.uleb128 0x49
 3189 013e 13       		.uleb128 0x13
 3190 013f 02       		.uleb128 0x2
 3191 0140 18       		.uleb128 0x18
 3192 0141 00       		.byte	0
 3193 0142 00       		.byte	0
 3194 0143 1A       		.uleb128 0x1a
 3195 0144 0B       		.uleb128 0xb
 3196 0145 01       		.byte	0x1
 3197 0146 11       		.uleb128 0x11
 3198 0147 01       		.uleb128 0x1
 3199 0148 12       		.uleb128 0x12
 3200 0149 06       		.uleb128 0x6
 3201 014a 00       		.byte	0
 3202 014b 00       		.byte	0
 3203 014c 1B       		.uleb128 0x1b
 3204 014d 2E       		.uleb128 0x2e
 3205 014e 00       		.byte	0
 3206 014f 3F       		.uleb128 0x3f
 3207 0150 19       		.uleb128 0x19
 3208 0151 03       		.uleb128 0x3
 3209 0152 0E       		.uleb128 0xe
 3210 0153 3A       		.uleb128 0x3a
 3211 0154 0B       		.uleb128 0xb
 3212 0155 3B       		.uleb128 0x3b
ARM GAS  C:\Users\Sarah\AppData\Local\Temp\ccXRs73K.s 			page 83


 3213 0156 05       		.uleb128 0x5
 3214 0157 27       		.uleb128 0x27
 3215 0158 19       		.uleb128 0x19
 3216 0159 11       		.uleb128 0x11
 3217 015a 01       		.uleb128 0x1
 3218 015b 12       		.uleb128 0x12
 3219 015c 06       		.uleb128 0x6
 3220 015d 40       		.uleb128 0x40
 3221 015e 18       		.uleb128 0x18
 3222 015f 9642     		.uleb128 0x2116
 3223 0161 19       		.uleb128 0x19
 3224 0162 00       		.byte	0
 3225 0163 00       		.byte	0
 3226 0164 1C       		.uleb128 0x1c
 3227 0165 2E       		.uleb128 0x2e
 3228 0166 01       		.byte	0x1
 3229 0167 3F       		.uleb128 0x3f
 3230 0168 19       		.uleb128 0x19
 3231 0169 03       		.uleb128 0x3
 3232 016a 0E       		.uleb128 0xe
 3233 016b 3A       		.uleb128 0x3a
 3234 016c 0B       		.uleb128 0xb
 3235 016d 3B       		.uleb128 0x3b
 3236 016e 05       		.uleb128 0x5
 3237 016f 27       		.uleb128 0x27
 3238 0170 19       		.uleb128 0x19
 3239 0171 11       		.uleb128 0x11
 3240 0172 01       		.uleb128 0x1
 3241 0173 12       		.uleb128 0x12
 3242 0174 06       		.uleb128 0x6
 3243 0175 40       		.uleb128 0x40
 3244 0176 18       		.uleb128 0x18
 3245 0177 9742     		.uleb128 0x2117
 3246 0179 19       		.uleb128 0x19
 3247 017a 01       		.uleb128 0x1
 3248 017b 13       		.uleb128 0x13
 3249 017c 00       		.byte	0
 3250 017d 00       		.byte	0
 3251 017e 1D       		.uleb128 0x1d
 3252 017f 34       		.uleb128 0x34
 3253 0180 00       		.byte	0
 3254 0181 03       		.uleb128 0x3
 3255 0182 08       		.uleb128 0x8
 3256 0183 3A       		.uleb128 0x3a
 3257 0184 0B       		.uleb128 0xb
 3258 0185 3B       		.uleb128 0x3b
 3259 0186 05       		.uleb128 0x5
 3260 0187 49       		.uleb128 0x49
 3261 0188 13       		.uleb128 0x13
 3262 0189 02       		.uleb128 0x2
 3263 018a 18       		.uleb128 0x18
 3264 018b 00       		.byte	0
 3265 018c 00       		.byte	0
 3266 018d 1E       		.uleb128 0x1e
 3267 018e 26       		.uleb128 0x26
 3268 018f 00       		.byte	0
 3269 0190 49       		.uleb128 0x49
ARM GAS  C:\Users\Sarah\AppData\Local\Temp\ccXRs73K.s 			page 84


 3270 0191 13       		.uleb128 0x13
 3271 0192 00       		.byte	0
 3272 0193 00       		.byte	0
 3273 0194 1F       		.uleb128 0x1f
 3274 0195 2E       		.uleb128 0x2e
 3275 0196 01       		.byte	0x1
 3276 0197 03       		.uleb128 0x3
 3277 0198 0E       		.uleb128 0xe
 3278 0199 3A       		.uleb128 0x3a
 3279 019a 0B       		.uleb128 0xb
 3280 019b 3B       		.uleb128 0x3b
 3281 019c 05       		.uleb128 0x5
 3282 019d 27       		.uleb128 0x27
 3283 019e 19       		.uleb128 0x19
 3284 019f 11       		.uleb128 0x11
 3285 01a0 01       		.uleb128 0x1
 3286 01a1 12       		.uleb128 0x12
 3287 01a2 06       		.uleb128 0x6
 3288 01a3 40       		.uleb128 0x40
 3289 01a4 18       		.uleb128 0x18
 3290 01a5 9742     		.uleb128 0x2117
 3291 01a7 19       		.uleb128 0x19
 3292 01a8 01       		.uleb128 0x1
 3293 01a9 13       		.uleb128 0x13
 3294 01aa 00       		.byte	0
 3295 01ab 00       		.byte	0
 3296 01ac 20       		.uleb128 0x20
 3297 01ad 2E       		.uleb128 0x2e
 3298 01ae 01       		.byte	0x1
 3299 01af 3F       		.uleb128 0x3f
 3300 01b0 19       		.uleb128 0x19
 3301 01b1 03       		.uleb128 0x3
 3302 01b2 0E       		.uleb128 0xe
 3303 01b3 3A       		.uleb128 0x3a
 3304 01b4 0B       		.uleb128 0xb
 3305 01b5 3B       		.uleb128 0x3b
 3306 01b6 05       		.uleb128 0x5
 3307 01b7 27       		.uleb128 0x27
 3308 01b8 19       		.uleb128 0x19
 3309 01b9 49       		.uleb128 0x49
 3310 01ba 13       		.uleb128 0x13
 3311 01bb 11       		.uleb128 0x11
 3312 01bc 01       		.uleb128 0x1
 3313 01bd 12       		.uleb128 0x12
 3314 01be 06       		.uleb128 0x6
 3315 01bf 40       		.uleb128 0x40
 3316 01c0 18       		.uleb128 0x18
 3317 01c1 9742     		.uleb128 0x2117
 3318 01c3 19       		.uleb128 0x19
 3319 01c4 01       		.uleb128 0x1
 3320 01c5 13       		.uleb128 0x13
 3321 01c6 00       		.byte	0
 3322 01c7 00       		.byte	0
 3323 01c8 21       		.uleb128 0x21
 3324 01c9 05       		.uleb128 0x5
 3325 01ca 00       		.byte	0
 3326 01cb 03       		.uleb128 0x3
ARM GAS  C:\Users\Sarah\AppData\Local\Temp\ccXRs73K.s 			page 85


 3327 01cc 08       		.uleb128 0x8
 3328 01cd 3A       		.uleb128 0x3a
 3329 01ce 0B       		.uleb128 0xb
 3330 01cf 3B       		.uleb128 0x3b
 3331 01d0 05       		.uleb128 0x5
 3332 01d1 49       		.uleb128 0x49
 3333 01d2 13       		.uleb128 0x13
 3334 01d3 02       		.uleb128 0x2
 3335 01d4 18       		.uleb128 0x18
 3336 01d5 00       		.byte	0
 3337 01d6 00       		.byte	0
 3338 01d7 22       		.uleb128 0x22
 3339 01d8 34       		.uleb128 0x34
 3340 01d9 00       		.byte	0
 3341 01da 03       		.uleb128 0x3
 3342 01db 0E       		.uleb128 0xe
 3343 01dc 3A       		.uleb128 0x3a
 3344 01dd 0B       		.uleb128 0xb
 3345 01de 3B       		.uleb128 0x3b
 3346 01df 0B       		.uleb128 0xb
 3347 01e0 49       		.uleb128 0x49
 3348 01e1 13       		.uleb128 0x13
 3349 01e2 3F       		.uleb128 0x3f
 3350 01e3 19       		.uleb128 0x19
 3351 01e4 02       		.uleb128 0x2
 3352 01e5 18       		.uleb128 0x18
 3353 01e6 00       		.byte	0
 3354 01e7 00       		.byte	0
 3355 01e8 23       		.uleb128 0x23
 3356 01e9 21       		.uleb128 0x21
 3357 01ea 00       		.byte	0
 3358 01eb 49       		.uleb128 0x49
 3359 01ec 13       		.uleb128 0x13
 3360 01ed 2F       		.uleb128 0x2f
 3361 01ee 05       		.uleb128 0x5
 3362 01ef 00       		.byte	0
 3363 01f0 00       		.byte	0
 3364 01f1 24       		.uleb128 0x24
 3365 01f2 34       		.uleb128 0x34
 3366 01f3 00       		.byte	0
 3367 01f4 03       		.uleb128 0x3
 3368 01f5 0E       		.uleb128 0xe
 3369 01f6 3A       		.uleb128 0x3a
 3370 01f7 0B       		.uleb128 0xb
 3371 01f8 3B       		.uleb128 0x3b
 3372 01f9 05       		.uleb128 0x5
 3373 01fa 49       		.uleb128 0x49
 3374 01fb 13       		.uleb128 0x13
 3375 01fc 3F       		.uleb128 0x3f
 3376 01fd 19       		.uleb128 0x19
 3377 01fe 3C       		.uleb128 0x3c
 3378 01ff 19       		.uleb128 0x19
 3379 0200 00       		.byte	0
 3380 0201 00       		.byte	0
 3381 0202 25       		.uleb128 0x25
 3382 0203 34       		.uleb128 0x34
 3383 0204 00       		.byte	0
ARM GAS  C:\Users\Sarah\AppData\Local\Temp\ccXRs73K.s 			page 86


 3384 0205 03       		.uleb128 0x3
 3385 0206 0E       		.uleb128 0xe
 3386 0207 3A       		.uleb128 0x3a
 3387 0208 0B       		.uleb128 0xb
 3388 0209 3B       		.uleb128 0x3b
 3389 020a 0B       		.uleb128 0xb
 3390 020b 49       		.uleb128 0x49
 3391 020c 13       		.uleb128 0x13
 3392 020d 3F       		.uleb128 0x3f
 3393 020e 19       		.uleb128 0x19
 3394 020f 3C       		.uleb128 0x3c
 3395 0210 19       		.uleb128 0x19
 3396 0211 00       		.byte	0
 3397 0212 00       		.byte	0
 3398 0213 00       		.byte	0
 3399              		.section	.debug_aranges,"",%progbits
 3400 0000 74000000 		.4byte	0x74
 3401 0004 0200     		.2byte	0x2
 3402 0006 00000000 		.4byte	.Ldebug_info0
 3403 000a 04       		.byte	0x4
 3404 000b 00       		.byte	0
 3405 000c 0000     		.2byte	0
 3406 000e 0000     		.2byte	0
 3407 0010 00000000 		.4byte	.LFB2
 3408 0014 2C000000 		.4byte	.LFE2-.LFB2
 3409 0018 00000000 		.4byte	.LFB3
 3410 001c 0C000000 		.4byte	.LFE3-.LFB3
 3411 0020 00000000 		.4byte	.LFB4
 3412 0024 2C010000 		.4byte	.LFE4-.LFB4
 3413 0028 00000000 		.4byte	.LFB5
 3414 002c 18000000 		.4byte	.LFE5-.LFB5
 3415 0030 00000000 		.4byte	.LFB6
 3416 0034 D4000000 		.4byte	.LFE6-.LFB6
 3417 0038 00000000 		.4byte	.LFB7
 3418 003c 20000000 		.4byte	.LFE7-.LFB7
 3419 0040 00000000 		.4byte	.LFB8
 3420 0044 60000000 		.4byte	.LFE8-.LFB8
 3421 0048 00000000 		.4byte	.LFB9
 3422 004c A4010000 		.4byte	.LFE9-.LFB9
 3423 0050 00000000 		.4byte	.LFB10
 3424 0054 F0000000 		.4byte	.LFE10-.LFB10
 3425 0058 00000000 		.4byte	.LFB11
 3426 005c CC000000 		.4byte	.LFE11-.LFB11
 3427 0060 00000000 		.4byte	.LFB12
 3428 0064 26000000 		.4byte	.LFE12-.LFB12
 3429 0068 00000000 		.4byte	.LFB13
 3430 006c 2E000000 		.4byte	.LFE13-.LFB13
 3431 0070 00000000 		.4byte	0
 3432 0074 00000000 		.4byte	0
 3433              		.section	.debug_ranges,"",%progbits
 3434              	.Ldebug_ranges0:
 3435 0000 00000000 		.4byte	.LFB2
 3436 0004 2C000000 		.4byte	.LFE2
 3437 0008 00000000 		.4byte	.LFB3
 3438 000c 0C000000 		.4byte	.LFE3
 3439 0010 00000000 		.4byte	.LFB4
 3440 0014 2C010000 		.4byte	.LFE4
ARM GAS  C:\Users\Sarah\AppData\Local\Temp\ccXRs73K.s 			page 87


 3441 0018 00000000 		.4byte	.LFB5
 3442 001c 18000000 		.4byte	.LFE5
 3443 0020 00000000 		.4byte	.LFB6
 3444 0024 D4000000 		.4byte	.LFE6
 3445 0028 00000000 		.4byte	.LFB7
 3446 002c 20000000 		.4byte	.LFE7
 3447 0030 00000000 		.4byte	.LFB8
 3448 0034 60000000 		.4byte	.LFE8
 3449 0038 00000000 		.4byte	.LFB9
 3450 003c A4010000 		.4byte	.LFE9
 3451 0040 00000000 		.4byte	.LFB10
 3452 0044 F0000000 		.4byte	.LFE10
 3453 0048 00000000 		.4byte	.LFB11
 3454 004c CC000000 		.4byte	.LFE11
 3455 0050 00000000 		.4byte	.LFB12
 3456 0054 26000000 		.4byte	.LFE12
 3457 0058 00000000 		.4byte	.LFB13
 3458 005c 2E000000 		.4byte	.LFE13
 3459 0060 00000000 		.4byte	0
 3460 0064 00000000 		.4byte	0
 3461              		.section	.debug_line,"",%progbits
 3462              	.Ldebug_line0:
 3463 0000 6E020000 		.section	.debug_str,"MS",%progbits,1
 3463      0200B600 
 3463      00000201 
 3463      FB0E0D00 
 3463      01010101 
 3464              	.LASF81:
 3465 0000 4359424C 		.ascii	"CYBLE_EVT_L2CAP_CBFC_RX_CREDIT_IND\000"
 3465      455F4556 
 3465      545F4C32 
 3465      4341505F 
 3465      43424643 
 3466              	.LASF22:
 3467 0023 4359424C 		.ascii	"CYBLE_EVT_STACK_BUSY_STATUS\000"
 3467      455F4556 
 3467      545F5354 
 3467      41434B5F 
 3467      42555359 
 3468              	.LASF181:
 3469 003f 4359424C 		.ascii	"CYBLE_STATE_STOPPED\000"
 3469      455F5354 
 3469      4154455F 
 3469      53544F50 
 3469      50454400 
 3470              	.LASF80:
 3471 0053 4359424C 		.ascii	"CYBLE_EVT_L2CAP_CBFC_DATA_READ\000"
 3471      455F4556 
 3471      545F4C32 
 3471      4341505F 
 3471      43424643 
 3472              	.LASF228:
 3473 0072 6379426C 		.ascii	"cyBle_discoveryParam\000"
 3473      655F6469 
 3473      73636F76 
 3473      65727950 
 3473      6172616D 
ARM GAS  C:\Users\Sarah\AppData\Local\Temp\ccXRs73K.s 			page 88


 3474              	.LASF198:
 3475 0087 646C6543 		.ascii	"dleConfigParams\000"
 3475      6F6E6669 
 3475      67506172 
 3475      616D7300 
 3476              	.LASF92:
 3477 0097 4359424C 		.ascii	"CYBLE_ERROR_MEMORY_ALLOCATION_FAILED\000"
 3477      455F4552 
 3477      524F525F 
 3477      4D454D4F 
 3477      52595F41 
 3478              	.LASF156:
 3479 00bc 4359424C 		.ascii	"CYBLE_GAPP_DISC_DATA_T\000"
 3479      455F4741 
 3479      50505F44 
 3479      4953435F 
 3479      44415441 
 3480              	.LASF115:
 3481 00d3 4359424C 		.ascii	"CYBLE_ERROR_CONTROLLER_BUSY\000"
 3481      455F4552 
 3481      524F525F 
 3481      434F4E54 
 3481      524F4C4C 
 3482              	.LASF34:
 3483 00ef 4359424C 		.ascii	"CYBLE_EVT_GAP_CONNECTION_UPDATE_COMPLETE\000"
 3483      455F4556 
 3483      545F4741 
 3483      505F434F 
 3483      4E4E4543 
 3484              	.LASF151:
 3485 0118 61647643 		.ascii	"advChannelMap\000"
 3485      68616E6E 
 3485      656C4D61 
 3485      7000
 3486              	.LASF79:
 3487 0126 4359424C 		.ascii	"CYBLE_EVT_L2CAP_CBFC_DISCONN_CNF\000"
 3487      455F4556 
 3487      545F4C32 
 3487      4341505F 
 3487      43424643 
 3488              	.LASF113:
 3489 0147 4359424C 		.ascii	"CYBLE_ERROR_UNSUPPORTED_FEATURE_OR_PARAMETER_VALUE\000"
 3489      455F4552 
 3489      524F525F 
 3489      554E5355 
 3489      50504F52 
 3490              	.LASF140:
 3491 017a 4359424C 		.ascii	"CYBLE_GAPP_CONNECTABLE_HIGH_DC_DIRECTED_ADV\000"
 3491      455F4741 
 3491      50505F43 
 3491      4F4E4E45 
 3491      43544142 
 3492              	.LASF39:
 3493 01a6 4359424C 		.ascii	"CYBLE_EVT_GAP_OOB_GENERATED_NOTIFICATION\000"
 3493      455F4556 
 3493      545F4741 
 3493      505F4F4F 
ARM GAS  C:\Users\Sarah\AppData\Local\Temp\ccXRs73K.s 			page 89


 3493      425F4745 
 3494              	.LASF59:
 3495 01cf 4359424C 		.ascii	"CYBLE_EVT_GATTC_READ_MULTI_RSP\000"
 3495      455F4556 
 3495      545F4741 
 3495      5454435F 
 3495      52454144 
 3496              	.LASF64:
 3497 01ee 4359424C 		.ascii	"CYBLE_EVT_GATTS_EXEC_WRITE_REQ\000"
 3497      455F4556 
 3497      545F4741 
 3497      5454535F 
 3497      45584543 
 3498              	.LASF224:
 3499 020d 6379426C 		.ascii	"cyBle_stackMemoryRam\000"
 3499      655F7374 
 3499      61636B4D 
 3499      656D6F72 
 3499      7952616D 
 3500              	.LASF141:
 3501 0222 4359424C 		.ascii	"CYBLE_GAPP_SCANNABLE_UNDIRECTED_ADV\000"
 3501      455F4741 
 3501      50505F53 
 3501      43414E4E 
 3501      41424C45 
 3502              	.LASF129:
 3503 0246 646C654D 		.ascii	"dleMaxTxCapability\000"
 3503      61785478 
 3503      43617061 
 3503      62696C69 
 3503      747900
 3504              	.LASF124:
 3505 0259 74797065 		.ascii	"type\000"
 3505      00
 3506              	.LASF19:
 3507 025e 4359424C 		.ascii	"CYBLE_EVT_TIMEOUT\000"
 3507      455F4556 
 3507      545F5449 
 3507      4D454F55 
 3507      5400
 3508              	.LASF4:
 3509 0270 6C6F6E67 		.ascii	"long int\000"
 3509      20696E74 
 3509      00
 3510              	.LASF112:
 3511 0279 4359424C 		.ascii	"CYBLE_ERROR_HARDWARE_FAILURE\000"
 3511      455F4552 
 3511      524F525F 
 3511      48415244 
 3511      57415245 
 3512              	.LASF134:
 3513 0296 4359424C 		.ascii	"CYBLE_PRIVACY_1_2_CONFIG_PARAM_T\000"
 3513      455F5052 
 3513      49564143 
 3513      595F315F 
 3513      325F434F 
 3514              	.LASF207:
ARM GAS  C:\Users\Sarah\AppData\Local\Temp\ccXRs73K.s 			page 90


 3515 02b7 4379426C 		.ascii	"CyBle_GappStopAdvertisement\000"
 3515      655F4761 
 3515      70705374 
 3515      6F704164 
 3515      76657274 
 3516              	.LASF229:
 3517 02d3 6379426C 		.ascii	"cyBle_discoveryData\000"
 3517      655F6469 
 3517      73636F76 
 3517      65727944 
 3517      61746100 
 3518              	.LASF102:
 3519 02e7 4359424C 		.ascii	"CYBLE_ERROR_L2CAP_PSM_WRONG_ENCODING\000"
 3519      455F4552 
 3519      524F525F 
 3519      4C324341 
 3519      505F5053 
 3520              	.LASF93:
 3521 030c 4359424C 		.ascii	"CYBLE_ERROR_INSUFFICIENT_RESOURCES\000"
 3521      455F4552 
 3521      524F525F 
 3521      494E5355 
 3521      46464943 
 3522              	.LASF21:
 3523 032f 4359424C 		.ascii	"CYBLE_EVT_HCI_STATUS\000"
 3523      455F4556 
 3523      545F4843 
 3523      495F5354 
 3523      41545553 
 3524              	.LASF147:
 3525 0344 61647654 		.ascii	"advType\000"
 3525      79706500 
 3526              	.LASF35:
 3527 034c 4359424C 		.ascii	"CYBLE_EVT_GAPC_SCAN_START_STOP\000"
 3527      455F4556 
 3527      545F4741 
 3527      50435F53 
 3527      43414E5F 
 3528              	.LASF234:
 3529 036b 6379426C 		.ascii	"cyBle_busyStatus\000"
 3529      655F6275 
 3529      73795374 
 3529      61747573 
 3529      00
 3530              	.LASF139:
 3531 037c 4359424C 		.ascii	"CYBLE_GAPP_CONNECTABLE_UNDIRECTED_ADV\000"
 3531      455F4741 
 3531      50505F43 
 3531      4F4E4E45 
 3531      43544142 
 3532              	.LASF125:
 3533 03a2 4359424C 		.ascii	"CYBLE_GAP_BD_ADDR_T\000"
 3533      455F4741 
 3533      505F4244 
 3533      5F414444 
 3533      525F5400 
 3534              	.LASF101:
ARM GAS  C:\Users\Sarah\AppData\Local\Temp\ccXRs73K.s 			page 91


 3535 03b6 4359424C 		.ascii	"CYBLE_ERROR_SEC_FAILED\000"
 3535      455F4552 
 3535      524F525F 
 3535      5345435F 
 3535      4641494C 
 3536              	.LASF106:
 3537 03cd 4359424C 		.ascii	"CYBLE_ERROR_L2CAP_CHANNEL_NOT_FOUND\000"
 3537      455F4552 
 3537      524F525F 
 3537      4C324341 
 3537      505F4348 
 3538              	.LASF33:
 3539 03f1 4359424C 		.ascii	"CYBLE_EVT_GAP_ENCRYPT_CHANGE\000"
 3539      455F4556 
 3539      545F4741 
 3539      505F454E 
 3539      43525950 
 3540              	.LASF37:
 3541 040e 4359424C 		.ascii	"CYBLE_EVT_GAP_NUMERIC_COMPARISON_REQUEST\000"
 3541      455F4556 
 3541      545F4741 
 3541      505F4E55 
 3541      4D455249 
 3542              	.LASF184:
 3543 0437 4359424C 		.ascii	"CYBLE_STATE_ADVERTISING\000"
 3543      455F5354 
 3543      4154455F 
 3543      41445645 
 3543      52544953 
 3544              	.LASF6:
 3545 044f 6C6F6E67 		.ascii	"long long int\000"
 3545      206C6F6E 
 3545      6720696E 
 3545      7400
 3546              	.LASF0:
 3547 045d 7369676E 		.ascii	"signed char\000"
 3547      65642063 
 3547      68617200 
 3548              	.LASF18:
 3549 0469 4359424C 		.ascii	"CYBLE_EVT_STACK_ON\000"
 3549      455F4556 
 3549      545F5354 
 3549      41434B5F 
 3549      4F4E00
 3550              	.LASF164:
 3551 047c 4359424C 		.ascii	"CYBLE_GATT_DB_ATTR_HANDLE_T\000"
 3551      455F4741 
 3551      54545F44 
 3551      425F4154 
 3551      54525F48 
 3552              	.LASF109:
 3553 0498 4359424C 		.ascii	"CYBLE_ERROR_DEVICE_ALREADY_EXISTS\000"
 3553      455F4552 
 3553      524F525F 
 3553      44455649 
 3553      43455F41 
 3554              	.LASF96:
ARM GAS  C:\Users\Sarah\AppData\Local\Temp\ccXRs73K.s 			page 92


 3555 04ba 4359424C 		.ascii	"CYBLE_ERROR_NO_DEVICE_ENTITY\000"
 3555      455F4552 
 3555      524F525F 
 3555      4E4F5F44 
 3555      45564943 
 3556              	.LASF150:
 3557 04d7 64697265 		.ascii	"directAddr\000"
 3557      63744164 
 3557      647200
 3558              	.LASF25:
 3559 04e2 4359424C 		.ascii	"CYBLE_EVT_GAP_AUTH_REQ\000"
 3559      455F4556 
 3559      545F4741 
 3559      505F4155 
 3559      54485F52 
 3560              	.LASF176:
 3561 04f9 7065726D 		.ascii	"permission\000"
 3561      69737369 
 3561      6F6E00
 3562              	.LASF57:
 3563 0504 4359424C 		.ascii	"CYBLE_EVT_GATTC_READ_RSP\000"
 3563      455F4556 
 3563      545F4741 
 3563      5454435F 
 3563      52454144 
 3564              	.LASF120:
 3565 051d 4359424C 		.ascii	"CYBLE_ERROR_INVALID_STATE\000"
 3565      455F4552 
 3565      524F525F 
 3565      494E5641 
 3565      4C49445F 
 3566              	.LASF152:
 3567 0537 61647646 		.ascii	"advFilterPolicy\000"
 3567      696C7465 
 3567      72506F6C 
 3567      69637900 
 3568              	.LASF62:
 3569 0547 4359424C 		.ascii	"CYBLE_EVT_GATTS_WRITE_CMD_REQ\000"
 3569      455F4556 
 3569      545F4741 
 3569      5454535F 
 3569      57524954 
 3570              	.LASF146:
 3571 0565 61647649 		.ascii	"advIntvMax\000"
 3571      6E74764D 
 3571      617800
 3572              	.LASF75:
 3573 0570 4359424C 		.ascii	"CYBLE_EVT_L2CAP_COMMAND_REJ\000"
 3573      455F4556 
 3573      545F4C32 
 3573      4341505F 
 3573      434F4D4D 
 3574              	.LASF185:
 3575 058c 4359424C 		.ascii	"CYBLE_STATE_DISCONNECTED\000"
 3575      455F5354 
 3575      4154455F 
 3575      44495343 
ARM GAS  C:\Users\Sarah\AppData\Local\Temp\ccXRs73K.s 			page 93


 3575      4F4E4E45 
 3576              	.LASF30:
 3577 05a5 4359424C 		.ascii	"CYBLE_EVT_GAPP_ADVERTISEMENT_START_STOP\000"
 3577      455F4556 
 3577      545F4741 
 3577      50505F41 
 3577      44564552 
 3578              	.LASF130:
 3579 05cd 646C654D 		.ascii	"dleMaxRxCapability\000"
 3579      61785278 
 3579      43617061 
 3579      62696C69 
 3579      747900
 3580              	.LASF107:
 3581 05e0 4359424C 		.ascii	"CYBLE_ERROR_L2CAP_PSM_NOT_IN_RANGE\000"
 3581      455F4552 
 3581      524F525F 
 3581      4C324341 
 3581      505F5053 
 3582              	.LASF51:
 3583 0603 4359424C 		.ascii	"CYBLE_EVT_GATTS_XCNHG_MTU_REQ\000"
 3583      455F4556 
 3583      545F4741 
 3583      5454535F 
 3583      58434E48 
 3584              	.LASF9:
 3585 0621 75696E74 		.ascii	"uint8\000"
 3585      3800
 3586              	.LASF157:
 3587 0627 7363616E 		.ascii	"scanRspData\000"
 3587      52737044 
 3587      61746100 
 3588              	.LASF123:
 3589 0633 62644164 		.ascii	"bdAddr\000"
 3589      647200
 3590              	.LASF65:
 3591 063a 4359424C 		.ascii	"CYBLE_EVT_GATTC_EXEC_WRITE_RSP\000"
 3591      455F4556 
 3591      545F4741 
 3591      5454435F 
 3591      45584543 
 3592              	.LASF170:
 3593 0659 4359424C 		.ascii	"CYBLE_GATTS_ATT_PACK_VAL_LEN_T\000"
 3593      455F4741 
 3593      5454535F 
 3593      4154545F 
 3593      5041434B 
 3594              	.LASF13:
 3595 0678 646F7562 		.ascii	"double\000"
 3595      6C6500
 3596              	.LASF160:
 3597 067f 64697363 		.ascii	"discMode\000"
 3597      4D6F6465 
 3597      00
 3598              	.LASF90:
 3599 0688 4359424C 		.ascii	"CYBLE_ERROR_INVALID_PARAMETER\000"
 3599      455F4552 
ARM GAS  C:\Users\Sarah\AppData\Local\Temp\ccXRs73K.s 			page 94


 3599      524F525F 
 3599      494E5641 
 3599      4C49445F 
 3600              	.LASF173:
 3601 06a6 4359424C 		.ascii	"CYBLE_GATTS_ATT_VALUE_T\000"
 3601      455F4741 
 3601      5454535F 
 3601      4154545F 
 3601      56414C55 
 3602              	.LASF174:
 3603 06be 61747448 		.ascii	"attHandle\000"
 3603      616E646C 
 3603      6500
 3604              	.LASF11:
 3605 06c8 75696E74 		.ascii	"uint32\000"
 3605      333200
 3606              	.LASF209:
 3607 06cf 64657374 		.ascii	"destBuffer\000"
 3607      42756666 
 3607      657200
 3608              	.LASF88:
 3609 06da 4359424C 		.ascii	"CYBLE_EVT_MAX\000"
 3609      455F4556 
 3609      545F4D41 
 3609      5800
 3610              	.LASF89:
 3611 06e8 4359424C 		.ascii	"CYBLE_ERROR_OK\000"
 3611      455F4552 
 3611      524F525F 
 3611      4F4B00
 3612              	.LASF48:
 3613 06f7 4359424C 		.ascii	"CYBLE_EVT_GATTC_ERROR_RSP\000"
 3613      455F4556 
 3613      545F4741 
 3613      5454435F 
 3613      4552524F 
 3614              	.LASF73:
 3615 0711 4359424C 		.ascii	"CYBLE_EVT_L2CAP_CONN_PARAM_UPDATE_REQ\000"
 3615      455F4556 
 3615      545F4C32 
 3615      4341505F 
 3615      434F4E4E 
 3616              	.LASF158:
 3617 0737 7363616E 		.ascii	"scanRspDataLen\000"
 3617      52737044 
 3617      6174614C 
 3617      656E00
 3618              	.LASF83:
 3619 0746 4359424C 		.ascii	"CYBLE_EVT_L2CAP_CBFC_DATA_WRITE_IND\000"
 3619      455F4556 
 3619      545F4C32 
 3619      4341505F 
 3619      43424643 
 3620              	.LASF175:
 3621 076a 61747454 		.ascii	"attType\000"
 3621      79706500 
 3622              	.LASF155:
ARM GAS  C:\Users\Sarah\AppData\Local\Temp\ccXRs73K.s 			page 95


 3623 0772 61647644 		.ascii	"advDataLen\000"
 3623      6174614C 
 3623      656E00
 3624              	.LASF45:
 3625 077d 4359424C 		.ascii	"CYBLE_EVT_GAP_SCAN_REQ_RECVD\000"
 3625      455F4556 
 3625      545F4741 
 3625      505F5343 
 3625      414E5F52 
 3626              	.LASF7:
 3627 079a 6C6F6E67 		.ascii	"long long unsigned int\000"
 3627      206C6F6E 
 3627      6720756E 
 3627      7369676E 
 3627      65642069 
 3628              	.LASF221:
 3629 07b1 76616C75 		.ascii	"value\000"
 3629      6500
 3630              	.LASF72:
 3631 07b7 4359424C 		.ascii	"CYBLE_EVT_GATTC_LONG_PROCEDURE_END\000"
 3631      455F4556 
 3631      545F4741 
 3631      5454435F 
 3631      4C4F4E47 
 3632              	.LASF70:
 3633 07da 4359424C 		.ascii	"CYBLE_EVT_GATTC_STOP_CMD_COMPLETE\000"
 3633      455F4556 
 3633      545F4741 
 3633      5454435F 
 3633      53544F50 
 3634              	.LASF20:
 3635 07fc 4359424C 		.ascii	"CYBLE_EVT_HARDWARE_ERROR\000"
 3635      455F4556 
 3635      545F4841 
 3635      52445741 
 3635      52455F45 
 3636              	.LASF94:
 3637 0815 4359424C 		.ascii	"CYBLE_ERROR_OOB_NOT_AVAILABLE\000"
 3637      455F4552 
 3637      524F525F 
 3637      4F4F425F 
 3637      4E4F545F 
 3638              	.LASF85:
 3639 0833 4359424C 		.ascii	"CYBLE_EVT_LE_PING_AUTH_TIMEOUT\000"
 3639      455F4556 
 3639      545F4C45 
 3639      5F50494E 
 3639      475F4155 
 3640              	.LASF195:
 3641 0852 4379426C 		.ascii	"CyBle_ServiceInit\000"
 3641      655F5365 
 3641      72766963 
 3641      65496E69 
 3641      7400
 3642              	.LASF103:
 3643 0864 4359424C 		.ascii	"CYBLE_ERROR_L2CAP_PSM_ALREADY_REGISTERED\000"
 3643      455F4552 
ARM GAS  C:\Users\Sarah\AppData\Local\Temp\ccXRs73K.s 			page 96


 3643      524F525F 
 3643      4C324341 
 3643      505F5053 
 3644              	.LASF154:
 3645 088d 61647644 		.ascii	"advData\000"
 3645      61746100 
 3646              	.LASF5:
 3647 0895 6C6F6E67 		.ascii	"long unsigned int\000"
 3647      20756E73 
 3647      69676E65 
 3647      6420696E 
 3647      7400
 3648              	.LASF44:
 3649 08a7 4359424C 		.ascii	"CYBLE_EVT_GAP_CONN_ESTB\000"
 3649      455F4556 
 3649      545F4741 
 3649      505F434F 
 3649      4E4E5F45 
 3650              	.LASF60:
 3651 08bf 4359424C 		.ascii	"CYBLE_EVT_GATTS_WRITE_REQ\000"
 3651      455F4556 
 3651      545F4741 
 3651      5454535F 
 3651      57524954 
 3652              	.LASF52:
 3653 08d9 4359424C 		.ascii	"CYBLE_EVT_GATTC_XCHNG_MTU_RSP\000"
 3653      455F4556 
 3653      545F4741 
 3653      5454435F 
 3653      5843484E 
 3654              	.LASF69:
 3655 08f7 4359424C 		.ascii	"CYBLE_EVT_GATTS_DATA_SIGNED_CMD_REQ\000"
 3655      455F4556 
 3655      545F4741 
 3655      5454535F 
 3655      44415441 
 3656              	.LASF210:
 3657 091b 6E616D65 		.ascii	"name\000"
 3657      00
 3658              	.LASF199:
 3659 0920 70726976 		.ascii	"privacyConfigParams\000"
 3659      61637943 
 3659      6F6E6669 
 3659      67506172 
 3659      616D7300 
 3660              	.LASF171:
 3661 0934 61747446 		.ascii	"attFormatValue\000"
 3661      6F726D61 
 3661      7456616C 
 3661      756500
 3662              	.LASF159:
 3663 0943 4359424C 		.ascii	"CYBLE_GAPP_SCAN_RSP_DATA_T\000"
 3663      455F4741 
 3663      50505F53 
 3663      43414E5F 
 3663      5253505F 
 3664              	.LASF127:
ARM GAS  C:\Users\Sarah\AppData\Local\Temp\ccXRs73K.s 			page 97


 3665 095e 62756666 		.ascii	"bufferUnits\000"
 3665      6572556E 
 3665      69747300 
 3666              	.LASF117:
 3667 096a 4359424C 		.ascii	"CYBLE_ERROR_NTF_DISABLED\000"
 3667      455F4552 
 3667      524F525F 
 3667      4E54465F 
 3667      44495341 
 3668              	.LASF17:
 3669 0983 4359424C 		.ascii	"CYBLE_EVT_HOST_INVALID\000"
 3669      455F4556 
 3669      545F484F 
 3669      53545F49 
 3669      4E56414C 
 3670              	.LASF55:
 3671 099a 4359424C 		.ascii	"CYBLE_EVT_GATTC_FIND_INFO_RSP\000"
 3671      455F4556 
 3671      545F4741 
 3671      5454435F 
 3671      46494E44 
 3672              	.LASF23:
 3673 09b8 4359424C 		.ascii	"CYBLE_EVT_MEMORY_REQUEST\000"
 3673      455F4556 
 3673      545F4D45 
 3673      4D4F5259 
 3673      5F524551 
 3674              	.LASF223:
 3675 09d1 6379426C 		.ascii	"cyBle_initVar\000"
 3675      655F696E 
 3675      69745661 
 3675      7200
 3676              	.LASF26:
 3677 09df 4359424C 		.ascii	"CYBLE_EVT_GAP_PASSKEY_ENTRY_REQUEST\000"
 3677      455F4556 
 3677      545F4741 
 3677      505F5041 
 3677      53534B45 
 3678              	.LASF31:
 3679 0a03 4359424C 		.ascii	"CYBLE_EVT_GAP_DEVICE_CONNECTED\000"
 3679      455F4556 
 3679      545F4741 
 3679      505F4445 
 3679      56494345 
 3680              	.LASF168:
 3681 0a22 6D617841 		.ascii	"maxAttrLength\000"
 3681      7474724C 
 3681      656E6774 
 3681      6800
 3682              	.LASF220:
 3683 0a30 4379426C 		.ascii	"CyBle_Set16ByPtr\000"
 3683      655F5365 
 3683      74313642 
 3683      79507472 
 3683      00
 3684              	.LASF131:
 3685 0a41 646C654E 		.ascii	"dleNumTxBuffer\000"
ARM GAS  C:\Users\Sarah\AppData\Local\Temp\ccXRs73K.s 			page 98


 3685      756D5478 
 3685      42756666 
 3685      657200
 3686              	.LASF46:
 3687 0a50 4359424C 		.ascii	"CYBLE_EVT_GAP_AUTH_REQ_REPLY_ERR\000"
 3687      455F4556 
 3687      545F4741 
 3687      505F4155 
 3687      54485F52 
 3688              	.LASF203:
 3689 0a71 4379426C 		.ascii	"CyBle_Start\000"
 3689      655F5374 
 3689      61727400 
 3690              	.LASF217:
 3691 0a7d 4379426C 		.ascii	"CyBle_GapGetLocalName\000"
 3691      655F4761 
 3691      70476574 
 3691      4C6F6361 
 3691      6C4E616D 
 3692              	.LASF165:
 3693 0a93 61637475 		.ascii	"actualLength\000"
 3693      616C4C65 
 3693      6E677468 
 3693      00
 3694              	.LASF233:
 3695 0aa0 6379426C 		.ascii	"cyBle_state\000"
 3695      655F7374 
 3695      61746500 
 3696              	.LASF27:
 3697 0aac 4359424C 		.ascii	"CYBLE_EVT_GAP_PASSKEY_DISPLAY_REQUEST\000"
 3697      455F4556 
 3697      545F4741 
 3697      505F5041 
 3697      53534B45 
 3698              	.LASF49:
 3699 0ad2 4359424C 		.ascii	"CYBLE_EVT_GATT_CONNECT_IND\000"
 3699      455F4556 
 3699      545F4741 
 3699      54545F43 
 3699      4F4E4E45 
 3700              	.LASF128:
 3701 0aed 4359424C 		.ascii	"CYBLE_STK_APP_DATA_BUFF_T\000"
 3701      455F5354 
 3701      4B5F4150 
 3701      505F4441 
 3701      54415F42 
 3702              	.LASF216:
 3703 0b07 63686172 		.ascii	"charLen\000"
 3703      4C656E00 
 3704              	.LASF82:
 3705 0b0f 4359424C 		.ascii	"CYBLE_EVT_L2CAP_CBFC_TX_CREDIT_IND\000"
 3705      455F4556 
 3705      545F4C32 
 3705      4341505F 
 3705      43424643 
 3706              	.LASF24:
 3707 0b32 4359424C 		.ascii	"CYBLE_EVT_GAPC_SCAN_PROGRESS_RESULT\000"
ARM GAS  C:\Users\Sarah\AppData\Local\Temp\ccXRs73K.s 			page 99


 3707      455F4556 
 3707      545F4741 
 3707      50435F53 
 3707      43414E5F 
 3708              	.LASF225:
 3709 0b56 6379426C 		.ascii	"cyBle_eventHandlerFlag\000"
 3709      655F6576 
 3709      656E7448 
 3709      616E646C 
 3709      6572466C 
 3710              	.LASF47:
 3711 0b6d 4359424C 		.ascii	"CYBLE_EVT_GAP_SMP_LOC_P256_KEYS_GEN_AND_SET_COMPLET"
 3711      455F4556 
 3711      545F4741 
 3711      505F534D 
 3711      505F4C4F 
 3712 0ba0 4500     		.ascii	"E\000"
 3713              	.LASF116:
 3714 0ba2 4359424C 		.ascii	"CYBLE_ERROR_MAX\000"
 3714      455F4552 
 3714      524F525F 
 3714      4D415800 
 3715              	.LASF114:
 3716 0bb2 4359424C 		.ascii	"CYBLE_ERROR_FLASH_WRITE\000"
 3716      455F4552 
 3716      524F525F 
 3716      464C4153 
 3716      485F5752 
 3717              	.LASF54:
 3718 0bca 4359424C 		.ascii	"CYBLE_EVT_GATTC_READ_BY_TYPE_RSP\000"
 3718      455F4556 
 3718      545F4741 
 3718      5454435F 
 3718      52454144 
 3719              	.LASF231:
 3720 0beb 6379426C 		.ascii	"cyBle_discoveryModeInfo\000"
 3720      655F6469 
 3720      73636F76 
 3720      6572794D 
 3720      6F646549 
 3721              	.LASF16:
 3722 0c03 73697A65 		.ascii	"sizetype\000"
 3722      74797065 
 3722      00
 3723              	.LASF182:
 3724 0c0c 4359424C 		.ascii	"CYBLE_STATE_INITIALIZING\000"
 3724      455F5354 
 3724      4154455F 
 3724      494E4954 
 3724      49414C49 
 3725              	.LASF148:
 3726 0c25 6F776E41 		.ascii	"ownAddrType\000"
 3726      64647254 
 3726      79706500 
 3727              	.LASF29:
 3728 0c31 4359424C 		.ascii	"CYBLE_EVT_GAP_AUTH_FAILED\000"
 3728      455F4556 
ARM GAS  C:\Users\Sarah\AppData\Local\Temp\ccXRs73K.s 			page 100


 3728      545F4741 
 3728      505F4155 
 3728      54485F46 
 3729              	.LASF215:
 3730 0c4b 4379426C 		.ascii	"CyBle_GapSetLocalName\000"
 3730      655F4761 
 3730      70536574 
 3730      4C6F6361 
 3730      6C4E616D 
 3731              	.LASF61:
 3732 0c61 4359424C 		.ascii	"CYBLE_EVT_GATTC_WRITE_RSP\000"
 3732      455F4556 
 3732      545F4741 
 3732      5454435F 
 3732      57524954 
 3733              	.LASF42:
 3734 0c7b 4359424C 		.ascii	"CYBLE_EVT_GAPC_DIRECT_ADV_REPORT\000"
 3734      455F4556 
 3734      545F4741 
 3734      50435F44 
 3734      49524543 
 3735              	.LASF40:
 3736 0c9c 4359424C 		.ascii	"CYBLE_EVT_GAP_DATA_LENGTH_CHANGE\000"
 3736      455F4556 
 3736      545F4741 
 3736      505F4441 
 3736      54415F4C 
 3737              	.LASF28:
 3738 0cbd 4359424C 		.ascii	"CYBLE_EVT_GAP_AUTH_COMPLETE\000"
 3738      455F4556 
 3738      545F4741 
 3738      505F4155 
 3738      54485F43 
 3739              	.LASF196:
 3740 0cd9 61706952 		.ascii	"apiResult\000"
 3740      6573756C 
 3740      7400
 3741              	.LASF122:
 3742 0ce3 4359424C 		.ascii	"CYBLE_API_RESULT_T\000"
 3742      455F4150 
 3742      495F5245 
 3742      53554C54 
 3742      5F5400
 3743              	.LASF202:
 3744 0cf6 4379426C 		.ascii	"CyBle_Stop\000"
 3744      655F5374 
 3744      6F7000
 3745              	.LASF66:
 3746 0d01 4359424C 		.ascii	"CYBLE_EVT_GATTC_HANDLE_VALUE_NTF\000"
 3746      455F4556 
 3746      545F4741 
 3746      5454435F 
 3746      48414E44 
 3747              	.LASF118:
 3748 0d22 4359424C 		.ascii	"CYBLE_ERROR_IND_DISABLED\000"
 3748      455F4552 
 3748      524F525F 
ARM GAS  C:\Users\Sarah\AppData\Local\Temp\ccXRs73K.s 			page 101


 3748      494E445F 
 3748      44495341 
 3749              	.LASF208:
 3750 0d3b 64657374 		.ascii	"dest\000"
 3750      00
 3751              	.LASF172:
 3752 0d40 61747456 		.ascii	"attValueUuid\000"
 3752      616C7565 
 3752      55756964 
 3752      00
 3753              	.LASF166:
 3754 0d4d 61747447 		.ascii	"attGenericVal\000"
 3754      656E6572 
 3754      69635661 
 3754      6C00
 3755              	.LASF77:
 3756 0d5b 4359424C 		.ascii	"CYBLE_EVT_L2CAP_CBFC_CONN_CNF\000"
 3756      455F4556 
 3756      545F4C32 
 3756      4341505F 
 3756      43424643 
 3757              	.LASF53:
 3758 0d79 4359424C 		.ascii	"CYBLE_EVT_GATTC_READ_BY_GROUP_TYPE_RSP\000"
 3758      455F4556 
 3758      545F4741 
 3758      5454435F 
 3758      52454144 
 3759              	.LASF12:
 3760 0da0 666C6F61 		.ascii	"float\000"
 3760      7400
 3761              	.LASF236:
 3762 0da6 6379426C 		.ascii	"cyBle_advertisingIntervalType\000"
 3762      655F6164 
 3762      76657274 
 3762      6973696E 
 3762      67496E74 
 3763              	.LASF204:
 3764 0dc4 4379426C 		.ascii	"CyBle_GappStartAdvertisement\000"
 3764      655F4761 
 3764      70705374 
 3764      61727441 
 3764      64766572 
 3765              	.LASF149:
 3766 0de1 64697265 		.ascii	"directAddrType\000"
 3766      63744164 
 3766      64725479 
 3766      706500
 3767              	.LASF76:
 3768 0df0 4359424C 		.ascii	"CYBLE_EVT_L2CAP_CBFC_CONN_IND\000"
 3768      455F4556 
 3768      545F4C32 
 3768      4341505F 
 3768      43424643 
 3769              	.LASF191:
 3770 0e0e 63656E74 		.ascii	"centralAddrResolutionCharHandle\000"
 3770      72616C41 
 3770      64647252 
ARM GAS  C:\Users\Sarah\AppData\Local\Temp\ccXRs73K.s 			page 102


 3770      65736F6C 
 3770      7574696F 
 3771              	.LASF99:
 3772 0e2e 4359424C 		.ascii	"CYBLE_ERROR_TX_POWER_READ\000"
 3772      455F4552 
 3772      524F525F 
 3772      54585F50 
 3772      4F574552 
 3773              	.LASF205:
 3774 0e48 63616C6C 		.ascii	"callbackFunc\000"
 3774      6261636B 
 3774      46756E63 
 3774      00
 3775              	.LASF178:
 3776 0e55 61747456 		.ascii	"attValue\000"
 3776      616C7565 
 3776      00
 3777              	.LASF1:
 3778 0e5e 756E7369 		.ascii	"unsigned char\000"
 3778      676E6564 
 3778      20636861 
 3778      7200
 3779              	.LASF10:
 3780 0e6c 75696E74 		.ascii	"uint16\000"
 3780      313600
 3781              	.LASF38:
 3782 0e73 4359424C 		.ascii	"CYBLE_EVT_GAP_KEYPRESS_NOTIFICATION\000"
 3782      455F4556 
 3782      545F4741 
 3782      505F4B45 
 3782      59505245 
 3783              	.LASF190:
 3784 0e97 70726566 		.ascii	"prefConnParamCharHandle\000"
 3784      436F6E6E 
 3784      50617261 
 3784      6D436861 
 3784      7248616E 
 3785              	.LASF119:
 3786 0eaf 4359424C 		.ascii	"CYBLE_ERROR_CHAR_IS_NOT_DISCOVERED\000"
 3786      455F4552 
 3786      524F525F 
 3786      43484152 
 3786      5F49535F 
 3787              	.LASF2:
 3788 0ed2 73686F72 		.ascii	"short int\000"
 3788      7420696E 
 3788      7400
 3789              	.LASF67:
 3790 0edc 4359424C 		.ascii	"CYBLE_EVT_GATTC_HANDLE_VALUE_IND\000"
 3790      455F4556 
 3790      545F4741 
 3790      5454435F 
 3790      48414E44 
 3791              	.LASF219:
 3792 0efd 4379426C 		.ascii	"CyBle_ChangeAdDeviceAddress\000"
 3792      655F4368 
 3792      616E6765 
ARM GAS  C:\Users\Sarah\AppData\Local\Temp\ccXRs73K.s 			page 103


 3792      41644465 
 3792      76696365 
 3793              	.LASF189:
 3794 0f19 61707065 		.ascii	"appearanceCharHandle\000"
 3794      6172616E 
 3794      63654368 
 3794      61724861 
 3794      6E646C65 
 3795              	.LASF211:
 3796 0f2e 666C6167 		.ascii	"flag\000"
 3796      00
 3797              	.LASF86:
 3798 0f33 4359424C 		.ascii	"CYBLE_EVT_HCI_PKT\000"
 3798      455F4556 
 3798      545F4843 
 3798      495F504B 
 3798      5400
 3799              	.LASF95:
 3800 0f45 4359424C 		.ascii	"CYBLE_ERROR_NO_CONNECTION\000"
 3800      455F4552 
 3800      524F525F 
 3800      4E4F5F43 
 3800      4F4E4E45 
 3801              	.LASF187:
 3802 0f5f 67617053 		.ascii	"gapServiceCharHandle\000"
 3802      65727669 
 3802      63654368 
 3802      61724861 
 3802      6E646C65 
 3803              	.LASF201:
 3804 0f74 66656174 		.ascii	"featureHeapReq\000"
 3804      75726548 
 3804      65617052 
 3804      657100
 3805              	.LASF63:
 3806 0f83 4359424C 		.ascii	"CYBLE_EVT_GATTS_PREP_WRITE_REQ\000"
 3806      455F4556 
 3806      545F4741 
 3806      5454535F 
 3806      50524550 
 3807              	.LASF145:
 3808 0fa2 61647649 		.ascii	"advIntvMin\000"
 3808      6E74764D 
 3808      696E00
 3809              	.LASF143:
 3810 0fad 4359424C 		.ascii	"CYBLE_GAPP_CONNECTABLE_LOW_DC_DIRECTED_ADV\000"
 3810      455F4741 
 3810      50505F43 
 3810      4F4E4E45 
 3810      43544142 
 3811              	.LASF239:
 3812 0fd8 433A5C55 		.ascii	"C:\\Users\\Sarah\\Documents\\DVCS\\bleapp-master\\b"
 3812      73657273 
 3812      5C536172 
 3812      61685C44 
 3812      6F63756D 
 3813 1005 6C656170 		.ascii	"leapp-master\\PSoC_Creator\\capsenseled\\Proc_VentB"
ARM GAS  C:\Users\Sarah\AppData\Local\Temp\ccXRs73K.s 			page 104


 3813      702D6D61 
 3813      73746572 
 3813      5C50536F 
 3813      435F4372 
 3814 1035 4C452E63 		.ascii	"LE.cydsn\000"
 3814      7964736E 
 3814      00
 3815              	.LASF222:
 3816 103e 4379426C 		.ascii	"CyBle_ApplCallback\000"
 3816      655F4170 
 3816      706C4361 
 3816      6C6C6261 
 3816      636B00
 3817              	.LASF240:
 3818 1051 4379426C 		.ascii	"CyBle_ChangeAdLocalName\000"
 3818      655F4368 
 3818      616E6765 
 3818      41644C6F 
 3818      63616C4E 
 3819              	.LASF68:
 3820 1069 4359424C 		.ascii	"CYBLE_EVT_GATTS_HANDLE_VALUE_CNF\000"
 3820      455F4556 
 3820      545F4741 
 3820      5454535F 
 3820      48414E44 
 3821              	.LASF97:
 3822 108a 4359424C 		.ascii	"CYBLE_ERROR_REPEATED_ATTEMPTS\000"
 3822      455F4552 
 3822      524F525F 
 3822      52455045 
 3822      41544544 
 3823              	.LASF43:
 3824 10a8 4359424C 		.ascii	"CYBLE_EVT_GAP_SMP_NEGOTIATED_AUTH_INFO\000"
 3824      455F4556 
 3824      545F4741 
 3824      505F534D 
 3824      505F4E45 
 3825              	.LASF197:
 3826 10cf 6379426C 		.ascii	"cyBle_stackDataBuff\000"
 3826      655F7374 
 3826      61636B44 
 3826      61746142 
 3826      75666600 
 3827              	.LASF214:
 3828 10e3 6D61784C 		.ascii	"maxLength\000"
 3828      656E6774 
 3828      6800
 3829              	.LASF232:
 3830 10ed 6379426C 		.ascii	"cyBle_gattDB\000"
 3830      655F6761 
 3830      74744442 
 3830      00
 3831              	.LASF121:
 3832 10fa 4359424C 		.ascii	"CYBLE_ERROR_STACK_BUSY\000"
 3832      455F4552 
 3832      524F525F 
 3832      53544143 
ARM GAS  C:\Users\Sarah\AppData\Local\Temp\ccXRs73K.s 			page 105


 3832      4B5F4255 
 3833              	.LASF15:
 3834 1111 63686172 		.ascii	"char\000"
 3834      00
 3835              	.LASF100:
 3836 1116 4359424C 		.ascii	"CYBLE_ERROR_BT_ON_NOT_COMPLETED\000"
 3836      455F4552 
 3836      524F525F 
 3836      42545F4F 
 3836      4E5F4E4F 
 3837              	.LASF212:
 3838 1136 61644C65 		.ascii	"adLength\000"
 3838      6E677468 
 3838      00
 3839              	.LASF32:
 3840 113f 4359424C 		.ascii	"CYBLE_EVT_GAP_DEVICE_DISCONNECTED\000"
 3840      455F4556 
 3840      545F4741 
 3840      505F4445 
 3840      56494345 
 3841              	.LASF206:
 3842 1161 61647665 		.ascii	"advertisingIntervalType\000"
 3842      72746973 
 3842      696E6749 
 3842      6E746572 
 3842      76616C54 
 3843              	.LASF8:
 3844 1179 756E7369 		.ascii	"unsigned int\000"
 3844      676E6564 
 3844      20696E74 
 3844      00
 3845              	.LASF177:
 3846 1186 61747445 		.ascii	"attEndHandle\000"
 3846      6E644861 
 3846      6E646C65 
 3846      00
 3847              	.LASF71:
 3848 1193 4359424C 		.ascii	"CYBLE_EVT_GATTS_READ_CHAR_VAL_ACCESS_REQ\000"
 3848      455F4556 
 3848      545F4741 
 3848      5454535F 
 3848      52454144 
 3849              	.LASF126:
 3850 11bc 62756666 		.ascii	"bufferSize\000"
 3850      65725369 
 3850      7A6500
 3851              	.LASF153:
 3852 11c7 4359424C 		.ascii	"CYBLE_GAPP_DISC_PARAM_T\000"
 3852      455F4741 
 3852      50505F44 
 3852      4953435F 
 3852      50415241 
 3853              	.LASF14:
 3854 11df 63686172 		.ascii	"char8\000"
 3854      3800
 3855              	.LASF235:
 3856 11e5 6379426C 		.ascii	"cyBle_gaps\000"
ARM GAS  C:\Users\Sarah\AppData\Local\Temp\ccXRs73K.s 			page 106


 3856      655F6761 
 3856      707300
 3857              	.LASF110:
 3858 11f0 4359424C 		.ascii	"CYBLE_ERROR_FLASH_WRITE_NOT_PERMITED\000"
 3858      455F4552 
 3858      524F525F 
 3858      464C4153 
 3858      485F5752 
 3859              	.LASF105:
 3860 1215 4359424C 		.ascii	"CYBLE_ERROR_L2CAP_CONNECTION_ENTITY_NOT_FOUND\000"
 3860      455F4552 
 3860      524F525F 
 3860      4C324341 
 3860      505F434F 
 3861              	.LASF138:
 3862 1243 4359424C 		.ascii	"CYBLE_STACK_CONFIG_PARAM_T\000"
 3862      455F5354 
 3862      41434B5F 
 3862      434F4E46 
 3862      49475F50 
 3863              	.LASF192:
 3864 125e 7270614F 		.ascii	"rpaOnlyCharHandle\000"
 3864      6E6C7943 
 3864      68617248 
 3864      616E646C 
 3864      6500
 3865              	.LASF3:
 3866 1270 73686F72 		.ascii	"short unsigned int\000"
 3866      7420756E 
 3866      7369676E 
 3866      65642069 
 3866      6E7400
 3867              	.LASF179:
 3868 1283 4359424C 		.ascii	"CYBLE_GATTS_DB_T\000"
 3868      455F4741 
 3868      5454535F 
 3868      44425F54 
 3868      00
 3869              	.LASF91:
 3870 1294 4359424C 		.ascii	"CYBLE_ERROR_INVALID_OPERATION\000"
 3870      455F4552 
 3870      524F525F 
 3870      494E5641 
 3870      4C49445F 
 3871              	.LASF136:
 3872 12b2 70726976 		.ascii	"privacyConfig\000"
 3872      61637943 
 3872      6F6E6669 
 3872      6700
 3873              	.LASF180:
 3874 12c0 4359424C 		.ascii	"CYBLE_CALLBACK_T\000"
 3874      455F4341 
 3874      4C4C4241 
 3874      434B5F54 
 3874      00
 3875              	.LASF167:
 3876 12d1 4359424C 		.ascii	"CYBLE_GATTS_ATT_GEN_VAL_LEN_T\000"
ARM GAS  C:\Users\Sarah\AppData\Local\Temp\ccXRs73K.s 			page 107


 3876      455F4741 
 3876      5454535F 
 3876      4154545F 
 3876      47454E5F 
 3877              	.LASF213:
 3878 12ef 62797465 		.ascii	"byteCounter\000"
 3878      436F756E 
 3878      74657200 
 3879              	.LASF163:
 3880 12fb 4359424C 		.ascii	"CYBLE_GAPP_DISC_MODE_INFO_T\000"
 3880      455F4741 
 3880      50505F44 
 3880      4953435F 
 3880      4D4F4445 
 3881              	.LASF161:
 3882 1317 61647650 		.ascii	"advParam\000"
 3882      6172616D 
 3882      00
 3883              	.LASF193:
 3884 1320 4359424C 		.ascii	"CYBLE_GAPS_T\000"
 3884      455F4741 
 3884      50535F54 
 3884      00
 3885              	.LASF144:
 3886 132d 4359424C 		.ascii	"CYBLE_GAPP_ADV_T\000"
 3886      455F4741 
 3886      50505F41 
 3886      44565F54 
 3886      00
 3887              	.LASF137:
 3888 133e 66656174 		.ascii	"feature_mask\000"
 3888      7572655F 
 3888      6D61736B 
 3888      00
 3889              	.LASF186:
 3890 134b 4359424C 		.ascii	"CYBLE_STATE_T\000"
 3890      455F5354 
 3890      4154455F 
 3890      5400
 3891              	.LASF142:
 3892 1359 4359424C 		.ascii	"CYBLE_GAPP_NON_CONNECTABLE_UNDIRECTED_ADV\000"
 3892      455F4741 
 3892      50505F4E 
 3892      4F4E5F43 
 3892      4F4E4E45 
 3893              	.LASF58:
 3894 1383 4359424C 		.ascii	"CYBLE_EVT_GATTC_READ_BLOB_RSP\000"
 3894      455F4556 
 3894      545F4741 
 3894      5454435F 
 3894      52454144 
 3895              	.LASF169:
 3896 13a1 61747447 		.ascii	"attGenericValLen\000"
 3896      656E6572 
 3896      69635661 
 3896      6C4C656E 
 3896      00
ARM GAS  C:\Users\Sarah\AppData\Local\Temp\ccXRs73K.s 			page 108


 3897              	.LASF200:
 3898 13b2 73746163 		.ascii	"stackConfig\000"
 3898      6B436F6E 
 3898      66696700 
 3899              	.LASF226:
 3900 13be 6379426C 		.ascii	"cyBle_deviceAddress\000"
 3900      655F6465 
 3900      76696365 
 3900      41646472 
 3900      65737300 
 3901              	.LASF230:
 3902 13d2 6379426C 		.ascii	"cyBle_scanRspData\000"
 3902      655F7363 
 3902      616E5273 
 3902      70446174 
 3902      6100
 3903              	.LASF111:
 3904 13e4 4359424C 		.ascii	"CYBLE_ERROR_MIC_AUTH_FAILED\000"
 3904      455F4552 
 3904      524F525F 
 3904      4D49435F 
 3904      41555448 
 3905              	.LASF132:
 3906 1400 4359424C 		.ascii	"CYBLE_DLE_CONFIG_PARAM_T\000"
 3906      455F444C 
 3906      455F434F 
 3906      4E464947 
 3906      5F504152 
 3907              	.LASF104:
 3908 1419 4359424C 		.ascii	"CYBLE_ERROR_L2CAP_PSM_NOT_REGISTERED\000"
 3908      455F4552 
 3908      524F525F 
 3908      4C324341 
 3908      505F5053 
 3909              	.LASF227:
 3910 143e 6379426C 		.ascii	"cyBle_sflashDeviceAddress\000"
 3910      655F7366 
 3910      6C617368 
 3910      44657669 
 3910      63654164 
 3911              	.LASF183:
 3912 1458 4359424C 		.ascii	"CYBLE_STATE_CONNECTED\000"
 3912      455F5354 
 3912      4154455F 
 3912      434F4E4E 
 3912      45435445 
 3913              	.LASF237:
 3914 146e 474E5520 		.ascii	"GNU C 4.9.3 20150303 (release) [ARM/embedded-4_9-br"
 3914      4320342E 
 3914      392E3320 
 3914      32303135 
 3914      30333033 
 3915 14a1 616E6368 		.ascii	"anch revision 221220] -mcpu=cortex-m0 -mthumb -g -O"
 3915      20726576 
 3915      6973696F 
 3915      6E203232 
 3915      31323230 
ARM GAS  C:\Users\Sarah\AppData\Local\Temp\ccXRs73K.s 			page 109


 3916 14d4 30202D66 		.ascii	"0 -ffunction-sections -ffat-lto-objects\000"
 3916      66756E63 
 3916      74696F6E 
 3916      2D736563 
 3916      74696F6E 
 3917              	.LASF56:
 3918 14fc 4359424C 		.ascii	"CYBLE_EVT_GATTC_FIND_BY_TYPE_VALUE_RSP\000"
 3918      455F4556 
 3918      545F4741 
 3918      5454435F 
 3918      46494E44 
 3919              	.LASF98:
 3920 1523 4359424C 		.ascii	"CYBLE_ERROR_GAP_ROLE\000"
 3920      455F4552 
 3920      524F525F 
 3920      4741505F 
 3920      524F4C45 
 3921              	.LASF135:
 3922 1538 646C6543 		.ascii	"dleConfig\000"
 3922      6F6E6669 
 3922      6700
 3923              	.LASF36:
 3924 1542 4359424C 		.ascii	"CYBLE_EVT_GAP_KEYINFO_EXCHNGE_CMPLT\000"
 3924      455F4556 
 3924      545F4741 
 3924      505F4B45 
 3924      59494E46 
 3925              	.LASF218:
 3926 1566 4379426C 		.ascii	"CyBle_Get16ByPtr\000"
 3926      655F4765 
 3926      74313642 
 3926      79507472 
 3926      00
 3927              	.LASF78:
 3928 1577 4359424C 		.ascii	"CYBLE_EVT_L2CAP_CBFC_DISCONN_IND\000"
 3928      455F4556 
 3928      545F4C32 
 3928      4341505F 
 3928      43424643 
 3929              	.LASF84:
 3930 1598 4359424C 		.ascii	"CYBLE_EVT_PENDING_FLASH_WRITE\000"
 3930      455F4556 
 3930      545F5045 
 3930      4E44494E 
 3930      475F464C 
 3931              	.LASF194:
 3932 15b6 4379426C 		.ascii	"CyBle_Init\000"
 3932      655F496E 
 3932      697400
 3933              	.LASF74:
 3934 15c1 4359424C 		.ascii	"CYBLE_EVT_L2CAP_CONN_PARAM_UPDATE_RSP\000"
 3934      455F4556 
 3934      545F4C32 
 3934      4341505F 
 3934      434F4E4E 
 3935              	.LASF238:
 3936 15e7 47656E65 		.ascii	"Generated_Source\\PSoC4\\BLE.c\000"
ARM GAS  C:\Users\Sarah\AppData\Local\Temp\ccXRs73K.s 			page 110


 3936      72617465 
 3936      645F536F 
 3936      75726365 
 3936      5C50536F 
 3937              	.LASF41:
 3938 1604 4359424C 		.ascii	"CYBLE_EVT_GAP_ENHANCE_CONN_COMPLETE\000"
 3938      455F4556 
 3938      545F4741 
 3938      505F454E 
 3938      48414E43 
 3939              	.LASF188:
 3940 1628 64657669 		.ascii	"deviceNameCharHandle\000"
 3940      63654E61 
 3940      6D654368 
 3940      61724861 
 3940      6E646C65 
 3941              	.LASF162:
 3942 163d 61647654 		.ascii	"advTo\000"
 3942      6F00
 3943              	.LASF50:
 3944 1643 4359424C 		.ascii	"CYBLE_EVT_GATT_DISCONNECT_IND\000"
 3944      455F4556 
 3944      545F4741 
 3944      54545F44 
 3944      4953434F 
 3945              	.LASF108:
 3946 1661 4359424C 		.ascii	"CYBLE_ERROR_GATT_DB_INVALID_ATTR_HANDLE\000"
 3946      455F4552 
 3946      524F525F 
 3946      47415454 
 3946      5F44425F 
 3947              	.LASF87:
 3948 1689 4359424C 		.ascii	"CYBLE_EVT_FLASH_CORRUPT\000"
 3948      455F4556 
 3948      545F464C 
 3948      4153485F 
 3948      434F5252 
 3949              	.LASF133:
 3950 16a1 7265736F 		.ascii	"resolvingListSize\000"
 3950      6C76696E 
 3950      674C6973 
 3950      7453697A 
 3950      6500
 3951              		.ident	"GCC: (GNU Tools for ARM Embedded Processors) 4.9.3 20150303 (release) [ARM/embedded-4_9-br
