ARM GAS  C:\Users\Sarah\AppData\Local\Temp\ccdFBtQV.s 			page 1


   1              		.cpu cortex-m0
   2              		.fpu softvfp
   3              		.eabi_attribute 20, 1
   4              		.eabi_attribute 21, 1
   5              		.eabi_attribute 23, 3
   6              		.eabi_attribute 24, 1
   7              		.eabi_attribute 25, 1
   8              		.eabi_attribute 26, 1
   9              		.eabi_attribute 30, 6
  10              		.eabi_attribute 34, 0
  11              		.eabi_attribute 18, 4
  12              		.code	16
  13              		.file	"cyfitter_cfg.c"
  14              		.text
  15              	.Ltext0:
  16              		.cfi_sections	.debug_frame
  17              		.section	.text.CYMEMZERO,"ax",%progbits
  18              		.align	2
  19              		.code	16
  20              		.thumb_func
  21              		.type	CYMEMZERO, %function
  22              	CYMEMZERO:
  23              	.LFB2:
  24              		.file 1 "Generated_Source\\PSoC4\\cyfitter_cfg.c"
   1:Generated_Source\PSoC4/cyfitter_cfg.c **** /*******************************************************************************
   2:Generated_Source\PSoC4/cyfitter_cfg.c **** * File Name: cyfitter_cfg.c
   3:Generated_Source\PSoC4/cyfitter_cfg.c **** * 
   4:Generated_Source\PSoC4/cyfitter_cfg.c **** * PSoC Creator  4.0 Update 1
   5:Generated_Source\PSoC4/cyfitter_cfg.c **** *
   6:Generated_Source\PSoC4/cyfitter_cfg.c **** * Description:
   7:Generated_Source\PSoC4/cyfitter_cfg.c **** * This file contains device initialization code.
   8:Generated_Source\PSoC4/cyfitter_cfg.c **** * Except for the user defined sections in CyClockStartupError(), this file should not be modified.
   9:Generated_Source\PSoC4/cyfitter_cfg.c **** * This file is automatically generated by PSoC Creator.
  10:Generated_Source\PSoC4/cyfitter_cfg.c **** *
  11:Generated_Source\PSoC4/cyfitter_cfg.c **** ********************************************************************************
  12:Generated_Source\PSoC4/cyfitter_cfg.c **** * Copyright (c) 2007-2016 Cypress Semiconductor.  All rights reserved.
  13:Generated_Source\PSoC4/cyfitter_cfg.c **** * You may use this file only in accordance with the license, terms, conditions, 
  14:Generated_Source\PSoC4/cyfitter_cfg.c **** * disclaimers, and limitations in the end user license agreement accompanying 
  15:Generated_Source\PSoC4/cyfitter_cfg.c **** * the software package with which this file was provided.
  16:Generated_Source\PSoC4/cyfitter_cfg.c **** ********************************************************************************/
  17:Generated_Source\PSoC4/cyfitter_cfg.c **** 
  18:Generated_Source\PSoC4/cyfitter_cfg.c **** #include <string.h>
  19:Generated_Source\PSoC4/cyfitter_cfg.c **** #include "cytypes.h"
  20:Generated_Source\PSoC4/cyfitter_cfg.c **** #include "cydevice_trm.h"
  21:Generated_Source\PSoC4/cyfitter_cfg.c **** #include "cyfitter.h"
  22:Generated_Source\PSoC4/cyfitter_cfg.c **** #include "CyLib.h"
  23:Generated_Source\PSoC4/cyfitter_cfg.c **** #include "CyLFClk.h"
  24:Generated_Source\PSoC4/cyfitter_cfg.c **** #include "cyfitter_cfg.h"
  25:Generated_Source\PSoC4/cyfitter_cfg.c **** #include "cyapicallbacks.h"
  26:Generated_Source\PSoC4/cyfitter_cfg.c **** 
  27:Generated_Source\PSoC4/cyfitter_cfg.c **** 
  28:Generated_Source\PSoC4/cyfitter_cfg.c **** #if defined(__GNUC__) || defined(__ARMCC_VERSION)
  29:Generated_Source\PSoC4/cyfitter_cfg.c ****     #define CYPACKED 
  30:Generated_Source\PSoC4/cyfitter_cfg.c ****     #define CYPACKED_ATTR __attribute__ ((packed))
  31:Generated_Source\PSoC4/cyfitter_cfg.c ****     #define CYALIGNED __attribute__ ((aligned))
  32:Generated_Source\PSoC4/cyfitter_cfg.c ****     #define CY_CFG_UNUSED __attribute__ ((unused))
  33:Generated_Source\PSoC4/cyfitter_cfg.c ****     #ifndef CY_CFG_SECTION
ARM GAS  C:\Users\Sarah\AppData\Local\Temp\ccdFBtQV.s 			page 2


  34:Generated_Source\PSoC4/cyfitter_cfg.c ****         #define CY_CFG_SECTION __attribute__ ((section(".psocinit")))
  35:Generated_Source\PSoC4/cyfitter_cfg.c ****     #endif
  36:Generated_Source\PSoC4/cyfitter_cfg.c ****     
  37:Generated_Source\PSoC4/cyfitter_cfg.c ****     #if defined(__ARMCC_VERSION)
  38:Generated_Source\PSoC4/cyfitter_cfg.c ****         #define CY_CFG_MEMORY_BARRIER() __memory_changed()
  39:Generated_Source\PSoC4/cyfitter_cfg.c ****     #else
  40:Generated_Source\PSoC4/cyfitter_cfg.c ****         #define CY_CFG_MEMORY_BARRIER() __sync_synchronize()
  41:Generated_Source\PSoC4/cyfitter_cfg.c ****     #endif
  42:Generated_Source\PSoC4/cyfitter_cfg.c ****     
  43:Generated_Source\PSoC4/cyfitter_cfg.c **** #elif defined(__ICCARM__)
  44:Generated_Source\PSoC4/cyfitter_cfg.c ****     #include <intrinsics.h>
  45:Generated_Source\PSoC4/cyfitter_cfg.c **** 
  46:Generated_Source\PSoC4/cyfitter_cfg.c ****     #define CYPACKED __packed
  47:Generated_Source\PSoC4/cyfitter_cfg.c ****     #define CYPACKED_ATTR 
  48:Generated_Source\PSoC4/cyfitter_cfg.c ****     #define CYALIGNED _Pragma("data_alignment=4")
  49:Generated_Source\PSoC4/cyfitter_cfg.c ****     #define CY_CFG_UNUSED _Pragma("diag_suppress=Pe177")
  50:Generated_Source\PSoC4/cyfitter_cfg.c ****     #define CY_CFG_SECTION _Pragma("location=\".psocinit\"")
  51:Generated_Source\PSoC4/cyfitter_cfg.c ****     
  52:Generated_Source\PSoC4/cyfitter_cfg.c ****     #define CY_CFG_MEMORY_BARRIER() __DMB()
  53:Generated_Source\PSoC4/cyfitter_cfg.c ****     
  54:Generated_Source\PSoC4/cyfitter_cfg.c **** #else
  55:Generated_Source\PSoC4/cyfitter_cfg.c ****     #error Unsupported toolchain
  56:Generated_Source\PSoC4/cyfitter_cfg.c **** #endif
  57:Generated_Source\PSoC4/cyfitter_cfg.c **** 
  58:Generated_Source\PSoC4/cyfitter_cfg.c **** 
  59:Generated_Source\PSoC4/cyfitter_cfg.c **** CY_CFG_UNUSED
  60:Generated_Source\PSoC4/cyfitter_cfg.c **** static void CYMEMZERO(void *s, size_t n);
  61:Generated_Source\PSoC4/cyfitter_cfg.c **** CY_CFG_UNUSED
  62:Generated_Source\PSoC4/cyfitter_cfg.c **** static void CYMEMZERO(void *s, size_t n)
  63:Generated_Source\PSoC4/cyfitter_cfg.c **** {
  25              		.loc 1 63 0
  26              		.cfi_startproc
  27 0000 80B5     		push	{r7, lr}
  28              		.cfi_def_cfa_offset 8
  29              		.cfi_offset 7, -8
  30              		.cfi_offset 14, -4
  31 0002 82B0     		sub	sp, sp, #8
  32              		.cfi_def_cfa_offset 16
  33 0004 00AF     		add	r7, sp, #0
  34              		.cfi_def_cfa_register 7
  35 0006 7860     		str	r0, [r7, #4]
  36 0008 3960     		str	r1, [r7]
  64:Generated_Source\PSoC4/cyfitter_cfg.c **** 	(void)memset(s, 0, n);
  37              		.loc 1 64 0
  38 000a 7A68     		ldr	r2, [r7, #4]
  39 000c 3B68     		ldr	r3, [r7]
  40 000e 101C     		mov	r0, r2
  41 0010 0021     		mov	r1, #0
  42 0012 1A1C     		mov	r2, r3
  43 0014 FFF7FEFF 		bl	memset
  65:Generated_Source\PSoC4/cyfitter_cfg.c **** }
  44              		.loc 1 65 0
  45 0018 BD46     		mov	sp, r7
  46 001a 02B0     		add	sp, sp, #8
  47              		@ sp needed
  48 001c 80BD     		pop	{r7, pc}
  49              		.cfi_endproc
ARM GAS  C:\Users\Sarah\AppData\Local\Temp\ccdFBtQV.s 			page 3


  50              	.LFE2:
  51              		.size	CYMEMZERO, .-CYMEMZERO
  52 001e C046     		.section	.text.CYCONFIGCPY,"ax",%progbits
  53              		.align	2
  54              		.code	16
  55              		.thumb_func
  56              		.type	CYCONFIGCPY, %function
  57              	CYCONFIGCPY:
  58              	.LFB3:
  66:Generated_Source\PSoC4/cyfitter_cfg.c **** CY_CFG_UNUSED
  67:Generated_Source\PSoC4/cyfitter_cfg.c **** static void CYCONFIGCPY(void *dest, const void *src, size_t n);
  68:Generated_Source\PSoC4/cyfitter_cfg.c **** CY_CFG_UNUSED
  69:Generated_Source\PSoC4/cyfitter_cfg.c **** static void CYCONFIGCPY(void *dest, const void *src, size_t n)
  70:Generated_Source\PSoC4/cyfitter_cfg.c **** {
  59              		.loc 1 70 0
  60              		.cfi_startproc
  61 0000 80B5     		push	{r7, lr}
  62              		.cfi_def_cfa_offset 8
  63              		.cfi_offset 7, -8
  64              		.cfi_offset 14, -4
  65 0002 84B0     		sub	sp, sp, #16
  66              		.cfi_def_cfa_offset 24
  67 0004 00AF     		add	r7, sp, #0
  68              		.cfi_def_cfa_register 7
  69 0006 F860     		str	r0, [r7, #12]
  70 0008 B960     		str	r1, [r7, #8]
  71 000a 7A60     		str	r2, [r7, #4]
  71:Generated_Source\PSoC4/cyfitter_cfg.c **** 	(void)memcpy(dest, src, n);
  72              		.loc 1 71 0
  73 000c F968     		ldr	r1, [r7, #12]
  74 000e BA68     		ldr	r2, [r7, #8]
  75 0010 7B68     		ldr	r3, [r7, #4]
  76 0012 081C     		mov	r0, r1
  77 0014 111C     		mov	r1, r2
  78 0016 1A1C     		mov	r2, r3
  79 0018 FFF7FEFF 		bl	memcpy
  72:Generated_Source\PSoC4/cyfitter_cfg.c **** }
  80              		.loc 1 72 0
  81 001c BD46     		mov	sp, r7
  82 001e 04B0     		add	sp, sp, #16
  83              		@ sp needed
  84 0020 80BD     		pop	{r7, pc}
  85              		.cfi_endproc
  86              	.LFE3:
  87              		.size	CYCONFIGCPY, .-CYCONFIGCPY
  88 0022 C046     		.section	.text.CYCONFIGCPYCODE,"ax",%progbits
  89              		.align	2
  90              		.code	16
  91              		.thumb_func
  92              		.type	CYCONFIGCPYCODE, %function
  93              	CYCONFIGCPYCODE:
  94              	.LFB4:
  73:Generated_Source\PSoC4/cyfitter_cfg.c **** CY_CFG_UNUSED
  74:Generated_Source\PSoC4/cyfitter_cfg.c **** static void CYCONFIGCPYCODE(void *dest, const void *src, size_t n);
  75:Generated_Source\PSoC4/cyfitter_cfg.c **** CY_CFG_UNUSED
  76:Generated_Source\PSoC4/cyfitter_cfg.c **** static void CYCONFIGCPYCODE(void *dest, const void *src, size_t n)
  77:Generated_Source\PSoC4/cyfitter_cfg.c **** {
ARM GAS  C:\Users\Sarah\AppData\Local\Temp\ccdFBtQV.s 			page 4


  95              		.loc 1 77 0
  96              		.cfi_startproc
  97 0000 80B5     		push	{r7, lr}
  98              		.cfi_def_cfa_offset 8
  99              		.cfi_offset 7, -8
 100              		.cfi_offset 14, -4
 101 0002 84B0     		sub	sp, sp, #16
 102              		.cfi_def_cfa_offset 24
 103 0004 00AF     		add	r7, sp, #0
 104              		.cfi_def_cfa_register 7
 105 0006 F860     		str	r0, [r7, #12]
 106 0008 B960     		str	r1, [r7, #8]
 107 000a 7A60     		str	r2, [r7, #4]
  78:Generated_Source\PSoC4/cyfitter_cfg.c **** 	(void)memcpy(dest, src, n);
 108              		.loc 1 78 0
 109 000c F968     		ldr	r1, [r7, #12]
 110 000e BA68     		ldr	r2, [r7, #8]
 111 0010 7B68     		ldr	r3, [r7, #4]
 112 0012 081C     		mov	r0, r1
 113 0014 111C     		mov	r1, r2
 114 0016 1A1C     		mov	r2, r3
 115 0018 FFF7FEFF 		bl	memcpy
  79:Generated_Source\PSoC4/cyfitter_cfg.c **** }
 116              		.loc 1 79 0
 117 001c BD46     		mov	sp, r7
 118 001e 04B0     		add	sp, sp, #16
 119              		@ sp needed
 120 0020 80BD     		pop	{r7, pc}
 121              		.cfi_endproc
 122              	.LFE4:
 123              		.size	CYCONFIGCPYCODE, .-CYCONFIGCPYCODE
 124 0022 C046     		.section	.text.cfg_write_bytes32,"ax",%progbits
 125              		.align	2
 126              		.code	16
 127              		.thumb_func
 128              		.type	cfg_write_bytes32, %function
 129              	cfg_write_bytes32:
 130              	.LFB5:
  80:Generated_Source\PSoC4/cyfitter_cfg.c **** 
  81:Generated_Source\PSoC4/cyfitter_cfg.c **** 
  82:Generated_Source\PSoC4/cyfitter_cfg.c **** 
  83:Generated_Source\PSoC4/cyfitter_cfg.c **** 
  84:Generated_Source\PSoC4/cyfitter_cfg.c **** /* Clock startup error codes                                                   */
  85:Generated_Source\PSoC4/cyfitter_cfg.c **** #define CYCLOCKSTART_NO_ERROR    0u
  86:Generated_Source\PSoC4/cyfitter_cfg.c **** #define CYCLOCKSTART_XTAL_ERROR  1u
  87:Generated_Source\PSoC4/cyfitter_cfg.c **** #define CYCLOCKSTART_32KHZ_ERROR 2u
  88:Generated_Source\PSoC4/cyfitter_cfg.c **** #define CYCLOCKSTART_PLL_ERROR   3u
  89:Generated_Source\PSoC4/cyfitter_cfg.c **** 
  90:Generated_Source\PSoC4/cyfitter_cfg.c **** 
  91:Generated_Source\PSoC4/cyfitter_cfg.c **** #ifdef CY_NEED_CYCLOCKSTARTUPERROR
  92:Generated_Source\PSoC4/cyfitter_cfg.c **** /*******************************************************************************
  93:Generated_Source\PSoC4/cyfitter_cfg.c **** * Function Name: CyClockStartupError
  94:Generated_Source\PSoC4/cyfitter_cfg.c **** ********************************************************************************
  95:Generated_Source\PSoC4/cyfitter_cfg.c **** * Summary:
  96:Generated_Source\PSoC4/cyfitter_cfg.c **** *  If an error is encountered during clock configuration (crystal startup error,
  97:Generated_Source\PSoC4/cyfitter_cfg.c **** *  PLL lock error, etc.), the system will end up here.  Unless reimplemented by
  98:Generated_Source\PSoC4/cyfitter_cfg.c **** *  the customer, this function will stop in an infinite loop.
ARM GAS  C:\Users\Sarah\AppData\Local\Temp\ccdFBtQV.s 			page 5


  99:Generated_Source\PSoC4/cyfitter_cfg.c **** *
 100:Generated_Source\PSoC4/cyfitter_cfg.c **** * Parameters:
 101:Generated_Source\PSoC4/cyfitter_cfg.c **** *   void
 102:Generated_Source\PSoC4/cyfitter_cfg.c **** *
 103:Generated_Source\PSoC4/cyfitter_cfg.c **** * Return:
 104:Generated_Source\PSoC4/cyfitter_cfg.c **** *   void
 105:Generated_Source\PSoC4/cyfitter_cfg.c **** *
 106:Generated_Source\PSoC4/cyfitter_cfg.c **** *******************************************************************************/
 107:Generated_Source\PSoC4/cyfitter_cfg.c **** CY_CFG_UNUSED
 108:Generated_Source\PSoC4/cyfitter_cfg.c **** static void CyClockStartupError(uint8 errorCode);
 109:Generated_Source\PSoC4/cyfitter_cfg.c **** CY_CFG_UNUSED
 110:Generated_Source\PSoC4/cyfitter_cfg.c **** static void CyClockStartupError(uint8 errorCode)
 111:Generated_Source\PSoC4/cyfitter_cfg.c **** {
 112:Generated_Source\PSoC4/cyfitter_cfg.c ****     /* To remove the compiler warning if errorCode not used.                */
 113:Generated_Source\PSoC4/cyfitter_cfg.c ****     errorCode = errorCode;
 114:Generated_Source\PSoC4/cyfitter_cfg.c **** 
 115:Generated_Source\PSoC4/cyfitter_cfg.c ****     /* If we have a clock startup error (bad MHz crystal, PLL lock, etc.),  */
 116:Generated_Source\PSoC4/cyfitter_cfg.c ****     /* we will end up here to allow the customer to implement something to  */
 117:Generated_Source\PSoC4/cyfitter_cfg.c ****     /* deal with the clock condition.                                       */
 118:Generated_Source\PSoC4/cyfitter_cfg.c **** 
 119:Generated_Source\PSoC4/cyfitter_cfg.c **** #ifdef CY_CFG_CLOCK_STARTUP_ERROR_CALLBACK
 120:Generated_Source\PSoC4/cyfitter_cfg.c **** 	CY_CFG_Clock_Startup_ErrorCallback();
 121:Generated_Source\PSoC4/cyfitter_cfg.c **** #else
 122:Generated_Source\PSoC4/cyfitter_cfg.c **** 	/*  If not using CY_CFG_CLOCK_STARTUP_ERROR_CALLBACK, place your clock startup code here. */
 123:Generated_Source\PSoC4/cyfitter_cfg.c ****     /* `#START CyClockStartupError` */
 124:Generated_Source\PSoC4/cyfitter_cfg.c **** 
 125:Generated_Source\PSoC4/cyfitter_cfg.c **** 
 126:Generated_Source\PSoC4/cyfitter_cfg.c **** 
 127:Generated_Source\PSoC4/cyfitter_cfg.c ****     /* `#END` */
 128:Generated_Source\PSoC4/cyfitter_cfg.c **** 
 129:Generated_Source\PSoC4/cyfitter_cfg.c ****     /* If nothing else, stop here since the clocks have not started         */
 130:Generated_Source\PSoC4/cyfitter_cfg.c ****     /* correctly.                                                           */
 131:Generated_Source\PSoC4/cyfitter_cfg.c ****     while(1) {}
 132:Generated_Source\PSoC4/cyfitter_cfg.c **** #endif /* CY_CFG_CLOCK_STARTUP_ERROR_CALLBACK */ 
 133:Generated_Source\PSoC4/cyfitter_cfg.c **** }
 134:Generated_Source\PSoC4/cyfitter_cfg.c **** #endif
 135:Generated_Source\PSoC4/cyfitter_cfg.c **** 
 136:Generated_Source\PSoC4/cyfitter_cfg.c **** #define CY_CFG_BASE_ADDR_COUNT 8u
 137:Generated_Source\PSoC4/cyfitter_cfg.c **** CYPACKED typedef struct
 138:Generated_Source\PSoC4/cyfitter_cfg.c **** {
 139:Generated_Source\PSoC4/cyfitter_cfg.c **** 	uint8 offset;
 140:Generated_Source\PSoC4/cyfitter_cfg.c **** 	uint8 value;
 141:Generated_Source\PSoC4/cyfitter_cfg.c **** } CYPACKED_ATTR cy_cfg_addrvalue_t;
 142:Generated_Source\PSoC4/cyfitter_cfg.c **** 
 143:Generated_Source\PSoC4/cyfitter_cfg.c **** 
 144:Generated_Source\PSoC4/cyfitter_cfg.c **** 
 145:Generated_Source\PSoC4/cyfitter_cfg.c **** /*******************************************************************************
 146:Generated_Source\PSoC4/cyfitter_cfg.c **** * Function Name: cfg_write_bytes32
 147:Generated_Source\PSoC4/cyfitter_cfg.c **** ********************************************************************************
 148:Generated_Source\PSoC4/cyfitter_cfg.c **** * Summary:
 149:Generated_Source\PSoC4/cyfitter_cfg.c **** *  This function is used for setting up the chip configuration areas that
 150:Generated_Source\PSoC4/cyfitter_cfg.c **** *  contain relatively sparse data.
 151:Generated_Source\PSoC4/cyfitter_cfg.c **** *
 152:Generated_Source\PSoC4/cyfitter_cfg.c **** * Parameters:
 153:Generated_Source\PSoC4/cyfitter_cfg.c **** *   void
 154:Generated_Source\PSoC4/cyfitter_cfg.c **** *
 155:Generated_Source\PSoC4/cyfitter_cfg.c **** * Return:
ARM GAS  C:\Users\Sarah\AppData\Local\Temp\ccdFBtQV.s 			page 6


 156:Generated_Source\PSoC4/cyfitter_cfg.c **** *   void
 157:Generated_Source\PSoC4/cyfitter_cfg.c **** *
 158:Generated_Source\PSoC4/cyfitter_cfg.c **** *******************************************************************************/
 159:Generated_Source\PSoC4/cyfitter_cfg.c **** static void cfg_write_bytes32(const uint32 addr_table[], const cy_cfg_addrvalue_t data_table[]);
 160:Generated_Source\PSoC4/cyfitter_cfg.c **** static void cfg_write_bytes32(const uint32 addr_table[], const cy_cfg_addrvalue_t data_table[])
 161:Generated_Source\PSoC4/cyfitter_cfg.c **** {
 131              		.loc 1 161 0
 132              		.cfi_startproc
 133 0000 80B5     		push	{r7, lr}
 134              		.cfi_def_cfa_offset 8
 135              		.cfi_offset 7, -8
 136              		.cfi_offset 14, -4
 137 0002 86B0     		sub	sp, sp, #24
 138              		.cfi_def_cfa_offset 32
 139 0004 00AF     		add	r7, sp, #0
 140              		.cfi_def_cfa_register 7
 141 0006 7860     		str	r0, [r7, #4]
 142 0008 3960     		str	r1, [r7]
 162:Generated_Source\PSoC4/cyfitter_cfg.c **** 	/* For 32-bit little-endian architectures */
 163:Generated_Source\PSoC4/cyfitter_cfg.c **** 	uint32 i, j = 0u;
 143              		.loc 1 163 0
 144 000a 0023     		mov	r3, #0
 145 000c 3B61     		str	r3, [r7, #16]
 164:Generated_Source\PSoC4/cyfitter_cfg.c **** 	for (i = 0u; i < CY_CFG_BASE_ADDR_COUNT; i++)
 146              		.loc 1 164 0
 147 000e 0023     		mov	r3, #0
 148 0010 7B61     		str	r3, [r7, #20]
 149 0012 2FE0     		b	.L5
 150              	.L8:
 151              	.LBB2:
 165:Generated_Source\PSoC4/cyfitter_cfg.c **** 	{
 166:Generated_Source\PSoC4/cyfitter_cfg.c **** 		uint32 baseAddr = addr_table[i];
 152              		.loc 1 166 0
 153 0014 7B69     		ldr	r3, [r7, #20]
 154 0016 9B00     		lsl	r3, r3, #2
 155 0018 7A68     		ldr	r2, [r7, #4]
 156 001a D318     		add	r3, r2, r3
 157 001c 1B68     		ldr	r3, [r3]
 158 001e BB60     		str	r3, [r7, #8]
 167:Generated_Source\PSoC4/cyfitter_cfg.c **** 		uint8 count = (uint8)baseAddr;
 159              		.loc 1 167 0
 160 0020 0F23     		mov	r3, #15
 161 0022 FB18     		add	r3, r7, r3
 162 0024 BA68     		ldr	r2, [r7, #8]
 163 0026 1A70     		strb	r2, [r3]
 168:Generated_Source\PSoC4/cyfitter_cfg.c **** 		baseAddr &= 0xFFFFFF00u;
 164              		.loc 1 168 0
 165 0028 BB68     		ldr	r3, [r7, #8]
 166 002a FF22     		mov	r2, #255
 167 002c 9343     		bic	r3, r2
 168 002e BB60     		str	r3, [r7, #8]
 169:Generated_Source\PSoC4/cyfitter_cfg.c **** 		while (count != 0u)
 169              		.loc 1 169 0
 170 0030 18E0     		b	.L6
 171              	.L7:
 170:Generated_Source\PSoC4/cyfitter_cfg.c **** 		{
 171:Generated_Source\PSoC4/cyfitter_cfg.c **** 			CY_SET_XTND_REG8((void CYFAR *)(baseAddr + data_table[j].offset), data_table[j].value);
ARM GAS  C:\Users\Sarah\AppData\Local\Temp\ccdFBtQV.s 			page 7


 172              		.loc 1 171 0
 173 0032 3B69     		ldr	r3, [r7, #16]
 174 0034 5B00     		lsl	r3, r3, #1
 175 0036 3A68     		ldr	r2, [r7]
 176 0038 D318     		add	r3, r2, r3
 177 003a 1B78     		ldrb	r3, [r3]
 178 003c 1A1C     		mov	r2, r3
 179 003e BB68     		ldr	r3, [r7, #8]
 180 0040 D318     		add	r3, r2, r3
 181 0042 191C     		mov	r1, r3
 182 0044 3B69     		ldr	r3, [r7, #16]
 183 0046 5B00     		lsl	r3, r3, #1
 184 0048 3A68     		ldr	r2, [r7]
 185 004a D318     		add	r3, r2, r3
 186 004c 5B78     		ldrb	r3, [r3, #1]
 187 004e 0B70     		strb	r3, [r1]
 172:Generated_Source\PSoC4/cyfitter_cfg.c **** 			j++;
 188              		.loc 1 172 0
 189 0050 3B69     		ldr	r3, [r7, #16]
 190 0052 0133     		add	r3, r3, #1
 191 0054 3B61     		str	r3, [r7, #16]
 173:Generated_Source\PSoC4/cyfitter_cfg.c **** 			count--;
 192              		.loc 1 173 0
 193 0056 0F23     		mov	r3, #15
 194 0058 FB18     		add	r3, r7, r3
 195 005a 1A78     		ldrb	r2, [r3]
 196 005c 0F23     		mov	r3, #15
 197 005e FB18     		add	r3, r7, r3
 198 0060 013A     		sub	r2, r2, #1
 199 0062 1A70     		strb	r2, [r3]
 200              	.L6:
 169:Generated_Source\PSoC4/cyfitter_cfg.c **** 		{
 201              		.loc 1 169 0
 202 0064 0F23     		mov	r3, #15
 203 0066 FB18     		add	r3, r7, r3
 204 0068 1B78     		ldrb	r3, [r3]
 205 006a 002B     		cmp	r3, #0
 206 006c E1D1     		bne	.L7
 207              	.LBE2:
 164:Generated_Source\PSoC4/cyfitter_cfg.c **** 	{
 208              		.loc 1 164 0 discriminator 2
 209 006e 7B69     		ldr	r3, [r7, #20]
 210 0070 0133     		add	r3, r3, #1
 211 0072 7B61     		str	r3, [r7, #20]
 212              	.L5:
 164:Generated_Source\PSoC4/cyfitter_cfg.c **** 	{
 213              		.loc 1 164 0 is_stmt 0 discriminator 1
 214 0074 7B69     		ldr	r3, [r7, #20]
 215 0076 072B     		cmp	r3, #7
 216 0078 CCD9     		bls	.L8
 174:Generated_Source\PSoC4/cyfitter_cfg.c **** 		}
 175:Generated_Source\PSoC4/cyfitter_cfg.c **** 	}
 176:Generated_Source\PSoC4/cyfitter_cfg.c **** }
 217              		.loc 1 176 0 is_stmt 1
 218 007a BD46     		mov	sp, r7
 219 007c 06B0     		add	sp, sp, #24
 220              		@ sp needed
ARM GAS  C:\Users\Sarah\AppData\Local\Temp\ccdFBtQV.s 			page 8


 221 007e 80BD     		pop	{r7, pc}
 222              		.cfi_endproc
 223              	.LFE5:
 224              		.size	cfg_write_bytes32, .-cfg_write_bytes32
 225              		.section	.psocinit,"ax",%progbits
 226              		.align	2
 227              		.code	16
 228              		.thumb_func
 229              		.type	ClockSetup, %function
 230              	ClockSetup:
 231              	.LFB6:
 177:Generated_Source\PSoC4/cyfitter_cfg.c **** 
 178:Generated_Source\PSoC4/cyfitter_cfg.c **** 
 179:Generated_Source\PSoC4/cyfitter_cfg.c **** /*******************************************************************************
 180:Generated_Source\PSoC4/cyfitter_cfg.c **** * Function Name: ClockSetup
 181:Generated_Source\PSoC4/cyfitter_cfg.c **** ********************************************************************************
 182:Generated_Source\PSoC4/cyfitter_cfg.c **** *
 183:Generated_Source\PSoC4/cyfitter_cfg.c **** * Summary:
 184:Generated_Source\PSoC4/cyfitter_cfg.c **** *   Performs the initialization of all of the clocks in the device based on the
 185:Generated_Source\PSoC4/cyfitter_cfg.c **** *   settings in the Clock tab of the DWR.  This includes enabling the requested
 186:Generated_Source\PSoC4/cyfitter_cfg.c **** *   clocks and setting the necessary dividers to produce the desired frequency. 
 187:Generated_Source\PSoC4/cyfitter_cfg.c **** *
 188:Generated_Source\PSoC4/cyfitter_cfg.c **** * Parameters:
 189:Generated_Source\PSoC4/cyfitter_cfg.c **** *   void
 190:Generated_Source\PSoC4/cyfitter_cfg.c **** *
 191:Generated_Source\PSoC4/cyfitter_cfg.c **** * Return:
 192:Generated_Source\PSoC4/cyfitter_cfg.c **** *   void
 193:Generated_Source\PSoC4/cyfitter_cfg.c **** *
 194:Generated_Source\PSoC4/cyfitter_cfg.c **** *******************************************************************************/
 195:Generated_Source\PSoC4/cyfitter_cfg.c **** static void ClockSetup(void);
 196:Generated_Source\PSoC4/cyfitter_cfg.c **** CY_CFG_SECTION
 197:Generated_Source\PSoC4/cyfitter_cfg.c **** static void ClockSetup(void)
 198:Generated_Source\PSoC4/cyfitter_cfg.c **** {
 232              		.loc 1 198 0
 233              		.cfi_startproc
 234 0000 80B5     		push	{r7, lr}
 235              		.cfi_def_cfa_offset 8
 236              		.cfi_offset 7, -8
 237              		.cfi_offset 14, -4
 238 0002 00AF     		add	r7, sp, #0
 239              		.cfi_def_cfa_register 7
 199:Generated_Source\PSoC4/cyfitter_cfg.c **** 
 200:Generated_Source\PSoC4/cyfitter_cfg.c **** 	/* Set Flash Cycles based on max possible frequency in case a glitch occurs during ClockSetup(). *
 201:Generated_Source\PSoC4/cyfitter_cfg.c **** 	CY_SET_REG32((void CYXDATA *)(CYREG_CPUSS_FLASH_CTL), (0x0012u));
 240              		.loc 1 201 0
 241 0004 364B     		ldr	r3, .L10
 242 0006 1222     		mov	r2, #18
 243 0008 1A60     		str	r2, [r3]
 202:Generated_Source\PSoC4/cyfitter_cfg.c **** 
 203:Generated_Source\PSoC4/cyfitter_cfg.c **** 	/* Start the WCO */
 204:Generated_Source\PSoC4/cyfitter_cfg.c **** 	CySysClkWcoStart();
 244              		.loc 1 204 0
 245 000a FFF7FEFF 		bl	CySysClkWcoStart
 205:Generated_Source\PSoC4/cyfitter_cfg.c **** 	CyDelayCycles(12000000u); /* WCO may take up to 500ms to start */
 246              		.loc 1 205 0
 247 000e 354B     		ldr	r3, .L10+4
 248 0010 181C     		mov	r0, r3
ARM GAS  C:\Users\Sarah\AppData\Local\Temp\ccdFBtQV.s 			page 9


 249 0012 FFF7FEFF 		bl	CyDelayCycles
 206:Generated_Source\PSoC4/cyfitter_cfg.c **** 	(void)CySysClkWcoSetPowerMode(CY_SYS_CLK_WCO_LPM);    /* Switch to the low power mode */
 250              		.loc 1 206 0
 251 0016 0120     		mov	r0, #1
 252 0018 FFF7FEFF 		bl	CySysClkWcoSetPowerMode
 207:Generated_Source\PSoC4/cyfitter_cfg.c **** 
 208:Generated_Source\PSoC4/cyfitter_cfg.c **** 	/* Setup and trim IMO based on desired frequency. */
 209:Generated_Source\PSoC4/cyfitter_cfg.c **** 	CySysClkWriteImoFreq(48u);
 253              		.loc 1 209 0
 254 001c 3020     		mov	r0, #48
 255 001e FFF7FEFF 		bl	CySysClkWriteImoFreq
 210:Generated_Source\PSoC4/cyfitter_cfg.c **** 	/* CYDEV_CLK_ILO_CONFIG Starting address: CYDEV_CLK_ILO_CONFIG */
 211:Generated_Source\PSoC4/cyfitter_cfg.c **** 	CY_SET_XTND_REG32((void CYFAR *)(CYREG_CLK_ILO_CONFIG), 0x80000006u);
 256              		.loc 1 211 0
 257 0022 314B     		ldr	r3, .L10+8
 258 0024 314A     		ldr	r2, .L10+12
 259 0026 1A60     		str	r2, [r3]
 212:Generated_Source\PSoC4/cyfitter_cfg.c **** 
 213:Generated_Source\PSoC4/cyfitter_cfg.c **** 	/* CYDEV_WDT_CONFIG Starting address: CYDEV_WDT_CONFIG */
 214:Generated_Source\PSoC4/cyfitter_cfg.c **** 	CY_SET_XTND_REG32((void CYFAR *)(CYREG_WDT_CONFIG), 0x40000000u);
 260              		.loc 1 214 0
 261 0028 314B     		ldr	r3, .L10+16
 262 002a 8022     		mov	r2, #128
 263 002c D205     		lsl	r2, r2, #23
 264 002e 1A60     		str	r2, [r3]
 215:Generated_Source\PSoC4/cyfitter_cfg.c **** 
 216:Generated_Source\PSoC4/cyfitter_cfg.c **** 
 217:Generated_Source\PSoC4/cyfitter_cfg.c **** 	/* Enable fast start mode for XO */
 218:Generated_Source\PSoC4/cyfitter_cfg.c **** 	CY_SET_REG32((void*)CYREG_BLE_BLERD_BB_XO, CY_GET_REG32((void*)CYREG_BLE_BLERD_BB_XO) | (uint32)0x
 265              		.loc 1 218 0
 266 0030 304B     		ldr	r3, .L10+20
 267 0032 304A     		ldr	r2, .L10+20
 268 0034 1268     		ldr	r2, [r2]
 269 0036 0221     		mov	r1, #2
 270 0038 0A43     		orr	r2, r1
 271 003a 1A60     		str	r2, [r3]
 219:Generated_Source\PSoC4/cyfitter_cfg.c **** 	CY_SET_XTND_REG32((void CYFAR *)(CYREG_BLE_BLERD_BB_XO_CAPTRIM), 0x00003E2Du);
 272              		.loc 1 219 0
 273 003c 2E4B     		ldr	r3, .L10+24
 274 003e 2F4A     		ldr	r2, .L10+28
 275 0040 1A60     		str	r2, [r3]
 220:Generated_Source\PSoC4/cyfitter_cfg.c **** 	/*Set XTAL(ECO) divider*/
 221:Generated_Source\PSoC4/cyfitter_cfg.c **** 	CY_SET_XTND_REG32((void CYFAR *)(CYREG_BLE_BLESS_XTAL_CLK_DIV_CONFIG), 0x00000000u);
 276              		.loc 1 221 0
 277 0042 2F4B     		ldr	r3, .L10+32
 278 0044 0022     		mov	r2, #0
 279 0046 1A60     		str	r2, [r3]
 222:Generated_Source\PSoC4/cyfitter_cfg.c **** 	/* Disable Crystal Stable Interrupt before enabling ECO */
 223:Generated_Source\PSoC4/cyfitter_cfg.c **** 	CY_SET_REG32((void*)CYREG_BLE_BLESS_LL_DSM_CTRL, CY_GET_REG32((void*)CYREG_BLE_BLESS_LL_DSM_CTRL) 
 280              		.loc 1 223 0
 281 0048 2E4B     		ldr	r3, .L10+36
 282 004a 2E4A     		ldr	r2, .L10+36
 283 004c 1268     		ldr	r2, [r2]
 284 004e 0821     		mov	r1, #8
 285 0050 8A43     		bic	r2, r1
 286 0052 1A60     		str	r2, [r3]
 224:Generated_Source\PSoC4/cyfitter_cfg.c **** 	/* Start the ECO and do not check status since it is not needed for HFCLK */
ARM GAS  C:\Users\Sarah\AppData\Local\Temp\ccdFBtQV.s 			page 10


 225:Generated_Source\PSoC4/cyfitter_cfg.c **** 	(void)CySysClkEcoStart(2000u);
 287              		.loc 1 225 0
 288 0054 FA23     		mov	r3, #250
 289 0056 DB00     		lsl	r3, r3, #3
 290 0058 181C     		mov	r0, r3
 291 005a FFF7FEFF 		bl	CySysClkEcoStart
 226:Generated_Source\PSoC4/cyfitter_cfg.c **** 	CyDelayUs(1500u); /* Wait to stabalize */
 292              		.loc 1 226 0
 293 005e 2A4B     		ldr	r3, .L10+40
 294 0060 181C     		mov	r0, r3
 295 0062 FFF7FEFF 		bl	CyDelayUs
 227:Generated_Source\PSoC4/cyfitter_cfg.c **** 
 228:Generated_Source\PSoC4/cyfitter_cfg.c **** 	/* Setup phase aligned clocks */
 229:Generated_Source\PSoC4/cyfitter_cfg.c **** 	CY_SET_REG32((void *)CYREG_PERI_DIV_16_CTL1, 0x00005D00u);
 296              		.loc 1 229 0
 297 0066 294B     		ldr	r3, .L10+44
 298 0068 BA22     		mov	r2, #186
 299 006a D201     		lsl	r2, r2, #7
 300 006c 1A60     		str	r2, [r3]
 230:Generated_Source\PSoC4/cyfitter_cfg.c **** 	CY_SET_REG32((void *)CYREG_PERI_DIV_CMD, 0x8000FF41u);
 301              		.loc 1 230 0
 302 006e 284B     		ldr	r3, .L10+48
 303 0070 284A     		ldr	r2, .L10+52
 304 0072 1A60     		str	r2, [r3]
 231:Generated_Source\PSoC4/cyfitter_cfg.c **** 	CY_SET_REG32((void *)CYREG_PERI_DIV_16_CTL3, 0x0005DB00u);
 305              		.loc 1 231 0
 306 0074 284B     		ldr	r3, .L10+56
 307 0076 294A     		ldr	r2, .L10+60
 308 0078 1A60     		str	r2, [r3]
 232:Generated_Source\PSoC4/cyfitter_cfg.c **** 	CY_SET_REG32((void *)CYREG_PERI_DIV_CMD, 0x8000FF43u);
 309              		.loc 1 232 0
 310 007a 254B     		ldr	r3, .L10+48
 311 007c 284A     		ldr	r2, .L10+64
 312 007e 1A60     		str	r2, [r3]
 233:Generated_Source\PSoC4/cyfitter_cfg.c **** 	CY_SET_REG32((void *)CYREG_PERI_DIV_16_CTL2, 0x00006300u);
 313              		.loc 1 233 0
 314 0080 284B     		ldr	r3, .L10+68
 315 0082 C622     		mov	r2, #198
 316 0084 D201     		lsl	r2, r2, #7
 317 0086 1A60     		str	r2, [r3]
 234:Generated_Source\PSoC4/cyfitter_cfg.c **** 	CY_SET_REG32((void *)CYREG_PERI_DIV_CMD, 0x8000FF42u);
 318              		.loc 1 234 0
 319 0088 214B     		ldr	r3, .L10+48
 320 008a 274A     		ldr	r2, .L10+72
 321 008c 1A60     		str	r2, [r3]
 235:Generated_Source\PSoC4/cyfitter_cfg.c **** 	CY_SET_REG32((void *)CYREG_PERI_DIV_16_CTL0, 0x00000A00u);
 322              		.loc 1 235 0
 323 008e 274B     		ldr	r3, .L10+76
 324 0090 A022     		mov	r2, #160
 325 0092 1201     		lsl	r2, r2, #4
 326 0094 1A60     		str	r2, [r3]
 236:Generated_Source\PSoC4/cyfitter_cfg.c **** 	CY_SET_REG32((void *)CYREG_PERI_DIV_CMD, 0x8000FF40u);
 327              		.loc 1 236 0
 328 0096 1E4B     		ldr	r3, .L10+48
 329 0098 254A     		ldr	r2, .L10+80
 330 009a 1A60     		str	r2, [r3]
 237:Generated_Source\PSoC4/cyfitter_cfg.c **** 
ARM GAS  C:\Users\Sarah\AppData\Local\Temp\ccdFBtQV.s 			page 11


 238:Generated_Source\PSoC4/cyfitter_cfg.c **** 	/* CYDEV_CLK_IMO_CONFIG Starting address: CYDEV_CLK_IMO_CONFIG */
 239:Generated_Source\PSoC4/cyfitter_cfg.c **** 	CY_SET_XTND_REG32((void CYFAR *)(CYREG_CLK_IMO_CONFIG), 0x82000000u);
 331              		.loc 1 239 0
 332 009c 254B     		ldr	r3, .L10+84
 333 009e 8222     		mov	r2, #130
 334 00a0 1206     		lsl	r2, r2, #24
 335 00a2 1A60     		str	r2, [r3]
 240:Generated_Source\PSoC4/cyfitter_cfg.c **** 
 241:Generated_Source\PSoC4/cyfitter_cfg.c **** 	/* CYDEV_CLK_SELECT Starting address: CYDEV_CLK_SELECT */
 242:Generated_Source\PSoC4/cyfitter_cfg.c **** 	CY_SET_XTND_REG32((void CYFAR *)(CYREG_CLK_SELECT), 0x00040000u);
 336              		.loc 1 242 0
 337 00a4 244B     		ldr	r3, .L10+88
 338 00a6 8022     		mov	r2, #128
 339 00a8 D202     		lsl	r2, r2, #11
 340 00aa 1A60     		str	r2, [r3]
 243:Generated_Source\PSoC4/cyfitter_cfg.c **** 
 244:Generated_Source\PSoC4/cyfitter_cfg.c **** 	/* CYDEV_PERI_PCLK_CTL11 Starting address: CYDEV_PERI_PCLK_CTL11 */
 245:Generated_Source\PSoC4/cyfitter_cfg.c **** 	CY_SET_XTND_REG32((void CYFAR *)(CYREG_PERI_PCLK_CTL11), 0x00000041u);
 341              		.loc 1 245 0
 342 00ac 234B     		ldr	r3, .L10+92
 343 00ae 4122     		mov	r2, #65
 344 00b0 1A60     		str	r2, [r3]
 246:Generated_Source\PSoC4/cyfitter_cfg.c **** 
 247:Generated_Source\PSoC4/cyfitter_cfg.c **** 	/* CYDEV_PERI_PCLK_CTL8 Starting address: CYDEV_PERI_PCLK_CTL8 */
 248:Generated_Source\PSoC4/cyfitter_cfg.c **** 	CY_SET_XTND_REG32((void CYFAR *)(CYREG_PERI_PCLK_CTL8), 0x00000043u);
 345              		.loc 1 248 0
 346 00b2 234B     		ldr	r3, .L10+96
 347 00b4 4322     		mov	r2, #67
 348 00b6 1A60     		str	r2, [r3]
 249:Generated_Source\PSoC4/cyfitter_cfg.c **** 
 250:Generated_Source\PSoC4/cyfitter_cfg.c **** 	/* CYDEV_PERI_PCLK_CTL7 Starting address: CYDEV_PERI_PCLK_CTL7 */
 251:Generated_Source\PSoC4/cyfitter_cfg.c **** 	CY_SET_XTND_REG32((void CYFAR *)(CYREG_PERI_PCLK_CTL7), 0x00000042u);
 349              		.loc 1 251 0
 350 00b8 224B     		ldr	r3, .L10+100
 351 00ba 4222     		mov	r2, #66
 352 00bc 1A60     		str	r2, [r3]
 252:Generated_Source\PSoC4/cyfitter_cfg.c **** 
 253:Generated_Source\PSoC4/cyfitter_cfg.c **** 	/* CYDEV_PERI_PCLK_CTL6 Starting address: CYDEV_PERI_PCLK_CTL6 */
 254:Generated_Source\PSoC4/cyfitter_cfg.c **** 	CY_SET_XTND_REG32((void CYFAR *)(CYREG_PERI_PCLK_CTL6), 0x00000040u);
 353              		.loc 1 254 0
 354 00be 224B     		ldr	r3, .L10+104
 355 00c0 4022     		mov	r2, #64
 356 00c2 1A60     		str	r2, [r3]
 255:Generated_Source\PSoC4/cyfitter_cfg.c **** 
 256:Generated_Source\PSoC4/cyfitter_cfg.c **** 	(void)CyIntSetVector(8u, &CySysWdtIsr);
 357              		.loc 1 256 0
 358 00c4 214B     		ldr	r3, .L10+108
 359 00c6 0820     		mov	r0, #8
 360 00c8 191C     		mov	r1, r3
 361 00ca FFF7FEFF 		bl	CyIntSetVector
 257:Generated_Source\PSoC4/cyfitter_cfg.c **** 	CyIntEnable(8u);
 362              		.loc 1 257 0
 363 00ce 0820     		mov	r0, #8
 364 00d0 FFF7FEFF 		bl	CyIntEnable
 258:Generated_Source\PSoC4/cyfitter_cfg.c **** 	CY_SET_XTND_REG32((void CYFAR *)(CYREG_WDT_CONFIG), 0x40000000u);
 365              		.loc 1 258 0
 366 00d4 064B     		ldr	r3, .L10+16
ARM GAS  C:\Users\Sarah\AppData\Local\Temp\ccdFBtQV.s 			page 12


 367 00d6 8022     		mov	r2, #128
 368 00d8 D205     		lsl	r2, r2, #23
 369 00da 1A60     		str	r2, [r3]
 259:Generated_Source\PSoC4/cyfitter_cfg.c **** }
 370              		.loc 1 259 0
 371 00dc BD46     		mov	sp, r7
 372              		@ sp needed
 373 00de 80BD     		pop	{r7, pc}
 374              	.L11:
 375              		.align	2
 376              	.L10:
 377 00e0 30001040 		.word	1074790448
 378 00e4 001BB700 		.word	12000000
 379 00e8 04010B40 		.word	1074462980
 380 00ec 06000080 		.word	-2147483642
 381 00f0 0C020B40 		.word	1074463244
 382 00f4 78002E40 		.word	1076756600
 383 00f8 7C002E40 		.word	1076756604
 384 00fc 2D3E0000 		.word	15917
 385 0100 64F02E40 		.word	1076818020
 386 0104 6CF02E40 		.word	1076818028
 387 0108 DC050000 		.word	1500
 388 010c 04030140 		.word	1073808132
 389 0110 00000140 		.word	1073807360
 390 0114 41FF0080 		.word	-2147418303
 391 0118 0C030140 		.word	1073808140
 392 011c 00DB0500 		.word	383744
 393 0120 43FF0080 		.word	-2147418301
 394 0124 08030140 		.word	1073808136
 395 0128 42FF0080 		.word	-2147418302
 396 012c 00030140 		.word	1073808128
 397 0130 40FF0080 		.word	-2147418304
 398 0134 08010B40 		.word	1074462984
 399 0138 00010B40 		.word	1074462976
 400 013c 2C010140 		.word	1073807660
 401 0140 20010140 		.word	1073807648
 402 0144 1C010140 		.word	1073807644
 403 0148 18010140 		.word	1073807640
 404 014c 00000000 		.word	CySysWdtIsr
 405              		.cfi_endproc
 406              	.LFE6:
 407              		.size	ClockSetup, .-ClockSetup
 408              		.section	.text.AnalogSetDefault,"ax",%progbits
 409              		.align	2
 410              		.code	16
 411              		.thumb_func
 412              		.type	AnalogSetDefault, %function
 413              	AnalogSetDefault:
 414              	.LFB7:
 260:Generated_Source\PSoC4/cyfitter_cfg.c **** 
 261:Generated_Source\PSoC4/cyfitter_cfg.c **** 
 262:Generated_Source\PSoC4/cyfitter_cfg.c **** /* Analog API Functions */
 263:Generated_Source\PSoC4/cyfitter_cfg.c **** 
 264:Generated_Source\PSoC4/cyfitter_cfg.c **** 
 265:Generated_Source\PSoC4/cyfitter_cfg.c **** /*******************************************************************************
 266:Generated_Source\PSoC4/cyfitter_cfg.c **** * Function Name: AnalogSetDefault
 267:Generated_Source\PSoC4/cyfitter_cfg.c **** ********************************************************************************
ARM GAS  C:\Users\Sarah\AppData\Local\Temp\ccdFBtQV.s 			page 13


 268:Generated_Source\PSoC4/cyfitter_cfg.c **** *
 269:Generated_Source\PSoC4/cyfitter_cfg.c **** * Summary:
 270:Generated_Source\PSoC4/cyfitter_cfg.c **** *  Sets up the analog portions of the chip to default values based on chip
 271:Generated_Source\PSoC4/cyfitter_cfg.c **** *  configuration options from the project.
 272:Generated_Source\PSoC4/cyfitter_cfg.c **** *
 273:Generated_Source\PSoC4/cyfitter_cfg.c **** * Parameters:
 274:Generated_Source\PSoC4/cyfitter_cfg.c **** *  void
 275:Generated_Source\PSoC4/cyfitter_cfg.c **** *
 276:Generated_Source\PSoC4/cyfitter_cfg.c **** * Return:
 277:Generated_Source\PSoC4/cyfitter_cfg.c **** *  void
 278:Generated_Source\PSoC4/cyfitter_cfg.c **** *
 279:Generated_Source\PSoC4/cyfitter_cfg.c **** *******************************************************************************/
 280:Generated_Source\PSoC4/cyfitter_cfg.c **** static void AnalogSetDefault(void);
 281:Generated_Source\PSoC4/cyfitter_cfg.c **** static void AnalogSetDefault(void)
 282:Generated_Source\PSoC4/cyfitter_cfg.c **** {
 415              		.loc 1 282 0
 416              		.cfi_startproc
 417 0000 80B5     		push	{r7, lr}
 418              		.cfi_def_cfa_offset 8
 419              		.cfi_offset 7, -8
 420              		.cfi_offset 14, -4
 421 0002 00AF     		add	r7, sp, #0
 422              		.cfi_def_cfa_register 7
 283:Generated_Source\PSoC4/cyfitter_cfg.c **** 	CY_SET_XTND_REG32((void CYFAR *)CYREG_CTBM0_DFT_CTRL, 0x00000003u);
 423              		.loc 1 283 0
 424 0004 0A4B     		ldr	r3, .L13
 425 0006 0322     		mov	r2, #3
 426 0008 1A60     		str	r2, [r3]
 284:Generated_Source\PSoC4/cyfitter_cfg.c **** 	CY_SET_XTND_REG32((void CYFAR *)CYREG_CTBM1_DFT_CTRL, 0x00000003u);
 427              		.loc 1 284 0
 428 000a 0A4B     		ldr	r3, .L13+4
 429 000c 0322     		mov	r2, #3
 430 000e 1A60     		str	r2, [r3]
 285:Generated_Source\PSoC4/cyfitter_cfg.c **** 	CY_SET_XTND_REG32((void CYFAR *)CYREG_SAR_CTRL, 0x80000000u);
 431              		.loc 1 285 0
 432 0010 094B     		ldr	r3, .L13+8
 433 0012 8022     		mov	r2, #128
 434 0014 1206     		lsl	r2, r2, #24
 435 0016 1A60     		str	r2, [r3]
 286:Generated_Source\PSoC4/cyfitter_cfg.c **** 	CY_SET_XTND_REG32((void CYFAR *)CYREG_SAR_MUX_SWITCH0, 0x00000010u);
 436              		.loc 1 286 0
 437 0018 084B     		ldr	r3, .L13+12
 438 001a 1022     		mov	r2, #16
 439 001c 1A60     		str	r2, [r3]
 287:Generated_Source\PSoC4/cyfitter_cfg.c **** 	CY_SET_XTND_REG32((void CYFAR *)CYREG_PASS_DSAB_DSAB_CTRL, 0x00000000u);
 440              		.loc 1 287 0
 441 001e 084B     		ldr	r3, .L13+16
 442 0020 0022     		mov	r2, #0
 443 0022 1A60     		str	r2, [r3]
 288:Generated_Source\PSoC4/cyfitter_cfg.c **** 	SetAnalogRoutingPumps(1);
 444              		.loc 1 288 0
 445 0024 0120     		mov	r0, #1
 446 0026 FFF7FEFF 		bl	SetAnalogRoutingPumps
 289:Generated_Source\PSoC4/cyfitter_cfg.c **** }
 447              		.loc 1 289 0
 448 002a BD46     		mov	sp, r7
 449              		@ sp needed
ARM GAS  C:\Users\Sarah\AppData\Local\Temp\ccdFBtQV.s 			page 14


 450 002c 80BD     		pop	{r7, pc}
 451              	.L14:
 452 002e C046     		.align	2
 453              	.L13:
 454 0030 30003040 		.word	1076887600
 455 0034 30003140 		.word	1076953136
 456 0038 00003A40 		.word	1077542912
 457 003c 00033A40 		.word	1077543680
 458 0040 000E3F40 		.word	1077874176
 459              		.cfi_endproc
 460              	.LFE7:
 461              		.size	AnalogSetDefault, .-AnalogSetDefault
 462              		.section	.text.SetAnalogRoutingPumps,"ax",%progbits
 463              		.align	2
 464              		.global	SetAnalogRoutingPumps
 465              		.code	16
 466              		.thumb_func
 467              		.type	SetAnalogRoutingPumps, %function
 468              	SetAnalogRoutingPumps:
 469              	.LFB8:
 290:Generated_Source\PSoC4/cyfitter_cfg.c **** 
 291:Generated_Source\PSoC4/cyfitter_cfg.c **** 
 292:Generated_Source\PSoC4/cyfitter_cfg.c **** /*******************************************************************************
 293:Generated_Source\PSoC4/cyfitter_cfg.c **** * Function Name: SetAnalogRoutingPumps
 294:Generated_Source\PSoC4/cyfitter_cfg.c **** ********************************************************************************
 295:Generated_Source\PSoC4/cyfitter_cfg.c **** *
 296:Generated_Source\PSoC4/cyfitter_cfg.c **** * Summary:
 297:Generated_Source\PSoC4/cyfitter_cfg.c **** * Enables or disables the analog pumps feeding analog routing switches.
 298:Generated_Source\PSoC4/cyfitter_cfg.c **** * Intended to be called at startup, based on the Vdda system configuration;
 299:Generated_Source\PSoC4/cyfitter_cfg.c **** * may be called during operation when the user informs us that the Vdda voltage crossed the pump th
 300:Generated_Source\PSoC4/cyfitter_cfg.c **** *
 301:Generated_Source\PSoC4/cyfitter_cfg.c **** * Parameters:
 302:Generated_Source\PSoC4/cyfitter_cfg.c **** *  enabled - 1 to enable the pumps, 0 to disable the pumps
 303:Generated_Source\PSoC4/cyfitter_cfg.c **** *
 304:Generated_Source\PSoC4/cyfitter_cfg.c **** * Return:
 305:Generated_Source\PSoC4/cyfitter_cfg.c **** *  void
 306:Generated_Source\PSoC4/cyfitter_cfg.c **** *
 307:Generated_Source\PSoC4/cyfitter_cfg.c **** *******************************************************************************/
 308:Generated_Source\PSoC4/cyfitter_cfg.c **** void SetAnalogRoutingPumps(uint8 enabled)
 309:Generated_Source\PSoC4/cyfitter_cfg.c **** {
 470              		.loc 1 309 0
 471              		.cfi_startproc
 472 0000 80B5     		push	{r7, lr}
 473              		.cfi_def_cfa_offset 8
 474              		.cfi_offset 7, -8
 475              		.cfi_offset 14, -4
 476 0002 84B0     		sub	sp, sp, #16
 477              		.cfi_def_cfa_offset 24
 478 0004 00AF     		add	r7, sp, #0
 479              		.cfi_def_cfa_register 7
 480 0006 021C     		mov	r2, r0
 481 0008 FB1D     		add	r3, r7, #7
 482 000a 1A70     		strb	r2, [r3]
 310:Generated_Source\PSoC4/cyfitter_cfg.c **** 	uint32 regValue = CY_GET_XTND_REG32((void *)(CYREG_SAR_PUMP_CTRL));
 483              		.loc 1 310 0
 484 000c 0B4B     		ldr	r3, .L18
 485 000e 1B68     		ldr	r3, [r3]
ARM GAS  C:\Users\Sarah\AppData\Local\Temp\ccdFBtQV.s 			page 15


 486 0010 FB60     		str	r3, [r7, #12]
 311:Generated_Source\PSoC4/cyfitter_cfg.c **** 	if (enabled != 0u)
 487              		.loc 1 311 0
 488 0012 FB1D     		add	r3, r7, #7
 489 0014 1B78     		ldrb	r3, [r3]
 490 0016 002B     		cmp	r3, #0
 491 0018 05D0     		beq	.L16
 312:Generated_Source\PSoC4/cyfitter_cfg.c **** 	{
 313:Generated_Source\PSoC4/cyfitter_cfg.c **** 		regValue |= 0x80000000u;
 492              		.loc 1 313 0
 493 001a FB68     		ldr	r3, [r7, #12]
 494 001c 8022     		mov	r2, #128
 495 001e 1206     		lsl	r2, r2, #24
 496 0020 1343     		orr	r3, r2
 497 0022 FB60     		str	r3, [r7, #12]
 498 0024 03E0     		b	.L17
 499              	.L16:
 314:Generated_Source\PSoC4/cyfitter_cfg.c **** 	}
 315:Generated_Source\PSoC4/cyfitter_cfg.c **** 	else
 316:Generated_Source\PSoC4/cyfitter_cfg.c **** 	{
 317:Generated_Source\PSoC4/cyfitter_cfg.c **** 		regValue &= ~0x80000000u;
 500              		.loc 1 317 0
 501 0026 FB68     		ldr	r3, [r7, #12]
 502 0028 5B00     		lsl	r3, r3, #1
 503 002a 5B08     		lsr	r3, r3, #1
 504 002c FB60     		str	r3, [r7, #12]
 505              	.L17:
 318:Generated_Source\PSoC4/cyfitter_cfg.c **** 	}
 319:Generated_Source\PSoC4/cyfitter_cfg.c **** 	CY_SET_XTND_REG32((void *)(CYREG_SAR_PUMP_CTRL), regValue);
 506              		.loc 1 319 0
 507 002e 034B     		ldr	r3, .L18
 508 0030 FA68     		ldr	r2, [r7, #12]
 509 0032 1A60     		str	r2, [r3]
 320:Generated_Source\PSoC4/cyfitter_cfg.c **** }
 510              		.loc 1 320 0
 511 0034 BD46     		mov	sp, r7
 512 0036 04B0     		add	sp, sp, #16
 513              		@ sp needed
 514 0038 80BD     		pop	{r7, pc}
 515              	.L19:
 516 003a C046     		.align	2
 517              	.L18:
 518 003c 80033A40 		.word	1077543808
 519              		.cfi_endproc
 520              	.LFE8:
 521              		.size	SetAnalogRoutingPumps, .-SetAnalogRoutingPumps
 522              		.section	.psocinit
 523              		.align	2
 524              		.global	cyfitter_cfg
 525              		.code	16
 526              		.thumb_func
 527              		.type	cyfitter_cfg, %function
 528              	cyfitter_cfg:
 529              	.LFB9:
 321:Generated_Source\PSoC4/cyfitter_cfg.c **** 
 322:Generated_Source\PSoC4/cyfitter_cfg.c **** #define CY_AMUX_UNUSED CYREG_CM0_ROM_DWT
 323:Generated_Source\PSoC4/cyfitter_cfg.c **** 
ARM GAS  C:\Users\Sarah\AppData\Local\Temp\ccdFBtQV.s 			page 16


 324:Generated_Source\PSoC4/cyfitter_cfg.c **** 
 325:Generated_Source\PSoC4/cyfitter_cfg.c **** /*******************************************************************************
 326:Generated_Source\PSoC4/cyfitter_cfg.c **** * Function Name: cyfitter_cfg
 327:Generated_Source\PSoC4/cyfitter_cfg.c **** ********************************************************************************
 328:Generated_Source\PSoC4/cyfitter_cfg.c **** * Summary:
 329:Generated_Source\PSoC4/cyfitter_cfg.c **** *  This function is called by the start-up code for the selected device. It
 330:Generated_Source\PSoC4/cyfitter_cfg.c **** *  performs all of the necessary device configuration based on the design
 331:Generated_Source\PSoC4/cyfitter_cfg.c **** *  settings.  This includes settings from the Design Wide Resources (DWR) such
 332:Generated_Source\PSoC4/cyfitter_cfg.c **** *  as Clocks and Pins as well as any component configuration that is necessary.
 333:Generated_Source\PSoC4/cyfitter_cfg.c **** *
 334:Generated_Source\PSoC4/cyfitter_cfg.c **** * Parameters:  
 335:Generated_Source\PSoC4/cyfitter_cfg.c **** *   void
 336:Generated_Source\PSoC4/cyfitter_cfg.c **** *
 337:Generated_Source\PSoC4/cyfitter_cfg.c **** * Return:
 338:Generated_Source\PSoC4/cyfitter_cfg.c **** *   void
 339:Generated_Source\PSoC4/cyfitter_cfg.c **** *
 340:Generated_Source\PSoC4/cyfitter_cfg.c **** *******************************************************************************/
 341:Generated_Source\PSoC4/cyfitter_cfg.c **** CY_CFG_SECTION
 342:Generated_Source\PSoC4/cyfitter_cfg.c **** void cyfitter_cfg(void)
 343:Generated_Source\PSoC4/cyfitter_cfg.c **** {
 530              		.loc 1 343 0
 531              		.cfi_startproc
 532 0150 80B5     		push	{r7, lr}
 533              		.cfi_def_cfa_offset 8
 534              		.cfi_offset 7, -8
 535              		.cfi_offset 14, -4
 536 0152 82B0     		sub	sp, sp, #8
 537              		.cfi_def_cfa_offset 16
 538 0154 00AF     		add	r7, sp, #0
 539              		.cfi_def_cfa_register 7
 344:Generated_Source\PSoC4/cyfitter_cfg.c **** 	/* Disable interrupts by default. Let user enable if/when they want. */
 345:Generated_Source\PSoC4/cyfitter_cfg.c **** 	CyGlobalIntDisable;
 540              		.loc 1 345 0
 541              	@ 345 "Generated_Source\PSoC4\cyfitter_cfg.c" 1
 542 0156 72B6     		CPSID   i
 543              	@ 0 "" 2
 346:Generated_Source\PSoC4/cyfitter_cfg.c **** 
 347:Generated_Source\PSoC4/cyfitter_cfg.c **** 	CY_SET_XTND_REG32((void CYFAR *)(CYREG_BLE_BLESS_LL_DSM_CTRL), 0x00000000u);
 544              		.loc 1 347 0
 545              		.code	16
 546 0158 464B     		ldr	r3, .L23
 547 015a 0022     		mov	r2, #0
 548 015c 1A60     		str	r2, [r3]
 549              	.LBB3:
 348:Generated_Source\PSoC4/cyfitter_cfg.c **** 
 349:Generated_Source\PSoC4/cyfitter_cfg.c **** 	{
 350:Generated_Source\PSoC4/cyfitter_cfg.c **** 		static const uint32 CYCODE cy_cfg_addr_table[] = {
 351:Generated_Source\PSoC4/cyfitter_cfg.c **** 			0x400F0001u, /* Base address: 0x400F0000 Count: 1 */
 352:Generated_Source\PSoC4/cyfitter_cfg.c **** 			0x400F3063u, /* Base address: 0x400F3000 Count: 99 */
 353:Generated_Source\PSoC4/cyfitter_cfg.c **** 			0x400F3136u, /* Base address: 0x400F3100 Count: 54 */
 354:Generated_Source\PSoC4/cyfitter_cfg.c **** 			0x400F3305u, /* Base address: 0x400F3300 Count: 5 */
 355:Generated_Source\PSoC4/cyfitter_cfg.c **** 			0x400F4007u, /* Base address: 0x400F4000 Count: 7 */
 356:Generated_Source\PSoC4/cyfitter_cfg.c **** 			0x400F4103u, /* Base address: 0x400F4100 Count: 3 */
 357:Generated_Source\PSoC4/cyfitter_cfg.c **** 			0x400F4204u, /* Base address: 0x400F4200 Count: 4 */
 358:Generated_Source\PSoC4/cyfitter_cfg.c **** 			0x400F6002u, /* Base address: 0x400F6000 Count: 2 */
 359:Generated_Source\PSoC4/cyfitter_cfg.c **** 		};
 360:Generated_Source\PSoC4/cyfitter_cfg.c **** 
ARM GAS  C:\Users\Sarah\AppData\Local\Temp\ccdFBtQV.s 			page 17


 361:Generated_Source\PSoC4/cyfitter_cfg.c **** 		static const cy_cfg_addrvalue_t CYCODE cy_cfg_data_table[] = {
 362:Generated_Source\PSoC4/cyfitter_cfg.c **** 			{0x80u, 0x7Fu},
 363:Generated_Source\PSoC4/cyfitter_cfg.c **** 			{0x00u, 0x08u},
 364:Generated_Source\PSoC4/cyfitter_cfg.c **** 			{0x02u, 0xC0u},
 365:Generated_Source\PSoC4/cyfitter_cfg.c **** 			{0x03u, 0x63u},
 366:Generated_Source\PSoC4/cyfitter_cfg.c **** 			{0x06u, 0x3Fu},
 367:Generated_Source\PSoC4/cyfitter_cfg.c **** 			{0x07u, 0x63u},
 368:Generated_Source\PSoC4/cyfitter_cfg.c **** 			{0x09u, 0x63u},
 369:Generated_Source\PSoC4/cyfitter_cfg.c **** 			{0x0Au, 0x40u},
 370:Generated_Source\PSoC4/cyfitter_cfg.c **** 			{0x0Cu, 0x80u},
 371:Generated_Source\PSoC4/cyfitter_cfg.c **** 			{0x0Eu, 0x40u},
 372:Generated_Source\PSoC4/cyfitter_cfg.c **** 			{0x10u, 0xFFu},
 373:Generated_Source\PSoC4/cyfitter_cfg.c **** 			{0x11u, 0x60u},
 374:Generated_Source\PSoC4/cyfitter_cfg.c **** 			{0x13u, 0x90u},
 375:Generated_Source\PSoC4/cyfitter_cfg.c **** 			{0x14u, 0x01u},
 376:Generated_Source\PSoC4/cyfitter_cfg.c **** 			{0x15u, 0xE8u},
 377:Generated_Source\PSoC4/cyfitter_cfg.c **** 			{0x16u, 0xC0u},
 378:Generated_Source\PSoC4/cyfitter_cfg.c **** 			{0x17u, 0x04u},
 379:Generated_Source\PSoC4/cyfitter_cfg.c **** 			{0x18u, 0x02u},
 380:Generated_Source\PSoC4/cyfitter_cfg.c **** 			{0x1Au, 0xC0u},
 381:Generated_Source\PSoC4/cyfitter_cfg.c **** 			{0x1Cu, 0x04u},
 382:Generated_Source\PSoC4/cyfitter_cfg.c **** 			{0x1Du, 0x67u},
 383:Generated_Source\PSoC4/cyfitter_cfg.c **** 			{0x1Eu, 0xC0u},
 384:Generated_Source\PSoC4/cyfitter_cfg.c **** 			{0x1Fu, 0x88u},
 385:Generated_Source\PSoC4/cyfitter_cfg.c **** 			{0x23u, 0xFFu},
 386:Generated_Source\PSoC4/cyfitter_cfg.c **** 			{0x24u, 0x10u},
 387:Generated_Source\PSoC4/cyfitter_cfg.c **** 			{0x25u, 0x21u},
 388:Generated_Source\PSoC4/cyfitter_cfg.c **** 			{0x26u, 0xC0u},
 389:Generated_Source\PSoC4/cyfitter_cfg.c **** 			{0x27u, 0x42u},
 390:Generated_Source\PSoC4/cyfitter_cfg.c **** 			{0x28u, 0xC0u},
 391:Generated_Source\PSoC4/cyfitter_cfg.c **** 			{0x2Au, 0x20u},
 392:Generated_Source\PSoC4/cyfitter_cfg.c **** 			{0x2Du, 0x42u},
 393:Generated_Source\PSoC4/cyfitter_cfg.c **** 			{0x2Eu, 0xBFu},
 394:Generated_Source\PSoC4/cyfitter_cfg.c **** 			{0x2Fu, 0x21u},
 395:Generated_Source\PSoC4/cyfitter_cfg.c **** 			{0x30u, 0xFFu},
 396:Generated_Source\PSoC4/cyfitter_cfg.c **** 			{0x31u, 0x1Fu},
 397:Generated_Source\PSoC4/cyfitter_cfg.c **** 			{0x33u, 0xE0u},
 398:Generated_Source\PSoC4/cyfitter_cfg.c **** 			{0x37u, 0x80u},
 399:Generated_Source\PSoC4/cyfitter_cfg.c **** 			{0x39u, 0x02u},
 400:Generated_Source\PSoC4/cyfitter_cfg.c **** 			{0x56u, 0x02u},
 401:Generated_Source\PSoC4/cyfitter_cfg.c **** 			{0x57u, 0x24u},
 402:Generated_Source\PSoC4/cyfitter_cfg.c **** 			{0x58u, 0x04u},
 403:Generated_Source\PSoC4/cyfitter_cfg.c **** 			{0x59u, 0x04u},
 404:Generated_Source\PSoC4/cyfitter_cfg.c **** 			{0x5Bu, 0x04u},
 405:Generated_Source\PSoC4/cyfitter_cfg.c **** 			{0x5Fu, 0x01u},
 406:Generated_Source\PSoC4/cyfitter_cfg.c **** 			{0x82u, 0x20u},
 407:Generated_Source\PSoC4/cyfitter_cfg.c **** 			{0x84u, 0x08u},
 408:Generated_Source\PSoC4/cyfitter_cfg.c **** 			{0x86u, 0x10u},
 409:Generated_Source\PSoC4/cyfitter_cfg.c **** 			{0x8Au, 0x40u},
 410:Generated_Source\PSoC4/cyfitter_cfg.c **** 			{0x8Eu, 0x08u},
 411:Generated_Source\PSoC4/cyfitter_cfg.c **** 			{0x90u, 0x10u},
 412:Generated_Source\PSoC4/cyfitter_cfg.c **** 			{0x92u, 0x08u},
 413:Generated_Source\PSoC4/cyfitter_cfg.c **** 			{0x96u, 0x05u},
 414:Generated_Source\PSoC4/cyfitter_cfg.c **** 			{0x99u, 0x01u},
 415:Generated_Source\PSoC4/cyfitter_cfg.c **** 			{0x9Au, 0x05u},
 416:Generated_Source\PSoC4/cyfitter_cfg.c **** 			{0x9Eu, 0x02u},
 417:Generated_Source\PSoC4/cyfitter_cfg.c **** 			{0xA0u, 0x20u},
ARM GAS  C:\Users\Sarah\AppData\Local\Temp\ccdFBtQV.s 			page 18


 418:Generated_Source\PSoC4/cyfitter_cfg.c **** 			{0xA2u, 0x40u},
 419:Generated_Source\PSoC4/cyfitter_cfg.c **** 			{0xA5u, 0x02u},
 420:Generated_Source\PSoC4/cyfitter_cfg.c **** 			{0xA6u, 0x03u},
 421:Generated_Source\PSoC4/cyfitter_cfg.c **** 			{0xA9u, 0x01u},
 422:Generated_Source\PSoC4/cyfitter_cfg.c **** 			{0xB0u, 0x04u},
 423:Generated_Source\PSoC4/cyfitter_cfg.c **** 			{0xB2u, 0x18u},
 424:Generated_Source\PSoC4/cyfitter_cfg.c **** 			{0xB3u, 0x02u},
 425:Generated_Source\PSoC4/cyfitter_cfg.c **** 			{0xB4u, 0x60u},
 426:Generated_Source\PSoC4/cyfitter_cfg.c **** 			{0xB6u, 0x03u},
 427:Generated_Source\PSoC4/cyfitter_cfg.c **** 			{0xB7u, 0x01u},
 428:Generated_Source\PSoC4/cyfitter_cfg.c **** 			{0xBEu, 0x01u},
 429:Generated_Source\PSoC4/cyfitter_cfg.c **** 			{0xC0u, 0x65u},
 430:Generated_Source\PSoC4/cyfitter_cfg.c **** 			{0xC1u, 0x04u},
 431:Generated_Source\PSoC4/cyfitter_cfg.c **** 			{0xC2u, 0x03u},
 432:Generated_Source\PSoC4/cyfitter_cfg.c **** 			{0xC4u, 0x02u},
 433:Generated_Source\PSoC4/cyfitter_cfg.c **** 			{0xC5u, 0x0Cu},
 434:Generated_Source\PSoC4/cyfitter_cfg.c **** 			{0xC7u, 0x0Eu},
 435:Generated_Source\PSoC4/cyfitter_cfg.c **** 			{0xC8u, 0x11u},
 436:Generated_Source\PSoC4/cyfitter_cfg.c **** 			{0xC9u, 0xFFu},
 437:Generated_Source\PSoC4/cyfitter_cfg.c **** 			{0xCAu, 0xFFu},
 438:Generated_Source\PSoC4/cyfitter_cfg.c **** 			{0xCBu, 0xFFu},
 439:Generated_Source\PSoC4/cyfitter_cfg.c **** 			{0xCCu, 0x02u},
 440:Generated_Source\PSoC4/cyfitter_cfg.c **** 			{0xCDu, 0x20u},
 441:Generated_Source\PSoC4/cyfitter_cfg.c **** 			{0xCFu, 0x05u},
 442:Generated_Source\PSoC4/cyfitter_cfg.c **** 			{0xD0u, 0x04u},
 443:Generated_Source\PSoC4/cyfitter_cfg.c **** 			{0xD2u, 0x06u},
 444:Generated_Source\PSoC4/cyfitter_cfg.c **** 			{0xD4u, 0x01u},
 445:Generated_Source\PSoC4/cyfitter_cfg.c **** 			{0xD8u, 0x04u},
 446:Generated_Source\PSoC4/cyfitter_cfg.c **** 			{0xD9u, 0x04u},
 447:Generated_Source\PSoC4/cyfitter_cfg.c **** 			{0xDAu, 0x04u},
 448:Generated_Source\PSoC4/cyfitter_cfg.c **** 			{0xDBu, 0x04u},
 449:Generated_Source\PSoC4/cyfitter_cfg.c **** 			{0xDFu, 0x01u},
 450:Generated_Source\PSoC4/cyfitter_cfg.c **** 			{0xE2u, 0x40u},
 451:Generated_Source\PSoC4/cyfitter_cfg.c **** 			{0xE3u, 0x01u},
 452:Generated_Source\PSoC4/cyfitter_cfg.c **** 			{0xE4u, 0x40u},
 453:Generated_Source\PSoC4/cyfitter_cfg.c **** 			{0xE5u, 0x01u},
 454:Generated_Source\PSoC4/cyfitter_cfg.c **** 			{0xE6u, 0x50u},
 455:Generated_Source\PSoC4/cyfitter_cfg.c **** 			{0xE7u, 0x01u},
 456:Generated_Source\PSoC4/cyfitter_cfg.c **** 			{0xE8u, 0x40u},
 457:Generated_Source\PSoC4/cyfitter_cfg.c **** 			{0xE9u, 0x01u},
 458:Generated_Source\PSoC4/cyfitter_cfg.c **** 			{0xEAu, 0x70u},
 459:Generated_Source\PSoC4/cyfitter_cfg.c **** 			{0xEBu, 0x10u},
 460:Generated_Source\PSoC4/cyfitter_cfg.c **** 			{0xECu, 0x40u},
 461:Generated_Source\PSoC4/cyfitter_cfg.c **** 			{0xEDu, 0x10u},
 462:Generated_Source\PSoC4/cyfitter_cfg.c **** 			{0x01u, 0x01u},
 463:Generated_Source\PSoC4/cyfitter_cfg.c **** 			{0x03u, 0x25u},
 464:Generated_Source\PSoC4/cyfitter_cfg.c **** 			{0x05u, 0x12u},
 465:Generated_Source\PSoC4/cyfitter_cfg.c **** 			{0x07u, 0x22u},
 466:Generated_Source\PSoC4/cyfitter_cfg.c **** 			{0x0Au, 0x11u},
 467:Generated_Source\PSoC4/cyfitter_cfg.c **** 			{0x0Bu, 0x84u},
 468:Generated_Source\PSoC4/cyfitter_cfg.c **** 			{0x0Eu, 0x22u},
 469:Generated_Source\PSoC4/cyfitter_cfg.c **** 			{0x0Fu, 0x48u},
 470:Generated_Source\PSoC4/cyfitter_cfg.c **** 			{0x11u, 0x14u},
 471:Generated_Source\PSoC4/cyfitter_cfg.c **** 			{0x12u, 0x01u},
 472:Generated_Source\PSoC4/cyfitter_cfg.c **** 			{0x17u, 0x05u},
 473:Generated_Source\PSoC4/cyfitter_cfg.c **** 			{0x19u, 0x01u},
 474:Generated_Source\PSoC4/cyfitter_cfg.c **** 			{0x1Du, 0x38u},
ARM GAS  C:\Users\Sarah\AppData\Local\Temp\ccdFBtQV.s 			page 19


 475:Generated_Source\PSoC4/cyfitter_cfg.c **** 			{0x1Eu, 0xA2u},
 476:Generated_Source\PSoC4/cyfitter_cfg.c **** 			{0x1Fu, 0x40u},
 477:Generated_Source\PSoC4/cyfitter_cfg.c **** 			{0x22u, 0x49u},
 478:Generated_Source\PSoC4/cyfitter_cfg.c **** 			{0x23u, 0x62u},
 479:Generated_Source\PSoC4/cyfitter_cfg.c **** 			{0x25u, 0x40u},
 480:Generated_Source\PSoC4/cyfitter_cfg.c **** 			{0x27u, 0x10u},
 481:Generated_Source\PSoC4/cyfitter_cfg.c **** 			{0x29u, 0x41u},
 482:Generated_Source\PSoC4/cyfitter_cfg.c **** 			{0x2Au, 0x09u},
 483:Generated_Source\PSoC4/cyfitter_cfg.c **** 			{0x2Eu, 0x10u},
 484:Generated_Source\PSoC4/cyfitter_cfg.c **** 			{0x2Fu, 0x20u},
 485:Generated_Source\PSoC4/cyfitter_cfg.c **** 			{0x32u, 0x49u},
 486:Generated_Source\PSoC4/cyfitter_cfg.c **** 			{0x37u, 0x10u},
 487:Generated_Source\PSoC4/cyfitter_cfg.c **** 			{0x39u, 0x15u},
 488:Generated_Source\PSoC4/cyfitter_cfg.c **** 			{0x45u, 0x28u},
 489:Generated_Source\PSoC4/cyfitter_cfg.c **** 			{0x47u, 0x02u},
 490:Generated_Source\PSoC4/cyfitter_cfg.c **** 			{0x4Eu, 0x08u},
 491:Generated_Source\PSoC4/cyfitter_cfg.c **** 			{0x4Fu, 0x48u},
 492:Generated_Source\PSoC4/cyfitter_cfg.c **** 			{0x54u, 0x04u},
 493:Generated_Source\PSoC4/cyfitter_cfg.c **** 			{0x58u, 0x08u},
 494:Generated_Source\PSoC4/cyfitter_cfg.c **** 			{0x5Au, 0x04u},
 495:Generated_Source\PSoC4/cyfitter_cfg.c **** 			{0x5Du, 0x20u},
 496:Generated_Source\PSoC4/cyfitter_cfg.c **** 			{0x5Eu, 0x80u},
 497:Generated_Source\PSoC4/cyfitter_cfg.c **** 			{0x60u, 0x08u},
 498:Generated_Source\PSoC4/cyfitter_cfg.c **** 			{0x69u, 0x15u},
 499:Generated_Source\PSoC4/cyfitter_cfg.c **** 			{0x6Bu, 0x01u},
 500:Generated_Source\PSoC4/cyfitter_cfg.c **** 			{0x6Eu, 0x04u},
 501:Generated_Source\PSoC4/cyfitter_cfg.c **** 			{0x6Fu, 0x24u},
 502:Generated_Source\PSoC4/cyfitter_cfg.c **** 			{0x71u, 0x40u},
 503:Generated_Source\PSoC4/cyfitter_cfg.c **** 			{0x72u, 0x19u},
 504:Generated_Source\PSoC4/cyfitter_cfg.c **** 			{0x73u, 0x04u},
 505:Generated_Source\PSoC4/cyfitter_cfg.c **** 			{0x85u, 0x40u},
 506:Generated_Source\PSoC4/cyfitter_cfg.c **** 			{0xC0u, 0xFFu},
 507:Generated_Source\PSoC4/cyfitter_cfg.c **** 			{0xC2u, 0xFFu},
 508:Generated_Source\PSoC4/cyfitter_cfg.c **** 			{0xC4u, 0x37u},
 509:Generated_Source\PSoC4/cyfitter_cfg.c **** 			{0xCAu, 0x6Bu},
 510:Generated_Source\PSoC4/cyfitter_cfg.c **** 			{0xCCu, 0x2Bu},
 511:Generated_Source\PSoC4/cyfitter_cfg.c **** 			{0xCEu, 0x07u},
 512:Generated_Source\PSoC4/cyfitter_cfg.c **** 			{0xD0u, 0xE0u},
 513:Generated_Source\PSoC4/cyfitter_cfg.c **** 			{0xD2u, 0x30u},
 514:Generated_Source\PSoC4/cyfitter_cfg.c **** 			{0xD6u, 0x30u},
 515:Generated_Source\PSoC4/cyfitter_cfg.c **** 			{0xD8u, 0x04u},
 516:Generated_Source\PSoC4/cyfitter_cfg.c **** 			{0xACu, 0x04u},
 517:Generated_Source\PSoC4/cyfitter_cfg.c **** 			{0xADu, 0x20u},
 518:Generated_Source\PSoC4/cyfitter_cfg.c **** 			{0xAFu, 0x01u},
 519:Generated_Source\PSoC4/cyfitter_cfg.c **** 			{0xB5u, 0x02u},
 520:Generated_Source\PSoC4/cyfitter_cfg.c **** 			{0xE8u, 0x40u},
 521:Generated_Source\PSoC4/cyfitter_cfg.c **** 			{0x03u, 0x80u},
 522:Generated_Source\PSoC4/cyfitter_cfg.c **** 			{0x52u, 0x10u},
 523:Generated_Source\PSoC4/cyfitter_cfg.c **** 			{0x54u, 0x40u},
 524:Generated_Source\PSoC4/cyfitter_cfg.c **** 			{0x84u, 0x40u},
 525:Generated_Source\PSoC4/cyfitter_cfg.c **** 			{0xC0u, 0x10u},
 526:Generated_Source\PSoC4/cyfitter_cfg.c **** 			{0xD4u, 0x60u},
 527:Generated_Source\PSoC4/cyfitter_cfg.c **** 			{0xE2u, 0x40u},
 528:Generated_Source\PSoC4/cyfitter_cfg.c **** 			{0xAEu, 0x10u},
 529:Generated_Source\PSoC4/cyfitter_cfg.c **** 			{0xB7u, 0x80u},
 530:Generated_Source\PSoC4/cyfitter_cfg.c **** 			{0xEAu, 0x40u},
 531:Generated_Source\PSoC4/cyfitter_cfg.c **** 			{0x10u, 0x20u},
ARM GAS  C:\Users\Sarah\AppData\Local\Temp\ccdFBtQV.s 			page 20


 532:Generated_Source\PSoC4/cyfitter_cfg.c **** 			{0x54u, 0x20u},
 533:Generated_Source\PSoC4/cyfitter_cfg.c **** 			{0xC4u, 0x08u},
 534:Generated_Source\PSoC4/cyfitter_cfg.c **** 			{0xD4u, 0x02u},
 535:Generated_Source\PSoC4/cyfitter_cfg.c **** 			{0x01u, 0x01u},
 536:Generated_Source\PSoC4/cyfitter_cfg.c **** 			{0x10u, 0x01u},
 537:Generated_Source\PSoC4/cyfitter_cfg.c **** 		};
 538:Generated_Source\PSoC4/cyfitter_cfg.c **** 
 539:Generated_Source\PSoC4/cyfitter_cfg.c **** 
 540:Generated_Source\PSoC4/cyfitter_cfg.c **** 
 541:Generated_Source\PSoC4/cyfitter_cfg.c **** 		CYPACKED typedef struct {
 542:Generated_Source\PSoC4/cyfitter_cfg.c **** 			void CYFAR *address;
 543:Generated_Source\PSoC4/cyfitter_cfg.c **** 			uint16 size;
 544:Generated_Source\PSoC4/cyfitter_cfg.c **** 		} CYPACKED_ATTR cfg_memset_t;
 545:Generated_Source\PSoC4/cyfitter_cfg.c **** 
 546:Generated_Source\PSoC4/cyfitter_cfg.c **** 		static const cfg_memset_t CYCODE cfg_memset_list [] = {
 547:Generated_Source\PSoC4/cyfitter_cfg.c **** 			/* address, size */
 548:Generated_Source\PSoC4/cyfitter_cfg.c **** 			{(void CYFAR *)(CYDEV_UDB_P0_U0_BASE), 1024u},
 549:Generated_Source\PSoC4/cyfitter_cfg.c **** 			{(void CYFAR *)(CYDEV_UDB_DSI0_BASE), 1024u},
 550:Generated_Source\PSoC4/cyfitter_cfg.c **** 		};
 551:Generated_Source\PSoC4/cyfitter_cfg.c **** 
 552:Generated_Source\PSoC4/cyfitter_cfg.c **** 		uint8 CYDATA i;
 553:Generated_Source\PSoC4/cyfitter_cfg.c **** 
 554:Generated_Source\PSoC4/cyfitter_cfg.c **** 		/* Zero out critical memory blocks before beginning configuration */
 555:Generated_Source\PSoC4/cyfitter_cfg.c **** 		for (i = 0u; i < (sizeof(cfg_memset_list)/sizeof(cfg_memset_list[0])); i++)
 550              		.loc 1 555 0
 551 015e FB1D     		add	r3, r7, #7
 552 0160 0022     		mov	r2, #0
 553 0162 1A70     		strb	r2, [r3]
 554 0164 23E0     		b	.L21
 555              	.L22:
 556              	.LBB4:
 556:Generated_Source\PSoC4/cyfitter_cfg.c **** 		{
 557:Generated_Source\PSoC4/cyfitter_cfg.c **** 			const cfg_memset_t CYCODE * CYDATA ms = &cfg_memset_list[i];
 557              		.loc 1 557 0 discriminator 3
 558 0166 FB1D     		add	r3, r7, #7
 559 0168 1A78     		ldrb	r2, [r3]
 560 016a 131C     		mov	r3, r2
 561 016c 5B00     		lsl	r3, r3, #1
 562 016e 9B18     		add	r3, r3, r2
 563 0170 5B00     		lsl	r3, r3, #1
 564 0172 414A     		ldr	r2, .L23+4
 565 0174 9B18     		add	r3, r3, r2
 566 0176 3B60     		str	r3, [r7]
 558:Generated_Source\PSoC4/cyfitter_cfg.c **** 			CYMEMZERO(ms->address, (size_t)(uint32)(ms->size));
 567              		.loc 1 558 0 discriminator 3
 568 0178 3B68     		ldr	r3, [r7]
 569 017a 1A78     		ldrb	r2, [r3]
 570 017c 5978     		ldrb	r1, [r3, #1]
 571 017e 0902     		lsl	r1, r1, #8
 572 0180 0A43     		orr	r2, r1
 573 0182 9978     		ldrb	r1, [r3, #2]
 574 0184 0904     		lsl	r1, r1, #16
 575 0186 0A43     		orr	r2, r1
 576 0188 DB78     		ldrb	r3, [r3, #3]
 577 018a 1B06     		lsl	r3, r3, #24
 578 018c 1343     		orr	r3, r2
 579 018e 191C     		mov	r1, r3
ARM GAS  C:\Users\Sarah\AppData\Local\Temp\ccdFBtQV.s 			page 21


 580 0190 3B68     		ldr	r3, [r7]
 581 0192 1A79     		ldrb	r2, [r3, #4]
 582 0194 5B79     		ldrb	r3, [r3, #5]
 583 0196 1B02     		lsl	r3, r3, #8
 584 0198 1343     		orr	r3, r2
 585 019a 9BB2     		uxth	r3, r3
 586 019c 081C     		mov	r0, r1
 587 019e 191C     		mov	r1, r3
 588 01a0 FFF7FEFF 		bl	CYMEMZERO
 589              	.LBE4:
 555:Generated_Source\PSoC4/cyfitter_cfg.c **** 		{
 590              		.loc 1 555 0 discriminator 3
 591 01a4 FB1D     		add	r3, r7, #7
 592 01a6 1A78     		ldrb	r2, [r3]
 593 01a8 FB1D     		add	r3, r7, #7
 594 01aa 0132     		add	r2, r2, #1
 595 01ac 1A70     		strb	r2, [r3]
 596              	.L21:
 555:Generated_Source\PSoC4/cyfitter_cfg.c **** 		{
 597              		.loc 1 555 0 is_stmt 0 discriminator 1
 598 01ae FB1D     		add	r3, r7, #7
 599 01b0 1B78     		ldrb	r3, [r3]
 600 01b2 012B     		cmp	r3, #1
 601 01b4 D7D9     		bls	.L22
 559:Generated_Source\PSoC4/cyfitter_cfg.c **** 		}
 560:Generated_Source\PSoC4/cyfitter_cfg.c **** 
 561:Generated_Source\PSoC4/cyfitter_cfg.c **** 		cfg_write_bytes32(cy_cfg_addr_table, cy_cfg_data_table);
 602              		.loc 1 561 0 is_stmt 1
 603 01b6 314A     		ldr	r2, .L23+8
 604 01b8 314B     		ldr	r3, .L23+12
 605 01ba 101C     		mov	r0, r2
 606 01bc 191C     		mov	r1, r3
 607 01be FFF7FEFF 		bl	cfg_write_bytes32
 562:Generated_Source\PSoC4/cyfitter_cfg.c **** 
 563:Generated_Source\PSoC4/cyfitter_cfg.c **** 		/* HSIOM Starting address: CYDEV_HSIOM_BASE */
 564:Generated_Source\PSoC4/cyfitter_cfg.c **** 		CY_SET_XTND_REG32((void CYFAR *)(CYDEV_HSIOM_BASE), 0xEE000330u);
 608              		.loc 1 564 0
 609 01c2 304B     		ldr	r3, .L23+16
 610 01c4 304A     		ldr	r2, .L23+20
 611 01c6 1A60     		str	r2, [r3]
 565:Generated_Source\PSoC4/cyfitter_cfg.c **** 		CY_SET_XTND_REG32((void CYFAR *)(CYREG_HSIOM_PORT_SEL2), 0x00000003u);
 612              		.loc 1 565 0
 613 01c8 304B     		ldr	r3, .L23+24
 614 01ca 0322     		mov	r2, #3
 615 01cc 1A60     		str	r2, [r3]
 566:Generated_Source\PSoC4/cyfitter_cfg.c **** 
 567:Generated_Source\PSoC4/cyfitter_cfg.c **** 		/* UDB_PA_0 Starting address: CYDEV_UDB_PA0_BASE */
 568:Generated_Source\PSoC4/cyfitter_cfg.c **** 		CY_SET_XTND_REG32((void CYFAR *)(CYDEV_UDB_PA0_BASE), 0x00990000u);
 616              		.loc 1 568 0
 617 01ce 304B     		ldr	r3, .L23+28
 618 01d0 9922     		mov	r2, #153
 619 01d2 1204     		lsl	r2, r2, #16
 620 01d4 1A60     		str	r2, [r3]
 569:Generated_Source\PSoC4/cyfitter_cfg.c **** 		CY_SET_XTND_REG32((void CYFAR *)(CYREG_UDB_PA0_CFG8), 0x00920000u);
 621              		.loc 1 569 0
 622 01d6 2F4B     		ldr	r3, .L23+32
 623 01d8 9222     		mov	r2, #146
ARM GAS  C:\Users\Sarah\AppData\Local\Temp\ccdFBtQV.s 			page 22


 624 01da 1204     		lsl	r2, r2, #16
 625 01dc 1A60     		str	r2, [r3]
 570:Generated_Source\PSoC4/cyfitter_cfg.c **** 
 571:Generated_Source\PSoC4/cyfitter_cfg.c **** 		/* UDB_PA_1 Starting address: CYDEV_UDB_PA1_BASE */
 572:Generated_Source\PSoC4/cyfitter_cfg.c **** 		CY_SET_XTND_REG32((void CYFAR *)(CYDEV_UDB_PA1_BASE), 0x00990000u);
 626              		.loc 1 572 0
 627 01de 2E4B     		ldr	r3, .L23+36
 628 01e0 9922     		mov	r2, #153
 629 01e2 1204     		lsl	r2, r2, #16
 630 01e4 1A60     		str	r2, [r3]
 573:Generated_Source\PSoC4/cyfitter_cfg.c **** 
 574:Generated_Source\PSoC4/cyfitter_cfg.c **** 		/* UDB_PA_2 Starting address: CYDEV_UDB_PA2_BASE */
 575:Generated_Source\PSoC4/cyfitter_cfg.c **** 		CY_SET_XTND_REG32((void CYFAR *)(CYDEV_UDB_PA2_BASE), 0x00990000u);
 631              		.loc 1 575 0
 632 01e6 2D4B     		ldr	r3, .L23+40
 633 01e8 9922     		mov	r2, #153
 634 01ea 1204     		lsl	r2, r2, #16
 635 01ec 1A60     		str	r2, [r3]
 576:Generated_Source\PSoC4/cyfitter_cfg.c **** 		CY_SET_XTND_REG32((void CYFAR *)(CYREG_UDB_PA2_CFG8), 0x00010000u);
 636              		.loc 1 576 0
 637 01ee 2C4B     		ldr	r3, .L23+44
 638 01f0 8022     		mov	r2, #128
 639 01f2 5202     		lsl	r2, r2, #9
 640 01f4 1A60     		str	r2, [r3]
 577:Generated_Source\PSoC4/cyfitter_cfg.c **** 
 578:Generated_Source\PSoC4/cyfitter_cfg.c **** 		/* UDB_PA_3 Starting address: CYDEV_UDB_PA3_BASE */
 579:Generated_Source\PSoC4/cyfitter_cfg.c **** 		CY_SET_XTND_REG32((void CYFAR *)(CYDEV_UDB_PA3_BASE), 0x00990000u);
 641              		.loc 1 579 0
 642 01f6 2B4B     		ldr	r3, .L23+48
 643 01f8 9922     		mov	r2, #153
 644 01fa 1204     		lsl	r2, r2, #16
 645 01fc 1A60     		str	r2, [r3]
 580:Generated_Source\PSoC4/cyfitter_cfg.c **** 
 581:Generated_Source\PSoC4/cyfitter_cfg.c **** 		/* Enable digital routing */
 582:Generated_Source\PSoC4/cyfitter_cfg.c **** 		CY_SET_XTND_REG8((void *)CYREG_UDB_UDBIF_BANK_CTL, CY_GET_XTND_REG8((void *)CYREG_UDB_UDBIF_BANK_
 646              		.loc 1 582 0
 647 01fe 2A4A     		ldr	r2, .L23+52
 648 0200 294B     		ldr	r3, .L23+52
 649 0202 1B78     		ldrb	r3, [r3]
 650 0204 DBB2     		uxtb	r3, r3
 651 0206 0221     		mov	r1, #2
 652 0208 0B43     		orr	r3, r1
 653 020a DBB2     		uxtb	r3, r3
 654 020c 1370     		strb	r3, [r2]
 583:Generated_Source\PSoC4/cyfitter_cfg.c **** 
 584:Generated_Source\PSoC4/cyfitter_cfg.c **** 		/* Enable UDB array */
 585:Generated_Source\PSoC4/cyfitter_cfg.c **** 		CY_SET_XTND_REG8((void *)CYREG_UDB_UDBIF_WAIT_CFG, (uint8)((CY_GET_XTND_REG8((void *)CYREG_UDB_UD
 655              		.loc 1 585 0
 656 020e 274A     		ldr	r2, .L23+56
 657 0210 264B     		ldr	r3, .L23+56
 658 0212 1B78     		ldrb	r3, [r3]
 659 0214 DBB2     		uxtb	r3, r3
 660 0216 3C21     		mov	r1, #60
 661 0218 8B43     		bic	r3, r1
 662 021a DBB2     		uxtb	r3, r3
 663 021c 1421     		mov	r1, #20
 664 021e 0B43     		orr	r3, r1
ARM GAS  C:\Users\Sarah\AppData\Local\Temp\ccdFBtQV.s 			page 23


 665 0220 DBB2     		uxtb	r3, r3
 666 0222 1370     		strb	r3, [r2]
 586:Generated_Source\PSoC4/cyfitter_cfg.c **** 		CY_SET_XTND_REG8((void *)CYREG_UDB_UDBIF_BANK_CTL, (uint8)(CY_GET_XTND_REG8((void *)CYREG_UDB_UDB
 667              		.loc 1 586 0
 668 0224 204A     		ldr	r2, .L23+52
 669 0226 204B     		ldr	r3, .L23+52
 670 0228 1B78     		ldrb	r3, [r3]
 671 022a DBB2     		uxtb	r3, r3
 672 022c 1621     		mov	r1, #22
 673 022e 0B43     		orr	r3, r1
 674 0230 DBB2     		uxtb	r3, r3
 675 0232 1370     		strb	r3, [r2]
 676              	.LBE3:
 587:Generated_Source\PSoC4/cyfitter_cfg.c **** 	}
 588:Generated_Source\PSoC4/cyfitter_cfg.c **** 
 589:Generated_Source\PSoC4/cyfitter_cfg.c **** 	/* Perform second pass device configuration. These items must be configured in specific order afte
 590:Generated_Source\PSoC4/cyfitter_cfg.c **** 	/* IOPINS0_0 Starting address: CYDEV_GPIO_PRT0_BASE */
 591:Generated_Source\PSoC4/cyfitter_cfg.c **** 	CY_SET_XTND_REG32((void CYFAR *)(CYDEV_GPIO_PRT0_BASE), 0x0000003Eu);
 677              		.loc 1 591 0
 678 0234 1E4B     		ldr	r3, .L23+60
 679 0236 3E22     		mov	r2, #62
 680 0238 1A60     		str	r2, [r3]
 592:Generated_Source\PSoC4/cyfitter_cfg.c **** 	CY_SET_XTND_REG32((void CYFAR *)(CYREG_GPIO_PRT0_PC), 0x00D925B1u);
 681              		.loc 1 592 0
 682 023a 1E4B     		ldr	r3, .L23+64
 683 023c 1E4A     		ldr	r2, .L23+68
 684 023e 1A60     		str	r2, [r3]
 593:Generated_Source\PSoC4/cyfitter_cfg.c **** 
 594:Generated_Source\PSoC4/cyfitter_cfg.c **** 	/* IOPINS0_1 Starting address: CYDEV_GPIO_PRT1_BASE */
 595:Generated_Source\PSoC4/cyfitter_cfg.c **** 	CY_SET_XTND_REG32((void CYFAR *)(CYDEV_GPIO_PRT1_BASE), 0x0000000Fu);
 685              		.loc 1 595 0
 686 0240 1E4B     		ldr	r3, .L23+72
 687 0242 0F22     		mov	r2, #15
 688 0244 1A60     		str	r2, [r3]
 596:Generated_Source\PSoC4/cyfitter_cfg.c **** 	CY_SET_XTND_REG32((void CYFAR *)(CYREG_GPIO_PRT1_PC), 0x00000912u);
 689              		.loc 1 596 0
 690 0246 1E4B     		ldr	r3, .L23+76
 691 0248 1E4A     		ldr	r2, .L23+80
 692 024a 1A60     		str	r2, [r3]
 597:Generated_Source\PSoC4/cyfitter_cfg.c **** 
 598:Generated_Source\PSoC4/cyfitter_cfg.c **** 	/* IOPINS0_2 Starting address: CYDEV_GPIO_PRT2_BASE */
 599:Generated_Source\PSoC4/cyfitter_cfg.c **** 	CY_SET_XTND_REG32((void CYFAR *)(CYDEV_GPIO_PRT2_BASE), 0x00000001u);
 693              		.loc 1 599 0
 694 024c 1E4B     		ldr	r3, .L23+84
 695 024e 0122     		mov	r2, #1
 696 0250 1A60     		str	r2, [r3]
 600:Generated_Source\PSoC4/cyfitter_cfg.c **** 	CY_SET_XTND_REG32((void CYFAR *)(CYREG_GPIO_PRT2_PC), 0x00D80006u);
 697              		.loc 1 600 0
 698 0252 1E4B     		ldr	r3, .L23+88
 699 0254 1E4A     		ldr	r2, .L23+92
 700 0256 1A60     		str	r2, [r3]
 601:Generated_Source\PSoC4/cyfitter_cfg.c **** 
 602:Generated_Source\PSoC4/cyfitter_cfg.c **** 	/* IOPINS0_3 Starting address: CYDEV_GPIO_PRT3_BASE */
 603:Generated_Source\PSoC4/cyfitter_cfg.c **** 	CY_SET_XTND_REG32((void CYFAR *)(CYDEV_GPIO_PRT3_BASE), 0x00000010u);
 701              		.loc 1 603 0
 702 0258 1E4B     		ldr	r3, .L23+96
 703 025a 1022     		mov	r2, #16
ARM GAS  C:\Users\Sarah\AppData\Local\Temp\ccdFBtQV.s 			page 24


 704 025c 1A60     		str	r2, [r3]
 604:Generated_Source\PSoC4/cyfitter_cfg.c **** 	CY_SET_XTND_REG32((void CYFAR *)(CYREG_GPIO_PRT3_PC2), 0x00000010u);
 705              		.loc 1 604 0
 706 025e 1E4B     		ldr	r3, .L23+100
 707 0260 1022     		mov	r2, #16
 708 0262 1A60     		str	r2, [r3]
 605:Generated_Source\PSoC4/cyfitter_cfg.c **** 
 606:Generated_Source\PSoC4/cyfitter_cfg.c **** 
 607:Generated_Source\PSoC4/cyfitter_cfg.c **** 	/* Setup clocks based on selections from Clock DWR */
 608:Generated_Source\PSoC4/cyfitter_cfg.c **** 	ClockSetup();
 709              		.loc 1 608 0
 710 0264 FFF7CCFE 		bl	ClockSetup
 609:Generated_Source\PSoC4/cyfitter_cfg.c **** 
 610:Generated_Source\PSoC4/cyfitter_cfg.c **** 	/* Perform basic analog initialization to defaults */
 611:Generated_Source\PSoC4/cyfitter_cfg.c **** 	AnalogSetDefault();
 711              		.loc 1 611 0
 712 0268 FFF7FEFF 		bl	AnalogSetDefault
 612:Generated_Source\PSoC4/cyfitter_cfg.c **** 
 613:Generated_Source\PSoC4/cyfitter_cfg.c **** }
 713              		.loc 1 613 0
 714 026c BD46     		mov	sp, r7
 715 026e 02B0     		add	sp, sp, #8
 716              		@ sp needed
 717 0270 80BD     		pop	{r7, pc}
 718              	.L24:
 719 0272 C046     		.align	2
 720              	.L23:
 721 0274 6CF02E40 		.word	1076818028
 722 0278 00000000 		.word	cfg_memset_list.4800
 723 027c 0C000000 		.word	cy_cfg_addr_table.4794
 724 0280 2C000000 		.word	cy_cfg_data_table.4795
 725 0284 00000240 		.word	1073872896
 726 0288 300300EE 		.word	-301989072
 727 028c 00020240 		.word	1073873408
 728 0290 00500F40 		.word	1074745344
 729 0294 08500F40 		.word	1074745352
 730 0298 10500F40 		.word	1074745360
 731 029c 20500F40 		.word	1074745376
 732 02a0 28500F40 		.word	1074745384
 733 02a4 30500F40 		.word	1074745392
 734 02a8 00700F40 		.word	1074753536
 735 02ac 01700F40 		.word	1074753537
 736 02b0 00000440 		.word	1074003968
 737 02b4 08000440 		.word	1074003976
 738 02b8 B125D900 		.word	14230961
 739 02bc 00010440 		.word	1074004224
 740 02c0 08010440 		.word	1074004232
 741 02c4 12090000 		.word	2322
 742 02c8 00020440 		.word	1074004480
 743 02cc 08020440 		.word	1074004488
 744 02d0 0600D800 		.word	14155782
 745 02d4 00030440 		.word	1074004736
 746 02d8 18030440 		.word	1074004760
 747              		.cfi_endproc
 748              	.LFE9:
 749              		.size	cyfitter_cfg, .-cyfitter_cfg
 750              		.section	.rodata
ARM GAS  C:\Users\Sarah\AppData\Local\Temp\ccdFBtQV.s 			page 25


 751              		.align	2
 752              		.type	cfg_memset_list.4800, %object
 753              		.size	cfg_memset_list.4800, 12
 754              	cfg_memset_list.4800:
 755 0000 00300F40 		.word	1074737152
 756 0004 0004     		.short	1024
 757 0006 00400F40 		.4byte	1074741248
 758 000a 0004     		.short	1024
 759              		.align	2
 760              		.type	cy_cfg_addr_table.4794, %object
 761              		.size	cy_cfg_addr_table.4794, 32
 762              	cy_cfg_addr_table.4794:
 763 000c 01000F40 		.word	1074724865
 764 0010 63300F40 		.word	1074737251
 765 0014 36310F40 		.word	1074737462
 766 0018 05330F40 		.word	1074737925
 767 001c 07400F40 		.word	1074741255
 768 0020 03410F40 		.word	1074741507
 769 0024 04420F40 		.word	1074741764
 770 0028 02600F40 		.word	1074749442
 771              		.align	2
 772              		.type	cy_cfg_data_table.4795, %object
 773              		.size	cy_cfg_data_table.4795, 350
 774              	cy_cfg_data_table.4795:
 775 002c 80       		.byte	-128
 776 002d 7F       		.byte	127
 777 002e 00       		.byte	0
 778 002f 08       		.byte	8
 779 0030 02       		.byte	2
 780 0031 C0       		.byte	-64
 781 0032 03       		.byte	3
 782 0033 63       		.byte	99
 783 0034 06       		.byte	6
 784 0035 3F       		.byte	63
 785 0036 07       		.byte	7
 786 0037 63       		.byte	99
 787 0038 09       		.byte	9
 788 0039 63       		.byte	99
 789 003a 0A       		.byte	10
 790 003b 40       		.byte	64
 791 003c 0C       		.byte	12
 792 003d 80       		.byte	-128
 793 003e 0E       		.byte	14
 794 003f 40       		.byte	64
 795 0040 10       		.byte	16
 796 0041 FF       		.byte	-1
 797 0042 11       		.byte	17
 798 0043 60       		.byte	96
 799 0044 13       		.byte	19
 800 0045 90       		.byte	-112
 801 0046 14       		.byte	20
 802 0047 01       		.byte	1
 803 0048 15       		.byte	21
 804 0049 E8       		.byte	-24
 805 004a 16       		.byte	22
 806 004b C0       		.byte	-64
 807 004c 17       		.byte	23
ARM GAS  C:\Users\Sarah\AppData\Local\Temp\ccdFBtQV.s 			page 26


 808 004d 04       		.byte	4
 809 004e 18       		.byte	24
 810 004f 02       		.byte	2
 811 0050 1A       		.byte	26
 812 0051 C0       		.byte	-64
 813 0052 1C       		.byte	28
 814 0053 04       		.byte	4
 815 0054 1D       		.byte	29
 816 0055 67       		.byte	103
 817 0056 1E       		.byte	30
 818 0057 C0       		.byte	-64
 819 0058 1F       		.byte	31
 820 0059 88       		.byte	-120
 821 005a 23       		.byte	35
 822 005b FF       		.byte	-1
 823 005c 24       		.byte	36
 824 005d 10       		.byte	16
 825 005e 25       		.byte	37
 826 005f 21       		.byte	33
 827 0060 26       		.byte	38
 828 0061 C0       		.byte	-64
 829 0062 27       		.byte	39
 830 0063 42       		.byte	66
 831 0064 28       		.byte	40
 832 0065 C0       		.byte	-64
 833 0066 2A       		.byte	42
 834 0067 20       		.byte	32
 835 0068 2D       		.byte	45
 836 0069 42       		.byte	66
 837 006a 2E       		.byte	46
 838 006b BF       		.byte	-65
 839 006c 2F       		.byte	47
 840 006d 21       		.byte	33
 841 006e 30       		.byte	48
 842 006f FF       		.byte	-1
 843 0070 31       		.byte	49
 844 0071 1F       		.byte	31
 845 0072 33       		.byte	51
 846 0073 E0       		.byte	-32
 847 0074 37       		.byte	55
 848 0075 80       		.byte	-128
 849 0076 39       		.byte	57
 850 0077 02       		.byte	2
 851 0078 56       		.byte	86
 852 0079 02       		.byte	2
 853 007a 57       		.byte	87
 854 007b 24       		.byte	36
 855 007c 58       		.byte	88
 856 007d 04       		.byte	4
 857 007e 59       		.byte	89
 858 007f 04       		.byte	4
 859 0080 5B       		.byte	91
 860 0081 04       		.byte	4
 861 0082 5F       		.byte	95
 862 0083 01       		.byte	1
 863 0084 82       		.byte	-126
 864 0085 20       		.byte	32
ARM GAS  C:\Users\Sarah\AppData\Local\Temp\ccdFBtQV.s 			page 27


 865 0086 84       		.byte	-124
 866 0087 08       		.byte	8
 867 0088 86       		.byte	-122
 868 0089 10       		.byte	16
 869 008a 8A       		.byte	-118
 870 008b 40       		.byte	64
 871 008c 8E       		.byte	-114
 872 008d 08       		.byte	8
 873 008e 90       		.byte	-112
 874 008f 10       		.byte	16
 875 0090 92       		.byte	-110
 876 0091 08       		.byte	8
 877 0092 96       		.byte	-106
 878 0093 05       		.byte	5
 879 0094 99       		.byte	-103
 880 0095 01       		.byte	1
 881 0096 9A       		.byte	-102
 882 0097 05       		.byte	5
 883 0098 9E       		.byte	-98
 884 0099 02       		.byte	2
 885 009a A0       		.byte	-96
 886 009b 20       		.byte	32
 887 009c A2       		.byte	-94
 888 009d 40       		.byte	64
 889 009e A5       		.byte	-91
 890 009f 02       		.byte	2
 891 00a0 A6       		.byte	-90
 892 00a1 03       		.byte	3
 893 00a2 A9       		.byte	-87
 894 00a3 01       		.byte	1
 895 00a4 B0       		.byte	-80
 896 00a5 04       		.byte	4
 897 00a6 B2       		.byte	-78
 898 00a7 18       		.byte	24
 899 00a8 B3       		.byte	-77
 900 00a9 02       		.byte	2
 901 00aa B4       		.byte	-76
 902 00ab 60       		.byte	96
 903 00ac B6       		.byte	-74
 904 00ad 03       		.byte	3
 905 00ae B7       		.byte	-73
 906 00af 01       		.byte	1
 907 00b0 BE       		.byte	-66
 908 00b1 01       		.byte	1
 909 00b2 C0       		.byte	-64
 910 00b3 65       		.byte	101
 911 00b4 C1       		.byte	-63
 912 00b5 04       		.byte	4
 913 00b6 C2       		.byte	-62
 914 00b7 03       		.byte	3
 915 00b8 C4       		.byte	-60
 916 00b9 02       		.byte	2
 917 00ba C5       		.byte	-59
 918 00bb 0C       		.byte	12
 919 00bc C7       		.byte	-57
 920 00bd 0E       		.byte	14
 921 00be C8       		.byte	-56
ARM GAS  C:\Users\Sarah\AppData\Local\Temp\ccdFBtQV.s 			page 28


 922 00bf 11       		.byte	17
 923 00c0 C9       		.byte	-55
 924 00c1 FF       		.byte	-1
 925 00c2 CA       		.byte	-54
 926 00c3 FF       		.byte	-1
 927 00c4 CB       		.byte	-53
 928 00c5 FF       		.byte	-1
 929 00c6 CC       		.byte	-52
 930 00c7 02       		.byte	2
 931 00c8 CD       		.byte	-51
 932 00c9 20       		.byte	32
 933 00ca CF       		.byte	-49
 934 00cb 05       		.byte	5
 935 00cc D0       		.byte	-48
 936 00cd 04       		.byte	4
 937 00ce D2       		.byte	-46
 938 00cf 06       		.byte	6
 939 00d0 D4       		.byte	-44
 940 00d1 01       		.byte	1
 941 00d2 D8       		.byte	-40
 942 00d3 04       		.byte	4
 943 00d4 D9       		.byte	-39
 944 00d5 04       		.byte	4
 945 00d6 DA       		.byte	-38
 946 00d7 04       		.byte	4
 947 00d8 DB       		.byte	-37
 948 00d9 04       		.byte	4
 949 00da DF       		.byte	-33
 950 00db 01       		.byte	1
 951 00dc E2       		.byte	-30
 952 00dd 40       		.byte	64
 953 00de E3       		.byte	-29
 954 00df 01       		.byte	1
 955 00e0 E4       		.byte	-28
 956 00e1 40       		.byte	64
 957 00e2 E5       		.byte	-27
 958 00e3 01       		.byte	1
 959 00e4 E6       		.byte	-26
 960 00e5 50       		.byte	80
 961 00e6 E7       		.byte	-25
 962 00e7 01       		.byte	1
 963 00e8 E8       		.byte	-24
 964 00e9 40       		.byte	64
 965 00ea E9       		.byte	-23
 966 00eb 01       		.byte	1
 967 00ec EA       		.byte	-22
 968 00ed 70       		.byte	112
 969 00ee EB       		.byte	-21
 970 00ef 10       		.byte	16
 971 00f0 EC       		.byte	-20
 972 00f1 40       		.byte	64
 973 00f2 ED       		.byte	-19
 974 00f3 10       		.byte	16
 975 00f4 01       		.byte	1
 976 00f5 01       		.byte	1
 977 00f6 03       		.byte	3
 978 00f7 25       		.byte	37
ARM GAS  C:\Users\Sarah\AppData\Local\Temp\ccdFBtQV.s 			page 29


 979 00f8 05       		.byte	5
 980 00f9 12       		.byte	18
 981 00fa 07       		.byte	7
 982 00fb 22       		.byte	34
 983 00fc 0A       		.byte	10
 984 00fd 11       		.byte	17
 985 00fe 0B       		.byte	11
 986 00ff 84       		.byte	-124
 987 0100 0E       		.byte	14
 988 0101 22       		.byte	34
 989 0102 0F       		.byte	15
 990 0103 48       		.byte	72
 991 0104 11       		.byte	17
 992 0105 14       		.byte	20
 993 0106 12       		.byte	18
 994 0107 01       		.byte	1
 995 0108 17       		.byte	23
 996 0109 05       		.byte	5
 997 010a 19       		.byte	25
 998 010b 01       		.byte	1
 999 010c 1D       		.byte	29
 1000 010d 38       		.byte	56
 1001 010e 1E       		.byte	30
 1002 010f A2       		.byte	-94
 1003 0110 1F       		.byte	31
 1004 0111 40       		.byte	64
 1005 0112 22       		.byte	34
 1006 0113 49       		.byte	73
 1007 0114 23       		.byte	35
 1008 0115 62       		.byte	98
 1009 0116 25       		.byte	37
 1010 0117 40       		.byte	64
 1011 0118 27       		.byte	39
 1012 0119 10       		.byte	16
 1013 011a 29       		.byte	41
 1014 011b 41       		.byte	65
 1015 011c 2A       		.byte	42
 1016 011d 09       		.byte	9
 1017 011e 2E       		.byte	46
 1018 011f 10       		.byte	16
 1019 0120 2F       		.byte	47
 1020 0121 20       		.byte	32
 1021 0122 32       		.byte	50
 1022 0123 49       		.byte	73
 1023 0124 37       		.byte	55
 1024 0125 10       		.byte	16
 1025 0126 39       		.byte	57
 1026 0127 15       		.byte	21
 1027 0128 45       		.byte	69
 1028 0129 28       		.byte	40
 1029 012a 47       		.byte	71
 1030 012b 02       		.byte	2
 1031 012c 4E       		.byte	78
 1032 012d 08       		.byte	8
 1033 012e 4F       		.byte	79
 1034 012f 48       		.byte	72
 1035 0130 54       		.byte	84
ARM GAS  C:\Users\Sarah\AppData\Local\Temp\ccdFBtQV.s 			page 30


 1036 0131 04       		.byte	4
 1037 0132 58       		.byte	88
 1038 0133 08       		.byte	8
 1039 0134 5A       		.byte	90
 1040 0135 04       		.byte	4
 1041 0136 5D       		.byte	93
 1042 0137 20       		.byte	32
 1043 0138 5E       		.byte	94
 1044 0139 80       		.byte	-128
 1045 013a 60       		.byte	96
 1046 013b 08       		.byte	8
 1047 013c 69       		.byte	105
 1048 013d 15       		.byte	21
 1049 013e 6B       		.byte	107
 1050 013f 01       		.byte	1
 1051 0140 6E       		.byte	110
 1052 0141 04       		.byte	4
 1053 0142 6F       		.byte	111
 1054 0143 24       		.byte	36
 1055 0144 71       		.byte	113
 1056 0145 40       		.byte	64
 1057 0146 72       		.byte	114
 1058 0147 19       		.byte	25
 1059 0148 73       		.byte	115
 1060 0149 04       		.byte	4
 1061 014a 85       		.byte	-123
 1062 014b 40       		.byte	64
 1063 014c C0       		.byte	-64
 1064 014d FF       		.byte	-1
 1065 014e C2       		.byte	-62
 1066 014f FF       		.byte	-1
 1067 0150 C4       		.byte	-60
 1068 0151 37       		.byte	55
 1069 0152 CA       		.byte	-54
 1070 0153 6B       		.byte	107
 1071 0154 CC       		.byte	-52
 1072 0155 2B       		.byte	43
 1073 0156 CE       		.byte	-50
 1074 0157 07       		.byte	7
 1075 0158 D0       		.byte	-48
 1076 0159 E0       		.byte	-32
 1077 015a D2       		.byte	-46
 1078 015b 30       		.byte	48
 1079 015c D6       		.byte	-42
 1080 015d 30       		.byte	48
 1081 015e D8       		.byte	-40
 1082 015f 04       		.byte	4
 1083 0160 AC       		.byte	-84
 1084 0161 04       		.byte	4
 1085 0162 AD       		.byte	-83
 1086 0163 20       		.byte	32
 1087 0164 AF       		.byte	-81
 1088 0165 01       		.byte	1
 1089 0166 B5       		.byte	-75
 1090 0167 02       		.byte	2
 1091 0168 E8       		.byte	-24
 1092 0169 40       		.byte	64
ARM GAS  C:\Users\Sarah\AppData\Local\Temp\ccdFBtQV.s 			page 31


 1093 016a 03       		.byte	3
 1094 016b 80       		.byte	-128
 1095 016c 52       		.byte	82
 1096 016d 10       		.byte	16
 1097 016e 54       		.byte	84
 1098 016f 40       		.byte	64
 1099 0170 84       		.byte	-124
 1100 0171 40       		.byte	64
 1101 0172 C0       		.byte	-64
 1102 0173 10       		.byte	16
 1103 0174 D4       		.byte	-44
 1104 0175 60       		.byte	96
 1105 0176 E2       		.byte	-30
 1106 0177 40       		.byte	64
 1107 0178 AE       		.byte	-82
 1108 0179 10       		.byte	16
 1109 017a B7       		.byte	-73
 1110 017b 80       		.byte	-128
 1111 017c EA       		.byte	-22
 1112 017d 40       		.byte	64
 1113 017e 10       		.byte	16
 1114 017f 20       		.byte	32
 1115 0180 54       		.byte	84
 1116 0181 20       		.byte	32
 1117 0182 C4       		.byte	-60
 1118 0183 08       		.byte	8
 1119 0184 D4       		.byte	-44
 1120 0185 02       		.byte	2
 1121 0186 01       		.byte	1
 1122 0187 01       		.byte	1
 1123 0188 10       		.byte	16
 1124 0189 01       		.byte	1
 1125 018a 0000     		.text
 1126              	.Letext0:
 1127              		.file 2 "c:\\program files (x86)\\cypress\\psoc creator\\4.0\\psoc creator\\import\\gnu\\arm\\4.9.
 1128              		.file 3 "Generated_Source\\PSoC4\\cytypes.h"