ARM GAS  C:\Users\Sarah\AppData\Local\Temp\ccTSlSXH.s 			page 1


   1              		.cpu cortex-m0
   2              		.fpu softvfp
   3              		.eabi_attribute 20, 1
   4              		.eabi_attribute 21, 1
   5              		.eabi_attribute 23, 3
   6              		.eabi_attribute 24, 1
   7              		.eabi_attribute 25, 1
   8              		.eabi_attribute 26, 1
   9              		.eabi_attribute 30, 6
  10              		.eabi_attribute 34, 0
  11              		.eabi_attribute 18, 4
  12              		.code	16
  13              		.file	"main.c"
  14              		.text
  15              	.Ltext0:
  16              		.cfi_sections	.debug_frame
  17              		.comm	connectionHandle,2,4
  18              		.comm	a,1,1
  19              		.section	.text.Stack_Handler,"ax",%progbits
  20              		.align	2
  21              		.global	Stack_Handler
  22              		.code	16
  23              		.thumb_func
  24              		.type	Stack_Handler, %function
  25              	Stack_Handler:
  26              	.LFB37:
  27              		.file 1 "main.c"
   1:main.c        **** /* ========================================
   2:main.c        ****  *
   3:main.c        ****  * Copyright YOUR COMPANY, THE YEAR
   4:main.c        ****  * All Rights Reserved
   5:main.c        ****  * UNPUBLISHED, LICENSED SOFTWARE.
   6:main.c        ****  *
   7:main.c        ****  * CONFIDENTIAL AND PROPRIETARY INFORMATION
   8:main.c        ****  * WHICH IS THE PROPERTY OF your company.
   9:main.c        ****  *
  10:main.c        ****  * ========================================
  11:main.c        **** */
  12:main.c        **** #include "project.h"
  13:main.c        **** 
  14:main.c        **** CYBLE_CONN_HANDLE_T connectionHandle;
  15:main.c        **** 
  16:main.c        **** CYBLE_EVENT_T a;
  17:main.c        **** 
  18:main.c        **** void Stack_Handler( uint32 eventCode, void * eventParam)
  19:main.c        **** {
  28              		.loc 1 19 0
  29              		.cfi_startproc
  30 0000 80B5     		push	{r7, lr}
  31              		.cfi_def_cfa_offset 8
  32              		.cfi_offset 7, -8
  33              		.cfi_offset 14, -4
  34 0002 84B0     		sub	sp, sp, #16
  35              		.cfi_def_cfa_offset 24
  36 0004 00AF     		add	r7, sp, #0
  37              		.cfi_def_cfa_register 7
  38 0006 7860     		str	r0, [r7, #4]
ARM GAS  C:\Users\Sarah\AppData\Local\Temp\ccTSlSXH.s 			page 2


  39 0008 3960     		str	r1, [r7]
  20:main.c        ****     
  21:main.c        ****     CYBLE_GATTS_WRITE_CMD_REQ_PARAM_T* wrReq;
  22:main.c        ****     
  23:main.c        ****     switch (eventCode)
  40              		.loc 1 23 0
  41 000a 7B68     		ldr	r3, [r7, #4]
  42 000c 262B     		cmp	r3, #38
  43 000e 1FD0     		beq	.L3
  44 0010 04D8     		bhi	.L4
  45 0012 012B     		cmp	r3, #1
  46 0014 09D0     		beq	.L5
  47 0016 022B     		cmp	r3, #2
  48 0018 0BD0     		beq	.L6
  49 001a 80E0     		b	.L2
  50              	.L4:
  51 001c 412B     		cmp	r3, #65
  52 001e 20D0     		beq	.L7
  53 0020 4C2B     		cmp	r3, #76
  54 0022 2CD0     		beq	.L8
  55 0024 282B     		cmp	r3, #40
  56 0026 0CD0     		beq	.L9
  57 0028 79E0     		b	.L2
  58              	.L5:
  24:main.c        ****     {
  25:main.c        ****         case CYBLE_EVT_STACK_ON:
  26:main.c        ****             CyBle_GappStartAdvertisement(CYBLE_ADVERTISING_FAST);
  59              		.loc 1 26 0
  60 002a 0020     		mov	r0, #0
  61 002c FFF7FEFF 		bl	CyBle_GappStartAdvertisement
  27:main.c        **** 		
  28:main.c        **** 		    break;
  62              		.loc 1 28 0
  63 0030 7AE0     		b	.L1
  64              	.L6:
  29:main.c        ****         case CYBLE_EVT_TIMEOUT:
  30:main.c        ****     		/* Timeout has occured */
  31:main.c        ****             if(CYBLE_GAP_ADV_MODE_TO == *(uint8 *) eventParam)
  65              		.loc 1 31 0
  66 0032 3B68     		ldr	r3, [r7]
  67 0034 1B78     		ldrb	r3, [r3]
  68 0036 012B     		cmp	r3, #1
  69 0038 02D1     		bne	.L11
  32:main.c        ****             {
  33:main.c        ****                 /* Advertisement timeout has occured - stop advertisement */
  34:main.c        ****                 CyBle_GappStopAdvertisement();
  70              		.loc 1 34 0
  71 003a FFF7FEFF 		bl	CyBle_GappStopAdvertisement
  35:main.c        ****             }
  36:main.c        **** 	        break;
  72              		.loc 1 36 0
  73 003e 73E0     		b	.L1
  74              	.L11:
  75 0040 72E0     		b	.L1
  76              	.L9:
  37:main.c        ****         case CYBLE_EVT_GAP_DEVICE_DISCONNECTED:
  38:main.c        ****             CyBle_GappStartAdvertisement(CYBLE_ADVERTISING_FAST);
ARM GAS  C:\Users\Sarah\AppData\Local\Temp\ccTSlSXH.s 			page 3


  77              		.loc 1 38 0
  78 0042 0020     		mov	r0, #0
  79 0044 FFF7FEFF 		bl	CyBle_GappStartAdvertisement
  39:main.c        ****             LED_Scan_Write(1);
  80              		.loc 1 39 0
  81 0048 0120     		mov	r0, #1
  82 004a FFF7FEFF 		bl	LED_Scan_Write
  40:main.c        ****             break;
  83              		.loc 1 40 0
  84 004e 6BE0     		b	.L1
  85              	.L3:
  41:main.c        ****         
  42:main.c        ****         case CYBLE_EVT_GAPP_ADVERTISEMENT_START_STOP:
  43:main.c        **** 		/* Restart Advertisement if the state is disconnected */
  44:main.c        **** 		if(CyBle_GetState() == CYBLE_STATE_DISCONNECTED )
  86              		.loc 1 44 0
  87 0050 374B     		ldr	r3, .L24
  88 0052 1B78     		ldrb	r3, [r3]
  89 0054 042B     		cmp	r3, #4
  90 0056 03D1     		bne	.L12
  45:main.c        **** 		{
  46:main.c        **** 			CyBle_GappStartAdvertisement(CYBLE_ADVERTISING_FAST);
  91              		.loc 1 46 0
  92 0058 0020     		mov	r0, #0
  93 005a FFF7FEFF 		bl	CyBle_GappStartAdvertisement
  47:main.c        **** 		}
  48:main.c        **** 
  49:main.c        ****         break;
  94              		.loc 1 49 0
  95 005e 63E0     		b	.L1
  96              	.L12:
  97 0060 62E0     		b	.L1
  98              	.L7:
  50:main.c        ****         case CYBLE_EVT_GATT_CONNECT_IND:
  51:main.c        ****             connectionHandle = *(CYBLE_CONN_HANDLE_T *)eventParam;
  99              		.loc 1 51 0
 100 0062 344A     		ldr	r2, .L24+4
 101 0064 3B68     		ldr	r3, [r7]
 102 0066 111C     		mov	r1, r2
 103 0068 1A1C     		mov	r2, r3
 104 006a 0223     		mov	r3, #2
 105 006c 081C     		mov	r0, r1
 106 006e 111C     		mov	r1, r2
 107 0070 1A1C     		mov	r2, r3
 108 0072 FFF7FEFF 		bl	memcpy
  52:main.c        ****             LED_Scan_Write(0);
 109              		.loc 1 52 0
 110 0076 0020     		mov	r0, #0
 111 0078 FFF7FEFF 		bl	LED_Scan_Write
  53:main.c        ****             break;
 112              		.loc 1 53 0
 113 007c 54E0     		b	.L1
 114              	.L8:
  54:main.c        ****         case CYBLE_EVT_GATTS_WRITE_REQ:
  55:main.c        ****             wrReq = (CYBLE_GATTS_WRITE_REQ_PARAM_T*)eventParam;
 115              		.loc 1 55 0
 116 007e 3B68     		ldr	r3, [r7]
ARM GAS  C:\Users\Sarah\AppData\Local\Temp\ccTSlSXH.s 			page 4


 117 0080 FB60     		str	r3, [r7, #12]
  56:main.c        ****             if (wrReq->handleValPair.attrHandle == CYBLE_VENTSERVICE_PRESSURE_CHAR_HANDLE)
 118              		.loc 1 56 0
 119 0082 FB68     		ldr	r3, [r7, #12]
 120 0084 9B89     		ldrh	r3, [r3, #12]
 121 0086 152B     		cmp	r3, #21
 122 0088 0ED1     		bne	.L13
  57:main.c        ****             {
  58:main.c        ****                 CyBle_GattsWriteAttributeValue (&wrReq->handleValPair, 0, &connectionHandle, CYBLE_
 123              		.loc 1 58 0
 124 008a FB68     		ldr	r3, [r7, #12]
 125 008c 1A1D     		add	r2, r3, #4
 126 008e 294B     		ldr	r3, .L24+4
 127 0090 101C     		mov	r0, r2
 128 0092 0021     		mov	r1, #0
 129 0094 1A1C     		mov	r2, r3
 130 0096 0023     		mov	r3, #0
 131 0098 FFF7FEFF 		bl	CyBle_GattsWriteAttributeValue
  59:main.c        ****                 LED_Conf_Write(wrReq->handleValPair.value.val[0]);
 132              		.loc 1 59 0
 133 009c FB68     		ldr	r3, [r7, #12]
 134 009e 5B68     		ldr	r3, [r3, #4]
 135 00a0 1B78     		ldrb	r3, [r3]
 136 00a2 181C     		mov	r0, r3
 137 00a4 FFF7FEFF 		bl	LED_Conf_Write
 138              	.L13:
  60:main.c        ****             }
  61:main.c        ****             if (wrReq->handleValPair.attrHandle == CYBLE_VENTSERVICE_SERVO_CHAR_HANDLE)
 139              		.loc 1 61 0
 140 00a8 FB68     		ldr	r3, [r7, #12]
 141 00aa 9B89     		ldrh	r3, [r3, #12]
 142 00ac 122B     		cmp	r3, #18
 143 00ae 27D1     		bne	.L14
  62:main.c        ****             {
  63:main.c        ****                 switch (wrReq->handleValPair.value.val[0]) {
 144              		.loc 1 63 0
 145 00b0 FB68     		ldr	r3, [r7, #12]
 146 00b2 5B68     		ldr	r3, [r3, #4]
 147 00b4 1B78     		ldrb	r3, [r3]
 148 00b6 052B     		cmp	r3, #5
 149 00b8 21D8     		bhi	.L23
 150 00ba 9A00     		lsl	r2, r3, #2
 151 00bc 1E4B     		ldr	r3, .L24+8
 152 00be D318     		add	r3, r2, r3
 153 00c0 1B68     		ldr	r3, [r3]
 154 00c2 9F46     		mov	pc, r3
 155              		.section	.rodata
 156              		.align	2
 157              	.L17:
 158 0000 C4000000 		.word	.L16
 159 0004 CE000000 		.word	.L18
 160 0008 D8000000 		.word	.L19
 161 000c E0000000 		.word	.L20
 162 0010 EA000000 		.word	.L21
 163 0014 F4000000 		.word	.L22
 164              		.section	.text.Stack_Handler
 165              	.L16:
ARM GAS  C:\Users\Sarah\AppData\Local\Temp\ccTSlSXH.s 			page 5


  64:main.c        ****                         case (0):
  65:main.c        ****                             PWM_Servo_WriteCompare(4315);
 166              		.loc 1 65 0
 167 00c4 1D4B     		ldr	r3, .L24+12
 168 00c6 181C     		mov	r0, r3
 169 00c8 FFF7FEFF 		bl	PWM_Servo_WriteCompare
  66:main.c        ****                             //Timer_WritePeriod(1205);
  67:main.c        ****                             //Timer_Start();
  68:main.c        ****                         break;
 170              		.loc 1 68 0
 171 00cc 18E0     		b	.L14
 172              	.L18:
  69:main.c        ****                         case (1):
  70:main.c        ****                             PWM_Servo_WriteCompare(4350);
 173              		.loc 1 70 0
 174 00ce 1C4B     		ldr	r3, .L24+16
 175 00d0 181C     		mov	r0, r3
 176 00d2 FFF7FEFF 		bl	PWM_Servo_WriteCompare
  71:main.c        ****                             //Timer_WritePeriod(540);
  72:main.c        ****                             //Timer_Start();
  73:main.c        ****                         break;
 177              		.loc 1 73 0
 178 00d6 13E0     		b	.L14
 179              	.L19:
  74:main.c        ****                         case (2):
  75:main.c        ****                             PWM_Servo_WriteCompare(4375);
 180              		.loc 1 75 0
 181 00d8 1A4B     		ldr	r3, .L24+20
 182 00da 181C     		mov	r0, r3
 183 00dc FFF7FEFF 		bl	PWM_Servo_WriteCompare
 184              	.L20:
  76:main.c        ****                             //Timer_WritePeriod(225);
  77:main.c        ****                             //Timer_Start();
  78:main.c        ****                         case (3):
  79:main.c        ****                             PWM_Servo_WriteCompare(4425);
 185              		.loc 1 79 0
 186 00e0 194B     		ldr	r3, .L24+24
 187 00e2 181C     		mov	r0, r3
 188 00e4 FFF7FEFF 		bl	PWM_Servo_WriteCompare
  80:main.c        ****                         break;
 189              		.loc 1 80 0
 190 00e8 0AE0     		b	.L14
 191              	.L21:
  81:main.c        ****                         case (4):
  82:main.c        ****                             PWM_Servo_WriteCompare(4450);
 192              		.loc 1 82 0
 193 00ea 184B     		ldr	r3, .L24+28
 194 00ec 181C     		mov	r0, r3
 195 00ee FFF7FEFF 		bl	PWM_Servo_WriteCompare
  83:main.c        ****                         break;
 196              		.loc 1 83 0
 197 00f2 05E0     		b	.L14
 198              	.L22:
  84:main.c        ****                         case (5):
  85:main.c        ****                             PWM_Servo_WriteCompare(4475);
 199              		.loc 1 85 0
 200 00f4 164B     		ldr	r3, .L24+32
ARM GAS  C:\Users\Sarah\AppData\Local\Temp\ccTSlSXH.s 			page 6


 201 00f6 181C     		mov	r0, r3
 202 00f8 FFF7FEFF 		bl	PWM_Servo_WriteCompare
  86:main.c        ****                         break;
 203              		.loc 1 86 0
 204 00fc 00E0     		b	.L14
 205              	.L23:
  87:main.c        ****                     default:
  88:main.c        ****                             
  89:main.c        ****                         break;
 206              		.loc 1 89 0
 207 00fe C046     		mov	r8, r8
 208              	.L14:
  90:main.c        ****                 }
  91:main.c        ****             }
  92:main.c        ****             CyBle_GattsWriteRsp(connectionHandle);
 209              		.loc 1 92 0
 210 0100 0C4B     		ldr	r3, .L24+4
 211 0102 1A78     		ldrb	r2, [r3]
 212 0104 5B78     		ldrb	r3, [r3, #1]
 213 0106 1B02     		lsl	r3, r3, #8
 214 0108 1A43     		orr	r2, r3
 215 010a 0023     		mov	r3, #0
 216 010c 1204     		lsl	r2, r2, #16
 217 010e 120C     		lsr	r2, r2, #16
 218 0110 1B0C     		lsr	r3, r3, #16
 219 0112 1B04     		lsl	r3, r3, #16
 220 0114 1343     		orr	r3, r2
 221 0116 181C     		mov	r0, r3
 222 0118 FFF7FEFF 		bl	CyBle_GattsWriteRsp
  93:main.c        ****             break;
 223              		.loc 1 93 0
 224 011c 04E0     		b	.L1
 225              	.L2:
  94:main.c        ****         default:
  95:main.c        ****             a = eventCode;
 226              		.loc 1 95 0
 227 011e 7B68     		ldr	r3, [r7, #4]
 228 0120 DAB2     		uxtb	r2, r3
 229 0122 0C4B     		ldr	r3, .L24+36
 230 0124 1A70     		strb	r2, [r3]
  96:main.c        ****             break;
 231              		.loc 1 96 0
 232 0126 C046     		mov	r8, r8
 233              	.L1:
  97:main.c        ****         
  98:main.c        ****     }
  99:main.c        **** }
 234              		.loc 1 99 0
 235 0128 BD46     		mov	sp, r7
 236 012a 04B0     		add	sp, sp, #16
 237              		@ sp needed
 238 012c 80BD     		pop	{r7, pc}
 239              	.L25:
 240 012e C046     		.align	2
 241              	.L24:
 242 0130 00000000 		.word	cyBle_state
 243 0134 00000000 		.word	connectionHandle
ARM GAS  C:\Users\Sarah\AppData\Local\Temp\ccTSlSXH.s 			page 7


 244 0138 00000000 		.word	.L17
 245 013c DB100000 		.word	4315
 246 0140 FE100000 		.word	4350
 247 0144 17110000 		.word	4375
 248 0148 49110000 		.word	4425
 249 014c 62110000 		.word	4450
 250 0150 7B110000 		.word	4475
 251 0154 00000000 		.word	a
 252              		.cfi_endproc
 253              	.LFE37:
 254              		.size	Stack_Handler, .-Stack_Handler
 255              		.section	.text.main,"ax",%progbits
 256              		.align	2
 257              		.global	main
 258              		.code	16
 259              		.thumb_func
 260              		.type	main, %function
 261              	main:
 262              	.LFB38:
 100:main.c        **** 
 101:main.c        **** int main(void)
 102:main.c        **** {
 263              		.loc 1 102 0
 264              		.cfi_startproc
 265 0000 80B5     		push	{r7, lr}
 266              		.cfi_def_cfa_offset 8
 267              		.cfi_offset 7, -8
 268              		.cfi_offset 14, -4
 269 0002 00AF     		add	r7, sp, #0
 270              		.cfi_def_cfa_register 7
 103:main.c        ****     CyGlobalIntEnable; /* Enable global interrupts. */
 271              		.loc 1 103 0
 272              	@ 103 "main.c" 1
 273 0004 62B6     		CPSIE   i
 274              	@ 0 "" 2
 104:main.c        **** 
 105:main.c        ****     /* Place your initialization/startup code here (e.g. MyInst_Start()) */
 106:main.c        **** 
 107:main.c        ****     PWM_Servo_Start();
 275              		.loc 1 107 0
 276              		.code	16
 277 0006 FFF7FEFF 		bl	PWM_Servo_Start
 108:main.c        ****     CyBle_Start( Stack_Handler );
 278              		.loc 1 108 0
 279 000a 064B     		ldr	r3, .L28
 280 000c 181C     		mov	r0, r3
 281 000e FFF7FEFF 		bl	CyBle_Start
 109:main.c        ****     LED_Conf_Write(0);
 282              		.loc 1 109 0
 283 0012 0020     		mov	r0, #0
 284 0014 FFF7FEFF 		bl	LED_Conf_Write
 110:main.c        ****     LED_Scan_Write(1);
 285              		.loc 1 110 0
 286 0018 0120     		mov	r0, #1
 287 001a FFF7FEFF 		bl	LED_Scan_Write
 288              	.L27:
 111:main.c        ****     for(;;)
ARM GAS  C:\Users\Sarah\AppData\Local\Temp\ccTSlSXH.s 			page 8


 112:main.c        ****     {
 113:main.c        ****         CyBle_ProcessEvents();
 289              		.loc 1 113 0 discriminator 1
 290 001e FFF7FEFF 		bl	CyBle_ProcessEvents
 114:main.c        ****     }
 291              		.loc 1 114 0 discriminator 1
 292 0022 FCE7     		b	.L27
 293              	.L29:
 294              		.align	2
 295              	.L28:
 296 0024 00000000 		.word	Stack_Handler
 297              		.cfi_endproc
 298              	.LFE38:
 299              		.size	main, .-main
 300              		.text
 301              	.Letext0:
 302              		.file 2 "Generated_Source\\PSoC4/cytypes.h"
 303              		.file 3 "Generated_Source\\PSoC4/BLE_Stack.h"
 304              		.file 4 "Generated_Source\\PSoC4/BLE_StackHostMain.h"
 305              		.file 5 "Generated_Source\\PSoC4/BLE_StackGatt.h"
 306              		.file 6 "Generated_Source\\PSoC4/BLE_StackGattServer.h"
 307              		.file 7 "Generated_Source\\PSoC4/BLE_eventHandler.h"