ARM GAS  C:\Users\Sarah\AppData\Local\Temp\ccLQenA3.s 			page 1


   1              		.cpu cortex-m0
   2              		.fpu softvfp
   3              		.eabi_attribute 20, 1
   4              		.eabi_attribute 21, 1
   5              		.eabi_attribute 23, 3
   6              		.eabi_attribute 24, 1
   7              		.eabi_attribute 25, 1
   8              		.eabi_attribute 26, 1
   9              		.eabi_attribute 30, 1
  10              		.eabi_attribute 34, 0
  11              		.eabi_attribute 18, 4
  12              		.code	16
  13              		.file	"ble.c"
  14              		.text
  15              	.Ltext0:
  16              		.cfi_sections	.debug_frame
  17              		.section	.text.CyBle_ChangeAdLocalName,"ax",%progbits
  18              		.align	2
  19              		.code	16
  20              		.thumb_func
  21              		.type	CyBle_ChangeAdLocalName, %function
  22              	CyBle_ChangeAdLocalName:
  23              	.LFB15:
  24              		.file 1 "Generated_Source\\PSoC4\\ble.c"
   1:Generated_Source\PSoC4/ble.c **** /***************************************************************************//**
   2:Generated_Source\PSoC4/ble.c **** * \file CYBLE.c
   3:Generated_Source\PSoC4/ble.c **** * \version 3.30
   4:Generated_Source\PSoC4/ble.c **** * 
   5:Generated_Source\PSoC4/ble.c **** * \brief
   6:Generated_Source\PSoC4/ble.c **** *  This file contains the source code for the Common APIs of the BLE Component.
   7:Generated_Source\PSoC4/ble.c **** * 
   8:Generated_Source\PSoC4/ble.c **** ********************************************************************************
   9:Generated_Source\PSoC4/ble.c **** * \copyright
  10:Generated_Source\PSoC4/ble.c **** * Copyright 2014-2016, Cypress Semiconductor Corporation.  All rights reserved.
  11:Generated_Source\PSoC4/ble.c **** * You may use this file only in accordance with the license, terms, conditions,
  12:Generated_Source\PSoC4/ble.c **** * disclaimers, and limitations in the end user license agreement accompanying
  13:Generated_Source\PSoC4/ble.c **** * the software package with which this file was provided.
  14:Generated_Source\PSoC4/ble.c **** *******************************************************************************/
  15:Generated_Source\PSoC4/ble.c **** 
  16:Generated_Source\PSoC4/ble.c **** #include "ble_eventHandler.h"
  17:Generated_Source\PSoC4/ble.c **** #include "ble_HAL_PVT.h"
  18:Generated_Source\PSoC4/ble.c **** #include <stdlib.h>
  19:Generated_Source\PSoC4/ble.c **** 
  20:Generated_Source\PSoC4/ble.c **** 
  21:Generated_Source\PSoC4/ble.c **** /***************************************
  22:Generated_Source\PSoC4/ble.c **** * Function Prototypes
  23:Generated_Source\PSoC4/ble.c **** ***************************************/
  24:Generated_Source\PSoC4/ble.c **** 
  25:Generated_Source\PSoC4/ble.c **** #if(CYBLE_GATT_ROLE_SERVER)
  26:Generated_Source\PSoC4/ble.c ****     #if(CYBLE_GAP_ROLE_PERIPHERAL)
  27:Generated_Source\PSoC4/ble.c ****         static void CyBle_ChangeAdLocalName(const char8 name[], uint8 dest);
  28:Generated_Source\PSoC4/ble.c ****     #endif /* (CYBLE_GAP_ROLE_PERIPHERAL) */
  29:Generated_Source\PSoC4/ble.c **** #endif /* (CYBLE_GATT_ROLE_SERVER) */
  30:Generated_Source\PSoC4/ble.c ****     
  31:Generated_Source\PSoC4/ble.c **** 
  32:Generated_Source\PSoC4/ble.c **** /***************************************
  33:Generated_Source\PSoC4/ble.c **** * Global Variables
ARM GAS  C:\Users\Sarah\AppData\Local\Temp\ccLQenA3.s 			page 2


  34:Generated_Source\PSoC4/ble.c **** ***************************************/
  35:Generated_Source\PSoC4/ble.c **** 
  36:Generated_Source\PSoC4/ble.c **** /* Indicates whether the BLE has been initialized. The variable is initialized to
  37:Generated_Source\PSoC4/ble.c ****    0 and set to 1 the first time CyBle_Start() is called. This allows the component
  38:Generated_Source\PSoC4/ble.c ****    to restart without reinitialization after the first call to the CyBle_Start() 
  39:Generated_Source\PSoC4/ble.c ****    routine. If reinitialization of the component is required, the variable should 
  40:Generated_Source\PSoC4/ble.c ****    be set to 0 before the CyBle_Start() routine is called. Alternatively, the BLE
  41:Generated_Source\PSoC4/ble.c ****    can be reinitialized by calling the CyBle_Init() function.
  42:Generated_Source\PSoC4/ble.c **** */
  43:Generated_Source\PSoC4/ble.c **** uint8  cyBle_initVar = 0u;
  44:Generated_Source\PSoC4/ble.c **** 
  45:Generated_Source\PSoC4/ble.c **** /* Allocate RAM memory for stack. This buffer could be reused by application when 
  46:Generated_Source\PSoC4/ble.c ****    BLE component is stopped. For export mode buffer is allocated in heap.
  47:Generated_Source\PSoC4/ble.c **** */
  48:Generated_Source\PSoC4/ble.c **** #if(CYBLE_SHARING_MODE_EXPORT)
  49:Generated_Source\PSoC4/ble.c ****     
  50:Generated_Source\PSoC4/ble.c **** uint8 *cyBle_stackMemoryRam = NULL;
  51:Generated_Source\PSoC4/ble.c **** 
  52:Generated_Source\PSoC4/ble.c **** #else
  53:Generated_Source\PSoC4/ble.c **** 
  54:Generated_Source\PSoC4/ble.c **** CYBLE_CYALIGNED_BEGIN CY_NOINIT uint8 cyBle_stackMemoryRam[CYBLE_STACK_RAM_SIZE] CYBLE_CYALIGNED_EN
  55:Generated_Source\PSoC4/ble.c **** 
  56:Generated_Source\PSoC4/ble.c **** #endif  /* CYBLE_SHARING_MODE_EXPORT */
  57:Generated_Source\PSoC4/ble.c **** 
  58:Generated_Source\PSoC4/ble.c **** #if(CYBLE_GAP_ROLE_PERIPHERAL || CYBLE_GAP_ROLE_BROADCASTER)
  59:Generated_Source\PSoC4/ble.c **** 
  60:Generated_Source\PSoC4/ble.c **** CYBLE_GAPP_DISC_PARAM_T cyBle_discoveryParam =
  61:Generated_Source\PSoC4/ble.c **** {
  62:Generated_Source\PSoC4/ble.c ****     0x0020u,    /* uint16 advertising_interval_min */
  63:Generated_Source\PSoC4/ble.c ****     0x0030u,    /* uint16 advertising_interval_max */
  64:Generated_Source\PSoC4/ble.c ****     CYBLE_GAPP_CONNECTABLE_UNDIRECTED_ADV, /* uint8 advertising_type */
  65:Generated_Source\PSoC4/ble.c ****     0x00u,      /* uint8 own_addr_type */
  66:Generated_Source\PSoC4/ble.c ****     0x00u,      /* uint8 direct_addr_type */
  67:Generated_Source\PSoC4/ble.c ****     {0x00u, 0x00u, 0x00u, 0x50u, 0xA0u, 0x00u}, /* uint8* direct_addr */
  68:Generated_Source\PSoC4/ble.c ****     0x07u,      /* uint8 advertising_channel_map */
  69:Generated_Source\PSoC4/ble.c ****     0x00u,      /* uint8 advertising_filter_policy */
  70:Generated_Source\PSoC4/ble.c **** };
  71:Generated_Source\PSoC4/ble.c **** 
  72:Generated_Source\PSoC4/ble.c **** CYBLE_GAPP_DISC_DATA_T cyBle_discoveryData =
  73:Generated_Source\PSoC4/ble.c **** {
  74:Generated_Source\PSoC4/ble.c ****     { 0x02u, 0x01u, 0x06u, 0x07u, 0x09u, 0x63u, 0x61u,
  75:Generated_Source\PSoC4/ble.c ****     0x70u, 0x6Cu, 0x65u, 0x64u, 0x11u, 0x07u, 0xF0u, 0x34u,
  76:Generated_Source\PSoC4/ble.c ****     0x9Bu, 0x5Fu, 0x80u, 0x00u, 0x00u, 0x80u, 0x00u, 0x10u,
  77:Generated_Source\PSoC4/ble.c ****     0x00u, 0x00u, 0x00u, 0x00u, 0x00u, 0x00u, 0x00u, 0x00u }, /* uint8 advertising_data[CYBLE_MAX_A
  78:Generated_Source\PSoC4/ble.c ****     0x1Du,      /* uint8 adv_data_length */
  79:Generated_Source\PSoC4/ble.c **** };
  80:Generated_Source\PSoC4/ble.c **** 
  81:Generated_Source\PSoC4/ble.c **** CYBLE_GAPP_SCAN_RSP_DATA_T cyBle_scanRspData =
  82:Generated_Source\PSoC4/ble.c **** {
  83:Generated_Source\PSoC4/ble.c ****     { 0x00u, 0x00u, 0x00u, 0x00u, 0x00u, 0x00u, 0x00u,
  84:Generated_Source\PSoC4/ble.c ****     0x00u, 0x00u, 0x00u, 0x00u, 0x00u, 0x00u, 0x00u, 0x00u,
  85:Generated_Source\PSoC4/ble.c ****     0x00u, 0x00u, 0x00u, 0x00u, 0x00u, 0x00u, 0x00u, 0x00u,
  86:Generated_Source\PSoC4/ble.c ****     0x00u, 0x00u, 0x00u, 0x00u, 0x00u, 0x00u, 0x00u, 0x00u }, /* uint8 scan_rsp_data[CYBLE_MAX_SCAN
  87:Generated_Source\PSoC4/ble.c ****     0x00u,      /* uint8 scan_rsp_data_length */
  88:Generated_Source\PSoC4/ble.c **** };
  89:Generated_Source\PSoC4/ble.c **** 
  90:Generated_Source\PSoC4/ble.c **** /* This variable of type CYBLE_GAPP_DISC_MODE_INFO_T is present only when 
ARM GAS  C:\Users\Sarah\AppData\Local\Temp\ccLQenA3.s 			page 3


  91:Generated_Source\PSoC4/ble.c ****    the BLE component is configured for Peripheral GAP role or Central and 
  92:Generated_Source\PSoC4/ble.c ****    Peripheral GAP role. It contains the Advertisement settings and also the 
  93:Generated_Source\PSoC4/ble.c ****    Advertisement and Scan response data parameters entered in the customizer.
  94:Generated_Source\PSoC4/ble.c ****    This variable can be used by advanced users to change Advertisement settings,
  95:Generated_Source\PSoC4/ble.c ****    Advertisement or Scan response data in runtime. 
  96:Generated_Source\PSoC4/ble.c **** */
  97:Generated_Source\PSoC4/ble.c **** CYBLE_GAPP_DISC_MODE_INFO_T cyBle_discoveryModeInfo =
  98:Generated_Source\PSoC4/ble.c **** {
  99:Generated_Source\PSoC4/ble.c ****     0x02u,      /* uint8 discMode */
 100:Generated_Source\PSoC4/ble.c ****     &cyBle_discoveryParam,
 101:Generated_Source\PSoC4/ble.c ****     &cyBle_discoveryData,
 102:Generated_Source\PSoC4/ble.c ****     &cyBle_scanRspData,
 103:Generated_Source\PSoC4/ble.c ****     0x0000u,    /* uint16 advTo */
 104:Generated_Source\PSoC4/ble.c **** };
 105:Generated_Source\PSoC4/ble.c **** 
 106:Generated_Source\PSoC4/ble.c **** 
 107:Generated_Source\PSoC4/ble.c **** #endif /* CYBLE_GAP_ROLE_PERIPHERAL || CYBLE_GAP_ROLE_BROADCASTER */
 108:Generated_Source\PSoC4/ble.c **** 
 109:Generated_Source\PSoC4/ble.c **** #if(CYBLE_GAP_ROLE_CENTRAL)
 110:Generated_Source\PSoC4/ble.c ****     
 111:Generated_Source\PSoC4/ble.c **** CYBLE_GAPC_CONN_PARAM_T cyBle_connectionParameters;
 112:Generated_Source\PSoC4/ble.c **** 
 113:Generated_Source\PSoC4/ble.c **** /* Connecting timeout is set to 30 seconds in CyBle_Init function. 
 114:Generated_Source\PSoC4/ble.c ****    Not zero value starts timer in CyBle_GapcConnectDevice API.
 115:Generated_Source\PSoC4/ble.c **** */
 116:Generated_Source\PSoC4/ble.c **** uint16 cyBle_connectingTimeout;
 117:Generated_Source\PSoC4/ble.c ****     
 118:Generated_Source\PSoC4/ble.c **** #endif /* CYBLE_GAP_ROLE_CENTRAL */
 119:Generated_Source\PSoC4/ble.c **** 
 120:Generated_Source\PSoC4/ble.c **** #if(CYBLE_GAP_ROLE_CENTRAL || CYBLE_GAP_ROLE_OBSERVER)
 121:Generated_Source\PSoC4/ble.c ****     
 122:Generated_Source\PSoC4/ble.c **** /* This variable of type CYBLE_GAPC_DISC_INFO_T is present only when  
 123:Generated_Source\PSoC4/ble.c ****    the BLE component is configured for Central GAP role or Central and  
 124:Generated_Source\PSoC4/ble.c ****    Peripheral GAP role. It contains the Scan settings entered in the  
 125:Generated_Source\PSoC4/ble.c ****    customizer. This variable can be used by advanced users to change Scan  
 126:Generated_Source\PSoC4/ble.c ****    settings in runtime.
 127:Generated_Source\PSoC4/ble.c **** */
 128:Generated_Source\PSoC4/ble.c **** CYBLE_GAPC_DISC_INFO_T cyBle_discoveryInfo =
 129:Generated_Source\PSoC4/ble.c **** {
 130:Generated_Source\PSoC4/ble.c ****     0x02u,      /* discProcedure */
 131:Generated_Source\PSoC4/ble.c ****     0x01u,      /* scanType */
 132:Generated_Source\PSoC4/ble.c ****     0x0030u,    /* scanInterval */
 133:Generated_Source\PSoC4/ble.c ****     0x0030u,    /* scanWindow */
 134:Generated_Source\PSoC4/ble.c ****     0x00u,      /* ownAddrType */
 135:Generated_Source\PSoC4/ble.c ****     0x00u,      /* scanFilterPolicy */
 136:Generated_Source\PSoC4/ble.c ****     0x001Eu,    /* scanTO */
 137:Generated_Source\PSoC4/ble.c ****     0x00u,      /* filterDuplicates */
 138:Generated_Source\PSoC4/ble.c **** };
 139:Generated_Source\PSoC4/ble.c ****     
 140:Generated_Source\PSoC4/ble.c **** #endif /* CYBLE_GAP_ROLE_CENTRAL || CYBLE_GAP_ROLE_OBSERVER */
 141:Generated_Source\PSoC4/ble.c **** 
 142:Generated_Source\PSoC4/ble.c **** #if((CYBLE_GAP_ROLE_PERIPHERAL || CYBLE_GAP_ROLE_CENTRAL) && (CYBLE_BONDING_REQUIREMENT == CYBLE_BO
 143:Generated_Source\PSoC4/ble.c **** 
 144:Generated_Source\PSoC4/ble.c **** uint8 cyBle_peerBonding;
 145:Generated_Source\PSoC4/ble.c **** uint8 cyBle_pendingFlashWrite;
 146:Generated_Source\PSoC4/ble.c ****     
 147:Generated_Source\PSoC4/ble.c **** #if(CYBLE_GATT_DB_CCCD_COUNT != 0u)
ARM GAS  C:\Users\Sarah\AppData\Local\Temp\ccLQenA3.s 			page 4


 148:Generated_Source\PSoC4/ble.c ****     static uint8 cyBle_pendingFlashClearCccdHandle;
 149:Generated_Source\PSoC4/ble.c **** #endif /* CYBLE_GATT_DB_CCCD_COUNT != 0u */
 150:Generated_Source\PSoC4/ble.c ****     
 151:Generated_Source\PSoC4/ble.c **** #endif  /* (CYBLE_BONDING_REQUIREMENT == CYBLE_BONDING_YES) */
 152:Generated_Source\PSoC4/ble.c **** 
 153:Generated_Source\PSoC4/ble.c **** CYBLE_CALLBACK_T CyBle_ApplCallback;
 154:Generated_Source\PSoC4/ble.c **** CYBLE_GAP_BD_ADDR_T cyBle_deviceAddress = {{0x00u, 0x00u, 0x00u, 0x50u, 0xA0u, 0x00u}, 0x00u };
 155:Generated_Source\PSoC4/ble.c **** CYBLE_GAP_BD_ADDR_T * cyBle_sflashDeviceAddress = CYBLE_SFLASH_DEVICE_ADDRESS_PTR;
 156:Generated_Source\PSoC4/ble.c **** 
 157:Generated_Source\PSoC4/ble.c **** 
 158:Generated_Source\PSoC4/ble.c **** /******************************************************************************
 159:Generated_Source\PSoC4/ble.c **** * Function Name: CyBle_Init
 160:Generated_Source\PSoC4/ble.c **** ***************************************************************************//**
 161:Generated_Source\PSoC4/ble.c **** *
 162:Generated_Source\PSoC4/ble.c **** *   Initializes the component with the parameters set in the customizer.
 163:Generated_Source\PSoC4/ble.c **** * 
 164:Generated_Source\PSoC4/ble.c **** *  \return
 165:Generated_Source\PSoC4/ble.c **** *   None
 166:Generated_Source\PSoC4/ble.c **** * 
 167:Generated_Source\PSoC4/ble.c **** ******************************************************************************/
 168:Generated_Source\PSoC4/ble.c **** void CyBle_Init(void)
 169:Generated_Source\PSoC4/ble.c **** {
 170:Generated_Source\PSoC4/ble.c ****     cyBle_eventHandlerFlag = 0u;
 171:Generated_Source\PSoC4/ble.c ****     cyBle_busyStatus = CYBLE_STACK_STATE_FREE;
 172:Generated_Source\PSoC4/ble.c **** 
 173:Generated_Source\PSoC4/ble.c ****     #if(CYBLE_GAP_ROLE_PERIPHERAL || CYBLE_GAP_ROLE_BROADCASTER) 
 174:Generated_Source\PSoC4/ble.c ****         cyBle_advertisingIntervalType = CYBLE_ADVERTISING_FAST; 
 175:Generated_Source\PSoC4/ble.c ****     #endif /* (CYBLE_GAP_ROLE_PERIPHERAL || CYBLE_GAP_ROLE_BROADCASTER)  */
 176:Generated_Source\PSoC4/ble.c ****     #if(CYBLE_GAP_ROLE_CENTRAL || CYBLE_GAP_ROLE_OBSERVER)
 177:Generated_Source\PSoC4/ble.c ****         cyBle_scanningIntervalType = CYBLE_SCANNING_FAST; 
 178:Generated_Source\PSoC4/ble.c ****     #endif /* (CYBLE_GAP_ROLE_CENTRAL || CYBLE_GAP_ROLE_OBSERVER) */
 179:Generated_Source\PSoC4/ble.c ****         
 180:Generated_Source\PSoC4/ble.c ****     /* Init default connection parameters. 
 181:Generated_Source\PSoC4/ble.c ****        Application may change it before initiating a connection */
 182:Generated_Source\PSoC4/ble.c ****     #if(CYBLE_GAP_ROLE_CENTRAL)
 183:Generated_Source\PSoC4/ble.c ****         cyBle_connectionParameters.scanIntv = cyBle_discoveryInfo.scanIntv;
 184:Generated_Source\PSoC4/ble.c ****         cyBle_connectionParameters.scanWindow = cyBle_discoveryInfo.scanWindow;
 185:Generated_Source\PSoC4/ble.c ****         cyBle_connectionParameters.ownAddrType = cyBle_discoveryInfo.ownAddrType;
 186:Generated_Source\PSoC4/ble.c ****         cyBle_connectionParameters.initiatorFilterPolicy = cyBle_discoveryInfo.scanFilterPolicy;
 187:Generated_Source\PSoC4/ble.c ****         cyBle_connectionParameters.connIntvMin = CYBLE_GAPC_CONNECTION_INTERVAL_MIN;
 188:Generated_Source\PSoC4/ble.c ****         cyBle_connectionParameters.connIntvMax = CYBLE_GAPC_CONNECTION_INTERVAL_MAX;
 189:Generated_Source\PSoC4/ble.c ****         cyBle_connectionParameters.connLatency = CYBLE_GAPC_CONNECTION_SLAVE_LATENCY;
 190:Generated_Source\PSoC4/ble.c ****         cyBle_connectionParameters.supervisionTO = CYBLE_GAPC_CONNECTION_TIME_OUT;
 191:Generated_Source\PSoC4/ble.c ****         cyBle_connectionParameters.minCeLength = 0x0000u;
 192:Generated_Source\PSoC4/ble.c ****         cyBle_connectionParameters.maxCeLength = 0xFFFFu;
 193:Generated_Source\PSoC4/ble.c ****         
 194:Generated_Source\PSoC4/ble.c ****         cyBle_connectingTimeout = CYBLE_GAPC_CONNECTING_TIMEOUT;
 195:Generated_Source\PSoC4/ble.c ****     #endif /* CYBLE_GAP_ROLE_CENTRAL */
 196:Generated_Source\PSoC4/ble.c **** 
 197:Generated_Source\PSoC4/ble.c ****     CyBle_ServiceInit();
 198:Generated_Source\PSoC4/ble.c **** 
 199:Generated_Source\PSoC4/ble.c ****     #if((CYBLE_GAP_ROLE_PERIPHERAL || CYBLE_GAP_ROLE_CENTRAL) && (CYBLE_BONDING_REQUIREMENT == CYBL
 200:Generated_Source\PSoC4/ble.c ****         cyBle_pendingFlashWrite = 0u;
 201:Generated_Source\PSoC4/ble.c ****         cyBle_peerBonding = CYBLE_GAP_BONDING_NONE;
 202:Generated_Source\PSoC4/ble.c ****     #endif  /* (CYBLE_BONDING_REQUIREMENT == CYBLE_BONDING_YES) */
 203:Generated_Source\PSoC4/ble.c **** 
 204:Generated_Source\PSoC4/ble.c **** }
ARM GAS  C:\Users\Sarah\AppData\Local\Temp\ccLQenA3.s 			page 5


 205:Generated_Source\PSoC4/ble.c **** 
 206:Generated_Source\PSoC4/ble.c **** 
 207:Generated_Source\PSoC4/ble.c **** /******************************************************************************
 208:Generated_Source\PSoC4/ble.c **** * Function Name: CyBle_ServiceInit
 209:Generated_Source\PSoC4/ble.c **** ***************************************************************************//**
 210:Generated_Source\PSoC4/ble.c **** * 
 211:Generated_Source\PSoC4/ble.c **** *  Initializes all included services.
 212:Generated_Source\PSoC4/ble.c **** * 
 213:Generated_Source\PSoC4/ble.c **** * \return
 214:Generated_Source\PSoC4/ble.c **** *  None
 215:Generated_Source\PSoC4/ble.c **** * 
 216:Generated_Source\PSoC4/ble.c **** ******************************************************************************/
 217:Generated_Source\PSoC4/ble.c **** void CyBle_ServiceInit(void)
 218:Generated_Source\PSoC4/ble.c **** {
 219:Generated_Source\PSoC4/ble.c ****     #if(CYBLE_GATT_ROLE_CLIENT)
 220:Generated_Source\PSoC4/ble.c ****         /* Check service range before clearing to support partial discovery */
 221:Generated_Source\PSoC4/ble.c ****         if(cyBle_serverInfo[CYBLE_SRVI_GAP].range.startHandle == CYBLE_GATT_INVALID_ATTR_HANDLE_VAL
 222:Generated_Source\PSoC4/ble.c ****         {
 223:Generated_Source\PSoC4/ble.c ****             (void)memset(&cyBle_gapc, 0, sizeof(cyBle_gapc));
 224:Generated_Source\PSoC4/ble.c ****         }
 225:Generated_Source\PSoC4/ble.c ****         if(cyBle_serverInfo[CYBLE_SRVI_GATT].range.startHandle == CYBLE_GATT_INVALID_ATTR_HANDLE_VA
 226:Generated_Source\PSoC4/ble.c ****         {
 227:Generated_Source\PSoC4/ble.c ****             (void)memset(&cyBle_gattc, 0, sizeof(cyBle_gattc));
 228:Generated_Source\PSoC4/ble.c ****         }
 229:Generated_Source\PSoC4/ble.c ****     #endif /* CYBLE_GATT_ROLE_CLIENT */
 230:Generated_Source\PSoC4/ble.c **** 
 231:Generated_Source\PSoC4/ble.c ****    	#ifdef CYBLE_AIOS
 232:Generated_Source\PSoC4/ble.c ****         CyBle_AiosInit();
 233:Generated_Source\PSoC4/ble.c ****     #endif /* CYBLE_AIOS */
 234:Generated_Source\PSoC4/ble.c **** 
 235:Generated_Source\PSoC4/ble.c **** 	#ifdef CYBLE_ANCS
 236:Generated_Source\PSoC4/ble.c ****         CyBle_AncsInit();
 237:Generated_Source\PSoC4/ble.c ****     #endif /* CYBLE_ANCS */
 238:Generated_Source\PSoC4/ble.c **** 	
 239:Generated_Source\PSoC4/ble.c ****     #ifdef CYBLE_ANS
 240:Generated_Source\PSoC4/ble.c ****         CyBle_AnsInit();
 241:Generated_Source\PSoC4/ble.c ****     #endif /* CYBLE_ANS */
 242:Generated_Source\PSoC4/ble.c ****     
 243:Generated_Source\PSoC4/ble.c ****     #ifdef CYBLE_BAS
 244:Generated_Source\PSoC4/ble.c ****         CyBle_BasInit();
 245:Generated_Source\PSoC4/ble.c ****     #endif /* CYBLE_BAS */
 246:Generated_Source\PSoC4/ble.c ****     
 247:Generated_Source\PSoC4/ble.c ****     #ifdef CYBLE_BCS
 248:Generated_Source\PSoC4/ble.c ****         CyBle_BcsInit();
 249:Generated_Source\PSoC4/ble.c ****     #endif /* CYBLE_BCS */
 250:Generated_Source\PSoC4/ble.c **** 
 251:Generated_Source\PSoC4/ble.c ****     #ifdef CYBLE_BLS
 252:Generated_Source\PSoC4/ble.c ****         CyBle_BlsInit();
 253:Generated_Source\PSoC4/ble.c ****     #endif /* CYBLE_BLS */
 254:Generated_Source\PSoC4/ble.c ****     
 255:Generated_Source\PSoC4/ble.c ****     #ifdef CYBLE_BMS
 256:Generated_Source\PSoC4/ble.c ****         CyBle_BmsInit();
 257:Generated_Source\PSoC4/ble.c ****     #endif /* CYBLE_BMS */
 258:Generated_Source\PSoC4/ble.c ****     
 259:Generated_Source\PSoC4/ble.c ****     #ifdef CYBLE_CGMS
 260:Generated_Source\PSoC4/ble.c ****         CyBle_CgmsInit();
 261:Generated_Source\PSoC4/ble.c ****     #endif /* CYBLE_CGMS */
ARM GAS  C:\Users\Sarah\AppData\Local\Temp\ccLQenA3.s 			page 6


 262:Generated_Source\PSoC4/ble.c **** 
 263:Generated_Source\PSoC4/ble.c ****     #ifdef CYBLE_CPS
 264:Generated_Source\PSoC4/ble.c ****         CyBle_CpsInit();
 265:Generated_Source\PSoC4/ble.c ****     #endif /* CYBLE_CPS */
 266:Generated_Source\PSoC4/ble.c **** 
 267:Generated_Source\PSoC4/ble.c ****     #ifdef CYBLE_CSCS
 268:Generated_Source\PSoC4/ble.c ****         CyBle_CscsInit();
 269:Generated_Source\PSoC4/ble.c ****     #endif /* CYBLE_CSCS */
 270:Generated_Source\PSoC4/ble.c ****     
 271:Generated_Source\PSoC4/ble.c ****     #ifdef CYBLE_CTS
 272:Generated_Source\PSoC4/ble.c ****         CyBle_CtsInit();
 273:Generated_Source\PSoC4/ble.c ****     #endif /* CYBLE_CTS */
 274:Generated_Source\PSoC4/ble.c **** 
 275:Generated_Source\PSoC4/ble.c ****     #ifdef CYBLE_CUSTOM
 276:Generated_Source\PSoC4/ble.c ****         CyBle_CustomInit();
 277:Generated_Source\PSoC4/ble.c ****     #endif /* CYBLE_CUSTOM */
 278:Generated_Source\PSoC4/ble.c **** 
 279:Generated_Source\PSoC4/ble.c ****     #ifdef CYBLE_DIS
 280:Generated_Source\PSoC4/ble.c ****         CyBle_DisInit();
 281:Generated_Source\PSoC4/ble.c ****     #endif /* CYBLE_DIS */
 282:Generated_Source\PSoC4/ble.c **** 
 283:Generated_Source\PSoC4/ble.c ****     #ifdef CYBLE_ESS
 284:Generated_Source\PSoC4/ble.c ****         CyBle_EssInit();
 285:Generated_Source\PSoC4/ble.c ****     #endif /* CYBLE_ESS */
 286:Generated_Source\PSoC4/ble.c ****     
 287:Generated_Source\PSoC4/ble.c ****     #ifdef CYBLE_GLS
 288:Generated_Source\PSoC4/ble.c ****         CyBle_GlsInit();
 289:Generated_Source\PSoC4/ble.c ****     #endif /* CYBLE_GLS */
 290:Generated_Source\PSoC4/ble.c ****     
 291:Generated_Source\PSoC4/ble.c ****     #ifdef CYBLE_HIDS
 292:Generated_Source\PSoC4/ble.c ****         CyBle_HidsInit();
 293:Generated_Source\PSoC4/ble.c ****     #endif /* CYBLE_HIDS */
 294:Generated_Source\PSoC4/ble.c **** 
 295:Generated_Source\PSoC4/ble.c ****     #ifdef CYBLE_HPS
 296:Generated_Source\PSoC4/ble.c ****         CyBle_HpsInit();
 297:Generated_Source\PSoC4/ble.c ****     #endif /* CYBLE_HPS */
 298:Generated_Source\PSoC4/ble.c **** 
 299:Generated_Source\PSoC4/ble.c ****     #ifdef CYBLE_HRS
 300:Generated_Source\PSoC4/ble.c ****         CyBle_HrsInit();
 301:Generated_Source\PSoC4/ble.c ****     #endif /* CYBLE_HRS */
 302:Generated_Source\PSoC4/ble.c ****     
 303:Generated_Source\PSoC4/ble.c ****     #ifdef CYBLE_HTS
 304:Generated_Source\PSoC4/ble.c ****         CyBle_HtsInit();
 305:Generated_Source\PSoC4/ble.c ****     #endif /* CYBLE_RSCS */
 306:Generated_Source\PSoC4/ble.c **** 
 307:Generated_Source\PSoC4/ble.c ****     #ifdef CYBLE_IAS
 308:Generated_Source\PSoC4/ble.c ****         CyBle_IasInit();
 309:Generated_Source\PSoC4/ble.c ****     #endif /* CYBLE_IAS */
 310:Generated_Source\PSoC4/ble.c **** 
 311:Generated_Source\PSoC4/ble.c ****     #ifdef CYBLE_IPS
 312:Generated_Source\PSoC4/ble.c ****         CyBle_IpsInit();
 313:Generated_Source\PSoC4/ble.c ****     #endif /* CYBLE_IPS */
 314:Generated_Source\PSoC4/ble.c ****     
 315:Generated_Source\PSoC4/ble.c ****     #ifdef CYBLE_LLS
 316:Generated_Source\PSoC4/ble.c ****         CyBle_LlsInit();
 317:Generated_Source\PSoC4/ble.c ****     #endif /* CYBLE_LLS */
 318:Generated_Source\PSoC4/ble.c **** 
ARM GAS  C:\Users\Sarah\AppData\Local\Temp\ccLQenA3.s 			page 7


 319:Generated_Source\PSoC4/ble.c ****     #ifdef CYBLE_LNS
 320:Generated_Source\PSoC4/ble.c ****         CyBle_LnsInit();
 321:Generated_Source\PSoC4/ble.c ****     #endif /* CYBLE_LNS */
 322:Generated_Source\PSoC4/ble.c ****     
 323:Generated_Source\PSoC4/ble.c ****     #ifdef CYBLE_NDCS
 324:Generated_Source\PSoC4/ble.c ****         CyBle_NdcsInit();
 325:Generated_Source\PSoC4/ble.c ****     #endif /* CYBLE_NDCS */
 326:Generated_Source\PSoC4/ble.c ****     
 327:Generated_Source\PSoC4/ble.c ****     #ifdef CYBLE_PASS
 328:Generated_Source\PSoC4/ble.c ****         CyBle_PassInit();
 329:Generated_Source\PSoC4/ble.c ****     #endif /* CYBLE_PASS */
 330:Generated_Source\PSoC4/ble.c ****     
 331:Generated_Source\PSoC4/ble.c ****     #ifdef CYBLE_PLXS
 332:Generated_Source\PSoC4/ble.c ****         CyBle_PlxsInit();
 333:Generated_Source\PSoC4/ble.c ****     #endif /* CYBLE_PLXS */
 334:Generated_Source\PSoC4/ble.c ****     
 335:Generated_Source\PSoC4/ble.c ****     #ifdef CYBLE_RSCS
 336:Generated_Source\PSoC4/ble.c ****         CyBle_RscsInit();
 337:Generated_Source\PSoC4/ble.c ****     #endif /* CYBLE_RSCS */
 338:Generated_Source\PSoC4/ble.c **** 
 339:Generated_Source\PSoC4/ble.c ****     #ifdef CYBLE_RTUS
 340:Generated_Source\PSoC4/ble.c ****         CyBle_RtusInit();
 341:Generated_Source\PSoC4/ble.c ****     #endif /* CYBLE_RTUS */
 342:Generated_Source\PSoC4/ble.c **** 
 343:Generated_Source\PSoC4/ble.c ****     #ifdef CYBLE_SCPS
 344:Generated_Source\PSoC4/ble.c ****         CyBle_ScpsInit();
 345:Generated_Source\PSoC4/ble.c ****     #endif /* CYBLE_SCPS */
 346:Generated_Source\PSoC4/ble.c ****     
 347:Generated_Source\PSoC4/ble.c ****     #ifdef CYBLE_TPS
 348:Generated_Source\PSoC4/ble.c ****         CyBle_TpsInit();
 349:Generated_Source\PSoC4/ble.c ****     #endif /* CYBLE_TPS */
 350:Generated_Source\PSoC4/ble.c ****     
 351:Generated_Source\PSoC4/ble.c ****     #ifdef CYBLE_UDS
 352:Generated_Source\PSoC4/ble.c ****         CyBle_UdsInit();
 353:Generated_Source\PSoC4/ble.c ****     #endif /* CYBLE_UDS */
 354:Generated_Source\PSoC4/ble.c **** 
 355:Generated_Source\PSoC4/ble.c ****     #ifdef CYBLE_WPTS
 356:Generated_Source\PSoC4/ble.c ****         CyBle_WptsInit();
 357:Generated_Source\PSoC4/ble.c ****     #endif /* CYBLE_WPTS */
 358:Generated_Source\PSoC4/ble.c **** 
 359:Generated_Source\PSoC4/ble.c ****     #ifdef CYBLE_WSS
 360:Generated_Source\PSoC4/ble.c ****         CyBle_WssInit();
 361:Generated_Source\PSoC4/ble.c ****     #endif /* CYBLE_WSS */
 362:Generated_Source\PSoC4/ble.c **** }
 363:Generated_Source\PSoC4/ble.c **** 
 364:Generated_Source\PSoC4/ble.c **** 
 365:Generated_Source\PSoC4/ble.c **** /******************************************************************************
 366:Generated_Source\PSoC4/ble.c **** * Function Name: CyBle_Start
 367:Generated_Source\PSoC4/ble.c **** ***************************************************************************//**
 368:Generated_Source\PSoC4/ble.c **** * 
 369:Generated_Source\PSoC4/ble.c **** *  This function initializes the BLE Stack, which consists of the BLE Stack 
 370:Generated_Source\PSoC4/ble.c **** *  Manager, BLE Controller, and BLE Host modules. It takes care of initializing
 371:Generated_Source\PSoC4/ble.c **** *  the Profile layer, schedulers, Timer and other platform related
 372:Generated_Source\PSoC4/ble.c **** *  resources required for the BLE component. It also registers the callback 
 373:Generated_Source\PSoC4/ble.c **** *  function for BLE events that will be registered in the BLE stack.
 374:Generated_Source\PSoC4/ble.c **** * 
 375:Generated_Source\PSoC4/ble.c **** *  Note that this function does not reset the BLE Stack.
ARM GAS  C:\Users\Sarah\AppData\Local\Temp\ccLQenA3.s 			page 8


 376:Generated_Source\PSoC4/ble.c **** * 
 377:Generated_Source\PSoC4/ble.c **** *  For HCI-Mode of operation, this function will not initialize the BLE Host 
 378:Generated_Source\PSoC4/ble.c **** *  module.
 379:Generated_Source\PSoC4/ble.c **** * 
 380:Generated_Source\PSoC4/ble.c **** *  Calling this function results in the generation of CYBLE_EVT_STACK_ON event
 381:Generated_Source\PSoC4/ble.c **** *  on successful initialization of the BLE Stack.
 382:Generated_Source\PSoC4/ble.c **** * 
 383:Generated_Source\PSoC4/ble.c **** *  \param callbackFunc: Event callback function to receive events from BLE stack.
 384:Generated_Source\PSoC4/ble.c **** *   CYBLE_CALLBACK_T is a function pointer type.
 385:Generated_Source\PSoC4/ble.c **** * 
 386:Generated_Source\PSoC4/ble.c **** * \return
 387:Generated_Source\PSoC4/ble.c **** *  CYBLE_API_RESULT_T : Return value indicates if the function succeeded or 
 388:Generated_Source\PSoC4/ble.c **** *  failed. Following are the possible error codes.
 389:Generated_Source\PSoC4/ble.c **** * 
 390:Generated_Source\PSoC4/ble.c **** *   <table>
 391:Generated_Source\PSoC4/ble.c **** *  	  <tr>
 392:Generated_Source\PSoC4/ble.c **** *       <th>Error codes</th>
 393:Generated_Source\PSoC4/ble.c **** *       <th>Description</th>
 394:Generated_Source\PSoC4/ble.c **** *     </tr>
 395:Generated_Source\PSoC4/ble.c **** *     <tr>
 396:Generated_Source\PSoC4/ble.c **** *       <td>CYBLE_ERROR_OK</td>
 397:Generated_Source\PSoC4/ble.c **** *       <td>On successful operation.</td>
 398:Generated_Source\PSoC4/ble.c **** *     </tr>
 399:Generated_Source\PSoC4/ble.c **** *     <tr>
 400:Generated_Source\PSoC4/ble.c **** *       <td>CYBLE_ERROR_INVALID_PARAMETER</td>
 401:Generated_Source\PSoC4/ble.c **** *       <td>On passing a NULL pointer to the function. 
 402:Generated_Source\PSoC4/ble.c **** *		</td>
 403:Generated_Source\PSoC4/ble.c **** *     </tr>
 404:Generated_Source\PSoC4/ble.c **** *     <tr>
 405:Generated_Source\PSoC4/ble.c **** *       <td>CYBLE_ERROR_REPEATED_ATTEMPTS</td>
 406:Generated_Source\PSoC4/ble.c **** *       <td>On invoking this function more than once without calling CyBle_Shutdown() 
 407:Generated_Source\PSoC4/ble.c **** *           function between calls to this function.</td>
 408:Generated_Source\PSoC4/ble.c **** *     </tr>
 409:Generated_Source\PSoC4/ble.c **** *     <tr>
 410:Generated_Source\PSoC4/ble.c **** *       <td>CYBLE_ERROR_MEMORY_ALLOCATION_FAILED</td>
 411:Generated_Source\PSoC4/ble.c **** *       <td>There is insufficient memory available.</td>
 412:Generated_Source\PSoC4/ble.c **** *     </tr>
 413:Generated_Source\PSoC4/ble.c **** *   </table>
 414:Generated_Source\PSoC4/ble.c **** * 
 415:Generated_Source\PSoC4/ble.c **** *  \globalvars
 416:Generated_Source\PSoC4/ble.c **** *   The CyBle_initVar variable is used to indicate initial
 417:Generated_Source\PSoC4/ble.c **** *   configuration of this component. The variable is initialized to zero (0u)
 418:Generated_Source\PSoC4/ble.c **** *   and set to one (1u) the first time CyBle_Start() is called. This
 419:Generated_Source\PSoC4/ble.c **** *   allows for component initialization without re-initialization in all
 420:Generated_Source\PSoC4/ble.c **** *   subsequent calls to the CyBle_Start() routine.
 421:Generated_Source\PSoC4/ble.c **** * 
 422:Generated_Source\PSoC4/ble.c **** ******************************************************************************/
 423:Generated_Source\PSoC4/ble.c **** CYBLE_API_RESULT_T CyBle_Start(CYBLE_CALLBACK_T callbackFunc)
 424:Generated_Source\PSoC4/ble.c **** {
 425:Generated_Source\PSoC4/ble.c ****     CYBLE_API_RESULT_T apiResult = CYBLE_ERROR_OK;
 426:Generated_Source\PSoC4/ble.c ****     
 427:Generated_Source\PSoC4/ble.c ****     #if(CYBLE_MODE_PROFILE)
 428:Generated_Source\PSoC4/ble.c ****     
 429:Generated_Source\PSoC4/ble.c ****     CYBLE_STK_APP_DATA_BUFF_T cyBle_stackDataBuff[CYBLE_STACK_APP_MIN_POOL] = 
 430:Generated_Source\PSoC4/ble.c ****     {
 431:Generated_Source\PSoC4/ble.c ****         {CYBLE_GATT_MTU_PLUS_L2CAP_MEM_EXT, CYBLE_GATT_MTU_BUFF_COUNT + CYBLE_GATT_MAX_ATTR_BUFF_CO
 432:Generated_Source\PSoC4/ble.c ****         {CYBLE_L2CAP_PSM_PLUS_L2CAP_MEM_EXT, CYBLE_L2CAP_PSM_COUNT},
ARM GAS  C:\Users\Sarah\AppData\Local\Temp\ccLQenA3.s 			page 9


 433:Generated_Source\PSoC4/ble.c ****         {CYBLE_L2CAP_CBFC_PLUS_L2CAP_MEM_EXT, 2u * CYBLE_L2CAP_LOGICAL_CHANNEL_COUNT},
 434:Generated_Source\PSoC4/ble.c ****         {CYBLE_L2CAP_MTU_PLUS_L2CAP_MEM_EXT, CYBLE_L2CAP_LOGICAL_CHANNEL_COUNT},
 435:Generated_Source\PSoC4/ble.c ****         {CYBLE_L2CAP_MPS_PLUS_L2CAP_MEM_EXT, CYBLE_L2CAP_LOGICAL_CHANNEL_COUNT * (CYBLE_L2CAP_MTU_M
 436:Generated_Source\PSoC4/ble.c ****     }; 
 437:Generated_Source\PSoC4/ble.c **** 
 438:Generated_Source\PSoC4/ble.c ****     #endif /* CYBLE_MODE_PROFILE */
 439:Generated_Source\PSoC4/ble.c ****     
 440:Generated_Source\PSoC4/ble.c ****     /* If not initialized then initialize all the required hardware and software */
 441:Generated_Source\PSoC4/ble.c ****     if(cyBle_initVar == 0u)
 442:Generated_Source\PSoC4/ble.c ****     {
 443:Generated_Source\PSoC4/ble.c ****         CyBle_Init();
 444:Generated_Source\PSoC4/ble.c ****         cyBle_initVar = 1u;
 445:Generated_Source\PSoC4/ble.c ****     }
 446:Generated_Source\PSoC4/ble.c ****     
 447:Generated_Source\PSoC4/ble.c ****     if(callbackFunc != NULL)
 448:Generated_Source\PSoC4/ble.c ****     {
 449:Generated_Source\PSoC4/ble.c ****         CyBle_ApplCallback = callbackFunc;
 450:Generated_Source\PSoC4/ble.c ****         
 451:Generated_Source\PSoC4/ble.c ****     #if(CYBLE_SHARING_MODE_EXPORT)
 452:Generated_Source\PSoC4/ble.c ****         if(cyBle_stackMemoryRam == NULL)
 453:Generated_Source\PSoC4/ble.c ****         {
 454:Generated_Source\PSoC4/ble.c ****             cyBle_stackMemoryRam = (uint8 *)malloc(CYBLE_STACK_RAM_SIZE);
 455:Generated_Source\PSoC4/ble.c ****             if(cyBle_stackMemoryRam == NULL)
 456:Generated_Source\PSoC4/ble.c ****             {
 457:Generated_Source\PSoC4/ble.c ****                 apiResult = CYBLE_ERROR_MEMORY_ALLOCATION_FAILED;
 458:Generated_Source\PSoC4/ble.c ****             }
 459:Generated_Source\PSoC4/ble.c ****         }
 460:Generated_Source\PSoC4/ble.c ****     #endif /* CYBLE_SHARING_MODE_EXPORT */
 461:Generated_Source\PSoC4/ble.c ****         if(apiResult == CYBLE_ERROR_OK)
 462:Generated_Source\PSoC4/ble.c ****         {
 463:Generated_Source\PSoC4/ble.c ****             CYBLE_DLE_CONFIG_PARAM_T dleConfigParams;
 464:Generated_Source\PSoC4/ble.c ****             CYBLE_PRIVACY_1_2_CONFIG_PARAM_T privacyConfigParams;
 465:Generated_Source\PSoC4/ble.c ****             CYBLE_STACK_CONFIG_PARAM_T stackConfig;
 466:Generated_Source\PSoC4/ble.c ****             uint16 featureHeapReq;
 467:Generated_Source\PSoC4/ble.c ****             
 468:Generated_Source\PSoC4/ble.c ****             stackConfig.privacyConfig = &privacyConfigParams;
 469:Generated_Source\PSoC4/ble.c ****             stackConfig.dleConfig = &dleConfigParams;
 470:Generated_Source\PSoC4/ble.c ****             
 471:Generated_Source\PSoC4/ble.c ****             /* Configure default BLE 4.1 features and enabled 4.2 features */
 472:Generated_Source\PSoC4/ble.c ****             stackConfig.feature_mask = CYBLE_DLE_FEATURE | CYBLE_LL_PRIVACY_FEATURE | 
 473:Generated_Source\PSoC4/ble.c ****                                        CYBLE_SECURE_CONN_FEATURE;
 474:Generated_Source\PSoC4/ble.c **** 
 475:Generated_Source\PSoC4/ble.c ****             /* Configure DLE */
 476:Generated_Source\PSoC4/ble.c ****             dleConfigParams.dleMaxTxCapability = CYBLE_LL_MAX_TX_PAYLOAD_SIZE;
 477:Generated_Source\PSoC4/ble.c ****             dleConfigParams.dleMaxRxCapability = CYBLE_LL_MAX_RX_PAYLOAD_SIZE;
 478:Generated_Source\PSoC4/ble.c ****             dleConfigParams.dleNumTxBuffer = CYBLE_LL_DEFAULT_NUM_ACL_TX_PACKETS;
 479:Generated_Source\PSoC4/ble.c ****         #if(CYBLE_DLE_FEATURE_ENABLED)
 480:Generated_Source\PSoC4/ble.c ****             CyBle_EnableDleFeature();              /* Enable DLE code in stack */
 481:Generated_Source\PSoC4/ble.c ****         #endif /* CYBLE_DLE_FEATURE_ENABLED */
 482:Generated_Source\PSoC4/ble.c ****         
 483:Generated_Source\PSoC4/ble.c ****             /* Configure LL Privacy */
 484:Generated_Source\PSoC4/ble.c ****             privacyConfigParams.resolvingListSize = CYBLE_MAX_RESOLVABLE_DEVICES;
 485:Generated_Source\PSoC4/ble.c ****         #if(CYBLE_LL_PRIVACY_FEATURE_ENABLED)
 486:Generated_Source\PSoC4/ble.c ****             CyBle_EnablePrivacyFeature();          /* Enable LL Privacy code in stack */
 487:Generated_Source\PSoC4/ble.c ****         #endif /* CYBLE_LL_PRIVACY_FEATURE_ENABLED */
 488:Generated_Source\PSoC4/ble.c **** 
 489:Generated_Source\PSoC4/ble.c ****             apiResult = CyBle_StackSetFeatureConfig(&stackConfig, &featureHeapReq);
ARM GAS  C:\Users\Sarah\AppData\Local\Temp\ccLQenA3.s 			page 10


 490:Generated_Source\PSoC4/ble.c ****             }
 491:Generated_Source\PSoC4/ble.c ****     
 492:Generated_Source\PSoC4/ble.c ****         if(apiResult == CYBLE_ERROR_OK)
 493:Generated_Source\PSoC4/ble.c ****         {
 494:Generated_Source\PSoC4/ble.c ****         
 495:Generated_Source\PSoC4/ble.c ****         #if(CYBLE_MODE_PROFILE)
 496:Generated_Source\PSoC4/ble.c ****             #if(CYBLE_BONDING_REQUIREMENT == CYBLE_BONDING_YES)
 497:Generated_Source\PSoC4/ble.c ****                 apiResult = CyBle_StackInit(&CyBle_EventHandler, cyBle_stackMemoryRam, 
 498:Generated_Source\PSoC4/ble.c ****                     CYBLE_STACK_RAM_SIZE - CYBLE_GATT_PREPARE_WRITE_BUFF_LEN, cyBle_stackDataBuff, 
 499:Generated_Source\PSoC4/ble.c ****                     CYBLE_STACK_APP_MIN_POOL, cyBle_flashStorage.stackFlashptr, CYBLE_STACK_FLASH_S
 500:Generated_Source\PSoC4/ble.c ****             #else
 501:Generated_Source\PSoC4/ble.c ****                 apiResult = CyBle_StackInit(&CyBle_EventHandler, cyBle_stackMemoryRam, 
 502:Generated_Source\PSoC4/ble.c ****                     CYBLE_STACK_RAM_SIZE - CYBLE_GATT_PREPARE_WRITE_BUFF_LEN, cyBle_stackDataBuff, 
 503:Generated_Source\PSoC4/ble.c ****                     CYBLE_STACK_APP_MIN_POOL, NULL, 0u);
 504:Generated_Source\PSoC4/ble.c ****             #endif  /* CYBLE_BONDING_REQUIREMENT == CYBLE_BONDING_YES */
 505:Generated_Source\PSoC4/ble.c ****         #else /* HCI mode */
 506:Generated_Source\PSoC4/ble.c ****             /* The following will perform preparation to use HCI over UART or over
 507:Generated_Source\PSoC4/ble.c ****                software. But the following fucntions will not initialize the HCI
 508:Generated_Source\PSoC4/ble.c ****                Transport. This will be done as part of Stack initialization, so
 509:Generated_Source\PSoC4/ble.c ****                the functions should be called prior CyBle_StackInit().
 510:Generated_Source\PSoC4/ble.c ****             */
 511:Generated_Source\PSoC4/ble.c ****             #if (CYBLE_HCI_TYPE == CYBLE_HCI_OVER_UART)
 512:Generated_Source\PSoC4/ble.c ****                 CyBle_HciUartTransportEnable();
 513:Generated_Source\PSoC4/ble.c ****             #else
 514:Generated_Source\PSoC4/ble.c ****                 CyBle_HciSoftTransportEnable();
 515:Generated_Source\PSoC4/ble.c ****             #endif /* (CYBLE_HCI_TYPE == CYBLE_HCI_OVER_UART) */
 516:Generated_Source\PSoC4/ble.c ****             /* This will initialize BLE stack for HCI mode operation */
 517:Generated_Source\PSoC4/ble.c ****             apiResult = CyBle_StackInit(&CyBle_EventHandler, cyBle_stackMemoryRam, CYBLE_STACK_RAM_
 518:Generated_Source\PSoC4/ble.c ****                 NULL, 0u, NULL, 0u);
 519:Generated_Source\PSoC4/ble.c ****         #endif /* CYBLE_MODE_PROFILE */
 520:Generated_Source\PSoC4/ble.c **** 
 521:Generated_Source\PSoC4/ble.c ****             if(apiResult == CYBLE_ERROR_OK)
 522:Generated_Source\PSoC4/ble.c ****             {
 523:Generated_Source\PSoC4/ble.c ****                 CyBle_SetState(CYBLE_STATE_INITIALIZING);
 524:Generated_Source\PSoC4/ble.c ****                 
 525:Generated_Source\PSoC4/ble.c ****             #if (CYBLE_GATT_ROLE_CLIENT)
 526:Generated_Source\PSoC4/ble.c ****                 CyBle_SetClientState(CYBLE_CLIENT_STATE_DISCONNECTED);
 527:Generated_Source\PSoC4/ble.c ****             #endif /* CYBLE_GATT_ROLE_CLIENT */
 528:Generated_Source\PSoC4/ble.c ****                 
 529:Generated_Source\PSoC4/ble.c ****             #if(CYBLE_GATT_ROLE_SERVER)
 530:Generated_Source\PSoC4/ble.c ****                 apiResult = CyBle_GattsDbRegister(cyBle_gattDB, CYBLE_GATT_DB_INDEX_COUNT, CYBLE_GA
 531:Generated_Source\PSoC4/ble.c ****             #endif /* CYBLE_GATT_ROLE_SERVER */
 532:Generated_Source\PSoC4/ble.c ****             }
 533:Generated_Source\PSoC4/ble.c ****         }
 534:Generated_Source\PSoC4/ble.c ****     }
 535:Generated_Source\PSoC4/ble.c ****     else
 536:Generated_Source\PSoC4/ble.c ****     {
 537:Generated_Source\PSoC4/ble.c ****         apiResult = CYBLE_ERROR_INVALID_PARAMETER;
 538:Generated_Source\PSoC4/ble.c ****     }
 539:Generated_Source\PSoC4/ble.c **** 
 540:Generated_Source\PSoC4/ble.c ****     return (apiResult);
 541:Generated_Source\PSoC4/ble.c **** }
 542:Generated_Source\PSoC4/ble.c **** 
 543:Generated_Source\PSoC4/ble.c **** 
 544:Generated_Source\PSoC4/ble.c **** /******************************************************************************
 545:Generated_Source\PSoC4/ble.c **** * Function Name: CyBle_Stop
 546:Generated_Source\PSoC4/ble.c **** ***************************************************************************//**
ARM GAS  C:\Users\Sarah\AppData\Local\Temp\ccLQenA3.s 			page 11


 547:Generated_Source\PSoC4/ble.c **** * 
 548:Generated_Source\PSoC4/ble.c **** *  This function stops any ongoing operation in the BLE Stack and forces the 
 549:Generated_Source\PSoC4/ble.c **** *  BLE Stack to shut down. The only function that can be called after calling
 550:Generated_Source\PSoC4/ble.c **** *  this function is CyBle_Start(). 
 551:Generated_Source\PSoC4/ble.c **** * 
 552:Generated_Source\PSoC4/ble.c **** * \return
 553:Generated_Source\PSoC4/ble.c **** *  None
 554:Generated_Source\PSoC4/ble.c **** * 
 555:Generated_Source\PSoC4/ble.c **** ******************************************************************************/
 556:Generated_Source\PSoC4/ble.c **** void CyBle_Stop(void)
 557:Generated_Source\PSoC4/ble.c **** {
 558:Generated_Source\PSoC4/ble.c ****     CyBle_Shutdown();                         /* Stop all ongoing activities */
 559:Generated_Source\PSoC4/ble.c ****     CyBle_SetState(CYBLE_STATE_STOPPED);
 560:Generated_Source\PSoC4/ble.c ****     #if(CYBLE_SHARING_MODE_EXPORT)
 561:Generated_Source\PSoC4/ble.c ****         if(cyBle_stackMemoryRam != NULL)
 562:Generated_Source\PSoC4/ble.c ****         {
 563:Generated_Source\PSoC4/ble.c ****             free(cyBle_stackMemoryRam);
 564:Generated_Source\PSoC4/ble.c ****         }
 565:Generated_Source\PSoC4/ble.c ****     #endif /* CYBLE_SHARING_MODE_EXPORT */
 566:Generated_Source\PSoC4/ble.c **** }
 567:Generated_Source\PSoC4/ble.c **** 
 568:Generated_Source\PSoC4/ble.c **** 
 569:Generated_Source\PSoC4/ble.c **** #if((CYBLE_GAP_ROLE_PERIPHERAL || CYBLE_GAP_ROLE_CENTRAL) && (CYBLE_BONDING_REQUIREMENT == CYBLE_BO
 570:Generated_Source\PSoC4/ble.c **** 
 571:Generated_Source\PSoC4/ble.c ****     
 572:Generated_Source\PSoC4/ble.c **** /******************************************************************************
 573:Generated_Source\PSoC4/ble.c **** * Function Name: CyBle_StoreBondingData
 574:Generated_Source\PSoC4/ble.c **** ***************************************************************************//**
 575:Generated_Source\PSoC4/ble.c **** * 
 576:Generated_Source\PSoC4/ble.c **** *  This function writes the new bonding data from RAM to the dedicated Flash 
 577:Generated_Source\PSoC4/ble.c **** *  location as defined by the component. It performs data comparing between RAM
 578:Generated_Source\PSoC4/ble.c **** *  and Flash before writing to Flash. If there is no change between RAM and Flash
 579:Generated_Source\PSoC4/ble.c **** *  data, then no write is performed. It writes only one flash row in one call.
 580:Generated_Source\PSoC4/ble.c **** *  Application should keep calling this function till API return CYBLE_ERROR_OK. 
 581:Generated_Source\PSoC4/ble.c **** *  This function is available only when Bonding requirement is selected in
 582:Generated_Source\PSoC4/ble.c **** *  Security settings.    
 583:Generated_Source\PSoC4/ble.c **** * 
 584:Generated_Source\PSoC4/ble.c **** *  \param isForceWrite:  If value is set to 0, then stack will check if flash write 
 585:Generated_Source\PSoC4/ble.c **** *                 is permissible. 
 586:Generated_Source\PSoC4/ble.c **** *  
 587:Generated_Source\PSoC4/ble.c **** * \return
 588:Generated_Source\PSoC4/ble.c **** *  Return value is of type CYBLE_API_RESULT_T.
 589:Generated_Source\PSoC4/ble.c **** *
 590:Generated_Source\PSoC4/ble.c **** *   Errors codes                         | Description
 591:Generated_Source\PSoC4/ble.c **** *   ----------------------------------   | ------------------------------------
 592:Generated_Source\PSoC4/ble.c **** *   CYBLE_ERROR_OK                       | On successful operation
 593:Generated_Source\PSoC4/ble.c **** *   CYBLE_ERROR_FLASH_WRITE_NOT_PERMITED | Flash Write is not complete
 594:Generated_Source\PSoC4/ble.c **** *   CYBLE_ERROR_INVALID_PARAMETER        | Invalid input parameter  
 595:Generated_Source\PSoC4/ble.c **** *   CYBLE_ERROR_FLASH_WRITE              | Error in flash Write	
 596:Generated_Source\PSoC4/ble.c ****     
 597:Generated_Source\PSoC4/ble.c **** *  \sideeffect
 598:Generated_Source\PSoC4/ble.c **** *   For BLE devices with 128K of Flash memory this API will automatically 
 599:Generated_Source\PSoC4/ble.c **** *   modify the clock settings for the device.
 600:Generated_Source\PSoC4/ble.c **** *   Writing to flash requires changes to be done to the IMO (set to 48 MHz)
 601:Generated_Source\PSoC4/ble.c **** *   and HFCLK (source set to IMO) settings. The configuration is restored before
 602:Generated_Source\PSoC4/ble.c **** *   returning. This will impact the operation of most of the hardware in the
 603:Generated_Source\PSoC4/ble.c **** *   device.
ARM GAS  C:\Users\Sarah\AppData\Local\Temp\ccLQenA3.s 			page 12


 604:Generated_Source\PSoC4/ble.c **** * 
 605:Generated_Source\PSoC4/ble.c **** *  \globalvars
 606:Generated_Source\PSoC4/ble.c **** *   The cyBle_pendingFlashWrite variable is used to detect status
 607:Generated_Source\PSoC4/ble.c **** *   of pending write to flash operation for stack data and CCCD.
 608:Generated_Source\PSoC4/ble.c **** *   This API automatically clears pending bits after write operation complete.
 609:Generated_Source\PSoC4/ble.c **** *     
 610:Generated_Source\PSoC4/ble.c **** ******************************************************************************/
 611:Generated_Source\PSoC4/ble.c **** CYBLE_API_RESULT_T CyBle_StoreBondingData(uint8 isForceWrite)
 612:Generated_Source\PSoC4/ble.c **** {
 613:Generated_Source\PSoC4/ble.c ****     CYBLE_API_RESULT_T apiResult = CYBLE_ERROR_OK;
 614:Generated_Source\PSoC4/ble.c ****     
 615:Generated_Source\PSoC4/ble.c ****     /* Store Stack data */
 616:Generated_Source\PSoC4/ble.c ****     if((cyBle_pendingFlashWrite & CYBLE_PENDING_STACK_FLASH_WRITE_BIT) != 0u)
 617:Generated_Source\PSoC4/ble.c ****     {
 618:Generated_Source\PSoC4/ble.c ****         apiResult = CyBle_StoreStackData(isForceWrite);
 619:Generated_Source\PSoC4/ble.c ****         if(apiResult == CYBLE_ERROR_OK)
 620:Generated_Source\PSoC4/ble.c ****         {
 621:Generated_Source\PSoC4/ble.c ****             cyBle_pendingFlashWrite &= (uint8)~CYBLE_PENDING_STACK_FLASH_WRITE_BIT;
 622:Generated_Source\PSoC4/ble.c ****             /* Change apiResult if there are more pending data to store */
 623:Generated_Source\PSoC4/ble.c ****             if((cyBle_pendingFlashWrite & CYBLE_PENDING_CCCD_FLASH_WRITE_BIT) != 0u)
 624:Generated_Source\PSoC4/ble.c ****             {
 625:Generated_Source\PSoC4/ble.c ****                 apiResult = CYBLE_ERROR_FLASH_WRITE_NOT_PERMITED;
 626:Generated_Source\PSoC4/ble.c ****             }
 627:Generated_Source\PSoC4/ble.c ****         }
 628:Generated_Source\PSoC4/ble.c ****     }
 629:Generated_Source\PSoC4/ble.c **** #if(CYBLE_GATT_DB_CCCD_COUNT != 0u)
 630:Generated_Source\PSoC4/ble.c ****     /* Store CCCD values */
 631:Generated_Source\PSoC4/ble.c ****     if( ((apiResult == CYBLE_ERROR_OK) || (isForceWrite != 0u)) && 
 632:Generated_Source\PSoC4/ble.c ****         ((cyBle_pendingFlashWrite & CYBLE_PENDING_CCCD_FLASH_WRITE_BIT) != 0u) &&
 633:Generated_Source\PSoC4/ble.c ****         (cyBle_connHandle.bdHandle <= CYBLE_GAP_MAX_BONDED_DEVICE))
 634:Generated_Source\PSoC4/ble.c ****     {
 635:Generated_Source\PSoC4/ble.c ****         apiResult = CyBle_StoreAppData(cyBle_attValuesCCCD, cyBle_flashStorage.attValuesCCCDFlashMe
 636:Generated_Source\PSoC4/ble.c ****                         cyBle_connHandle.bdHandle], CYBLE_GATT_DB_CCCD_COUNT, isForceWrite);
 637:Generated_Source\PSoC4/ble.c ****         if(apiResult == CYBLE_ERROR_OK)
 638:Generated_Source\PSoC4/ble.c ****         {
 639:Generated_Source\PSoC4/ble.c ****             cyBle_pendingFlashWrite &= (uint8)~CYBLE_PENDING_CCCD_FLASH_WRITE_BIT;
 640:Generated_Source\PSoC4/ble.c ****         }
 641:Generated_Source\PSoC4/ble.c ****     }
 642:Generated_Source\PSoC4/ble.c ****     /* Clear requested CCCD values */
 643:Generated_Source\PSoC4/ble.c ****     if( ((apiResult == CYBLE_ERROR_OK) || (isForceWrite != 0u)) && 
 644:Generated_Source\PSoC4/ble.c ****         ((cyBle_pendingFlashWrite & CYBLE_PENDING_CCCD_FLASH_CLEAR_MASK) != 0u) )
 645:Generated_Source\PSoC4/ble.c ****     {
 646:Generated_Source\PSoC4/ble.c ****         if((cyBle_pendingFlashWrite & CYBLE_PENDING_CCCD_FLASH_CLEAR_ALL_BIT) != 0u)
 647:Generated_Source\PSoC4/ble.c ****         {
 648:Generated_Source\PSoC4/ble.c ****             /* Remove cccd values for all bonded devices */
 649:Generated_Source\PSoC4/ble.c ****             uint8 defaultValuesCCCD[CYBLE_GAP_MAX_BONDED_DEVICE + 1u][CYBLE_GATT_DB_CCCD_COUNT];
 650:Generated_Source\PSoC4/ble.c ****             
 651:Generated_Source\PSoC4/ble.c ****             (void)memset(defaultValuesCCCD, 0, sizeof(defaultValuesCCCD));
 652:Generated_Source\PSoC4/ble.c **** 
 653:Generated_Source\PSoC4/ble.c ****             apiResult = CyBle_StoreAppData((uint8 *)defaultValuesCCCD, 
 654:Generated_Source\PSoC4/ble.c ****                 (const uint8 *)cyBle_flashStorage.attValuesCCCDFlashMemory, sizeof(defaultValuesCCC
 655:Generated_Source\PSoC4/ble.c ****             if(apiResult == CYBLE_ERROR_OK)
 656:Generated_Source\PSoC4/ble.c ****             {
 657:Generated_Source\PSoC4/ble.c ****                 cyBle_pendingFlashWrite &= (uint8)~CYBLE_PENDING_CCCD_FLASH_CLEAR_ALL_BIT;
 658:Generated_Source\PSoC4/ble.c ****             }
 659:Generated_Source\PSoC4/ble.c ****         }
 660:Generated_Source\PSoC4/ble.c ****         else /* Remove cccd values for particular device */
ARM GAS  C:\Users\Sarah\AppData\Local\Temp\ccLQenA3.s 			page 13


 661:Generated_Source\PSoC4/ble.c ****         {
 662:Generated_Source\PSoC4/ble.c ****             uint8 defaultValuesCCCD[CYBLE_GATT_DB_CCCD_COUNT] = {0u};
 663:Generated_Source\PSoC4/ble.c ****             
 664:Generated_Source\PSoC4/ble.c ****             apiResult = CyBle_StoreAppData(defaultValuesCCCD, cyBle_flashStorage.attValuesCCCDFlash
 665:Generated_Source\PSoC4/ble.c ****                                     cyBle_pendingFlashClearCccdHandle], CYBLE_GATT_DB_CCCD_COUNT, i
 666:Generated_Source\PSoC4/ble.c ****             if(apiResult == CYBLE_ERROR_OK)
 667:Generated_Source\PSoC4/ble.c ****             {
 668:Generated_Source\PSoC4/ble.c ****                 cyBle_pendingFlashWrite &= (uint8)~CYBLE_PENDING_CCCD_FLASH_CLEAR_BIT;
 669:Generated_Source\PSoC4/ble.c ****             }
 670:Generated_Source\PSoC4/ble.c ****         }
 671:Generated_Source\PSoC4/ble.c ****     }
 672:Generated_Source\PSoC4/ble.c **** #endif /* CYBLE_GATT_DB_CCCD_COUNT != 0u */
 673:Generated_Source\PSoC4/ble.c ****     return(apiResult);
 674:Generated_Source\PSoC4/ble.c **** }
 675:Generated_Source\PSoC4/ble.c **** 
 676:Generated_Source\PSoC4/ble.c **** 
 677:Generated_Source\PSoC4/ble.c **** /******************************************************************************
 678:Generated_Source\PSoC4/ble.c **** * Function Name: CyBle_GapRemoveBondedDevice
 679:Generated_Source\PSoC4/ble.c **** ***************************************************************************//**
 680:Generated_Source\PSoC4/ble.c **** * 
 681:Generated_Source\PSoC4/ble.c **** *  This function marks the device untrusted. It removes the bonding information
 682:Generated_Source\PSoC4/ble.c **** *  of the device including CCCD values. This function removes device from the
 683:Generated_Source\PSoC4/ble.c **** *  white list also when autopopulate white list with bonded devices option is
 684:Generated_Source\PSoC4/ble.c **** *  enabled.
 685:Generated_Source\PSoC4/ble.c **** * 
 686:Generated_Source\PSoC4/ble.c **** *  This function is available only when Bonding requirement is selected in
 687:Generated_Source\PSoC4/ble.c **** *  Security settings.    
 688:Generated_Source\PSoC4/ble.c **** *
 689:Generated_Source\PSoC4/ble.c **** *  \param bdAddr: Pointer to peer device address, of type CYBLE_GAP_BD_ADDR_T.
 690:Generated_Source\PSoC4/ble.c **** *                 If device address is set to 0, then all devices shall be
 691:Generated_Source\PSoC4/ble.c **** *                 removed from trusted list and white list.
 692:Generated_Source\PSoC4/ble.c **** *
 693:Generated_Source\PSoC4/ble.c **** * \return
 694:Generated_Source\PSoC4/ble.c **** *  CYBLE_API_RESULT_T : Return value indicates if the function succeeded or
 695:Generated_Source\PSoC4/ble.c **** *  failed. Following are the possible error codes.
 696:Generated_Source\PSoC4/ble.c **** *
 697:Generated_Source\PSoC4/ble.c **** *   Errors codes                     | Description
 698:Generated_Source\PSoC4/ble.c **** *   ---------------------------------| ------------------------------------
 699:Generated_Source\PSoC4/ble.c **** *   CYBLE_ERROR_OK                   | On successful operation.
 700:Generated_Source\PSoC4/ble.c **** *   CYBLE_ERROR_INVALID_PARAMETER    | On specifying NULL as input parameter for 'bdAddr'.
 701:Generated_Source\PSoC4/ble.c **** *   CYBLE_ERROR_INVALID_OPERATION    | Whitelist is already in use or there is pending write to fla
 702:Generated_Source\PSoC4/ble.c **** *   CYBLE_ERROR_NO_DEVICE_ENTITY     | Device does not exist in the bond list.
 703:Generated_Source\PSoC4/ble.c **** *
 704:Generated_Source\PSoC4/ble.c **** *  \globalvars
 705:Generated_Source\PSoC4/ble.c **** *   The bdHandle is set in cyBle_pendingFlashWrite variable to indicate that
 706:Generated_Source\PSoC4/ble.c **** *   data should be stored to flash by CyBle_StoreBondingData afterwards. 
 707:Generated_Source\PSoC4/ble.c **** *     
 708:Generated_Source\PSoC4/ble.c **** ******************************************************************************/
 709:Generated_Source\PSoC4/ble.c **** CYBLE_API_RESULT_T CyBle_GapRemoveBondedDevice(CYBLE_GAP_BD_ADDR_T* bdAddr)
 710:Generated_Source\PSoC4/ble.c **** {
 711:Generated_Source\PSoC4/ble.c ****     CYBLE_API_RESULT_T apiResult = CYBLE_ERROR_OK;
 712:Generated_Source\PSoC4/ble.c ****     
 713:Generated_Source\PSoC4/ble.c ****     if(cyBle_pendingFlashWrite == 0u)
 714:Generated_Source\PSoC4/ble.c ****     {
 715:Generated_Source\PSoC4/ble.c ****         
 716:Generated_Source\PSoC4/ble.c ****     #if(CYBLE_GATT_DB_CCCD_COUNT != 0u)
 717:Generated_Source\PSoC4/ble.c ****         /* Request to clear CCCD values which will be done by CyBle_StoreBondingData API */
ARM GAS  C:\Users\Sarah\AppData\Local\Temp\ccLQenA3.s 			page 14


 718:Generated_Source\PSoC4/ble.c ****         uint8 bDevHandle;
 719:Generated_Source\PSoC4/ble.c ****         CYBLE_GAP_BD_ADDR_T invalidBdAddr = {{0u,0u,0u,0u,0u,0u}, 0u};
 720:Generated_Source\PSoC4/ble.c **** 
 721:Generated_Source\PSoC4/ble.c ****         if(memcmp(((uint8 *) &(bdAddr->bdAddr)), ((uint8 *) &(invalidBdAddr.bdAddr)), CYBLE_GAP_BD_
 722:Generated_Source\PSoC4/ble.c **** 	    {
 723:Generated_Source\PSoC4/ble.c ****             /* Request to remove all bonded devices by cyBle_StoreBondingData API */
 724:Generated_Source\PSoC4/ble.c ****             cyBle_pendingFlashWrite |= CYBLE_PENDING_CCCD_FLASH_CLEAR_ALL_BIT;
 725:Generated_Source\PSoC4/ble.c ****         }
 726:Generated_Source\PSoC4/ble.c ****         else
 727:Generated_Source\PSoC4/ble.c ****         {
 728:Generated_Source\PSoC4/ble.c ****             /* Get the BD handle from Address */
 729:Generated_Source\PSoC4/ble.c ****             apiResult = CyBle_GapGetPeerBdHandle(&bDevHandle, bdAddr);
 730:Generated_Source\PSoC4/ble.c ****             if(apiResult == CYBLE_ERROR_OK)
 731:Generated_Source\PSoC4/ble.c ****             {
 732:Generated_Source\PSoC4/ble.c ****                 /* Store BD handle to clear cccd values by CyBle_StoreBondingData API */
 733:Generated_Source\PSoC4/ble.c ****                 cyBle_pendingFlashWrite |= CYBLE_PENDING_CCCD_FLASH_CLEAR_BIT;
 734:Generated_Source\PSoC4/ble.c ****                 cyBle_pendingFlashClearCccdHandle = bDevHandle;
 735:Generated_Source\PSoC4/ble.c ****             }
 736:Generated_Source\PSoC4/ble.c ****         }
 737:Generated_Source\PSoC4/ble.c ****     #endif /* CYBLE_GATT_DB_CCCD_COUNT != 0u */
 738:Generated_Source\PSoC4/ble.c ****         if(apiResult == CYBLE_ERROR_OK)
 739:Generated_Source\PSoC4/ble.c ****         {
 740:Generated_Source\PSoC4/ble.c ****             apiResult = CyBle_GapRemoveDeviceFromWhiteList(bdAddr);
 741:Generated_Source\PSoC4/ble.c ****         }
 742:Generated_Source\PSoC4/ble.c ****     }
 743:Generated_Source\PSoC4/ble.c ****     else
 744:Generated_Source\PSoC4/ble.c ****     {
 745:Generated_Source\PSoC4/ble.c ****         apiResult = CYBLE_ERROR_INVALID_OPERATION;
 746:Generated_Source\PSoC4/ble.c ****     }
 747:Generated_Source\PSoC4/ble.c ****     
 748:Generated_Source\PSoC4/ble.c ****     return(apiResult);
 749:Generated_Source\PSoC4/ble.c **** }
 750:Generated_Source\PSoC4/ble.c **** 
 751:Generated_Source\PSoC4/ble.c **** 
 752:Generated_Source\PSoC4/ble.c **** #endif /* (CYBLE_GAP_ROLE_PERIPHERAL || CYBLE_GAP_ROLE_CENTRAL) && (CYBLE_BONDING_REQUIREMENT == CY
 753:Generated_Source\PSoC4/ble.c **** 
 754:Generated_Source\PSoC4/ble.c **** 
 755:Generated_Source\PSoC4/ble.c **** #if(CYBLE_GAP_ROLE_PERIPHERAL || CYBLE_GAP_ROLE_BROADCASTER)
 756:Generated_Source\PSoC4/ble.c **** 
 757:Generated_Source\PSoC4/ble.c ****     /******************************************************************************
 758:Generated_Source\PSoC4/ble.c ****     *  Function Name: CyBle_GappStartAdvertisement
 759:Generated_Source\PSoC4/ble.c ****     ***************************************************************************//**
 760:Generated_Source\PSoC4/ble.c ****     *     
 761:Generated_Source\PSoC4/ble.c ****     *  This function is used to start the advertisement using the advertisement data 
 762:Generated_Source\PSoC4/ble.c ****     *  set in the component customizer's GUI. After invoking this API, the device 
 763:Generated_Source\PSoC4/ble.c ****     *  will be available for connection by the devices configured for GAP central 
 764:Generated_Source\PSoC4/ble.c ****     *  role. It is only included if the device is configured for GAP Peripheral or 
 765:Generated_Source\PSoC4/ble.c ****     *  GAP Peripheral + Central role.
 766:Generated_Source\PSoC4/ble.c ****     *  
 767:Generated_Source\PSoC4/ble.c ****     *  On start of advertisement, GAP Peripheral receives the
 768:Generated_Source\PSoC4/ble.c ****     *  CYBLE_EVT_GAPP_ADVERTISEMENT_START_STOP event. The following events are 
 769:Generated_Source\PSoC4/ble.c ****     *  possible on invoking this function:
 770:Generated_Source\PSoC4/ble.c ****     *  
 771:Generated_Source\PSoC4/ble.c ****     *  * CYBLE_EVT_GAP_DEVICE_CONNECTED - If the device connects to a GAP Central and 
 772:Generated_Source\PSoC4/ble.c ****     *    Link Layer Privacy is disabled in component customizer.
 773:Generated_Source\PSoC4/ble.c ****     *  * CYBLE_EVT_GAP_ENHANCE_CONN_COMPLETE - If the device connects to a GAP Central and 
 774:Generated_Source\PSoC4/ble.c ****     *    Link Layer Privacy is enabled in component customizer.
ARM GAS  C:\Users\Sarah\AppData\Local\Temp\ccLQenA3.s 			page 15


 775:Generated_Source\PSoC4/ble.c ****     *  * CYBLE_EVT_TIMEOUT: If no device in GAP Central mode connects to this 
 776:Generated_Source\PSoC4/ble.c ****     *                       device within the specified timeout limit. Stack 
 777:Generated_Source\PSoC4/ble.c ****     *                       automatically initiate stop advertising when Slow 
 778:Generated_Source\PSoC4/ble.c ****     *                       advertising was initiated, or starts Slow advertising
 779:Generated_Source\PSoC4/ble.c ****     *                       after Fast advertising timeout occur.
 780:Generated_Source\PSoC4/ble.c ****     *  * CYBLE_EVT_GAPP_ADVERTISEMENT_START_STOP: If device started or stopped
 781:Generated_Source\PSoC4/ble.c ****     *                                               advertising. Use CyBle_GetState()
 782:Generated_Source\PSoC4/ble.c ****     *                                               to determine the state. Sequential 
 783:Generated_Source\PSoC4/ble.c ****     *                                               advertising could be started when
 784:Generated_Source\PSoC4/ble.c ****     *                                               CYBLE_STATE_DISCONNECTED state is
 785:Generated_Source\PSoC4/ble.c ****     *                                               returned.
 786:Generated_Source\PSoC4/ble.c ****     * 
 787:Generated_Source\PSoC4/ble.c ****     *  \param advertisingIntervalType: Fast or slow advertising interval with timings
 788:Generated_Source\PSoC4/ble.c ****     *                                 entered in Advertising settings section of the
 789:Generated_Source\PSoC4/ble.c ****     *                                 customizer.
 790:Generated_Source\PSoC4/ble.c ****     *  * CYBLE_ADVERTISING_FAST   0x00u
 791:Generated_Source\PSoC4/ble.c ****     *  * CYBLE_ADVERTISING_SLOW   0x01u
 792:Generated_Source\PSoC4/ble.c ****     *  * CYBLE_ADVERTISING_CUSTOM 0x02u
 793:Generated_Source\PSoC4/ble.c ****     * 
 794:Generated_Source\PSoC4/ble.c ****     * \return
 795:Generated_Source\PSoC4/ble.c ****     *  CYBLE_API_RESULT_T : Return value indicates if the function succeeded or
 796:Generated_Source\PSoC4/ble.c ****     *  failed. Following are the possible error codes.
 797:Generated_Source\PSoC4/ble.c ****     * 
 798:Generated_Source\PSoC4/ble.c ****     *   Errors codes                      |  Description
 799:Generated_Source\PSoC4/ble.c ****     *   --------------------------------- |  --------------------------------
 800:Generated_Source\PSoC4/ble.c ****     *   CYBLE_ERROR_OK                    |  On successful operation.
 801:Generated_Source\PSoC4/ble.c ****     *   CYBLE_ERROR_INVALID_PARAMETER     |  On passing an invalid parameter.
 802:Generated_Source\PSoC4/ble.c ****     *   CYBLE_ERROR_INVALID_STATE         |  On calling this API not in Disconnected state.
 803:Generated_Source\PSoC4/ble.c ****     *
 804:Generated_Source\PSoC4/ble.c ****     * 
 805:Generated_Source\PSoC4/ble.c ****     *******************************************************************************/
 806:Generated_Source\PSoC4/ble.c ****     CYBLE_API_RESULT_T CyBle_GappStartAdvertisement(uint8 advertisingIntervalType)
 807:Generated_Source\PSoC4/ble.c ****     {
 808:Generated_Source\PSoC4/ble.c ****         CYBLE_API_RESULT_T apiResult;
 809:Generated_Source\PSoC4/ble.c ****         
 810:Generated_Source\PSoC4/ble.c ****         if(advertisingIntervalType > CYBLE_ADVERTISING_CUSTOM)
 811:Generated_Source\PSoC4/ble.c ****         {
 812:Generated_Source\PSoC4/ble.c ****             apiResult = CYBLE_ERROR_INVALID_PARAMETER;
 813:Generated_Source\PSoC4/ble.c ****         }
 814:Generated_Source\PSoC4/ble.c ****         else if((CYBLE_STATE_DISCONNECTED == CyBle_GetState()) && ((cyBle_eventHandlerFlag & CYBLE_
 815:Generated_Source\PSoC4/ble.c ****         {   
 816:Generated_Source\PSoC4/ble.c ****             if(advertisingIntervalType == CYBLE_ADVERTISING_FAST)
 817:Generated_Source\PSoC4/ble.c ****             {
 818:Generated_Source\PSoC4/ble.c ****                 cyBle_discoveryModeInfo.advTo = CYBLE_FAST_ADV_TIMEOUT;
 819:Generated_Source\PSoC4/ble.c ****                 cyBle_discoveryModeInfo.advParam->advIntvMin = CYBLE_FAST_ADV_INT_MIN;
 820:Generated_Source\PSoC4/ble.c ****                 cyBle_discoveryModeInfo.advParam->advIntvMax = CYBLE_FAST_ADV_INT_MAX;
 821:Generated_Source\PSoC4/ble.c ****             }
 822:Generated_Source\PSoC4/ble.c ****             else if(advertisingIntervalType == CYBLE_ADVERTISING_SLOW)
 823:Generated_Source\PSoC4/ble.c ****             {
 824:Generated_Source\PSoC4/ble.c ****                 cyBle_discoveryModeInfo.advTo = CYBLE_SLOW_ADV_TIMEOUT;
 825:Generated_Source\PSoC4/ble.c ****                 cyBle_discoveryModeInfo.advParam->advIntvMin = CYBLE_SLOW_ADV_INT_MIN;
 826:Generated_Source\PSoC4/ble.c ****                 cyBle_discoveryModeInfo.advParam->advIntvMax = CYBLE_SLOW_ADV_INT_MAX;
 827:Generated_Source\PSoC4/ble.c ****             }       
 828:Generated_Source\PSoC4/ble.c ****             else /* Do not update advertising intervals */
 829:Generated_Source\PSoC4/ble.c ****             {
 830:Generated_Source\PSoC4/ble.c ****             }
 831:Generated_Source\PSoC4/ble.c ****             cyBle_advertisingIntervalType = advertisingIntervalType;
ARM GAS  C:\Users\Sarah\AppData\Local\Temp\ccLQenA3.s 			page 16


 832:Generated_Source\PSoC4/ble.c ****             apiResult = CyBle_GappEnterDiscoveryMode(&cyBle_discoveryModeInfo);
 833:Generated_Source\PSoC4/ble.c ****         
 834:Generated_Source\PSoC4/ble.c ****             if(apiResult == CYBLE_ERROR_OK)
 835:Generated_Source\PSoC4/ble.c ****             {
 836:Generated_Source\PSoC4/ble.c ****                 cyBle_eventHandlerFlag |= CYBLE_START_FLAG;
 837:Generated_Source\PSoC4/ble.c ****             }
 838:Generated_Source\PSoC4/ble.c ****         }
 839:Generated_Source\PSoC4/ble.c ****         else
 840:Generated_Source\PSoC4/ble.c ****         {
 841:Generated_Source\PSoC4/ble.c ****             apiResult = CYBLE_ERROR_INVALID_STATE;
 842:Generated_Source\PSoC4/ble.c ****         }
 843:Generated_Source\PSoC4/ble.c **** 
 844:Generated_Source\PSoC4/ble.c ****         return (apiResult);
 845:Generated_Source\PSoC4/ble.c ****     }
 846:Generated_Source\PSoC4/ble.c **** 
 847:Generated_Source\PSoC4/ble.c ****     
 848:Generated_Source\PSoC4/ble.c ****     /******************************************************************************
 849:Generated_Source\PSoC4/ble.c ****     * Function Name: CyBle_GappStopAdvertisement
 850:Generated_Source\PSoC4/ble.c ****     ***************************************************************************//**
 851:Generated_Source\PSoC4/ble.c ****     * 
 852:Generated_Source\PSoC4/ble.c ****     *   This function can be used to exit from discovery mode. After the execution 
 853:Generated_Source\PSoC4/ble.c ****     *   of this function, there will no longer be any advertisements. On stopping 
 854:Generated_Source\PSoC4/ble.c ****     *   advertising, GAP Peripheral receives CYBLE_EVT_GAPP_ADVERTISEMENT_START_STOP
 855:Generated_Source\PSoC4/ble.c ****     *   event. It is expected that the application layer tracks the function call 
 856:Generated_Source\PSoC4/ble.c ****     *   performed before occurrence of this event as this event can occur on making 
 857:Generated_Source\PSoC4/ble.c ****     *   a call to Cy_BleGappStartAdvertisement(), CyBle_GappEnterDiscoveryMode(), 
 858:Generated_Source\PSoC4/ble.c ****     *   or CyBle_GappStartAdvertisement() functions as well.
 859:Generated_Source\PSoC4/ble.c ****     *   
 860:Generated_Source\PSoC4/ble.c ****     *   The following event occurs on invoking this function:
 861:Generated_Source\PSoC4/ble.c ****     *   * CYBLE_EVT_GAPP_ADVERTISEMENT_START_STOP
 862:Generated_Source\PSoC4/ble.c ****     * 
 863:Generated_Source\PSoC4/ble.c ****     *  \return
 864:Generated_Source\PSoC4/ble.c ****     *   None
 865:Generated_Source\PSoC4/ble.c ****     * 
 866:Generated_Source\PSoC4/ble.c ****     *******************************************************************************/
 867:Generated_Source\PSoC4/ble.c ****     void CyBle_GappStopAdvertisement(void)
 868:Generated_Source\PSoC4/ble.c ****     {
 869:Generated_Source\PSoC4/ble.c ****         CyBle_GappExitDiscoveryMode();
 870:Generated_Source\PSoC4/ble.c ****         cyBle_eventHandlerFlag |= CYBLE_STOP_FLAG;
 871:Generated_Source\PSoC4/ble.c ****     }
 872:Generated_Source\PSoC4/ble.c ****     
 873:Generated_Source\PSoC4/ble.c ****     
 874:Generated_Source\PSoC4/ble.c ****     /******************************************************************************
 875:Generated_Source\PSoC4/ble.c ****     * Function Name: CyBle_ChangeAdDeviceAddress
 876:Generated_Source\PSoC4/ble.c ****     ***************************************************************************//**
 877:Generated_Source\PSoC4/ble.c ****     * 
 878:Generated_Source\PSoC4/ble.c ****     *  This API is used to set the Bluetooth device address into the advertisement 
 879:Generated_Source\PSoC4/ble.c ****     *  or scan response data structure.
 880:Generated_Source\PSoC4/ble.c ****     * 
 881:Generated_Source\PSoC4/ble.c ****     *  \param bdAddr: Bluetooth Device address. The variable is of type CYBLE_GAP_BD_ADDR_T
 882:Generated_Source\PSoC4/ble.c ****     *  \param dest: 0 - selects advertisement structure, not zero value selects scan 
 883:Generated_Source\PSoC4/ble.c ****     *               response structure.
 884:Generated_Source\PSoC4/ble.c ****     * 
 885:Generated_Source\PSoC4/ble.c ****     * \return
 886:Generated_Source\PSoC4/ble.c ****     *  None
 887:Generated_Source\PSoC4/ble.c ****     *  
 888:Generated_Source\PSoC4/ble.c ****     *******************************************************************************/
ARM GAS  C:\Users\Sarah\AppData\Local\Temp\ccLQenA3.s 			page 17


 889:Generated_Source\PSoC4/ble.c ****     void CyBle_ChangeAdDeviceAddress(const CYBLE_GAP_BD_ADDR_T* bdAddr, uint8 dest)
 890:Generated_Source\PSoC4/ble.c ****     {
 891:Generated_Source\PSoC4/ble.c ****         uint8 i;
 892:Generated_Source\PSoC4/ble.c ****         uint8 *destBuffer = NULL;
 893:Generated_Source\PSoC4/ble.c ****         
 894:Generated_Source\PSoC4/ble.c ****         if(dest == 0u)      /* Destination - advertising structure */
 895:Generated_Source\PSoC4/ble.c ****         {
 896:Generated_Source\PSoC4/ble.c ****             #ifdef CYBLE_ADV_PKT_INDEX_BLUETOOTH_DEVICE_ADDRESS
 897:Generated_Source\PSoC4/ble.c ****                 destBuffer = &cyBle_discoveryData.advData[CYBLE_ADV_PKT_INDEX_BLUETOOTH_DEVICE_ADDR
 898:Generated_Source\PSoC4/ble.c ****             #endif /* CYBLE_ADV_PKT_INDEX_BLUETOOTH_DEVICE_ADDRESS */
 899:Generated_Source\PSoC4/ble.c ****         }
 900:Generated_Source\PSoC4/ble.c ****         else                /* Destination - scan response structure */
 901:Generated_Source\PSoC4/ble.c ****         {
 902:Generated_Source\PSoC4/ble.c ****             #ifdef CYBLE_SCN_PKT_INDEX_BLUETOOTH_DEVICE_ADDRESS
 903:Generated_Source\PSoC4/ble.c ****                 destBuffer = &cyBle_scanRspData.scanRspData[CYBLE_SCN_PKT_INDEX_BLUETOOTH_DEVICE_AD
 904:Generated_Source\PSoC4/ble.c ****             #endif /* CYBLE_SCN_PKT_INDEX_BLUETOOTH_DEVICE_ADDRESS */    
 905:Generated_Source\PSoC4/ble.c ****         }
 906:Generated_Source\PSoC4/ble.c ****         
 907:Generated_Source\PSoC4/ble.c ****         if(destBuffer != NULL)
 908:Generated_Source\PSoC4/ble.c ****         {
 909:Generated_Source\PSoC4/ble.c ****             /* Update Device Address type */
 910:Generated_Source\PSoC4/ble.c ****             destBuffer[0u] = bdAddr->type;
 911:Generated_Source\PSoC4/ble.c ****             
 912:Generated_Source\PSoC4/ble.c ****             for(i = 0u; i < CYBLE_GAP_BD_ADDR_SIZE; i++)
 913:Generated_Source\PSoC4/ble.c ****             {
 914:Generated_Source\PSoC4/ble.c ****                 destBuffer[i + 1u] = bdAddr->bdAddr[i];
 915:Generated_Source\PSoC4/ble.c ****             }
 916:Generated_Source\PSoC4/ble.c ****         }
 917:Generated_Source\PSoC4/ble.c ****     }
 918:Generated_Source\PSoC4/ble.c ****   
 919:Generated_Source\PSoC4/ble.c **** #endif /* CYBLE_GAP_ROLE_PERIPHERAL || CYBLE_GAP_ROLE_BROADCASTER */
 920:Generated_Source\PSoC4/ble.c **** 
 921:Generated_Source\PSoC4/ble.c **** 
 922:Generated_Source\PSoC4/ble.c **** #if(CYBLE_GAP_ROLE_CENTRAL || CYBLE_GAP_ROLE_OBSERVER)
 923:Generated_Source\PSoC4/ble.c **** 
 924:Generated_Source\PSoC4/ble.c ****     /******************************************************************************
 925:Generated_Source\PSoC4/ble.c ****     * Function Name: CyBle_GapcStartScan
 926:Generated_Source\PSoC4/ble.c ****     ***************************************************************************//**
 927:Generated_Source\PSoC4/ble.c ****     * 
 928:Generated_Source\PSoC4/ble.c ****     *   This function is used for discovering GAP peripheral devices that are 
 929:Generated_Source\PSoC4/ble.c ****     *   available for connection. It performs the scanning routine using the 
 930:Generated_Source\PSoC4/ble.c ****     *   parameters entered in the component's customizer.
 931:Generated_Source\PSoC4/ble.c ****     *   
 932:Generated_Source\PSoC4/ble.c ****     *   As soon as the discovery operation starts, CYBLE_EVT_GAPC_SCAN_START_STOP 
 933:Generated_Source\PSoC4/ble.c ****     *   event is generated. The CYBLE_EVT_GAPC_SCAN_PROGRESS_RESULT event is 
 934:Generated_Source\PSoC4/ble.c ****     *   generated when a GAP peripheral device is located. There are three discovery
 935:Generated_Source\PSoC4/ble.c ****     *   procedures can be selected in the customizer's GUI:
 936:Generated_Source\PSoC4/ble.c ****     *   
 937:Generated_Source\PSoC4/ble.c ****     *   * Observation procedure: A device performing the observer role receives only
 938:Generated_Source\PSoC4/ble.c ****     *                            advertisement data from devices irrespective of 
 939:Generated_Source\PSoC4/ble.c ****     *                            their discoverable mode settings. Advertisement 
 940:Generated_Source\PSoC4/ble.c ****     *                            data received is provided by the event,      
 941:Generated_Source\PSoC4/ble.c ****     *                            CYBLE_EVT_GAPC_SCAN_PROGRESS_RESULT. This procedure
 942:Generated_Source\PSoC4/ble.c ****     *                            requires the scanType sub parameter to be passive
 943:Generated_Source\PSoC4/ble.c ****     *                            scanning. 
 944:Generated_Source\PSoC4/ble.c ****     *   
 945:Generated_Source\PSoC4/ble.c ****     *   * Limited Discovery procedure: A device performing the limited discovery
ARM GAS  C:\Users\Sarah\AppData\Local\Temp\ccLQenA3.s 			page 18


 946:Generated_Source\PSoC4/ble.c ****     *                                  procedure receives advertisement data and 
 947:Generated_Source\PSoC4/ble.c ****     *                                  scan# response data from devices in the 
 948:Generated_Source\PSoC4/ble.c ****     *                                  limited discoverable mode only. Received data
 949:Generated_Source\PSoC4/ble.c ****     *                                  is provided by the event, 
 950:Generated_Source\PSoC4/ble.c ****     *                                  CYBLE_EVT_GAPC_SCAN_PROGRESS_RESULT. This 
 951:Generated_Source\PSoC4/ble.c ****     *                                  procedure requires the scanType sub-parameter 
 952:Generated_Source\PSoC4/ble.c ****     *                                  to be active scanning.
 953:Generated_Source\PSoC4/ble.c ****     *   
 954:Generated_Source\PSoC4/ble.c ****     *   * General Discovery procedure: A device performing the general discovery 
 955:Generated_Source\PSoC4/ble.c ****     *                                  procedure receives the advertisement data and
 956:Generated_Source\PSoC4/ble.c ****     *                                  scan response data from devices in both 
 957:Generated_Source\PSoC4/ble.c ****     *                                  limited discoverable mode and the general 
 958:Generated_Source\PSoC4/ble.c ****     *                                  discoverable mode. Received data is provided
 959:Generated_Source\PSoC4/ble.c ****     *                                  by the event,
 960:Generated_Source\PSoC4/ble.c ****     *                                  CYBLE_EVT_GAPC_SCAN_PROGRESS_RESULT. This 
 961:Generated_Source\PSoC4/ble.c ****     *                                  procedure requires the scanType sub-parameter
 962:Generated_Source\PSoC4/ble.c ****     *                                  to be active scanning.
 963:Generated_Source\PSoC4/ble.c ****     *   
 964:Generated_Source\PSoC4/ble.c ****     *   Every Advertisement / Scan response packet received results in a new event, 
 965:Generated_Source\PSoC4/ble.c ****     *   CYBLE_EVT_GAPC_SCAN_PROGRESS_RESULT.
 966:Generated_Source\PSoC4/ble.c ****     *   If 'scanTo' sub-parameter is a non-zero value, then upon commencement of 
 967:Generated_Source\PSoC4/ble.c ****     *   discovery procedure and elapsed time = 'scanTo', CYBLE_EVT_TIMEOUT event
 968:Generated_Source\PSoC4/ble.c ****     *   is generated with the event parameter indicating CYBLE_GAP_SCAN_TO.
 969:Generated_Source\PSoC4/ble.c ****     *   Possible generated events are:
 970:Generated_Source\PSoC4/ble.c ****     *   * CYBLE_EVT_GAPC_SCAN_START_STOP: If a device started or stopped scanning. 
 971:Generated_Source\PSoC4/ble.c ****     *                                     Use CyBle_GetState() to determine the 
 972:Generated_Source\PSoC4/ble.c ****     *                                     state. Sequential scanning could be 
 973:Generated_Source\PSoC4/ble.c ****     *                                     started when CYBLE_STATE_DISCONNECTED 
 974:Generated_Source\PSoC4/ble.c ****     *                                     state is returned. 
 975:Generated_Source\PSoC4/ble.c ****     *   * CYBLE_EVT_GAPC_SCAN_PROGRESS_RESULT 
 976:Generated_Source\PSoC4/ble.c ****     *   * CYBLE_EVT_TIMEOUT (CYBLE_GAP_SCAN_TO)
 977:Generated_Source\PSoC4/ble.c ****     * 
 978:Generated_Source\PSoC4/ble.c ****     *   \param scanningIntervalType:  Fast or slow scanning interval with
 979:Generated_Source\PSoC4/ble.c ****     *       timings entered in Scan settings section of the customizer.
 980:Generated_Source\PSoC4/ble.c ****     * 	  * CYBLE_SCANNING_FAST   0x00u
 981:Generated_Source\PSoC4/ble.c ****     * 	  * CYBLE_SCANNING_SLOW   0x01u
 982:Generated_Source\PSoC4/ble.c ****     * 	  * CYBLE_SCANNING_CUSTOM 0x02u
 983:Generated_Source\PSoC4/ble.c ****     * 
 984:Generated_Source\PSoC4/ble.c ****     * \return
 985:Generated_Source\PSoC4/ble.c ****     *  CYBLE_API_RESULT_T : Return value indicates if the function succeeded or
 986:Generated_Source\PSoC4/ble.c ****     *  failed. Following are the possible error codes.
 987:Generated_Source\PSoC4/ble.c ****     *
 988:Generated_Source\PSoC4/ble.c ****     *   Errors codes                       | Description
 989:Generated_Source\PSoC4/ble.c ****     *   ---------------------------------- | -----------------------------------
 990:Generated_Source\PSoC4/ble.c ****     *   CYBLE_ERROR_OK                     | On successful operation.
 991:Generated_Source\PSoC4/ble.c ****     *   CYBLE_ERROR_STACK_INTERNAL         | An error occurred in the BLE stack.
 992:Generated_Source\PSoC4/ble.c ****     *   CYBLE_ERROR_INVALID_PARAMETER      | On passing an invalid parameter.
 993:Generated_Source\PSoC4/ble.c ****     *  
 994:Generated_Source\PSoC4/ble.c ****     *******************************************************************************/
 995:Generated_Source\PSoC4/ble.c ****     CYBLE_API_RESULT_T CyBle_GapcStartScan(uint8 scanningIntervalType)
 996:Generated_Source\PSoC4/ble.c ****     {
 997:Generated_Source\PSoC4/ble.c ****         CYBLE_API_RESULT_T apiResult;
 998:Generated_Source\PSoC4/ble.c **** 
 999:Generated_Source\PSoC4/ble.c ****         if(scanningIntervalType > CYBLE_SCANNING_CUSTOM)
1000:Generated_Source\PSoC4/ble.c ****         {
1001:Generated_Source\PSoC4/ble.c ****             apiResult = CYBLE_ERROR_INVALID_PARAMETER;
1002:Generated_Source\PSoC4/ble.c ****         }
ARM GAS  C:\Users\Sarah\AppData\Local\Temp\ccLQenA3.s 			page 19


1003:Generated_Source\PSoC4/ble.c ****         else
1004:Generated_Source\PSoC4/ble.c ****         {
1005:Generated_Source\PSoC4/ble.c ****             if(scanningIntervalType == CYBLE_SCANNING_FAST)
1006:Generated_Source\PSoC4/ble.c ****             {
1007:Generated_Source\PSoC4/ble.c ****                 cyBle_discoveryInfo.scanTo = CYBLE_FAST_SCAN_TIMEOUT;
1008:Generated_Source\PSoC4/ble.c ****                 cyBle_discoveryInfo.scanIntv = CYBLE_FAST_SCAN_INTERVAL;
1009:Generated_Source\PSoC4/ble.c ****                 cyBle_discoveryInfo.scanWindow = CYBLE_FAST_SCAN_WINDOW;
1010:Generated_Source\PSoC4/ble.c ****             }
1011:Generated_Source\PSoC4/ble.c ****             else if(scanningIntervalType == CYBLE_SCANNING_SLOW)
1012:Generated_Source\PSoC4/ble.c ****             {
1013:Generated_Source\PSoC4/ble.c ****                 cyBle_discoveryInfo.scanTo = CYBLE_SLOW_SCAN_TIMEOUT;
1014:Generated_Source\PSoC4/ble.c ****                 cyBle_discoveryInfo.scanIntv = CYBLE_SLOW_SCAN_INTERVAL;
1015:Generated_Source\PSoC4/ble.c ****                 cyBle_discoveryInfo.scanWindow = CYBLE_SLOW_SCAN_WINDOW;
1016:Generated_Source\PSoC4/ble.c ****             }       
1017:Generated_Source\PSoC4/ble.c ****             else /* Do not update scanning intervals */
1018:Generated_Source\PSoC4/ble.c ****             {
1019:Generated_Source\PSoC4/ble.c ****             }
1020:Generated_Source\PSoC4/ble.c ****             
1021:Generated_Source\PSoC4/ble.c ****             cyBle_scanningIntervalType = scanningIntervalType;
1022:Generated_Source\PSoC4/ble.c ****             apiResult = CyBle_GapcStartDiscovery(&cyBle_discoveryInfo);
1023:Generated_Source\PSoC4/ble.c ****         
1024:Generated_Source\PSoC4/ble.c ****             if(apiResult == CYBLE_ERROR_OK)
1025:Generated_Source\PSoC4/ble.c ****             {
1026:Generated_Source\PSoC4/ble.c ****                 cyBle_eventHandlerFlag |= CYBLE_START_FLAG;
1027:Generated_Source\PSoC4/ble.c ****             }
1028:Generated_Source\PSoC4/ble.c ****         }
1029:Generated_Source\PSoC4/ble.c ****        
1030:Generated_Source\PSoC4/ble.c ****         return (apiResult);
1031:Generated_Source\PSoC4/ble.c ****     }
1032:Generated_Source\PSoC4/ble.c ****     
1033:Generated_Source\PSoC4/ble.c ****     
1034:Generated_Source\PSoC4/ble.c ****     /******************************************************************************
1035:Generated_Source\PSoC4/ble.c ****     * Function Name: CyBle_GapcStopScan
1036:Generated_Source\PSoC4/ble.c ****     ***************************************************************************//**
1037:Generated_Source\PSoC4/ble.c ****     * 
1038:Generated_Source\PSoC4/ble.c ****     *   This function used to stop the discovery of devices. On stopping discovery
1039:Generated_Source\PSoC4/ble.c ****     *   operation, CYBLE_EVT_GAPC_SCAN_START_STOP event is generated. Application
1040:Generated_Source\PSoC4/ble.c ****     *   layer needs to keep track of the function call made before receiving this
1041:Generated_Source\PSoC4/ble.c ****     *   event to associate this event with either the start or stop discovery
1042:Generated_Source\PSoC4/ble.c ****     *   function.
1043:Generated_Source\PSoC4/ble.c ****     * 
1044:Generated_Source\PSoC4/ble.c ****     *   Possible events generated are:
1045:Generated_Source\PSoC4/ble.c ****     *    * CYBLE_EVT_GAPC_SCAN_START_STOP
1046:Generated_Source\PSoC4/ble.c ****     * 
1047:Generated_Source\PSoC4/ble.c ****     *  \return
1048:Generated_Source\PSoC4/ble.c ****     *   None
1049:Generated_Source\PSoC4/ble.c ****     * 
1050:Generated_Source\PSoC4/ble.c ****     *******************************************************************************/
1051:Generated_Source\PSoC4/ble.c ****     void CyBle_GapcStopScan(void)
1052:Generated_Source\PSoC4/ble.c ****     {
1053:Generated_Source\PSoC4/ble.c ****         CyBle_GapcStopDiscovery();
1054:Generated_Source\PSoC4/ble.c ****         
1055:Generated_Source\PSoC4/ble.c ****         cyBle_eventHandlerFlag |= CYBLE_STOP_FLAG;
1056:Generated_Source\PSoC4/ble.c ****     }
1057:Generated_Source\PSoC4/ble.c **** 
1058:Generated_Source\PSoC4/ble.c ****     
1059:Generated_Source\PSoC4/ble.c **** #endif /* CYBLE_GAP_ROLE_CENTRAL || CYBLE_GAP_ROLE_OBSERVER */
ARM GAS  C:\Users\Sarah\AppData\Local\Temp\ccLQenA3.s 			page 20


1060:Generated_Source\PSoC4/ble.c **** 
1061:Generated_Source\PSoC4/ble.c **** 
1062:Generated_Source\PSoC4/ble.c **** #if(CYBLE_GAP_ROLE_CENTRAL)
1063:Generated_Source\PSoC4/ble.c **** 
1064:Generated_Source\PSoC4/ble.c ****     /******************************************************************************
1065:Generated_Source\PSoC4/ble.c ****     * Function Name: CyBle_GapcConnectDevice
1066:Generated_Source\PSoC4/ble.c ****     ***************************************************************************//**
1067:Generated_Source\PSoC4/ble.c ****     * 
1068:Generated_Source\PSoC4/ble.c ****     *  This function is used to send a connection request to the remote device with
1069:Generated_Source\PSoC4/ble.c ****     *  the connection parameters set in the component customizer. This function needs
1070:Generated_Source\PSoC4/ble.c ****     *  to be called only once after the target device is discovered by 
1071:Generated_Source\PSoC4/ble.c ****     *  CyBle_GapcStartScan() and further scanning has stopped. Scanning is 
1072:Generated_Source\PSoC4/ble.c ****     *  successfully stopped on invoking CyBle_GapcStopScan() and then receiving the
1073:Generated_Source\PSoC4/ble.c ****     *  event CYBLE_EVT_GAPC_SCAN_START_STOP with sub-parameter 'success' = 0x01u.
1074:Generated_Source\PSoC4/ble.c ****     *  
1075:Generated_Source\PSoC4/ble.c ****     *  On successful connection, the following events are generated at the GAP 
1076:Generated_Source\PSoC4/ble.c ****     *  Central device (as well as the GAP Peripheral device), in the following order.
1077:Generated_Source\PSoC4/ble.c ****     *  * CYBLE_EVT_GATT_CONNECT_IND
1078:Generated_Source\PSoC4/ble.c ****     *  * CYBLE_EVT_GAP_DEVICE_CONNECTED - If the device connects to a GAP Central and 
1079:Generated_Source\PSoC4/ble.c ****     *    Link Layer Privacy is disabled in component customizer.
1080:Generated_Source\PSoC4/ble.c ****     *  * CYBLE_EVT_GAP_ENHANCE_CONN_COMPLETE - If the device connects to a GAP Central and 
1081:Generated_Source\PSoC4/ble.c ****     *    Link Layer Privacy is enabled in component customizer.
1082:Generated_Source\PSoC4/ble.c ****     *  * CYBLE_EVT_GAP_DEVICE_CONNECTED
1083:Generated_Source\PSoC4/ble.c ****     *  
1084:Generated_Source\PSoC4/ble.c ****     *  A procedure is considered to have timed out if a connection response packet is 
1085:Generated_Source\PSoC4/ble.c ****     *  not received within time set by cyBle_connectingTimeout global variable
1086:Generated_Source\PSoC4/ble.c ****     *  (30 seconds by default). CYBLE_EVT_TIMEOUT event with CYBLE_GENERIC_TO parameter
1087:Generated_Source\PSoC4/ble.c ****     *  will indicate about connection procedure timeout. Connection will automatically
1088:Generated_Source\PSoC4/ble.c ****     *  be canceled and state will be changed to CYBLE_STATE_DISCONNECTED.
1089:Generated_Source\PSoC4/ble.c ****     * 
1090:Generated_Source\PSoC4/ble.c ****     *  \param address: The device address of the remote device to connect to. 
1091:Generated_Source\PSoC4/ble.c ****     *  
1092:Generated_Source\PSoC4/ble.c ****     * \return
1093:Generated_Source\PSoC4/ble.c ****     *  CYBLE_API_RESULT_T : Return value indicates if the function succeeded or 
1094:Generated_Source\PSoC4/ble.c ****     *  failed. Following are the possible error codes.
1095:Generated_Source\PSoC4/ble.c ****     *
1096:Generated_Source\PSoC4/ble.c ****     *   Errors codes                       | Description
1097:Generated_Source\PSoC4/ble.c ****     *   ------------                       | -----------
1098:Generated_Source\PSoC4/ble.c ****     *   CYBLE_ERROR_OK                     | On successful operation.
1099:Generated_Source\PSoC4/ble.c ****     *   CYBLE_ERROR_STACK_INTERNAL         | On error occurred in the BLE stack.
1100:Generated_Source\PSoC4/ble.c ****     *   CYBLE_ERROR_INVALID_PARAMETER      | On passing an invalid parameter.
1101:Generated_Source\PSoC4/ble.c ****     *   CYBLE_ERROR_INVALID_STATE          | On calling this API not in Disconnected state.
1102:Generated_Source\PSoC4/ble.c ****     *  
1103:Generated_Source\PSoC4/ble.c ****     ******************************************************************************/
1104:Generated_Source\PSoC4/ble.c ****     CYBLE_API_RESULT_T CyBle_GapcConnectDevice(const CYBLE_GAP_BD_ADDR_T * address)
1105:Generated_Source\PSoC4/ble.c ****     {
1106:Generated_Source\PSoC4/ble.c ****         CYBLE_API_RESULT_T apiResult;
1107:Generated_Source\PSoC4/ble.c ****         uint8 i;
1108:Generated_Source\PSoC4/ble.c **** 
1109:Generated_Source\PSoC4/ble.c ****         if(CyBle_GetState() != CYBLE_STATE_DISCONNECTED)
1110:Generated_Source\PSoC4/ble.c ****         {
1111:Generated_Source\PSoC4/ble.c ****             apiResult = CYBLE_ERROR_INVALID_STATE;
1112:Generated_Source\PSoC4/ble.c ****         }
1113:Generated_Source\PSoC4/ble.c ****         else if(address == NULL)
1114:Generated_Source\PSoC4/ble.c ****         {
1115:Generated_Source\PSoC4/ble.c ****             apiResult = CYBLE_ERROR_INVALID_PARAMETER;
1116:Generated_Source\PSoC4/ble.c ****         }
ARM GAS  C:\Users\Sarah\AppData\Local\Temp\ccLQenA3.s 			page 21


1117:Generated_Source\PSoC4/ble.c ****         else
1118:Generated_Source\PSoC4/ble.c ****         {
1119:Generated_Source\PSoC4/ble.c ****             for(i = 0u; i < CYBLE_GAP_BD_ADDR_SIZE; i++)
1120:Generated_Source\PSoC4/ble.c ****             {
1121:Generated_Source\PSoC4/ble.c ****                 cyBle_connectionParameters.peerBdAddr[i] = address->bdAddr[i];
1122:Generated_Source\PSoC4/ble.c ****             }
1123:Generated_Source\PSoC4/ble.c ****             cyBle_connectionParameters.peerAddrType = address -> type;
1124:Generated_Source\PSoC4/ble.c ****             apiResult = CyBle_GapcInitConnection(&cyBle_connectionParameters);
1125:Generated_Source\PSoC4/ble.c ****             
1126:Generated_Source\PSoC4/ble.c ****             if(apiResult == CYBLE_ERROR_OK)
1127:Generated_Source\PSoC4/ble.c ****             {
1128:Generated_Source\PSoC4/ble.c ****                 CyBle_SetState(CYBLE_STATE_CONNECTING);
1129:Generated_Source\PSoC4/ble.c ****                 if(cyBle_connectingTimeout != 0u)
1130:Generated_Source\PSoC4/ble.c ****                 {
1131:Generated_Source\PSoC4/ble.c ****                     (void)CyBle_StartTimer(cyBle_connectingTimeout);
1132:Generated_Source\PSoC4/ble.c ****                 }
1133:Generated_Source\PSoC4/ble.c ****             }
1134:Generated_Source\PSoC4/ble.c ****         }
1135:Generated_Source\PSoC4/ble.c ****         return (apiResult);
1136:Generated_Source\PSoC4/ble.c ****     }
1137:Generated_Source\PSoC4/ble.c ****     
1138:Generated_Source\PSoC4/ble.c **** 
1139:Generated_Source\PSoC4/ble.c ****     /******************************************************************************
1140:Generated_Source\PSoC4/ble.c ****     * Function Name: CyBle_GapcCancelDeviceConnection
1141:Generated_Source\PSoC4/ble.c ****     ***************************************************************************//**
1142:Generated_Source\PSoC4/ble.c ****     * 
1143:Generated_Source\PSoC4/ble.c ****     *  This function cancels a previously initiated connection with the remote 
1144:Generated_Source\PSoC4/ble.c ****     *  device. It is a blocking function. No event is generated on calling this 
1145:Generated_Source\PSoC4/ble.c ****     *  function. If the devices are already connected then this function should not
1146:Generated_Source\PSoC4/ble.c ****     *  be used. If you intend to disconnect from an existing connection, the function
1147:Generated_Source\PSoC4/ble.c ****     *  CyBle_GapDisconnect() should be used.
1148:Generated_Source\PSoC4/ble.c ****     * 
1149:Generated_Source\PSoC4/ble.c ****     * \return
1150:Generated_Source\PSoC4/ble.c ****     *  CYBLE_API_RESULT_T : Return value indicates if the function succeeded or 
1151:Generated_Source\PSoC4/ble.c ****     *  failed. Following are the possible error codes.
1152:Generated_Source\PSoC4/ble.c ****     *
1153:Generated_Source\PSoC4/ble.c ****     *   Errors codes                       | Description
1154:Generated_Source\PSoC4/ble.c ****     *   ---------------------------------- | --------------------------------------
1155:Generated_Source\PSoC4/ble.c ****     *   CYBLE_ERROR_OK                     | On successful operation.
1156:Generated_Source\PSoC4/ble.c ****     *   CYBLE_ERROR_STACK_INTERNAL         | An error occurred in the BLE stack.
1157:Generated_Source\PSoC4/ble.c ****     *   CYBLE_ERROR_INVALID_STATE          | On calling this API not in Connecting state.
1158:Generated_Source\PSoC4/ble.c ****     *  
1159:Generated_Source\PSoC4/ble.c ****     *******************************************************************************/
1160:Generated_Source\PSoC4/ble.c ****     CYBLE_API_RESULT_T CyBle_GapcCancelDeviceConnection(void)
1161:Generated_Source\PSoC4/ble.c ****     {
1162:Generated_Source\PSoC4/ble.c ****         CYBLE_API_RESULT_T apiResult;
1163:Generated_Source\PSoC4/ble.c ****         
1164:Generated_Source\PSoC4/ble.c ****         if(CyBle_GetState() != CYBLE_STATE_CONNECTING)
1165:Generated_Source\PSoC4/ble.c ****         {
1166:Generated_Source\PSoC4/ble.c ****             apiResult = CYBLE_ERROR_INVALID_STATE;
1167:Generated_Source\PSoC4/ble.c ****         }
1168:Generated_Source\PSoC4/ble.c ****         else 
1169:Generated_Source\PSoC4/ble.c ****         {
1170:Generated_Source\PSoC4/ble.c ****             apiResult = CyBle_GapcCancelConnection();
1171:Generated_Source\PSoC4/ble.c ****             
1172:Generated_Source\PSoC4/ble.c ****             if(cyBle_connectingTimeout != 0u)
1173:Generated_Source\PSoC4/ble.c ****             {
ARM GAS  C:\Users\Sarah\AppData\Local\Temp\ccLQenA3.s 			page 22


1174:Generated_Source\PSoC4/ble.c ****                 (void)CyBle_StopTimer();
1175:Generated_Source\PSoC4/ble.c ****             }
1176:Generated_Source\PSoC4/ble.c **** 
1177:Generated_Source\PSoC4/ble.c ****             if(apiResult == CYBLE_ERROR_OK)
1178:Generated_Source\PSoC4/ble.c ****             {
1179:Generated_Source\PSoC4/ble.c ****                 CyBle_SetState(CYBLE_STATE_DISCONNECTED);
1180:Generated_Source\PSoC4/ble.c ****             }
1181:Generated_Source\PSoC4/ble.c ****         }
1182:Generated_Source\PSoC4/ble.c ****         return (apiResult);
1183:Generated_Source\PSoC4/ble.c ****     }    
1184:Generated_Source\PSoC4/ble.c **** 
1185:Generated_Source\PSoC4/ble.c ****     
1186:Generated_Source\PSoC4/ble.c **** #endif /* CYBLE_GAP_ROLE_CENTRAL */
1187:Generated_Source\PSoC4/ble.c **** 
1188:Generated_Source\PSoC4/ble.c **** 
1189:Generated_Source\PSoC4/ble.c **** #if(CYBLE_GATT_ROLE_SERVER)
1190:Generated_Source\PSoC4/ble.c **** 
1191:Generated_Source\PSoC4/ble.c **** #if(CYBLE_GAP_ROLE_PERIPHERAL)
1192:Generated_Source\PSoC4/ble.c **** 
1193:Generated_Source\PSoC4/ble.c ****         /******************************************************************************
1194:Generated_Source\PSoC4/ble.c ****         * Function Name: CyBle_ChangeAdLocalName
1195:Generated_Source\PSoC4/ble.c ****         ***************************************************************************//**
1196:Generated_Source\PSoC4/ble.c ****         *  This API is used to set the local device name in the advertisement or scan 
1197:Generated_Source\PSoC4/ble.c ****         *  response data structure.
1198:Generated_Source\PSoC4/ble.c ****         * 
1199:Generated_Source\PSoC4/ble.c ****         *  \param name: The local device name string to be set in advertisement data 
1200:Generated_Source\PSoC4/ble.c ****         *            structure.
1201:Generated_Source\PSoC4/ble.c ****         *  \param dest: 0 - advertisement structure, not zero value selects scan response
1202:Generated_Source\PSoC4/ble.c ****         *              structure.
1203:Generated_Source\PSoC4/ble.c ****         * 
1204:Generated_Source\PSoC4/ble.c ****         * \return
1205:Generated_Source\PSoC4/ble.c ****         *  None
1206:Generated_Source\PSoC4/ble.c ****         *  
1207:Generated_Source\PSoC4/ble.c ****         *******************************************************************************/
1208:Generated_Source\PSoC4/ble.c ****         static void CyBle_ChangeAdLocalName(const char8 name[], uint8 dest)
1209:Generated_Source\PSoC4/ble.c ****         {
  25              		.loc 1 1209 0
  26              		.cfi_startproc
  27              	.LVL0:
  28 0000 70B5     		push	{r4, r5, r6, lr}
  29              		.cfi_def_cfa_offset 16
  30              		.cfi_offset 4, -16
  31              		.cfi_offset 5, -12
  32              		.cfi_offset 6, -8
  33              		.cfi_offset 14, -4
  34              	.LVL1:
1210:Generated_Source\PSoC4/ble.c ****             uint8 i;
1211:Generated_Source\PSoC4/ble.c ****             uint8 flag = 0u;
1212:Generated_Source\PSoC4/ble.c ****             uint8 adLength = 0u;
1213:Generated_Source\PSoC4/ble.c ****             uint8 byteCounter = 0u;
1214:Generated_Source\PSoC4/ble.c ****             uint8 *destBuffer;
1215:Generated_Source\PSoC4/ble.c ****             uint8 maxLength;
1216:Generated_Source\PSoC4/ble.c ****             
1217:Generated_Source\PSoC4/ble.c ****             if(dest == 0u)      /* Destination - advertising structure */
  35              		.loc 1 1217 0
  36 0002 0029     		cmp	r1, #0
  37 0004 05D1     		bne	.L2
ARM GAS  C:\Users\Sarah\AppData\Local\Temp\ccLQenA3.s 			page 23


  38              	.LVL2:
1218:Generated_Source\PSoC4/ble.c ****             {
1219:Generated_Source\PSoC4/ble.c ****                 destBuffer = cyBle_discoveryData.advData;
1220:Generated_Source\PSoC4/ble.c ****                 maxLength = cyBle_discoveryData.advDataLen;
  39              		.loc 1 1220 0
  40 0006 1A4C     		ldr	r4, .L15
  41 0008 E67F     		ldrb	r6, [r4, #31]
  42              	.LVL3:
  43              	.L4:
1221:Generated_Source\PSoC4/ble.c ****             }
1222:Generated_Source\PSoC4/ble.c ****             else                /* Destination - scan response structure */
1223:Generated_Source\PSoC4/ble.c ****             {
1224:Generated_Source\PSoC4/ble.c ****                 destBuffer = cyBle_scanRspData.scanRspData;
1225:Generated_Source\PSoC4/ble.c ****                 maxLength = cyBle_scanRspData.scanRspDataLen;
1226:Generated_Source\PSoC4/ble.c ****             }
1227:Generated_Source\PSoC4/ble.c ****             
1228:Generated_Source\PSoC4/ble.c ****             while((byteCounter < maxLength) && (flag == 0u))
1229:Generated_Source\PSoC4/ble.c ****             {
1230:Generated_Source\PSoC4/ble.c ****                 adLength = destBuffer[byteCounter];
1231:Generated_Source\PSoC4/ble.c ****                 
1232:Generated_Source\PSoC4/ble.c ****                 if(0u != adLength)
1233:Generated_Source\PSoC4/ble.c ****                 {
1234:Generated_Source\PSoC4/ble.c ****                     /* Increment byte counter so it can point to AD type */
1235:Generated_Source\PSoC4/ble.c ****                     byteCounter++;
1236:Generated_Source\PSoC4/ble.c ****                     
1237:Generated_Source\PSoC4/ble.c ****                     if((destBuffer[byteCounter] == CYBLE_SHORT_LOCAL_NAME) || 
1238:Generated_Source\PSoC4/ble.c ****                        (destBuffer[byteCounter] == CYBLE_COMPLETE_LOCAL_NAME))
1239:Generated_Source\PSoC4/ble.c ****                     {
1240:Generated_Source\PSoC4/ble.c ****                         /* Start of the Local Name AD type was fount. Set flag and exit the loop. *
1241:Generated_Source\PSoC4/ble.c ****                         flag = 1u;
  44              		.loc 1 1241 0
  45 000a 0023     		mov	r3, #0
  46 000c 0022     		mov	r2, #0
  47 000e 0025     		mov	r5, #0
  48 0010 0FE0     		b	.L3
  49              	.LVL4:
  50              	.L2:
1225:Generated_Source\PSoC4/ble.c ****             }
  51              		.loc 1 1225 0
  52 0012 184C     		ldr	r4, .L15+4
  53 0014 E67F     		ldrb	r6, [r4, #31]
  54              	.LVL5:
  55 0016 F8E7     		b	.L4
  56              	.LVL6:
  57              	.L7:
1230:Generated_Source\PSoC4/ble.c ****                 
  58              		.loc 1 1230 0
  59 0018 E25C     		ldrb	r2, [r4, r3]
  60              	.LVL7:
1232:Generated_Source\PSoC4/ble.c ****                 {
  61              		.loc 1 1232 0
  62 001a 002A     		cmp	r2, #0
  63 001c 0DD0     		beq	.L5
1235:Generated_Source\PSoC4/ble.c ****                     
  64              		.loc 1 1235 0
  65 001e 0133     		add	r3, r3, #1
  66              	.LVL8:
ARM GAS  C:\Users\Sarah\AppData\Local\Temp\ccLQenA3.s 			page 24


  67 0020 DBB2     		uxtb	r3, r3
  68              	.LVL9:
1237:Generated_Source\PSoC4/ble.c ****                        (destBuffer[byteCounter] == CYBLE_COMPLETE_LOCAL_NAME))
  69              		.loc 1 1237 0
  70 0022 E15C     		ldrb	r1, [r4, r3]
  71 0024 0839     		sub	r1, r1, #8
  72 0026 0129     		cmp	r1, #1
  73 0028 02D9     		bls	.L14
1242:Generated_Source\PSoC4/ble.c ****                     }
1243:Generated_Source\PSoC4/ble.c ****                     else
1244:Generated_Source\PSoC4/ble.c ****                     {
1245:Generated_Source\PSoC4/ble.c ****                         byteCounter += adLength;
  74              		.loc 1 1245 0
  75 002a 9B18     		add	r3, r3, r2
  76              	.LVL10:
  77 002c DBB2     		uxtb	r3, r3
  78              	.LVL11:
  79 002e 00E0     		b	.L3
  80              	.L14:
1241:Generated_Source\PSoC4/ble.c ****                     }
  81              		.loc 1 1241 0
  82 0030 0125     		mov	r5, #1
  83              	.LVL12:
  84              	.L3:
1228:Generated_Source\PSoC4/ble.c ****             {
  85              		.loc 1 1228 0
  86 0032 B342     		cmp	r3, r6
  87 0034 01D2     		bcs	.L5
1228:Generated_Source\PSoC4/ble.c ****             {
  88              		.loc 1 1228 0 is_stmt 0 discriminator 1
  89 0036 002D     		cmp	r5, #0
  90 0038 EED0     		beq	.L7
  91              	.L5:
1246:Generated_Source\PSoC4/ble.c ****                     }
1247:Generated_Source\PSoC4/ble.c ****                 }
1248:Generated_Source\PSoC4/ble.c ****                 else
1249:Generated_Source\PSoC4/ble.c ****                 {
1250:Generated_Source\PSoC4/ble.c ****                     /* The end of advertisement data structure was encountered though exit the loop
1251:Generated_Source\PSoC4/ble.c ****                     break;
1252:Generated_Source\PSoC4/ble.c ****                 }
1253:Generated_Source\PSoC4/ble.c ****             }
1254:Generated_Source\PSoC4/ble.c ****             
1255:Generated_Source\PSoC4/ble.c ****             if(0u != flag)
  92              		.loc 1 1255 0 is_stmt 1
  93 003a 002D     		cmp	r5, #0
  94 003c 16D0     		beq	.L1
1256:Generated_Source\PSoC4/ble.c ****             {
1257:Generated_Source\PSoC4/ble.c ****                 /* Reuse "adLength" to hold location of the last character of local name in 
1258:Generated_Source\PSoC4/ble.c ****                    AD structure. */
1259:Generated_Source\PSoC4/ble.c ****                 adLength += byteCounter;
  95              		.loc 1 1259 0
  96 003e D218     		add	r2, r2, r3
  97              	.LVL13:
  98 0040 D1B2     		uxtb	r1, r2
  99              	.LVL14:
1260:Generated_Source\PSoC4/ble.c ****                 
1261:Generated_Source\PSoC4/ble.c ****                 /* Increment byte counter to point to start of the local Name string */
ARM GAS  C:\Users\Sarah\AppData\Local\Temp\ccLQenA3.s 			page 25


1262:Generated_Source\PSoC4/ble.c ****                 byteCounter++;
 100              		.loc 1 1262 0
 101 0042 0133     		add	r3, r3, #1
 102              	.LVL15:
 103 0044 DBB2     		uxtb	r3, r3
 104              	.LVL16:
1263:Generated_Source\PSoC4/ble.c ****                 
1264:Generated_Source\PSoC4/ble.c ****                 for(i = byteCounter; ((i < (adLength)) && (CYBLE_NULL_CHARCTER != name[i - byteCoun
 105              		.loc 1 1264 0
 106 0046 1A1C     		mov	r2, r3
 107 0048 02E0     		b	.L9
 108              	.LVL17:
 109              	.L11:
1265:Generated_Source\PSoC4/ble.c ****                 {
1266:Generated_Source\PSoC4/ble.c ****                     destBuffer[i] = (uint8)name[i - byteCounter];
 110              		.loc 1 1266 0 discriminator 4
 111 004a A554     		strb	r5, [r4, r2]
1264:Generated_Source\PSoC4/ble.c ****                 {
 112              		.loc 1 1264 0 discriminator 4
 113 004c 0132     		add	r2, r2, #1
 114              	.LVL18:
 115 004e D2B2     		uxtb	r2, r2
 116              	.LVL19:
 117              	.L9:
1264:Generated_Source\PSoC4/ble.c ****                 {
 118              		.loc 1 1264 0 is_stmt 0 discriminator 1
 119 0050 8A42     		cmp	r2, r1
 120 0052 09D2     		bcs	.L12
1264:Generated_Source\PSoC4/ble.c ****                 {
 121              		.loc 1 1264 0 discriminator 3
 122 0054 D51A     		sub	r5, r2, r3
 123 0056 455D     		ldrb	r5, [r0, r5]
 124 0058 002D     		cmp	r5, #0
 125 005a F6D1     		bne	.L11
 126 005c 04E0     		b	.L12
 127              	.LVL20:
 128              	.L13:
1267:Generated_Source\PSoC4/ble.c ****                 }
1268:Generated_Source\PSoC4/ble.c ****                 
1269:Generated_Source\PSoC4/ble.c ****                 /* This loop handles the case when new local name is shorted than old one.
1270:Generated_Source\PSoC4/ble.c ****                    In this case all remaining characters should be null characters. */
1271:Generated_Source\PSoC4/ble.c ****                 while(adLength > i)
1272:Generated_Source\PSoC4/ble.c ****                 {
1273:Generated_Source\PSoC4/ble.c ****                     /* Terminate string */
1274:Generated_Source\PSoC4/ble.c ****                     destBuffer[i] = (uint8)CYBLE_NULL_CHARCTER;
 129              		.loc 1 1274 0 is_stmt 1
 130 005e A318     		add	r3, r4, r2
 131 0060 0020     		mov	r0, #0
 132 0062 1870     		strb	r0, [r3]
1275:Generated_Source\PSoC4/ble.c ****                     i++;
 133              		.loc 1 1275 0
 134 0064 0132     		add	r2, r2, #1
 135              	.LVL21:
 136 0066 D2B2     		uxtb	r2, r2
 137              	.LVL22:
 138              	.L12:
1271:Generated_Source\PSoC4/ble.c ****                 {
ARM GAS  C:\Users\Sarah\AppData\Local\Temp\ccLQenA3.s 			page 26


 139              		.loc 1 1271 0
 140 0068 9142     		cmp	r1, r2
 141 006a F8D8     		bhi	.L13
 142              	.LVL23:
 143              	.L1:
1276:Generated_Source\PSoC4/ble.c ****                 }
1277:Generated_Source\PSoC4/ble.c ****             }
1278:Generated_Source\PSoC4/ble.c ****         }
 144              		.loc 1 1278 0
 145              		@ sp needed
 146              	.LVL24:
 147              	.LVL25:
 148 006c 70BD     		pop	{r4, r5, r6, pc}
 149              	.L16:
 150 006e C046     		.align	2
 151              	.L15:
 152 0070 00000000 		.word	.LANCHOR0
 153 0074 00000000 		.word	.LANCHOR1
 154              		.cfi_endproc
 155              	.LFE15:
 156              		.size	CyBle_ChangeAdLocalName, .-CyBle_ChangeAdLocalName
 157              		.section	.text.CyBle_ServiceInit,"ax",%progbits
 158              		.align	2
 159              		.global	CyBle_ServiceInit
 160              		.code	16
 161              		.thumb_func
 162              		.type	CyBle_ServiceInit, %function
 163              	CyBle_ServiceInit:
 164              	.LFB3:
 218:Generated_Source\PSoC4/ble.c ****     #if(CYBLE_GATT_ROLE_CLIENT)
 165              		.loc 1 218 0
 166              		.cfi_startproc
 167 0000 08B5     		push	{r3, lr}
 168              		.cfi_def_cfa_offset 8
 169              		.cfi_offset 3, -8
 170              		.cfi_offset 14, -4
 276:Generated_Source\PSoC4/ble.c ****     #endif /* CYBLE_CUSTOM */
 171              		.loc 1 276 0
 172 0002 FFF7FEFF 		bl	CyBle_CustomInit
 173              	.LVL26:
 362:Generated_Source\PSoC4/ble.c **** 
 174              		.loc 1 362 0
 175              		@ sp needed
 176 0006 08BD     		pop	{r3, pc}
 177              		.cfi_endproc
 178              	.LFE3:
 179              		.size	CyBle_ServiceInit, .-CyBle_ServiceInit
 180              		.section	.text.CyBle_Init,"ax",%progbits
 181              		.align	2
 182              		.global	CyBle_Init
 183              		.code	16
 184              		.thumb_func
 185              		.type	CyBle_Init, %function
 186              	CyBle_Init:
 187              	.LFB2:
 169:Generated_Source\PSoC4/ble.c ****     cyBle_eventHandlerFlag = 0u;
 188              		.loc 1 169 0
ARM GAS  C:\Users\Sarah\AppData\Local\Temp\ccLQenA3.s 			page 27


 189              		.cfi_startproc
 190 0000 10B5     		push	{r4, lr}
 191              		.cfi_def_cfa_offset 8
 192              		.cfi_offset 4, -8
 193              		.cfi_offset 14, -4
 170:Generated_Source\PSoC4/ble.c ****     cyBle_busyStatus = CYBLE_STACK_STATE_FREE;
 194              		.loc 1 170 0
 195 0002 0022     		mov	r2, #0
 196 0004 144B     		ldr	r3, .L19
 197 0006 1A70     		strb	r2, [r3]
 171:Generated_Source\PSoC4/ble.c **** 
 198              		.loc 1 171 0
 199 0008 144B     		ldr	r3, .L19+4
 200 000a 1A70     		strb	r2, [r3]
 174:Generated_Source\PSoC4/ble.c ****     #endif /* (CYBLE_GAP_ROLE_PERIPHERAL || CYBLE_GAP_ROLE_BROADCASTER)  */
 201              		.loc 1 174 0
 202 000c 144B     		ldr	r3, .L19+8
 203 000e 1A70     		strb	r2, [r3]
 177:Generated_Source\PSoC4/ble.c ****     #endif /* (CYBLE_GAP_ROLE_CENTRAL || CYBLE_GAP_ROLE_OBSERVER) */
 204              		.loc 1 177 0
 205 0010 144B     		ldr	r3, .L19+12
 206 0012 1A70     		strb	r2, [r3]
 183:Generated_Source\PSoC4/ble.c ****         cyBle_connectionParameters.scanWindow = cyBle_discoveryInfo.scanWindow;
 207              		.loc 1 183 0
 208 0014 1449     		ldr	r1, .L19+16
 209 0016 488C     		ldrh	r0, [r1, #34]
 210 0018 144B     		ldr	r3, .L19+20
 211 001a 1880     		strh	r0, [r3]
 184:Generated_Source\PSoC4/ble.c ****         cyBle_connectionParameters.ownAddrType = cyBle_discoveryInfo.ownAddrType;
 212              		.loc 1 184 0
 213 001c 888C     		ldrh	r0, [r1, #36]
 214 001e 5880     		strh	r0, [r3, #2]
 185:Generated_Source\PSoC4/ble.c ****         cyBle_connectionParameters.initiatorFilterPolicy = cyBle_discoveryInfo.scanFilterPolicy;
 215              		.loc 1 185 0
 216 0020 2031     		add	r1, r1, #32
 217 0022 8879     		ldrb	r0, [r1, #6]
 218 0024 1873     		strb	r0, [r3, #12]
 186:Generated_Source\PSoC4/ble.c ****         cyBle_connectionParameters.connIntvMin = CYBLE_GAPC_CONNECTION_INTERVAL_MIN;
 219              		.loc 1 186 0
 220 0026 C979     		ldrb	r1, [r1, #7]
 221 0028 1971     		strb	r1, [r3, #4]
 187:Generated_Source\PSoC4/ble.c ****         cyBle_connectionParameters.connIntvMax = CYBLE_GAPC_CONNECTION_INTERVAL_MAX;
 222              		.loc 1 187 0
 223 002a 0621     		mov	r1, #6
 224 002c D981     		strh	r1, [r3, #14]
 188:Generated_Source\PSoC4/ble.c ****         cyBle_connectionParameters.connLatency = CYBLE_GAPC_CONNECTION_SLAVE_LATENCY;
 225              		.loc 1 188 0
 226 002e 2231     		add	r1, r1, #34
 227 0030 1982     		strh	r1, [r3, #16]
 189:Generated_Source\PSoC4/ble.c ****         cyBle_connectionParameters.supervisionTO = CYBLE_GAPC_CONNECTION_TIME_OUT;
 228              		.loc 1 189 0
 229 0032 0024     		mov	r4, #0
 230 0034 5A82     		strh	r2, [r3, #18]
 190:Generated_Source\PSoC4/ble.c ****         cyBle_connectionParameters.minCeLength = 0x0000u;
 231              		.loc 1 190 0
 232 0036 FA21     		mov	r1, #250
 233 0038 8900     		lsl	r1, r1, #2
ARM GAS  C:\Users\Sarah\AppData\Local\Temp\ccLQenA3.s 			page 28


 234 003a 9982     		strh	r1, [r3, #20]
 191:Generated_Source\PSoC4/ble.c ****         cyBle_connectionParameters.maxCeLength = 0xFFFFu;
 235              		.loc 1 191 0
 236 003c DA82     		strh	r2, [r3, #22]
 192:Generated_Source\PSoC4/ble.c ****         
 237              		.loc 1 192 0
 238 003e 013A     		sub	r2, r2, #1
 239 0040 1A83     		strh	r2, [r3, #24]
 194:Generated_Source\PSoC4/ble.c ****     #endif /* CYBLE_GAP_ROLE_CENTRAL */
 240              		.loc 1 194 0
 241 0042 1F32     		add	r2, r2, #31
 242 0044 0A4B     		ldr	r3, .L19+24
 243 0046 1A80     		strh	r2, [r3]
 197:Generated_Source\PSoC4/ble.c **** 
 244              		.loc 1 197 0
 245 0048 FFF7FEFF 		bl	CyBle_ServiceInit
 246              	.LVL27:
 200:Generated_Source\PSoC4/ble.c ****         cyBle_peerBonding = CYBLE_GAP_BONDING_NONE;
 247              		.loc 1 200 0
 248 004c 094B     		ldr	r3, .L19+28
 249 004e 1C70     		strb	r4, [r3]
 201:Generated_Source\PSoC4/ble.c ****     #endif  /* (CYBLE_BONDING_REQUIREMENT == CYBLE_BONDING_YES) */
 250              		.loc 1 201 0
 251 0050 094B     		ldr	r3, .L19+32
 252 0052 1C70     		strb	r4, [r3]
 204:Generated_Source\PSoC4/ble.c **** 
 253              		.loc 1 204 0
 254              		@ sp needed
 255 0054 10BD     		pop	{r4, pc}
 256              	.L20:
 257 0056 C046     		.align	2
 258              	.L19:
 259 0058 00000000 		.word	cyBle_eventHandlerFlag
 260 005c 00000000 		.word	cyBle_busyStatus
 261 0060 00000000 		.word	cyBle_advertisingIntervalType
 262 0064 00000000 		.word	cyBle_scanningIntervalType
 263 0068 00000000 		.word	.LANCHOR0
 264 006c 00000000 		.word	cyBle_connectionParameters
 265 0070 00000000 		.word	cyBle_connectingTimeout
 266 0074 00000000 		.word	cyBle_pendingFlashWrite
 267 0078 00000000 		.word	cyBle_peerBonding
 268              		.cfi_endproc
 269              	.LFE2:
 270              		.size	CyBle_Init, .-CyBle_Init
 271              		.section	.text.CyBle_Start,"ax",%progbits
 272              		.align	2
 273              		.global	CyBle_Start
 274              		.code	16
 275              		.thumb_func
 276              		.type	CyBle_Start, %function
 277              	CyBle_Start:
 278              	.LFB4:
 424:Generated_Source\PSoC4/ble.c ****     CYBLE_API_RESULT_T apiResult = CYBLE_ERROR_OK;
 279              		.loc 1 424 0
 280              		.cfi_startproc
 281              	.LVL28:
 282 0000 10B5     		push	{r4, lr}
ARM GAS  C:\Users\Sarah\AppData\Local\Temp\ccLQenA3.s 			page 29


 283              		.cfi_def_cfa_offset 8
 284              		.cfi_offset 4, -8
 285              		.cfi_offset 14, -4
 286 0002 90B0     		sub	sp, sp, #64
 287              		.cfi_def_cfa_offset 72
 288 0004 041C     		mov	r4, r0
 289              	.LVL29:
 429:Generated_Source\PSoC4/ble.c ****     {
 290              		.loc 1 429 0
 291 0006 0BA8     		add	r0, sp, #44
 292              	.LVL30:
 293 0008 2049     		ldr	r1, .L25
 294 000a 1422     		mov	r2, #20
 295 000c FFF7FEFF 		bl	memcpy
 296              	.LVL31:
 441:Generated_Source\PSoC4/ble.c ****     {
 297              		.loc 1 441 0
 298 0010 2023     		mov	r3, #32
 299 0012 1F4A     		ldr	r2, .L25+4
 300 0014 D35C     		ldrb	r3, [r2, r3]
 301 0016 002B     		cmp	r3, #0
 302 0018 05D1     		bne	.L22
 443:Generated_Source\PSoC4/ble.c ****         cyBle_initVar = 1u;
 303              		.loc 1 443 0
 304 001a FFF7FEFF 		bl	CyBle_Init
 305              	.LVL32:
 444:Generated_Source\PSoC4/ble.c ****     }
 306              		.loc 1 444 0
 307 001e 0121     		mov	r1, #1
 308 0020 2023     		mov	r3, #32
 309 0022 1B4A     		ldr	r2, .L25+4
 310 0024 D154     		strb	r1, [r2, r3]
 311              	.L22:
 447:Generated_Source\PSoC4/ble.c ****     {
 312              		.loc 1 447 0
 313 0026 002C     		cmp	r4, #0
 314 0028 2DD0     		beq	.L24
 449:Generated_Source\PSoC4/ble.c ****         
 315              		.loc 1 449 0
 316 002a 1A4B     		ldr	r3, .L25+8
 317 002c 1C60     		str	r4, [r3]
 318              	.LBB2:
 468:Generated_Source\PSoC4/ble.c ****             stackConfig.dleConfig = &dleConfigParams;
 319              		.loc 1 468 0
 320 002e 08A8     		add	r0, sp, #32
 321 0030 05AA     		add	r2, sp, #20
 322 0032 4260     		str	r2, [r0, #4]
 469:Generated_Source\PSoC4/ble.c ****             
 323              		.loc 1 469 0
 324 0034 06AB     		add	r3, sp, #24
 325 0036 0893     		str	r3, [sp, #32]
 472:Generated_Source\PSoC4/ble.c ****                                        CYBLE_SECURE_CONN_FEATURE;
 326              		.loc 1 472 0
 327 0038 0021     		mov	r1, #0
 328 003a 0181     		strh	r1, [r0, #8]
 476:Generated_Source\PSoC4/ble.c ****             dleConfigParams.dleMaxRxCapability = CYBLE_LL_MAX_RX_PAYLOAD_SIZE;
 329              		.loc 1 476 0
ARM GAS  C:\Users\Sarah\AppData\Local\Temp\ccLQenA3.s 			page 30


 330 003c 1B31     		add	r1, r1, #27
 331 003e 1980     		strh	r1, [r3]
 477:Generated_Source\PSoC4/ble.c ****             dleConfigParams.dleNumTxBuffer = CYBLE_LL_DEFAULT_NUM_ACL_TX_PACKETS;
 332              		.loc 1 477 0
 333 0040 5980     		strh	r1, [r3, #2]
 478:Generated_Source\PSoC4/ble.c ****         #if(CYBLE_DLE_FEATURE_ENABLED)
 334              		.loc 1 478 0
 335 0042 1739     		sub	r1, r1, #23
 336 0044 1971     		strb	r1, [r3, #4]
 484:Generated_Source\PSoC4/ble.c ****         #if(CYBLE_LL_PRIVACY_FEATURE_ENABLED)
 337              		.loc 1 484 0
 338 0046 0823     		mov	r3, #8
 339 0048 1370     		strb	r3, [r2]
 489:Generated_Source\PSoC4/ble.c ****             }
 340              		.loc 1 489 0
 341 004a 1231     		add	r1, r1, #18
 342 004c 6944     		add	r1, r1, sp
 343 004e FFF7FEFF 		bl	CyBle_StackSetFeatureConfig
 344              	.LVL33:
 345              	.LBE2:
 492:Generated_Source\PSoC4/ble.c ****         {
 346              		.loc 1 492 0
 347 0052 0028     		cmp	r0, #0
 348 0054 18D1     		bne	.L23
 497:Generated_Source\PSoC4/ble.c ****                     CYBLE_STACK_RAM_SIZE - CYBLE_GATT_PREPARE_WRITE_BUFF_LEN, cyBle_stackDataBuff, 
 349              		.loc 1 497 0
 350 0056 0523     		mov	r3, #5
 351 0058 0093     		str	r3, [sp]
 352 005a 0F4B     		ldr	r3, .L25+12
 353 005c 0193     		str	r3, [sp, #4]
 354 005e 0F4B     		ldr	r3, .L25+16
 355 0060 0293     		str	r3, [sp, #8]
 356 0062 0F48     		ldr	r0, .L25+20
 357              	.LVL34:
 358 0064 0F49     		ldr	r1, .L25+24
 359 0066 AE22     		mov	r2, #174
 360 0068 1201     		lsl	r2, r2, #4
 361 006a 0BAB     		add	r3, sp, #44
 362 006c FFF7FEFF 		bl	CyBle_StackInit
 363              	.LVL35:
 521:Generated_Source\PSoC4/ble.c ****             {
 364              		.loc 1 521 0
 365 0070 0028     		cmp	r0, #0
 366 0072 09D1     		bne	.L23
 523:Generated_Source\PSoC4/ble.c ****                 
 367              		.loc 1 523 0
 368 0074 0122     		mov	r2, #1
 369 0076 0C4B     		ldr	r3, .L25+28
 370 0078 1A70     		strb	r2, [r3]
 530:Generated_Source\PSoC4/ble.c ****             #endif /* CYBLE_GATT_ROLE_SERVER */
 371              		.loc 1 530 0
 372 007a 0C48     		ldr	r0, .L25+32
 373              	.LVL36:
 374 007c 1621     		mov	r1, #22
 375 007e 0A32     		add	r2, r2, #10
 376 0080 FFF7FEFF 		bl	CyBle_GattsDbRegister
 377              	.LVL37:
ARM GAS  C:\Users\Sarah\AppData\Local\Temp\ccLQenA3.s 			page 31


 378 0084 00E0     		b	.L23
 379              	.LVL38:
 380              	.L24:
 537:Generated_Source\PSoC4/ble.c ****     }
 381              		.loc 1 537 0
 382 0086 0120     		mov	r0, #1
 383              	.LVL39:
 384              	.L23:
 541:Generated_Source\PSoC4/ble.c **** 
 385              		.loc 1 541 0
 386 0088 10B0     		add	sp, sp, #64
 387              		@ sp needed
 388              	.LVL40:
 389 008a 10BD     		pop	{r4, pc}
 390              	.L26:
 391              		.align	2
 392              	.L25:
 393 008c 00000000 		.word	.LANCHOR2
 394 0090 00000000 		.word	.LANCHOR1
 395 0094 00000000 		.word	CyBle_ApplCallback
 396 0098 00000000 		.word	cyBle_flashStorage
 397 009c 79020000 		.word	633
 398 00a0 00000000 		.word	CyBle_EventHandler
 399 00a4 00000000 		.word	.LANCHOR3
 400 00a8 00000000 		.word	cyBle_state
 401 00ac 00000000 		.word	cyBle_gattDB
 402              		.cfi_endproc
 403              	.LFE4:
 404              		.size	CyBle_Start, .-CyBle_Start
 405              		.section	.text.CyBle_Stop,"ax",%progbits
 406              		.align	2
 407              		.global	CyBle_Stop
 408              		.code	16
 409              		.thumb_func
 410              		.type	CyBle_Stop, %function
 411              	CyBle_Stop:
 412              	.LFB5:
 557:Generated_Source\PSoC4/ble.c ****     CyBle_Shutdown();                         /* Stop all ongoing activities */
 413              		.loc 1 557 0
 414              		.cfi_startproc
 415 0000 08B5     		push	{r3, lr}
 416              		.cfi_def_cfa_offset 8
 417              		.cfi_offset 3, -8
 418              		.cfi_offset 14, -4
 558:Generated_Source\PSoC4/ble.c ****     CyBle_SetState(CYBLE_STATE_STOPPED);
 419              		.loc 1 558 0
 420 0002 FFF7FEFF 		bl	CyBle_Shutdown
 421              	.LVL41:
 559:Generated_Source\PSoC4/ble.c ****     #if(CYBLE_SHARING_MODE_EXPORT)
 422              		.loc 1 559 0
 423 0006 0022     		mov	r2, #0
 424 0008 014B     		ldr	r3, .L28
 425 000a 1A70     		strb	r2, [r3]
 566:Generated_Source\PSoC4/ble.c **** 
 426              		.loc 1 566 0
 427              		@ sp needed
 428 000c 08BD     		pop	{r3, pc}
ARM GAS  C:\Users\Sarah\AppData\Local\Temp\ccLQenA3.s 			page 32


 429              	.L29:
 430 000e C046     		.align	2
 431              	.L28:
 432 0010 00000000 		.word	cyBle_state
 433              		.cfi_endproc
 434              	.LFE5:
 435              		.size	CyBle_Stop, .-CyBle_Stop
 436              		.section	.text.CyBle_StoreBondingData,"ax",%progbits
 437              		.align	2
 438              		.global	CyBle_StoreBondingData
 439              		.code	16
 440              		.thumb_func
 441              		.type	CyBle_StoreBondingData, %function
 442              	CyBle_StoreBondingData:
 443              	.LFB6:
 612:Generated_Source\PSoC4/ble.c ****     CYBLE_API_RESULT_T apiResult = CYBLE_ERROR_OK;
 444              		.loc 1 612 0
 445              		.cfi_startproc
 446              	.LVL42:
 447 0000 10B5     		push	{r4, lr}
 448              		.cfi_def_cfa_offset 8
 449              		.cfi_offset 4, -8
 450              		.cfi_offset 14, -4
 451 0002 86B0     		sub	sp, sp, #24
 452              		.cfi_def_cfa_offset 32
 453 0004 041C     		mov	r4, r0
 454              	.LVL43:
 616:Generated_Source\PSoC4/ble.c ****     {
 455              		.loc 1 616 0
 456 0006 334B     		ldr	r3, .L41
 457 0008 1B78     		ldrb	r3, [r3]
 458 000a DB07     		lsl	r3, r3, #31
 459 000c 0BD5     		bpl	.L39
 618:Generated_Source\PSoC4/ble.c ****         if(apiResult == CYBLE_ERROR_OK)
 460              		.loc 1 618 0
 461 000e FFF7FEFF 		bl	CyBle_StoreStackData
 462              	.LVL44:
 619:Generated_Source\PSoC4/ble.c ****         {
 463              		.loc 1 619 0
 464 0012 0028     		cmp	r0, #0
 465 0014 0AD1     		bne	.L31
 621:Generated_Source\PSoC4/ble.c ****             /* Change apiResult if there are more pending data to store */
 466              		.loc 1 621 0
 467 0016 2F4A     		ldr	r2, .L41
 468 0018 1378     		ldrb	r3, [r2]
 469 001a 0121     		mov	r1, #1
 470 001c 8B43     		bic	r3, r1
 471 001e 1370     		strb	r3, [r2]
 623:Generated_Source\PSoC4/ble.c ****             {
 472              		.loc 1 623 0
 473 0020 9B07     		lsl	r3, r3, #30
 474 0022 02D4     		bmi	.L40
 475 0024 02E0     		b	.L31
 476              	.LVL45:
 477              	.L39:
 613:Generated_Source\PSoC4/ble.c ****     
 478              		.loc 1 613 0
ARM GAS  C:\Users\Sarah\AppData\Local\Temp\ccLQenA3.s 			page 33


 479 0026 0020     		mov	r0, #0
 480              	.LVL46:
 481 0028 00E0     		b	.L31
 482              	.LVL47:
 483              	.L40:
 625:Generated_Source\PSoC4/ble.c ****             }
 484              		.loc 1 625 0
 485 002a 2820     		mov	r0, #40
 486              	.LVL48:
 487              	.L31:
 631:Generated_Source\PSoC4/ble.c ****         ((cyBle_pendingFlashWrite & CYBLE_PENDING_CCCD_FLASH_WRITE_BIT) != 0u) &&
 488              		.loc 1 631 0
 489 002c 0028     		cmp	r0, #0
 490 002e 01D0     		beq	.L32
 631:Generated_Source\PSoC4/ble.c ****         ((cyBle_pendingFlashWrite & CYBLE_PENDING_CCCD_FLASH_WRITE_BIT) != 0u) &&
 491              		.loc 1 631 0 is_stmt 0 discriminator 2
 492 0030 002C     		cmp	r4, #0
 493 0032 18D0     		beq	.L33
 494              	.L32:
 632:Generated_Source\PSoC4/ble.c ****         (cyBle_connHandle.bdHandle <= CYBLE_GAP_MAX_BONDED_DEVICE))
 495              		.loc 1 632 0 is_stmt 1 discriminator 3
 496 0034 274B     		ldr	r3, .L41
 497 0036 1B78     		ldrb	r3, [r3]
 631:Generated_Source\PSoC4/ble.c ****         ((cyBle_pendingFlashWrite & CYBLE_PENDING_CCCD_FLASH_WRITE_BIT) != 0u) &&
 498              		.loc 1 631 0 discriminator 3
 499 0038 9B07     		lsl	r3, r3, #30
 500 003a 14D5     		bpl	.L33
 633:Generated_Source\PSoC4/ble.c ****     {
 501              		.loc 1 633 0
 502 003c 264B     		ldr	r3, .L41+4
 503 003e 1978     		ldrb	r1, [r3]
 632:Generated_Source\PSoC4/ble.c ****         (cyBle_connHandle.bdHandle <= CYBLE_GAP_MAX_BONDED_DEVICE))
 504              		.loc 1 632 0
 505 0040 0429     		cmp	r1, #4
 506 0042 10D8     		bhi	.L33
 635:Generated_Source\PSoC4/ble.c ****                         cyBle_connHandle.bdHandle], CYBLE_GATT_DB_CCCD_COUNT, isForceWrite);
 507              		.loc 1 635 0
 508 0044 9E31     		add	r1, r1, #158
 509 0046 8900     		lsl	r1, r1, #2
 510 0048 244B     		ldr	r3, .L41+8
 511 004a C918     		add	r1, r1, r3
 512 004c 0131     		add	r1, r1, #1
 513 004e 2448     		ldr	r0, .L41+12
 514              	.LVL49:
 515 0050 0422     		mov	r2, #4
 516 0052 231C     		mov	r3, r4
 517 0054 FFF7FEFF 		bl	CyBle_StoreAppData
 518              	.LVL50:
 637:Generated_Source\PSoC4/ble.c ****         {
 519              		.loc 1 637 0
 520 0058 0028     		cmp	r0, #0
 521 005a 04D1     		bne	.L33
 639:Generated_Source\PSoC4/ble.c ****         }
 522              		.loc 1 639 0
 523 005c 1D4A     		ldr	r2, .L41
 524 005e 1378     		ldrb	r3, [r2]
 525 0060 0221     		mov	r1, #2
ARM GAS  C:\Users\Sarah\AppData\Local\Temp\ccLQenA3.s 			page 34


 526 0062 8B43     		bic	r3, r1
 527 0064 1370     		strb	r3, [r2]
 528              	.LVL51:
 529              	.L33:
 643:Generated_Source\PSoC4/ble.c ****         ((cyBle_pendingFlashWrite & CYBLE_PENDING_CCCD_FLASH_CLEAR_MASK) != 0u) )
 530              		.loc 1 643 0
 531 0066 0028     		cmp	r0, #0
 532 0068 01D0     		beq	.L34
 643:Generated_Source\PSoC4/ble.c ****         ((cyBle_pendingFlashWrite & CYBLE_PENDING_CCCD_FLASH_CLEAR_MASK) != 0u) )
 533              		.loc 1 643 0 is_stmt 0 discriminator 2
 534 006a 002C     		cmp	r4, #0
 535 006c 30D0     		beq	.L35
 536              	.L34:
 644:Generated_Source\PSoC4/ble.c ****     {
 537              		.loc 1 644 0 is_stmt 1 discriminator 3
 538 006e 194B     		ldr	r3, .L41
 539 0070 1B78     		ldrb	r3, [r3]
 643:Generated_Source\PSoC4/ble.c ****         ((cyBle_pendingFlashWrite & CYBLE_PENDING_CCCD_FLASH_CLEAR_MASK) != 0u) )
 540              		.loc 1 643 0 discriminator 3
 541 0072 0C22     		mov	r2, #12
 542 0074 1A42     		tst	r2, r3
 543 0076 2BD0     		beq	.L35
 646:Generated_Source\PSoC4/ble.c ****         {
 544              		.loc 1 646 0
 545 0078 1B07     		lsl	r3, r3, #28
 546 007a 13D5     		bpl	.L36
 547              	.LBB3:
 651:Generated_Source\PSoC4/ble.c **** 
 548              		.loc 1 651 0
 549 007c 0023     		mov	r3, #0
 550 007e 0193     		str	r3, [sp, #4]
 551 0080 0293     		str	r3, [sp, #8]
 552 0082 0393     		str	r3, [sp, #12]
 553 0084 0493     		str	r3, [sp, #16]
 554 0086 0593     		str	r3, [sp, #20]
 653:Generated_Source\PSoC4/ble.c ****                 (const uint8 *)cyBle_flashStorage.attValuesCCCDFlashMemory, sizeof(defaultValuesCCC
 555              		.loc 1 653 0
 556 0088 01A8     		add	r0, sp, #4
 557              	.LVL52:
 558 008a 1649     		ldr	r1, .L41+16
 559 008c 0832     		add	r2, r2, #8
 560 008e 231C     		mov	r3, r4
 561 0090 FFF7FEFF 		bl	CyBle_StoreAppData
 562              	.LVL53:
 655:Generated_Source\PSoC4/ble.c ****             {
 563              		.loc 1 655 0
 564 0094 0028     		cmp	r0, #0
 565 0096 1BD1     		bne	.L35
 657:Generated_Source\PSoC4/ble.c ****             }
 566              		.loc 1 657 0
 567 0098 0E4A     		ldr	r2, .L41
 568 009a 1378     		ldrb	r3, [r2]
 569 009c 0821     		mov	r1, #8
 570 009e 8B43     		bic	r3, r1
 571 00a0 1370     		strb	r3, [r2]
 572 00a2 15E0     		b	.L35
 573              	.L36:
ARM GAS  C:\Users\Sarah\AppData\Local\Temp\ccLQenA3.s 			page 35


 574              	.LBE3:
 575              	.LBB4:
 662:Generated_Source\PSoC4/ble.c ****             
 576              		.loc 1 662 0
 577 00a4 0023     		mov	r3, #0
 578 00a6 0193     		str	r3, [sp, #4]
 664:Generated_Source\PSoC4/ble.c ****                                     cyBle_pendingFlashClearCccdHandle], CYBLE_GATT_DB_CCCD_COUNT, i
 579              		.loc 1 664 0
 580 00a8 2133     		add	r3, r3, #33
 581 00aa 0F4A     		ldr	r2, .L41+20
 582 00ac D15C     		ldrb	r1, [r2, r3]
 583 00ae 9E31     		add	r1, r1, #158
 584 00b0 8900     		lsl	r1, r1, #2
 585 00b2 0A4B     		ldr	r3, .L41+8
 586 00b4 C918     		add	r1, r1, r3
 587 00b6 0131     		add	r1, r1, #1
 588 00b8 01A8     		add	r0, sp, #4
 589              	.LVL54:
 590 00ba 0422     		mov	r2, #4
 591 00bc 231C     		mov	r3, r4
 592 00be FFF7FEFF 		bl	CyBle_StoreAppData
 593              	.LVL55:
 666:Generated_Source\PSoC4/ble.c ****             {
 594              		.loc 1 666 0
 595 00c2 0028     		cmp	r0, #0
 596 00c4 04D1     		bne	.L35
 668:Generated_Source\PSoC4/ble.c ****             }
 597              		.loc 1 668 0
 598 00c6 034A     		ldr	r2, .L41
 599 00c8 1378     		ldrb	r3, [r2]
 600 00ca 0421     		mov	r1, #4
 601 00cc 8B43     		bic	r3, r1
 602 00ce 1370     		strb	r3, [r2]
 603              	.LVL56:
 604              	.L35:
 605              	.LBE4:
 674:Generated_Source\PSoC4/ble.c **** 
 606              		.loc 1 674 0
 607 00d0 06B0     		add	sp, sp, #24
 608              		@ sp needed
 609 00d2 10BD     		pop	{r4, pc}
 610              	.L42:
 611              		.align	2
 612              	.L41:
 613 00d4 00000000 		.word	cyBle_pendingFlashWrite
 614 00d8 00000000 		.word	cyBle_connHandle
 615 00dc 00000000 		.word	cyBle_flashStorage
 616 00e0 00000000 		.word	cyBle_attValuesCCCD
 617 00e4 79020000 		.word	cyBle_flashStorage+633
 618 00e8 00000000 		.word	.LANCHOR1
 619              		.cfi_endproc
 620              	.LFE6:
 621              		.size	CyBle_StoreBondingData, .-CyBle_StoreBondingData
 622              		.section	.text.CyBle_GapRemoveBondedDevice,"ax",%progbits
 623              		.align	2
 624              		.global	CyBle_GapRemoveBondedDevice
 625              		.code	16
ARM GAS  C:\Users\Sarah\AppData\Local\Temp\ccLQenA3.s 			page 36


 626              		.thumb_func
 627              		.type	CyBle_GapRemoveBondedDevice, %function
 628              	CyBle_GapRemoveBondedDevice:
 629              	.LFB7:
 710:Generated_Source\PSoC4/ble.c ****     CYBLE_API_RESULT_T apiResult = CYBLE_ERROR_OK;
 630              		.loc 1 710 0
 631              		.cfi_startproc
 632              	.LVL57:
 633 0000 30B5     		push	{r4, r5, lr}
 634              		.cfi_def_cfa_offset 12
 635              		.cfi_offset 4, -12
 636              		.cfi_offset 5, -8
 637              		.cfi_offset 14, -4
 638 0002 85B0     		sub	sp, sp, #20
 639              		.cfi_def_cfa_offset 32
 640              	.LVL58:
 713:Generated_Source\PSoC4/ble.c ****     {
 641              		.loc 1 713 0
 642 0004 184B     		ldr	r3, .L49
 643 0006 1D78     		ldrb	r5, [r3]
 644 0008 002D     		cmp	r5, #0
 645 000a 2AD1     		bne	.L48
 646 000c 041C     		mov	r4, r0
 647              	.LBB5:
 719:Generated_Source\PSoC4/ble.c **** 
 648              		.loc 1 719 0
 649 000e 02A9     		add	r1, sp, #8
 650 0010 0023     		mov	r3, #0
 651 0012 0B70     		strb	r3, [r1]
 652 0014 4B70     		strb	r3, [r1, #1]
 653 0016 8B70     		strb	r3, [r1, #2]
 654 0018 CB70     		strb	r3, [r1, #3]
 655 001a 0B71     		strb	r3, [r1, #4]
 656 001c 4B71     		strb	r3, [r1, #5]
 657 001e 8B71     		strb	r3, [r1, #6]
 721:Generated_Source\PSoC4/ble.c **** 	    {
 658              		.loc 1 721 0
 659 0020 0622     		mov	r2, #6
 660 0022 FFF7FEFF 		bl	memcmp
 661              	.LVL59:
 662 0026 0028     		cmp	r0, #0
 663 0028 04D1     		bne	.L45
 724:Generated_Source\PSoC4/ble.c ****         }
 664              		.loc 1 724 0
 665 002a 0823     		mov	r3, #8
 666 002c 1D43     		orr	r5, r3
 667 002e 0E4B     		ldr	r3, .L49
 668 0030 1D70     		strb	r5, [r3]
 669 0032 10E0     		b	.L46
 670              	.L45:
 729:Generated_Source\PSoC4/ble.c ****             if(apiResult == CYBLE_ERROR_OK)
 671              		.loc 1 729 0
 672 0034 6B46     		mov	r3, sp
 673 0036 D81D     		add	r0, r3, #7
 674 0038 211C     		mov	r1, r4
 675 003a FFF7FEFF 		bl	CyBle_GapGetPeerBdHandle
 676              	.LVL60:
ARM GAS  C:\Users\Sarah\AppData\Local\Temp\ccLQenA3.s 			page 37


 730:Generated_Source\PSoC4/ble.c ****             {
 677              		.loc 1 730 0
 678 003e 0028     		cmp	r0, #0
 679 0040 09D1     		bne	.L46
 733:Generated_Source\PSoC4/ble.c ****                 cyBle_pendingFlashClearCccdHandle = bDevHandle;
 680              		.loc 1 733 0
 681 0042 094A     		ldr	r2, .L49
 682 0044 1178     		ldrb	r1, [r2]
 683 0046 0423     		mov	r3, #4
 684 0048 0B43     		orr	r3, r1
 685 004a 1370     		strb	r3, [r2]
 734:Generated_Source\PSoC4/ble.c ****             }
 686              		.loc 1 734 0
 687 004c 6B46     		mov	r3, sp
 688 004e D979     		ldrb	r1, [r3, #7]
 689 0050 2123     		mov	r3, #33
 690 0052 064A     		ldr	r2, .L49+4
 691 0054 D154     		strb	r1, [r2, r3]
 692              	.LVL61:
 693              	.L46:
 738:Generated_Source\PSoC4/ble.c ****         {
 694              		.loc 1 738 0
 695 0056 0028     		cmp	r0, #0
 696 0058 04D1     		bne	.L44
 740:Generated_Source\PSoC4/ble.c ****         }
 697              		.loc 1 740 0
 698 005a 201C     		mov	r0, r4
 699              	.LVL62:
 700 005c FFF7FEFF 		bl	CyBle_GapRemoveDeviceFromWhiteList
 701              	.LVL63:
 702 0060 00E0     		b	.L44
 703              	.LVL64:
 704              	.L48:
 705              	.LBE5:
 745:Generated_Source\PSoC4/ble.c ****     }
 706              		.loc 1 745 0
 707 0062 0220     		mov	r0, #2
 708              	.LVL65:
 709              	.L44:
 749:Generated_Source\PSoC4/ble.c **** 
 710              		.loc 1 749 0
 711 0064 05B0     		add	sp, sp, #20
 712              		@ sp needed
 713 0066 30BD     		pop	{r4, r5, pc}
 714              	.L50:
 715              		.align	2
 716              	.L49:
 717 0068 00000000 		.word	cyBle_pendingFlashWrite
 718 006c 00000000 		.word	.LANCHOR1
 719              		.cfi_endproc
 720              	.LFE7:
 721              		.size	CyBle_GapRemoveBondedDevice, .-CyBle_GapRemoveBondedDevice
 722              		.section	.text.CyBle_GappStartAdvertisement,"ax",%progbits
 723              		.align	2
 724              		.global	CyBle_GappStartAdvertisement
 725              		.code	16
 726              		.thumb_func
ARM GAS  C:\Users\Sarah\AppData\Local\Temp\ccLQenA3.s 			page 38


 727              		.type	CyBle_GappStartAdvertisement, %function
 728              	CyBle_GappStartAdvertisement:
 729              	.LFB8:
 807:Generated_Source\PSoC4/ble.c ****         CYBLE_API_RESULT_T apiResult;
 730              		.loc 1 807 0
 731              		.cfi_startproc
 732              	.LVL66:
 733 0000 08B5     		push	{r3, lr}
 734              		.cfi_def_cfa_offset 8
 735              		.cfi_offset 3, -8
 736              		.cfi_offset 14, -4
 810:Generated_Source\PSoC4/ble.c ****         {
 737              		.loc 1 810 0
 738 0002 0228     		cmp	r0, #2
 739 0004 2ED8     		bhi	.L55
 814:Generated_Source\PSoC4/ble.c ****         {   
 740              		.loc 1 814 0
 741 0006 1B4B     		ldr	r3, .L58
 742 0008 1B78     		ldrb	r3, [r3]
 743 000a 062B     		cmp	r3, #6
 744 000c 2CD1     		bne	.L56
 814:Generated_Source\PSoC4/ble.c ****         {   
 745              		.loc 1 814 0 is_stmt 0 discriminator 1
 746 000e 1A4B     		ldr	r3, .L58+4
 747 0010 1B78     		ldrb	r3, [r3]
 748 0012 5B07     		lsl	r3, r3, #29
 749 0014 2BD4     		bmi	.L57
 816:Generated_Source\PSoC4/ble.c ****             {
 750              		.loc 1 816 0 is_stmt 1
 751 0016 0028     		cmp	r0, #0
 752 0018 09D1     		bne	.L53
 818:Generated_Source\PSoC4/ble.c ****                 cyBle_discoveryModeInfo.advParam->advIntvMin = CYBLE_FAST_ADV_INT_MIN;
 753              		.loc 1 818 0
 754 001a 184B     		ldr	r3, .L58+8
 755 001c 0022     		mov	r2, #0
 756 001e 9A87     		strh	r2, [r3, #60]
 819:Generated_Source\PSoC4/ble.c ****                 cyBle_discoveryModeInfo.advParam->advIntvMax = CYBLE_FAST_ADV_INT_MAX;
 757              		.loc 1 819 0
 758 0020 2032     		add	r2, r2, #32
 759 0022 196B     		ldr	r1, [r3, #48]
 760 0024 0A80     		strh	r2, [r1]
 820:Generated_Source\PSoC4/ble.c ****             }
 761              		.loc 1 820 0
 762 0026 1B6B     		ldr	r3, [r3, #48]
 763 0028 1032     		add	r2, r2, #16
 764 002a 5A80     		strh	r2, [r3, #2]
 765 002c 0CE0     		b	.L54
 766              	.L53:
 822:Generated_Source\PSoC4/ble.c ****             {
 767              		.loc 1 822 0
 768 002e 0128     		cmp	r0, #1
 769 0030 0AD1     		bne	.L54
 824:Generated_Source\PSoC4/ble.c ****                 cyBle_discoveryModeInfo.advParam->advIntvMin = CYBLE_SLOW_ADV_INT_MIN;
 770              		.loc 1 824 0
 771 0032 124B     		ldr	r3, .L58+8
 772 0034 9622     		mov	r2, #150
 773 0036 9A87     		strh	r2, [r3, #60]
ARM GAS  C:\Users\Sarah\AppData\Local\Temp\ccLQenA3.s 			page 39


 825:Generated_Source\PSoC4/ble.c ****                 cyBle_discoveryModeInfo.advParam->advIntvMax = CYBLE_SLOW_ADV_INT_MAX;
 774              		.loc 1 825 0
 775 0038 C822     		mov	r2, #200
 776 003a D200     		lsl	r2, r2, #3
 777 003c 196B     		ldr	r1, [r3, #48]
 778 003e 0A80     		strh	r2, [r1]
 826:Generated_Source\PSoC4/ble.c ****             }       
 779              		.loc 1 826 0
 780 0040 1B6B     		ldr	r3, [r3, #48]
 781 0042 8022     		mov	r2, #128
 782 0044 D201     		lsl	r2, r2, #7
 783 0046 5A80     		strh	r2, [r3, #2]
 784              	.L54:
 831:Generated_Source\PSoC4/ble.c ****             apiResult = CyBle_GappEnterDiscoveryMode(&cyBle_discoveryModeInfo);
 785              		.loc 1 831 0
 786 0048 0D4B     		ldr	r3, .L58+12
 787 004a 1870     		strb	r0, [r3]
 832:Generated_Source\PSoC4/ble.c ****         
 788              		.loc 1 832 0
 789 004c 0B48     		ldr	r0, .L58+8
 790              	.LVL67:
 791 004e 2C30     		add	r0, r0, #44
 792 0050 FFF7FEFF 		bl	CyBle_GappEnterDiscoveryMode
 793              	.LVL68:
 834:Generated_Source\PSoC4/ble.c ****             {
 794              		.loc 1 834 0
 795 0054 0028     		cmp	r0, #0
 796 0056 0CD1     		bne	.L52
 836:Generated_Source\PSoC4/ble.c ****             }
 797              		.loc 1 836 0
 798 0058 074A     		ldr	r2, .L58+4
 799 005a 1178     		ldrb	r1, [r2]
 800 005c 0423     		mov	r3, #4
 801 005e 0B43     		orr	r3, r1
 802 0060 1370     		strb	r3, [r2]
 803 0062 06E0     		b	.L52
 804              	.LVL69:
 805              	.L55:
 812:Generated_Source\PSoC4/ble.c ****         }
 806              		.loc 1 812 0
 807 0064 0120     		mov	r0, #1
 808              	.LVL70:
 809 0066 04E0     		b	.L52
 810              	.LVL71:
 811              	.L56:
 841:Generated_Source\PSoC4/ble.c ****         }
 812              		.loc 1 841 0
 813 0068 0420     		mov	r0, #4
 814              	.LVL72:
 815 006a FF30     		add	r0, r0, #255
 816 006c 01E0     		b	.L52
 817              	.LVL73:
 818              	.L57:
 819 006e 0420     		mov	r0, #4
 820              	.LVL74:
 821 0070 FF30     		add	r0, r0, #255
 822              	.L52:
ARM GAS  C:\Users\Sarah\AppData\Local\Temp\ccLQenA3.s 			page 40


 823              	.LVL75:
 845:Generated_Source\PSoC4/ble.c **** 
 824              		.loc 1 845 0
 825              		@ sp needed
 826 0072 08BD     		pop	{r3, pc}
 827              	.L59:
 828              		.align	2
 829              	.L58:
 830 0074 00000000 		.word	cyBle_state
 831 0078 00000000 		.word	cyBle_eventHandlerFlag
 832 007c 00000000 		.word	.LANCHOR0
 833 0080 00000000 		.word	cyBle_advertisingIntervalType
 834              		.cfi_endproc
 835              	.LFE8:
 836              		.size	CyBle_GappStartAdvertisement, .-CyBle_GappStartAdvertisement
 837              		.section	.text.CyBle_GappStopAdvertisement,"ax",%progbits
 838              		.align	2
 839              		.global	CyBle_GappStopAdvertisement
 840              		.code	16
 841              		.thumb_func
 842              		.type	CyBle_GappStopAdvertisement, %function
 843              	CyBle_GappStopAdvertisement:
 844              	.LFB9:
 868:Generated_Source\PSoC4/ble.c ****         CyBle_GappExitDiscoveryMode();
 845              		.loc 1 868 0
 846              		.cfi_startproc
 847 0000 08B5     		push	{r3, lr}
 848              		.cfi_def_cfa_offset 8
 849              		.cfi_offset 3, -8
 850              		.cfi_offset 14, -4
 869:Generated_Source\PSoC4/ble.c ****         cyBle_eventHandlerFlag |= CYBLE_STOP_FLAG;
 851              		.loc 1 869 0
 852 0002 FFF7FEFF 		bl	CyBle_GappExitDiscoveryMode
 853              	.LVL76:
 870:Generated_Source\PSoC4/ble.c ****     }
 854              		.loc 1 870 0
 855 0006 034A     		ldr	r2, .L61
 856 0008 1178     		ldrb	r1, [r2]
 857 000a 0823     		mov	r3, #8
 858 000c 0B43     		orr	r3, r1
 859 000e 1370     		strb	r3, [r2]
 871:Generated_Source\PSoC4/ble.c ****     
 860              		.loc 1 871 0
 861              		@ sp needed
 862 0010 08BD     		pop	{r3, pc}
 863              	.L62:
 864 0012 C046     		.align	2
 865              	.L61:
 866 0014 00000000 		.word	cyBle_eventHandlerFlag
 867              		.cfi_endproc
 868              	.LFE9:
 869              		.size	CyBle_GappStopAdvertisement, .-CyBle_GappStopAdvertisement
 870              		.section	.text.CyBle_ChangeAdDeviceAddress,"ax",%progbits
 871              		.align	2
 872              		.global	CyBle_ChangeAdDeviceAddress
 873              		.code	16
 874              		.thumb_func
ARM GAS  C:\Users\Sarah\AppData\Local\Temp\ccLQenA3.s 			page 41


 875              		.type	CyBle_ChangeAdDeviceAddress, %function
 876              	CyBle_ChangeAdDeviceAddress:
 877              	.LFB10:
 890:Generated_Source\PSoC4/ble.c ****         uint8 i;
 878              		.loc 1 890 0
 879              		.cfi_startproc
 880              	.LVL77:
 917:Generated_Source\PSoC4/ble.c ****   
 881              		.loc 1 917 0
 882              		@ sp needed
 883 0000 7047     		bx	lr
 884              		.cfi_endproc
 885              	.LFE10:
 886              		.size	CyBle_ChangeAdDeviceAddress, .-CyBle_ChangeAdDeviceAddress
 887 0002 C046     		.section	.text.CyBle_GapcStartScan,"ax",%progbits
 888              		.align	2
 889              		.global	CyBle_GapcStartScan
 890              		.code	16
 891              		.thumb_func
 892              		.type	CyBle_GapcStartScan, %function
 893              	CyBle_GapcStartScan:
 894              	.LFB11:
 996:Generated_Source\PSoC4/ble.c ****         CYBLE_API_RESULT_T apiResult;
 895              		.loc 1 996 0
 896              		.cfi_startproc
 897              	.LVL78:
 898 0000 08B5     		push	{r3, lr}
 899              		.cfi_def_cfa_offset 8
 900              		.cfi_offset 3, -8
 901              		.cfi_offset 14, -4
 999:Generated_Source\PSoC4/ble.c ****         {
 902              		.loc 1 999 0
 903 0002 0228     		cmp	r0, #2
 904 0004 20D8     		bhi	.L68
1005:Generated_Source\PSoC4/ble.c ****             {
 905              		.loc 1 1005 0
 906 0006 0028     		cmp	r0, #0
 907 0008 06D1     		bne	.L66
1007:Generated_Source\PSoC4/ble.c ****                 cyBle_discoveryInfo.scanIntv = CYBLE_FAST_SCAN_INTERVAL;
 908              		.loc 1 1007 0
 909 000a 104B     		ldr	r3, .L69
 910 000c 1E22     		mov	r2, #30
 911 000e 1A85     		strh	r2, [r3, #40]
1008:Generated_Source\PSoC4/ble.c ****                 cyBle_discoveryInfo.scanWindow = CYBLE_FAST_SCAN_WINDOW;
 912              		.loc 1 1008 0
 913 0010 1232     		add	r2, r2, #18
 914 0012 5A84     		strh	r2, [r3, #34]
1009:Generated_Source\PSoC4/ble.c ****             }
 915              		.loc 1 1009 0
 916 0014 9A84     		strh	r2, [r3, #36]
 917 0016 09E0     		b	.L67
 918              	.L66:
1011:Generated_Source\PSoC4/ble.c ****             {
 919              		.loc 1 1011 0
 920 0018 0128     		cmp	r0, #1
 921 001a 07D1     		bne	.L67
1013:Generated_Source\PSoC4/ble.c ****                 cyBle_discoveryInfo.scanIntv = CYBLE_SLOW_SCAN_INTERVAL;
ARM GAS  C:\Users\Sarah\AppData\Local\Temp\ccLQenA3.s 			page 42


 922              		.loc 1 1013 0
 923 001c 0B4B     		ldr	r3, .L69
 924 001e 9622     		mov	r2, #150
 925 0020 1A85     		strh	r2, [r3, #40]
1014:Generated_Source\PSoC4/ble.c ****                 cyBle_discoveryInfo.scanWindow = CYBLE_SLOW_SCAN_WINDOW;
 926              		.loc 1 1014 0
 927 0022 8022     		mov	r2, #128
 928 0024 1201     		lsl	r2, r2, #4
 929 0026 5A84     		strh	r2, [r3, #34]
1015:Generated_Source\PSoC4/ble.c ****             }       
 930              		.loc 1 1015 0
 931 0028 F83A     		sub	r2, r2, #248
 932 002a 9A84     		strh	r2, [r3, #36]
 933              	.L67:
1021:Generated_Source\PSoC4/ble.c ****             apiResult = CyBle_GapcStartDiscovery(&cyBle_discoveryInfo);
 934              		.loc 1 1021 0
 935 002c 084B     		ldr	r3, .L69+4
 936 002e 1870     		strb	r0, [r3]
1022:Generated_Source\PSoC4/ble.c ****         
 937              		.loc 1 1022 0
 938 0030 0648     		ldr	r0, .L69
 939              	.LVL79:
 940 0032 2030     		add	r0, r0, #32
 941 0034 FFF7FEFF 		bl	CyBle_GapcStartDiscovery
 942              	.LVL80:
1024:Generated_Source\PSoC4/ble.c ****             {
 943              		.loc 1 1024 0
 944 0038 0028     		cmp	r0, #0
 945 003a 06D1     		bne	.L65
1026:Generated_Source\PSoC4/ble.c ****             }
 946              		.loc 1 1026 0
 947 003c 054A     		ldr	r2, .L69+8
 948 003e 1178     		ldrb	r1, [r2]
 949 0040 0423     		mov	r3, #4
 950 0042 0B43     		orr	r3, r1
 951 0044 1370     		strb	r3, [r2]
 952 0046 00E0     		b	.L65
 953              	.LVL81:
 954              	.L68:
1001:Generated_Source\PSoC4/ble.c ****         }
 955              		.loc 1 1001 0
 956 0048 0120     		mov	r0, #1
 957              	.LVL82:
 958              	.L65:
1031:Generated_Source\PSoC4/ble.c ****     
 959              		.loc 1 1031 0
 960              		@ sp needed
 961 004a 08BD     		pop	{r3, pc}
 962              	.L70:
 963              		.align	2
 964              	.L69:
 965 004c 00000000 		.word	.LANCHOR0
 966 0050 00000000 		.word	cyBle_scanningIntervalType
 967 0054 00000000 		.word	cyBle_eventHandlerFlag
 968              		.cfi_endproc
 969              	.LFE11:
 970              		.size	CyBle_GapcStartScan, .-CyBle_GapcStartScan
ARM GAS  C:\Users\Sarah\AppData\Local\Temp\ccLQenA3.s 			page 43


 971              		.section	.text.CyBle_GapcStopScan,"ax",%progbits
 972              		.align	2
 973              		.global	CyBle_GapcStopScan
 974              		.code	16
 975              		.thumb_func
 976              		.type	CyBle_GapcStopScan, %function
 977              	CyBle_GapcStopScan:
 978              	.LFB12:
1052:Generated_Source\PSoC4/ble.c ****         CyBle_GapcStopDiscovery();
 979              		.loc 1 1052 0
 980              		.cfi_startproc
 981 0000 08B5     		push	{r3, lr}
 982              		.cfi_def_cfa_offset 8
 983              		.cfi_offset 3, -8
 984              		.cfi_offset 14, -4
1053:Generated_Source\PSoC4/ble.c ****         
 985              		.loc 1 1053 0
 986 0002 FFF7FEFF 		bl	CyBle_GapcStopDiscovery
 987              	.LVL83:
1055:Generated_Source\PSoC4/ble.c ****     }
 988              		.loc 1 1055 0
 989 0006 034A     		ldr	r2, .L72
 990 0008 1178     		ldrb	r1, [r2]
 991 000a 0823     		mov	r3, #8
 992 000c 0B43     		orr	r3, r1
 993 000e 1370     		strb	r3, [r2]
1056:Generated_Source\PSoC4/ble.c **** 
 994              		.loc 1 1056 0
 995              		@ sp needed
 996 0010 08BD     		pop	{r3, pc}
 997              	.L73:
 998 0012 C046     		.align	2
 999              	.L72:
 1000 0014 00000000 		.word	cyBle_eventHandlerFlag
 1001              		.cfi_endproc
 1002              	.LFE12:
 1003              		.size	CyBle_GapcStopScan, .-CyBle_GapcStopScan
 1004              		.section	.text.CyBle_GapcConnectDevice,"ax",%progbits
 1005              		.align	2
 1006              		.global	CyBle_GapcConnectDevice
 1007              		.code	16
 1008              		.thumb_func
 1009              		.type	CyBle_GapcConnectDevice, %function
 1010              	CyBle_GapcConnectDevice:
 1011              	.LFB13:
1105:Generated_Source\PSoC4/ble.c ****         CYBLE_API_RESULT_T apiResult;
 1012              		.loc 1 1105 0
 1013              		.cfi_startproc
 1014              	.LVL84:
 1015 0000 10B5     		push	{r4, lr}
 1016              		.cfi_def_cfa_offset 8
 1017              		.cfi_offset 4, -8
 1018              		.cfi_offset 14, -4
1109:Generated_Source\PSoC4/ble.c ****         {
 1019              		.loc 1 1109 0
 1020 0002 134B     		ldr	r3, .L80
 1021 0004 1B78     		ldrb	r3, [r3]
ARM GAS  C:\Users\Sarah\AppData\Local\Temp\ccLQenA3.s 			page 44


 1022 0006 062B     		cmp	r3, #6
 1023 0008 1CD1     		bne	.L78
1113:Generated_Source\PSoC4/ble.c ****         {
 1024              		.loc 1 1113 0
 1025 000a 0028     		cmp	r0, #0
 1026 000c 1DD0     		beq	.L79
 1027 000e 0023     		mov	r3, #0
 1028 0010 05E0     		b	.L76
 1029              	.LVL85:
 1030              	.L77:
1121:Generated_Source\PSoC4/ble.c ****             }
 1031              		.loc 1 1121 0 discriminator 3
 1032 0012 C15C     		ldrb	r1, [r0, r3]
 1033 0014 0F4A     		ldr	r2, .L80+4
 1034 0016 D218     		add	r2, r2, r3
 1035 0018 5171     		strb	r1, [r2, #5]
1119:Generated_Source\PSoC4/ble.c ****             {
 1036              		.loc 1 1119 0 discriminator 3
 1037 001a 0133     		add	r3, r3, #1
 1038              	.LVL86:
 1039 001c DBB2     		uxtb	r3, r3
 1040              	.LVL87:
 1041              	.L76:
1119:Generated_Source\PSoC4/ble.c ****             {
 1042              		.loc 1 1119 0 is_stmt 0 discriminator 1
 1043 001e 052B     		cmp	r3, #5
 1044 0020 F7D9     		bls	.L77
1123:Generated_Source\PSoC4/ble.c ****             apiResult = CyBle_GapcInitConnection(&cyBle_connectionParameters);
 1045              		.loc 1 1123 0 is_stmt 1
 1046 0022 8379     		ldrb	r3, [r0, #6]
 1047              	.LVL88:
 1048 0024 0B48     		ldr	r0, .L80+4
 1049              	.LVL89:
 1050 0026 C372     		strb	r3, [r0, #11]
1124:Generated_Source\PSoC4/ble.c ****             
 1051              		.loc 1 1124 0
 1052 0028 FFF7FEFF 		bl	CyBle_GapcInitConnection
 1053              	.LVL90:
 1054 002c 041E     		sub	r4, r0, #0
 1055              	.LVL91:
1126:Generated_Source\PSoC4/ble.c ****             {
 1056              		.loc 1 1126 0
 1057 002e 0DD1     		bne	.L75
1128:Generated_Source\PSoC4/ble.c ****                 if(cyBle_connectingTimeout != 0u)
 1058              		.loc 1 1128 0
 1059 0030 0522     		mov	r2, #5
 1060 0032 074B     		ldr	r3, .L80
 1061 0034 1A70     		strb	r2, [r3]
1129:Generated_Source\PSoC4/ble.c ****                 {
 1062              		.loc 1 1129 0
 1063 0036 084B     		ldr	r3, .L80+8
 1064 0038 1888     		ldrh	r0, [r3]
 1065              	.LVL92:
 1066 003a 0028     		cmp	r0, #0
 1067 003c 06D0     		beq	.L75
1131:Generated_Source\PSoC4/ble.c ****                 }
 1068              		.loc 1 1131 0
ARM GAS  C:\Users\Sarah\AppData\Local\Temp\ccLQenA3.s 			page 45


 1069 003e FFF7FEFF 		bl	CyBle_StartTimer
 1070              	.LVL93:
 1071 0042 03E0     		b	.L75
 1072              	.LVL94:
 1073              	.L78:
1111:Generated_Source\PSoC4/ble.c ****         }
 1074              		.loc 1 1111 0
 1075 0044 0424     		mov	r4, #4
 1076 0046 FF34     		add	r4, r4, #255
 1077 0048 00E0     		b	.L75
 1078              	.L79:
1115:Generated_Source\PSoC4/ble.c ****         }
 1079              		.loc 1 1115 0
 1080 004a 0124     		mov	r4, #1
 1081              	.LVL95:
 1082              	.L75:
1136:Generated_Source\PSoC4/ble.c ****     
 1083              		.loc 1 1136 0
 1084 004c 201C     		mov	r0, r4
 1085              		@ sp needed
 1086              	.LVL96:
 1087 004e 10BD     		pop	{r4, pc}
 1088              	.L81:
 1089              		.align	2
 1090              	.L80:
 1091 0050 00000000 		.word	cyBle_state
 1092 0054 00000000 		.word	cyBle_connectionParameters
 1093 0058 00000000 		.word	cyBle_connectingTimeout
 1094              		.cfi_endproc
 1095              	.LFE13:
 1096              		.size	CyBle_GapcConnectDevice, .-CyBle_GapcConnectDevice
 1097              		.section	.text.CyBle_GapcCancelDeviceConnection,"ax",%progbits
 1098              		.align	2
 1099              		.global	CyBle_GapcCancelDeviceConnection
 1100              		.code	16
 1101              		.thumb_func
 1102              		.type	CyBle_GapcCancelDeviceConnection, %function
 1103              	CyBle_GapcCancelDeviceConnection:
 1104              	.LFB14:
1161:Generated_Source\PSoC4/ble.c ****         CYBLE_API_RESULT_T apiResult;
 1105              		.loc 1 1161 0
 1106              		.cfi_startproc
 1107 0000 10B5     		push	{r4, lr}
 1108              		.cfi_def_cfa_offset 8
 1109              		.cfi_offset 4, -8
 1110              		.cfi_offset 14, -4
1164:Generated_Source\PSoC4/ble.c ****         {
 1111              		.loc 1 1164 0
 1112 0002 0B4B     		ldr	r3, .L86
 1113 0004 1B78     		ldrb	r3, [r3]
 1114 0006 052B     		cmp	r3, #5
 1115 0008 0ED1     		bne	.L85
1170:Generated_Source\PSoC4/ble.c ****             
 1116              		.loc 1 1170 0
 1117 000a FFF7FEFF 		bl	CyBle_GapcCancelConnection
 1118              	.LVL97:
 1119 000e 041C     		mov	r4, r0
ARM GAS  C:\Users\Sarah\AppData\Local\Temp\ccLQenA3.s 			page 46


 1120              	.LVL98:
1172:Generated_Source\PSoC4/ble.c ****             {
 1121              		.loc 1 1172 0
 1122 0010 084B     		ldr	r3, .L86+4
 1123 0012 1B88     		ldrh	r3, [r3]
 1124 0014 002B     		cmp	r3, #0
 1125 0016 01D0     		beq	.L84
1174:Generated_Source\PSoC4/ble.c ****             }
 1126              		.loc 1 1174 0
 1127 0018 FFF7FEFF 		bl	CyBle_StopTimer
 1128              	.LVL99:
 1129              	.L84:
1177:Generated_Source\PSoC4/ble.c ****             {
 1130              		.loc 1 1177 0
 1131 001c 002C     		cmp	r4, #0
 1132 001e 05D1     		bne	.L83
1179:Generated_Source\PSoC4/ble.c ****             }
 1133              		.loc 1 1179 0
 1134 0020 0622     		mov	r2, #6
 1135 0022 034B     		ldr	r3, .L86
 1136 0024 1A70     		strb	r2, [r3]
 1137 0026 01E0     		b	.L83
 1138              	.LVL100:
 1139              	.L85:
1166:Generated_Source\PSoC4/ble.c ****         }
 1140              		.loc 1 1166 0
 1141 0028 0424     		mov	r4, #4
 1142 002a FF34     		add	r4, r4, #255
 1143              	.L83:
 1144              	.LVL101:
1183:Generated_Source\PSoC4/ble.c **** 
 1145              		.loc 1 1183 0
 1146 002c 201C     		mov	r0, r4
 1147              		@ sp needed
 1148              	.LVL102:
 1149 002e 10BD     		pop	{r4, pc}
 1150              	.L87:
 1151              		.align	2
 1152              	.L86:
 1153 0030 00000000 		.word	cyBle_state
 1154 0034 00000000 		.word	cyBle_connectingTimeout
 1155              		.cfi_endproc
 1156              	.LFE14:
 1157              		.size	CyBle_GapcCancelDeviceConnection, .-CyBle_GapcCancelDeviceConnection
 1158              		.section	.text.CyBle_GapSetLocalName,"ax",%progbits
 1159              		.align	2
 1160              		.global	CyBle_GapSetLocalName
 1161              		.code	16
 1162              		.thumb_func
 1163              		.type	CyBle_GapSetLocalName, %function
 1164              	CyBle_GapSetLocalName:
 1165              	.LFB16:
1279:Generated_Source\PSoC4/ble.c ****         
1280:Generated_Source\PSoC4/ble.c **** #endif /* (CYBLE_GAP_ROLE_PERIPHERAL) */  
1281:Generated_Source\PSoC4/ble.c ****     
1282:Generated_Source\PSoC4/ble.c ****     
1283:Generated_Source\PSoC4/ble.c ****     /******************************************************************************
ARM GAS  C:\Users\Sarah\AppData\Local\Temp\ccLQenA3.s 			page 47


1284:Generated_Source\PSoC4/ble.c ****     * Function Name: CyBle_GapSetLocalName
1285:Generated_Source\PSoC4/ble.c ****     ***************************************************************************//**
1286:Generated_Source\PSoC4/ble.c ****     *  This API is used to set the local device name - a Characteristic of the 
1287:Generated_Source\PSoC4/ble.c ****     *  GAP Service. If the characteristic length entered in the component customizer
1288:Generated_Source\PSoC4/ble.c ****     *  is shorter than the string specified by the "name" parameter, the local device
1289:Generated_Source\PSoC4/ble.c ****     *  name will be cut to the length specified in the customizer.
1290:Generated_Source\PSoC4/ble.c ****     * 
1291:Generated_Source\PSoC4/ble.c ****     *  \param name: The local device name string. The name string to be written as
1292:Generated_Source\PSoC4/ble.c ****     *              the local device name. It represents a UTF-8 encoded User
1293:Generated_Source\PSoC4/ble.c ****     *              Friendly Descriptive Name for the device. The length of the local
1294:Generated_Source\PSoC4/ble.c ****     *              device string is entered into the component customizer and it can
1295:Generated_Source\PSoC4/ble.c ****     *              be set to a value from 0 to 248 bytes. If the name contained in
1296:Generated_Source\PSoC4/ble.c ****     *              the parameter is shorter than the length from the customizer, the
1297:Generated_Source\PSoC4/ble.c ****     *              end of the name is indicated by a NULL octet (0x00).
1298:Generated_Source\PSoC4/ble.c ****     * 
1299:Generated_Source\PSoC4/ble.c ****     * \return
1300:Generated_Source\PSoC4/ble.c ****     *  CYBLE_API_RESULT_T : Return value indicates if the function succeeded or 
1301:Generated_Source\PSoC4/ble.c ****     *  failed. Following are the possible error codes.
1302:Generated_Source\PSoC4/ble.c ****     *
1303:Generated_Source\PSoC4/ble.c ****     *   Errors codes                       | Description
1304:Generated_Source\PSoC4/ble.c ****     *   ------------                       | -----------
1305:Generated_Source\PSoC4/ble.c ****     *   CYBLE_ERROR_OK                     | Function completed successfully.
1306:Generated_Source\PSoC4/ble.c ****     *   CYBLE_ERROR_INVALID_PARAMETER      | On specifying NULL as input parameter
1307:Generated_Source\PSoC4/ble.c ****     *  
1308:Generated_Source\PSoC4/ble.c ****     *******************************************************************************/
1309:Generated_Source\PSoC4/ble.c ****     CYBLE_API_RESULT_T CyBle_GapSetLocalName(const char8 name[])
1310:Generated_Source\PSoC4/ble.c ****     {
 1166              		.loc 1 1310 0
 1167              		.cfi_startproc
 1168              	.LVL103:
 1169 0000 38B5     		push	{r3, r4, r5, lr}
 1170              		.cfi_def_cfa_offset 16
 1171              		.cfi_offset 3, -16
 1172              		.cfi_offset 4, -12
 1173              		.cfi_offset 5, -8
 1174              		.cfi_offset 14, -4
 1175              	.LVL104:
1311:Generated_Source\PSoC4/ble.c ****         CYBLE_API_RESULT_T apiResult = CYBLE_ERROR_OK;
1312:Generated_Source\PSoC4/ble.c ****         uint8 i;
1313:Generated_Source\PSoC4/ble.c ****         char8 *ptr;
1314:Generated_Source\PSoC4/ble.c ****         uint8 charLen;
1315:Generated_Source\PSoC4/ble.c **** 
1316:Generated_Source\PSoC4/ble.c ****         if(NULL != name)
 1176              		.loc 1 1316 0
 1177 0002 0028     		cmp	r0, #0
 1178 0004 26D0     		beq	.L94
1317:Generated_Source\PSoC4/ble.c ****         {
1318:Generated_Source\PSoC4/ble.c ****             /* Get the pointer to the Device Name characteristic  */
1319:Generated_Source\PSoC4/ble.c ****             ptr = (char8 *) CYBLE_GATT_DB_ATTR_GET_ATTR_GEN_PTR(cyBle_gaps.deviceNameCharHandle);
 1179              		.loc 1 1319 0
 1180 0006 144B     		ldr	r3, .L95
 1181 0008 5A88     		ldrh	r2, [r3, #2]
 1182 000a 511E     		sub	r1, r2, #1
 1183 000c 134D     		ldr	r5, .L95+4
 1184 000e 8A00     		lsl	r2, r1, #2
 1185 0010 5318     		add	r3, r2, r1
 1186 0012 9B00     		lsl	r3, r3, #2
ARM GAS  C:\Users\Sarah\AppData\Local\Temp\ccLQenA3.s 			page 48


 1187 0014 EB18     		add	r3, r5, r3
 1188 0016 1B69     		ldr	r3, [r3, #16]
 1189 0018 5C68     		ldr	r4, [r3, #4]
 1190              	.LVL105:
1320:Generated_Source\PSoC4/ble.c **** 
1321:Generated_Source\PSoC4/ble.c ****             /* First need to get the maximum length of the characteristic data in the GATT
1322:Generated_Source\PSoC4/ble.c ****                 database to make sure there is enough place for the data. The length
1323:Generated_Source\PSoC4/ble.c ****                 can't be longer than 248, so only the LSB of 16 bit of length is to
1324:Generated_Source\PSoC4/ble.c ****                 be used. */
1325:Generated_Source\PSoC4/ble.c ****             charLen = (uint8)CYBLE_GATT_DB_ATTR_GET_ATTR_GEN_MAX_LEN(cyBle_gaps.deviceNameCharHandl
 1191              		.loc 1 1325 0
 1192 001a 5218     		add	r2, r2, r1
 1193 001c 9200     		lsl	r2, r2, #2
 1194 001e AA18     		add	r2, r5, r2
 1195 0020 117B     		ldrb	r1, [r2, #12]
 1196              	.LVL106:
1326:Generated_Source\PSoC4/ble.c **** 
1327:Generated_Source\PSoC4/ble.c ****             /* Copy name into characteristic */
1328:Generated_Source\PSoC4/ble.c ****             for(i = 0u; ((i < charLen) && (CYBLE_NULL_CHARCTER != name[i])); i++)
 1197              		.loc 1 1328 0
 1198 0022 0023     		mov	r3, #0
 1199 0024 02E0     		b	.L90
 1200              	.LVL107:
 1201              	.L92:
1329:Generated_Source\PSoC4/ble.c ****             {
1330:Generated_Source\PSoC4/ble.c ****                 ptr[i] = name[i];
 1202              		.loc 1 1330 0 discriminator 4
 1203 0026 E254     		strb	r2, [r4, r3]
1328:Generated_Source\PSoC4/ble.c ****             {
 1204              		.loc 1 1328 0 discriminator 4
 1205 0028 0133     		add	r3, r3, #1
 1206              	.LVL108:
 1207 002a DBB2     		uxtb	r3, r3
 1208              	.LVL109:
 1209              	.L90:
1328:Generated_Source\PSoC4/ble.c ****             {
 1210              		.loc 1 1328 0 is_stmt 0 discriminator 1
 1211 002c 8B42     		cmp	r3, r1
 1212 002e 02D2     		bcs	.L91
1328:Generated_Source\PSoC4/ble.c ****             {
 1213              		.loc 1 1328 0 discriminator 3
 1214 0030 C25C     		ldrb	r2, [r0, r3]
 1215 0032 002A     		cmp	r2, #0
 1216 0034 F7D1     		bne	.L92
 1217              	.L91:
1331:Generated_Source\PSoC4/ble.c ****             }
1332:Generated_Source\PSoC4/ble.c **** 
1333:Generated_Source\PSoC4/ble.c ****             if(i < charLen)
 1218              		.loc 1 1333 0 is_stmt 1
 1219 0036 8B42     		cmp	r3, r1
 1220 0038 02D2     		bcs	.L93
1334:Generated_Source\PSoC4/ble.c ****             {
1335:Generated_Source\PSoC4/ble.c ****                 /* Terminate string */
1336:Generated_Source\PSoC4/ble.c ****                 ptr[i] = CYBLE_NULL_CHARCTER;
 1221              		.loc 1 1336 0
 1222 003a E318     		add	r3, r4, r3
 1223              	.LVL110:
ARM GAS  C:\Users\Sarah\AppData\Local\Temp\ccLQenA3.s 			page 49


 1224 003c 0022     		mov	r2, #0
 1225 003e 1A70     		strb	r2, [r3]
 1226              	.L93:
 1227 0040 041C     		mov	r4, r0
 1228              	.LVL111:
1337:Generated_Source\PSoC4/ble.c ****             }
1338:Generated_Source\PSoC4/ble.c ****             
1339:Generated_Source\PSoC4/ble.c ****             /* Set new actual length */
1340:Generated_Source\PSoC4/ble.c ****             
1341:Generated_Source\PSoC4/ble.c ****             /* Update device name in advertising and scan response structure */
1342:Generated_Source\PSoC4/ble.c ****             #if(CYBLE_GAP_ROLE_PERIPHERAL)
1343:Generated_Source\PSoC4/ble.c ****                 CyBle_ChangeAdLocalName(name, 0u);
 1229              		.loc 1 1343 0
 1230 0042 0021     		mov	r1, #0
 1231              	.LVL112:
 1232 0044 FFF7FEFF 		bl	CyBle_ChangeAdLocalName
 1233              	.LVL113:
1344:Generated_Source\PSoC4/ble.c ****                 CyBle_ChangeAdLocalName(name, 1u);
 1234              		.loc 1 1344 0
 1235 0048 201C     		mov	r0, r4
 1236 004a 0121     		mov	r1, #1
 1237 004c FFF7FEFF 		bl	CyBle_ChangeAdLocalName
 1238              	.LVL114:
1311:Generated_Source\PSoC4/ble.c ****         uint8 i;
 1239              		.loc 1 1311 0
 1240 0050 0020     		mov	r0, #0
 1241 0052 00E0     		b	.L89
 1242              	.LVL115:
 1243              	.L94:
1345:Generated_Source\PSoC4/ble.c ****             #endif /* (CYBLE_GAP_ROLE_PERIPHERAL) */
1346:Generated_Source\PSoC4/ble.c ****         }
1347:Generated_Source\PSoC4/ble.c ****         else
1348:Generated_Source\PSoC4/ble.c ****         {
1349:Generated_Source\PSoC4/ble.c ****             apiResult = CYBLE_ERROR_INVALID_PARAMETER;
 1244              		.loc 1 1349 0
 1245 0054 0120     		mov	r0, #1
 1246              	.LVL116:
 1247              	.L89:
1350:Generated_Source\PSoC4/ble.c ****         }
1351:Generated_Source\PSoC4/ble.c ****         
1352:Generated_Source\PSoC4/ble.c ****         return(apiResult);
1353:Generated_Source\PSoC4/ble.c ****     }
 1248              		.loc 1 1353 0
 1249              		@ sp needed
 1250 0056 38BD     		pop	{r3, r4, r5, pc}
 1251              	.L96:
 1252              		.align	2
 1253              	.L95:
 1254 0058 00000000 		.word	cyBle_gaps
 1255 005c 00000000 		.word	cyBle_gattDB
 1256              		.cfi_endproc
 1257              	.LFE16:
 1258              		.size	CyBle_GapSetLocalName, .-CyBle_GapSetLocalName
 1259              		.section	.text.CyBle_GapGetLocalName,"ax",%progbits
 1260              		.align	2
 1261              		.global	CyBle_GapGetLocalName
 1262              		.code	16
ARM GAS  C:\Users\Sarah\AppData\Local\Temp\ccLQenA3.s 			page 50


 1263              		.thumb_func
 1264              		.type	CyBle_GapGetLocalName, %function
 1265              	CyBle_GapGetLocalName:
 1266              	.LFB17:
1354:Generated_Source\PSoC4/ble.c **** 
1355:Generated_Source\PSoC4/ble.c **** 
1356:Generated_Source\PSoC4/ble.c ****     /******************************************************************************
1357:Generated_Source\PSoC4/ble.c ****     * Function Name: CyBle_GapGetLocalName
1358:Generated_Source\PSoC4/ble.c ****     ***************************************************************************//**
1359:Generated_Source\PSoC4/ble.c ****     *  
1360:Generated_Source\PSoC4/ble.c ****     *  This API is used to read the local device name - a Characteristic of the 
1361:Generated_Source\PSoC4/ble.c ****     *  GAP Service.
1362:Generated_Source\PSoC4/ble.c ****     * 
1363:Generated_Source\PSoC4/ble.c ****     * \param name: The local device name string. Used to read the local name to the
1364:Generated_Source\PSoC4/ble.c ****     *             given string array. It represents a UTF-8 encoded User Friendly 
1365:Generated_Source\PSoC4/ble.c ****     *             Descriptive Name for the device. The length of the local device
1366:Generated_Source\PSoC4/ble.c ****     *             string is entered into the component customizer and it can be set
1367:Generated_Source\PSoC4/ble.c ****     *             to a value from 0 to 248 bytes. If the name contained in the
1368:Generated_Source\PSoC4/ble.c ****     *             parameter is shorter than the length from the customizer, the end
1369:Generated_Source\PSoC4/ble.c ****     *             of the name is indicated by a NULL octet (0x00).
1370:Generated_Source\PSoC4/ble.c ****     * 
1371:Generated_Source\PSoC4/ble.c ****     * \return
1372:Generated_Source\PSoC4/ble.c ****     *  CYBLE_API_RESULT_T : Return value indicates if the function succeeded or 
1373:Generated_Source\PSoC4/ble.c ****     *  failed. Following are the possible error codes.
1374:Generated_Source\PSoC4/ble.c ****     *
1375:Generated_Source\PSoC4/ble.c ****     *   Errors codes                       | Description
1376:Generated_Source\PSoC4/ble.c ****     *   ------------                       | -----------
1377:Generated_Source\PSoC4/ble.c ****     *   CYBLE_ERROR_OK                     | Function completed successfully.
1378:Generated_Source\PSoC4/ble.c ****     *   CYBLE_ERROR_INVALID_PARAMETER      | On specifying NULL as input parameter
1379:Generated_Source\PSoC4/ble.c ****     *
1380:Generated_Source\PSoC4/ble.c ****     *******************************************************************************/
1381:Generated_Source\PSoC4/ble.c ****     CYBLE_API_RESULT_T CyBle_GapGetLocalName(char8 name[])
1382:Generated_Source\PSoC4/ble.c ****     {
 1267              		.loc 1 1382 0
 1268              		.cfi_startproc
 1269              	.LVL117:
 1270 0000 10B5     		push	{r4, lr}
 1271              		.cfi_def_cfa_offset 8
 1272              		.cfi_offset 4, -8
 1273              		.cfi_offset 14, -4
 1274              	.LVL118:
1383:Generated_Source\PSoC4/ble.c ****         CYBLE_API_RESULT_T apiResult = CYBLE_ERROR_OK;
1384:Generated_Source\PSoC4/ble.c ****         uint8 charLen;
1385:Generated_Source\PSoC4/ble.c ****         uint8 i;
1386:Generated_Source\PSoC4/ble.c ****         char8 *ptr;
1387:Generated_Source\PSoC4/ble.c **** 
1388:Generated_Source\PSoC4/ble.c ****         if(NULL != name)
 1275              		.loc 1 1388 0
 1276 0002 0028     		cmp	r0, #0
 1277 0004 19D0     		beq	.L102
1389:Generated_Source\PSoC4/ble.c ****         {
1390:Generated_Source\PSoC4/ble.c ****             /* Get the pointer to the Device Name characteristic  */
1391:Generated_Source\PSoC4/ble.c ****             ptr = (char8 *) CYBLE_GATT_DB_ATTR_GET_ATTR_GEN_PTR(cyBle_gaps.deviceNameCharHandle);
 1278              		.loc 1 1391 0
 1279 0006 0E4B     		ldr	r3, .L103
 1280 0008 5B88     		ldrh	r3, [r3, #2]
 1281 000a 013B     		sub	r3, r3, #1
ARM GAS  C:\Users\Sarah\AppData\Local\Temp\ccLQenA3.s 			page 51


 1282 000c 9A00     		lsl	r2, r3, #2
 1283 000e D318     		add	r3, r2, r3
 1284 0010 9B00     		lsl	r3, r3, #2
 1285 0012 0C4A     		ldr	r2, .L103+4
 1286 0014 D318     		add	r3, r2, r3
 1287 0016 1B69     		ldr	r3, [r3, #16]
 1288 0018 5C68     		ldr	r4, [r3, #4]
 1289              	.LVL119:
1392:Generated_Source\PSoC4/ble.c **** 
1393:Generated_Source\PSoC4/ble.c ****             /* First need to get the length of the characteristic data in the GATT
1394:Generated_Source\PSoC4/ble.c ****                 database to make sure there is enough place for the data. The length
1395:Generated_Source\PSoC4/ble.c ****                 can't be longer than 248, so only the LSB of 16 bit of length is to
1396:Generated_Source\PSoC4/ble.c ****                 be used. */
1397:Generated_Source\PSoC4/ble.c ****             charLen = (uint8)CYBLE_GATT_DB_ATTR_GET_ATTR_GEN_LEN(cyBle_gaps.deviceNameCharHandle);
 1290              		.loc 1 1397 0
 1291 001a 1978     		ldrb	r1, [r3]
 1292              	.LVL120:
1398:Generated_Source\PSoC4/ble.c **** 
1399:Generated_Source\PSoC4/ble.c ****             /* Copy name from characteristic */
1400:Generated_Source\PSoC4/ble.c ****             for(i = 0u; ((i < charLen) && (CYBLE_NULL_CHARCTER != ptr[i])); i++)
 1293              		.loc 1 1400 0
 1294 001c 0023     		mov	r3, #0
 1295 001e 02E0     		b	.L99
 1296              	.LVL121:
 1297              	.L101:
1401:Generated_Source\PSoC4/ble.c ****             {
1402:Generated_Source\PSoC4/ble.c ****                 name[i] = ptr[i];
 1298              		.loc 1 1402 0 discriminator 4
 1299 0020 C254     		strb	r2, [r0, r3]
1400:Generated_Source\PSoC4/ble.c ****             {
 1300              		.loc 1 1400 0 discriminator 4
 1301 0022 0133     		add	r3, r3, #1
 1302              	.LVL122:
 1303 0024 DBB2     		uxtb	r3, r3
 1304              	.LVL123:
 1305              	.L99:
1400:Generated_Source\PSoC4/ble.c ****             {
 1306              		.loc 1 1400 0 is_stmt 0 discriminator 1
 1307 0026 8B42     		cmp	r3, r1
 1308 0028 02D2     		bcs	.L100
1400:Generated_Source\PSoC4/ble.c ****             {
 1309              		.loc 1 1400 0 discriminator 3
 1310 002a E25C     		ldrb	r2, [r4, r3]
 1311 002c 002A     		cmp	r2, #0
 1312 002e F7D1     		bne	.L101
 1313              	.L100:
1403:Generated_Source\PSoC4/ble.c ****             }
1404:Generated_Source\PSoC4/ble.c **** 
1405:Generated_Source\PSoC4/ble.c ****             /* Terminate string */
1406:Generated_Source\PSoC4/ble.c ****             name[i] = CYBLE_NULL_CHARCTER;
 1314              		.loc 1 1406 0 is_stmt 1
 1315 0030 C318     		add	r3, r0, r3
 1316              	.LVL124:
 1317 0032 0022     		mov	r2, #0
 1318 0034 1A70     		strb	r2, [r3]
1383:Generated_Source\PSoC4/ble.c ****         uint8 charLen;
 1319              		.loc 1 1383 0
ARM GAS  C:\Users\Sarah\AppData\Local\Temp\ccLQenA3.s 			page 52


 1320 0036 0020     		mov	r0, #0
 1321              	.LVL125:
 1322 0038 00E0     		b	.L98
 1323              	.LVL126:
 1324              	.L102:
1407:Generated_Source\PSoC4/ble.c ****         }
1408:Generated_Source\PSoC4/ble.c ****         else
1409:Generated_Source\PSoC4/ble.c ****         {
1410:Generated_Source\PSoC4/ble.c ****             apiResult = CYBLE_ERROR_INVALID_PARAMETER;
 1325              		.loc 1 1410 0
 1326 003a 0120     		mov	r0, #1
 1327              	.LVL127:
 1328              	.L98:
1411:Generated_Source\PSoC4/ble.c ****         }
1412:Generated_Source\PSoC4/ble.c ****         
1413:Generated_Source\PSoC4/ble.c ****         return(apiResult);
1414:Generated_Source\PSoC4/ble.c ****     }
 1329              		.loc 1 1414 0
 1330              		@ sp needed
 1331 003c 10BD     		pop	{r4, pc}
 1332              	.L104:
 1333 003e C046     		.align	2
 1334              	.L103:
 1335 0040 00000000 		.word	cyBle_gaps
 1336 0044 00000000 		.word	cyBle_gattDB
 1337              		.cfi_endproc
 1338              	.LFE17:
 1339              		.size	CyBle_GapGetLocalName, .-CyBle_GapGetLocalName
 1340              		.section	.text.CyBle_Get16ByPtr,"ax",%progbits
 1341              		.align	2
 1342              		.global	CyBle_Get16ByPtr
 1343              		.code	16
 1344              		.thumb_func
 1345              		.type	CyBle_Get16ByPtr, %function
 1346              	CyBle_Get16ByPtr:
 1347              	.LFB18:
1415:Generated_Source\PSoC4/ble.c **** 
1416:Generated_Source\PSoC4/ble.c **** #endif /* (CYBLE_GATT_ROLE_SERVER) */
1417:Generated_Source\PSoC4/ble.c **** 
1418:Generated_Source\PSoC4/ble.c **** 
1419:Generated_Source\PSoC4/ble.c **** /******************************************************************************
1420:Generated_Source\PSoC4/ble.c **** * Function Name: CyBle_Get16ByPtr
1421:Generated_Source\PSoC4/ble.c **** ***************************************************************************//**
1422:Generated_Source\PSoC4/ble.c **** * 
1423:Generated_Source\PSoC4/ble.c **** *  Returns the two-bytes value by using a pointer to the LSB.
1424:Generated_Source\PSoC4/ble.c **** * 
1425:Generated_Source\PSoC4/ble.c **** *  \param ptr: Pointer to the LSB of two-bytes data (little endian).
1426:Generated_Source\PSoC4/ble.c **** * 
1427:Generated_Source\PSoC4/ble.c **** *  \return
1428:Generated_Source\PSoC4/ble.c **** *  uint16: Two-bytes data.
1429:Generated_Source\PSoC4/ble.c **** * 
1430:Generated_Source\PSoC4/ble.c **** ******************************************************************************/
1431:Generated_Source\PSoC4/ble.c **** uint16 CyBle_Get16ByPtr(const uint8 ptr[])
1432:Generated_Source\PSoC4/ble.c **** {
 1348              		.loc 1 1432 0
 1349              		.cfi_startproc
 1350              	.LVL128:
ARM GAS  C:\Users\Sarah\AppData\Local\Temp\ccLQenA3.s 			page 53


1433:Generated_Source\PSoC4/ble.c ****     return ((uint16) ptr[0u] | ((uint16) (((uint16) ptr[1u]) << 8u)));
 1351              		.loc 1 1433 0
 1352 0000 0378     		ldrb	r3, [r0]
 1353 0002 4078     		ldrb	r0, [r0, #1]
 1354              	.LVL129:
 1355 0004 0002     		lsl	r0, r0, #8
 1356 0006 1843     		orr	r0, r3
1434:Generated_Source\PSoC4/ble.c **** }
 1357              		.loc 1 1434 0
 1358              		@ sp needed
 1359 0008 7047     		bx	lr
 1360              		.cfi_endproc
 1361              	.LFE18:
 1362              		.size	CyBle_Get16ByPtr, .-CyBle_Get16ByPtr
 1363 000a C046     		.section	.text.CyBle_Set16ByPtr,"ax",%progbits
 1364              		.align	2
 1365              		.global	CyBle_Set16ByPtr
 1366              		.code	16
 1367              		.thumb_func
 1368              		.type	CyBle_Set16ByPtr, %function
 1369              	CyBle_Set16ByPtr:
 1370              	.LFB19:
1435:Generated_Source\PSoC4/ble.c **** 
1436:Generated_Source\PSoC4/ble.c **** 
1437:Generated_Source\PSoC4/ble.c **** /******************************************************************************
1438:Generated_Source\PSoC4/ble.c **** * Function Name: CyBle_Set16ByPtr
1439:Generated_Source\PSoC4/ble.c **** ***************************************************************************//**
1440:Generated_Source\PSoC4/ble.c **** * 
1441:Generated_Source\PSoC4/ble.c **** *  Sets the two-bytes value by using a pointer to the LSB.
1442:Generated_Source\PSoC4/ble.c **** * 
1443:Generated_Source\PSoC4/ble.c **** *  \param ptr:    Pointer to the LSB of two-bytes data (little endian).
1444:Generated_Source\PSoC4/ble.c **** *  \param value:  Two-bytes data to be written.
1445:Generated_Source\PSoC4/ble.c **** * 
1446:Generated_Source\PSoC4/ble.c **** *  \return
1447:Generated_Source\PSoC4/ble.c **** *  None
1448:Generated_Source\PSoC4/ble.c **** * 
1449:Generated_Source\PSoC4/ble.c **** ******************************************************************************/
1450:Generated_Source\PSoC4/ble.c **** void CyBle_Set16ByPtr(uint8 ptr[], uint16 value)
1451:Generated_Source\PSoC4/ble.c **** {
 1371              		.loc 1 1451 0
 1372              		.cfi_startproc
 1373              	.LVL130:
1452:Generated_Source\PSoC4/ble.c ****     ptr[0u] = (uint8) value;
 1374              		.loc 1 1452 0
 1375 0000 0170     		strb	r1, [r0]
1453:Generated_Source\PSoC4/ble.c ****     ptr[1u] = (uint8) (value >> 8u);
 1376              		.loc 1 1453 0
 1377 0002 090A     		lsr	r1, r1, #8
 1378              	.LVL131:
 1379 0004 4170     		strb	r1, [r0, #1]
1454:Generated_Source\PSoC4/ble.c **** }
 1380              		.loc 1 1454 0
 1381              		@ sp needed
 1382 0006 7047     		bx	lr
 1383              		.cfi_endproc
 1384              	.LFE19:
 1385              		.size	CyBle_Set16ByPtr, .-CyBle_Set16ByPtr
ARM GAS  C:\Users\Sarah\AppData\Local\Temp\ccLQenA3.s 			page 54


 1386              		.global	cyBle_sflashDeviceAddress
 1387              		.global	cyBle_deviceAddress
 1388              		.comm	CyBle_ApplCallback,4,4
 1389              		.comm	cyBle_pendingFlashWrite,1,1
 1390              		.comm	cyBle_peerBonding,1,1
 1391              		.global	cyBle_discoveryInfo
 1392              		.comm	cyBle_connectingTimeout,2,2
 1393              		.comm	cyBle_connectionParameters,26,4
 1394              		.global	cyBle_discoveryModeInfo
 1395              		.global	cyBle_scanRspData
 1396              		.global	cyBle_discoveryData
 1397              		.global	cyBle_discoveryParam
 1398              		.global	cyBle_stackMemoryRam
 1399              		.global	cyBle_initVar
 1400              		.section	.rodata
 1401              		.align	2
 1402              		.set	.LANCHOR2,. + 0
 1403              	.LC0:
 1404 0000 2400     		.short	36
 1405 0002 03       		.byte	3
 1406 0003 00       		.space	1
 1407 0004 3000     		.short	48
 1408 0006 01       		.byte	1
 1409 0007 00       		.space	1
 1410 0008 2800     		.short	40
 1411 000a 02       		.byte	2
 1412 000b 00       		.space	1
 1413 000c 2400     		.short	36
 1414 000e 01       		.byte	1
 1415 000f 00       		.space	1
 1416 0010 2400     		.short	36
 1417 0012 01       		.byte	1
 1418 0013 00       		.space	1
 1419              		.data
 1420              		.align	2
 1421              		.set	.LANCHOR0,. + 0
 1422              		.type	cyBle_discoveryData, %object
 1423              		.size	cyBle_discoveryData, 32
 1424              	cyBle_discoveryData:
 1425 0000 02       		.byte	2
 1426 0001 01       		.byte	1
 1427 0002 06       		.byte	6
 1428 0003 07       		.byte	7
 1429 0004 09       		.byte	9
 1430 0005 63       		.byte	99
 1431 0006 61       		.byte	97
 1432 0007 70       		.byte	112
 1433 0008 6C       		.byte	108
 1434 0009 65       		.byte	101
 1435 000a 64       		.byte	100
 1436 000b 11       		.byte	17
 1437 000c 07       		.byte	7
 1438 000d F0       		.byte	-16
 1439 000e 34       		.byte	52
 1440 000f 9B       		.byte	-101
 1441 0010 5F       		.byte	95
 1442 0011 80       		.byte	-128
ARM GAS  C:\Users\Sarah\AppData\Local\Temp\ccLQenA3.s 			page 55


 1443 0012 00       		.byte	0
 1444 0013 00       		.byte	0
 1445 0014 80       		.byte	-128
 1446 0015 00       		.byte	0
 1447 0016 10       		.byte	16
 1448 0017 00       		.byte	0
 1449 0018 00       		.byte	0
 1450 0019 00       		.byte	0
 1451 001a 00       		.byte	0
 1452 001b 00       		.byte	0
 1453 001c 00       		.byte	0
 1454 001d 00       		.byte	0
 1455 001e 00       		.byte	0
 1456 001f 1D       		.byte	29
 1457              		.type	cyBle_discoveryInfo, %object
 1458              		.size	cyBle_discoveryInfo, 12
 1459              	cyBle_discoveryInfo:
 1460 0020 02       		.byte	2
 1461 0021 01       		.byte	1
 1462 0022 3000     		.short	48
 1463 0024 3000     		.short	48
 1464 0026 00       		.byte	0
 1465 0027 00       		.byte	0
 1466 0028 1E00     		.short	30
 1467 002a 00       		.byte	0
 1468 002b 00       		.space	1
 1469              		.type	cyBle_discoveryModeInfo, %object
 1470              		.size	cyBle_discoveryModeInfo, 20
 1471              	cyBle_discoveryModeInfo:
 1472 002c 02       		.byte	2
 1473 002d 000000   		.space	3
 1474 0030 00000000 		.word	cyBle_discoveryParam
 1475 0034 00000000 		.word	cyBle_discoveryData
 1476 0038 00000000 		.word	cyBle_scanRspData
 1477 003c 0000     		.short	0
 1478 003e 0000     		.space	2
 1479              		.type	cyBle_sflashDeviceAddress, %object
 1480              		.size	cyBle_sflashDeviceAddress, 4
 1481              	cyBle_sflashDeviceAddress:
 1482 0040 00F4FF0F 		.word	268432384
 1483              		.type	cyBle_deviceAddress, %object
 1484              		.size	cyBle_deviceAddress, 7
 1485              	cyBle_deviceAddress:
 1486 0044 00       		.byte	0
 1487 0045 00       		.byte	0
 1488 0046 00       		.byte	0
 1489 0047 50       		.byte	80
 1490 0048 A0       		.byte	-96
 1491 0049 00       		.byte	0
 1492 004a 00       		.byte	0
 1493 004b 00       		.space	1
 1494              		.type	cyBle_discoveryParam, %object
 1495              		.size	cyBle_discoveryParam, 16
 1496              	cyBle_discoveryParam:
 1497 004c 2000     		.short	32
 1498 004e 3000     		.short	48
 1499 0050 00       		.byte	0
ARM GAS  C:\Users\Sarah\AppData\Local\Temp\ccLQenA3.s 			page 56


 1500 0051 00       		.byte	0
 1501 0052 00       		.byte	0
 1502 0053 00       		.byte	0
 1503 0054 00       		.byte	0
 1504 0055 00       		.byte	0
 1505 0056 50       		.byte	80
 1506 0057 A0       		.byte	-96
 1507 0058 00       		.byte	0
 1508 0059 07       		.byte	7
 1509 005a 00       		.byte	0
 1510 005b 00       		.space	1
 1511              		.section	.noinit,"aw",%progbits
 1512              		.align	3
 1513              		.set	.LANCHOR3,. + 0
 1514              		.type	cyBle_stackMemoryRam, %object
 1515              		.size	cyBle_stackMemoryRam, 2784
 1516              	cyBle_stackMemoryRam:
 1517 0000 00000000 		.space	2784
 1517      00000000 
 1517      00000000 
 1517      00000000 
 1517      00000000 
 1518              		.bss
 1519              		.align	2
 1520              		.set	.LANCHOR1,. + 0
 1521              		.type	cyBle_scanRspData, %object
 1522              		.size	cyBle_scanRspData, 32
 1523              	cyBle_scanRspData:
 1524 0000 00000000 		.space	32
 1524      00000000 
 1524      00000000 
 1524      00000000 
 1524      00000000 
 1525              		.type	cyBle_initVar, %object
 1526              		.size	cyBle_initVar, 1
 1527              	cyBle_initVar:
 1528 0020 00       		.space	1
 1529              		.type	cyBle_pendingFlashClearCccdHandle, %object
 1530              		.size	cyBle_pendingFlashClearCccdHandle, 1
 1531              	cyBle_pendingFlashClearCccdHandle:
 1532 0021 00       		.space	1
 1533 0022 0000     		.text
 1534              	.Letext0:
 1535              		.file 2 "Generated_Source\\PSoC4\\cytypes.h"
 1536              		.file 3 "c:\\program files (x86)\\cypress\\psoc creator\\4.0\\psoc creator\\import\\gnu\\arm\\4.9.
 1537              		.file 4 "Generated_Source\\PSoC4\\ble_Stack.h"
 1538              		.file 5 "Generated_Source\\PSoC4\\ble_StackGap.h"
 1539              		.file 6 "Generated_Source\\PSoC4\\ble_StackGatt.h"
 1540              		.file 7 "Generated_Source\\PSoC4\\ble_StackGattDb.h"
 1541              		.file 8 "Generated_Source\\PSoC4\\ble.h"
 1542              		.file 9 "Generated_Source\\PSoC4\\ble_gatt.h"
 1543              		.file 10 "Generated_Source\\PSoC4\\ble_eventHandler.h"
 1544              		.file 11 "Generated_Source\\PSoC4\\ble_custom.h"
 1545              		.file 12 "Generated_Source\\PSoC4\\ble_StackHostMain.h"
 1546              		.file 13 "c:\\program files (x86)\\cypress\\psoc creator\\4.0\\psoc creator\\import\\gnu\\arm\\4.9
 1547              		.section	.debug_info,"",%progbits
 1548              	.Ldebug_info0:
ARM GAS  C:\Users\Sarah\AppData\Local\Temp\ccLQenA3.s 			page 57


 1549 0000 5B140000 		.4byte	0x145b
 1550 0004 0400     		.2byte	0x4
 1551 0006 00000000 		.4byte	.Ldebug_abbrev0
 1552 000a 04       		.byte	0x4
 1553 000b 01       		.uleb128 0x1
 1554 000c F70B0000 		.4byte	.LASF307
 1555 0010 01       		.byte	0x1
 1556 0011 F8090000 		.4byte	.LASF308
 1557 0015 F2070000 		.4byte	.LASF309
 1558 0019 00000000 		.4byte	.Ldebug_ranges0+0
 1559 001d 00000000 		.4byte	0
 1560 0021 00000000 		.4byte	.Ldebug_line0
 1561 0025 02       		.uleb128 0x2
 1562 0026 01       		.byte	0x1
 1563 0027 06       		.byte	0x6
 1564 0028 F2040000 		.4byte	.LASF0
 1565 002c 02       		.uleb128 0x2
 1566 002d 01       		.byte	0x1
 1567 002e 08       		.byte	0x8
 1568 002f AD050000 		.4byte	.LASF1
 1569 0033 02       		.uleb128 0x2
 1570 0034 02       		.byte	0x2
 1571 0035 05       		.byte	0x5
 1572 0036 A8160000 		.4byte	.LASF2
 1573 003a 02       		.uleb128 0x2
 1574 003b 02       		.byte	0x2
 1575 003c 07       		.byte	0x7
 1576 003d 0D1A0000 		.4byte	.LASF3
 1577 0041 02       		.uleb128 0x2
 1578 0042 04       		.byte	0x4
 1579 0043 05       		.byte	0x5
 1580 0044 48030000 		.4byte	.LASF4
 1581 0048 02       		.uleb128 0x2
 1582 0049 04       		.byte	0x4
 1583 004a 07       		.byte	0x7
 1584 004b 5A0B0000 		.4byte	.LASF5
 1585 004f 02       		.uleb128 0x2
 1586 0050 08       		.byte	0x8
 1587 0051 05       		.byte	0x5
 1588 0052 C70D0000 		.4byte	.LASF6
 1589 0056 02       		.uleb128 0x2
 1590 0057 08       		.byte	0x8
 1591 0058 07       		.byte	0x7
 1592 0059 80130000 		.4byte	.LASF7
 1593 005d 03       		.uleb128 0x3
 1594 005e 04       		.byte	0x4
 1595 005f 05       		.byte	0x5
 1596 0060 696E7400 		.ascii	"int\000"
 1597 0064 02       		.uleb128 0x2
 1598 0065 04       		.byte	0x4
 1599 0066 07       		.byte	0x7
 1600 0067 CD0F0000 		.4byte	.LASF8
 1601 006b 04       		.uleb128 0x4
 1602 006c 5F160000 		.4byte	.LASF9
 1603 0070 02       		.byte	0x2
 1604 0071 B901     		.2byte	0x1b9
 1605 0073 2C000000 		.4byte	0x2c
ARM GAS  C:\Users\Sarah\AppData\Local\Temp\ccLQenA3.s 			page 58


 1606 0077 04       		.uleb128 0x4
 1607 0078 911B0000 		.4byte	.LASF10
 1608 007c 02       		.byte	0x2
 1609 007d BA01     		.2byte	0x1ba
 1610 007f 3A000000 		.4byte	0x3a
 1611 0083 04       		.uleb128 0x4
 1612 0084 E3000000 		.4byte	.LASF11
 1613 0088 02       		.byte	0x2
 1614 0089 BB01     		.2byte	0x1bb
 1615 008b 48000000 		.4byte	0x48
 1616 008f 02       		.uleb128 0x2
 1617 0090 04       		.byte	0x4
 1618 0091 04       		.byte	0x4
 1619 0092 470F0000 		.4byte	.LASF12
 1620 0096 02       		.uleb128 0x2
 1621 0097 08       		.byte	0x8
 1622 0098 04       		.byte	0x4
 1623 0099 210E0000 		.4byte	.LASF13
 1624 009d 04       		.uleb128 0x4
 1625 009e 61010000 		.4byte	.LASF14
 1626 00a2 02       		.byte	0x2
 1627 00a3 CA01     		.2byte	0x1ca
 1628 00a5 A9000000 		.4byte	0xa9
 1629 00a9 02       		.uleb128 0x2
 1630 00aa 01       		.byte	0x1
 1631 00ab 08       		.byte	0x8
 1632 00ac CA060000 		.4byte	.LASF15
 1633 00b0 05       		.uleb128 0x5
 1634 00b1 6B000000 		.4byte	0x6b
 1635 00b5 06       		.uleb128 0x6
 1636 00b6 36000000 		.4byte	.LASF16
 1637 00ba 03       		.byte	0x3
 1638 00bb D4       		.byte	0xd4
 1639 00bc 64000000 		.4byte	0x64
 1640 00c0 02       		.uleb128 0x2
 1641 00c1 04       		.byte	0x4
 1642 00c2 07       		.byte	0x7
 1643 00c3 3D000000 		.4byte	.LASF17
 1644 00c7 07       		.uleb128 0x7
 1645 00c8 04       		.byte	0x4
 1646 00c9 04       		.uleb128 0x4
 1647 00ca 77120000 		.4byte	.LASF18
 1648 00ce 04       		.byte	0x4
 1649 00cf 3701     		.2byte	0x137
 1650 00d1 D5000000 		.4byte	0xd5
 1651 00d5 08       		.uleb128 0x8
 1652 00d6 04       		.byte	0x4
 1653 00d7 DB000000 		.4byte	0xdb
 1654 00db 09       		.uleb128 0x9
 1655 00dc EB000000 		.4byte	0xeb
 1656 00e0 0A       		.uleb128 0xa
 1657 00e1 6B000000 		.4byte	0x6b
 1658 00e5 0A       		.uleb128 0xa
 1659 00e6 C7000000 		.4byte	0xc7
 1660 00ea 00       		.byte	0
 1661 00eb 08       		.uleb128 0x8
 1662 00ec 04       		.byte	0x4
ARM GAS  C:\Users\Sarah\AppData\Local\Temp\ccLQenA3.s 			page 59


 1663 00ed F1000000 		.4byte	0xf1
 1664 00f1 09       		.uleb128 0x9
 1665 00f2 01010000 		.4byte	0x101
 1666 00f6 0A       		.uleb128 0xa
 1667 00f7 83000000 		.4byte	0x83
 1668 00fb 0A       		.uleb128 0xa
 1669 00fc C7000000 		.4byte	0xc7
 1670 0100 00       		.byte	0
 1671 0101 0B       		.uleb128 0xb
 1672 0102 01       		.byte	0x1
 1673 0103 04       		.byte	0x4
 1674 0104 4D01     		.2byte	0x14d
 1675 0106 E4020000 		.4byte	0x2e4
 1676 010a 0C       		.uleb128 0xc
 1677 010b 23070000 		.4byte	.LASF19
 1678 010f 00       		.sleb128 0
 1679 0110 0C       		.uleb128 0xc
 1680 0111 C0030000 		.4byte	.LASF20
 1681 0115 01       		.sleb128 1
 1682 0116 0C       		.uleb128 0xc
 1683 0117 AB130000 		.4byte	.LASF21
 1684 011b 02       		.sleb128 2
 1685 011c 0C       		.uleb128 0xc
 1686 011d 26050000 		.4byte	.LASF22
 1687 0121 03       		.sleb128 3
 1688 0122 0C       		.uleb128 0xc
 1689 0123 C61A0000 		.4byte	.LASF23
 1690 0127 04       		.sleb128 4
 1691 0128 0C       		.uleb128 0xc
 1692 0129 66190000 		.4byte	.LASF24
 1693 012d 05       		.sleb128 5
 1694 012e 0C       		.uleb128 0xc
 1695 012f 97120000 		.4byte	.LASF25
 1696 0133 06       		.sleb128 6
 1697 0134 0C       		.uleb128 0xc
 1698 0135 B3170000 		.4byte	.LASF26
 1699 0139 20       		.sleb128 32
 1700 013a 0C       		.uleb128 0xc
 1701 013b 18020000 		.4byte	.LASF27
 1702 013f 21       		.sleb128 33
 1703 0140 0C       		.uleb128 0xc
 1704 0141 560D0000 		.4byte	.LASF28
 1705 0145 22       		.sleb128 34
 1706 0146 0C       		.uleb128 0xc
 1707 0147 72110000 		.4byte	.LASF29
 1708 014b 23       		.sleb128 35
 1709 014c 0C       		.uleb128 0xc
 1710 014d B60A0000 		.4byte	.LASF30
 1711 0151 24       		.sleb128 36
 1712 0152 0C       		.uleb128 0xc
 1713 0153 E20A0000 		.4byte	.LASF31
 1714 0157 25       		.sleb128 37
 1715 0158 0C       		.uleb128 0xc
 1716 0159 09160000 		.4byte	.LASF32
 1717 015d 26       		.sleb128 38
 1718 015e 0C       		.uleb128 0xc
 1719 015f 91000000 		.4byte	.LASF33
ARM GAS  C:\Users\Sarah\AppData\Local\Temp\ccLQenA3.s 			page 60


 1720 0163 27       		.sleb128 39
 1721 0164 0C       		.uleb128 0xc
 1722 0165 4E1B0000 		.4byte	.LASF34
 1723 0169 28       		.sleb128 40
 1724 016a 0C       		.uleb128 0xc
 1725 016b D6120000 		.4byte	.LASF35
 1726 016f 29       		.sleb128 41
 1727 0170 0C       		.uleb128 0xc
 1728 0171 AF0C0000 		.4byte	.LASF36
 1729 0175 2A       		.sleb128 42
 1730 0176 0C       		.uleb128 0xc
 1731 0177 92100000 		.4byte	.LASF37
 1732 017b 2B       		.sleb128 43
 1733 017c 0C       		.uleb128 0xc
 1734 017d 8E190000 		.4byte	.LASF38
 1735 0181 2C       		.sleb128 44
 1736 0182 0C       		.uleb128 0xc
 1737 0183 46000000 		.4byte	.LASF39
 1738 0187 2D       		.sleb128 45
 1739 0188 0C       		.uleb128 0xc
 1740 0189 73160000 		.4byte	.LASF40
 1741 018d 2E       		.sleb128 46
 1742 018e 0C       		.uleb128 0xc
 1743 018f BC020000 		.4byte	.LASF41
 1744 0193 2F       		.sleb128 47
 1745 0194 0C       		.uleb128 0xc
 1746 0195 A9060000 		.4byte	.LASF42
 1747 0199 30       		.sleb128 48
 1748 019a 0C       		.uleb128 0xc
 1749 019b AA0E0000 		.4byte	.LASF43
 1750 019f 31       		.sleb128 49
 1751 01a0 0C       		.uleb128 0xc
 1752 01a1 6C070000 		.4byte	.LASF44
 1753 01a5 32       		.sleb128 50
 1754 01a6 0C       		.uleb128 0xc
 1755 01a7 D9050000 		.4byte	.LASF45
 1756 01ab 33       		.sleb128 51
 1757 01ac 0C       		.uleb128 0xc
 1758 01ad 00060000 		.4byte	.LASF46
 1759 01b1 34       		.sleb128 52
 1760 01b2 0C       		.uleb128 0xc
 1761 01b3 30180000 		.4byte	.LASF47
 1762 01b7 35       		.sleb128 53
 1763 01b8 0C       		.uleb128 0xc
 1764 01b9 83020000 		.4byte	.LASF48
 1765 01bd 36       		.sleb128 54
 1766 01be 0C       		.uleb128 0xc
 1767 01bf 40130000 		.4byte	.LASF49
 1768 01c3 37       		.sleb128 55
 1769 01c4 0C       		.uleb128 0xc
 1770 01c5 2A170000 		.4byte	.LASF50
 1771 01c9 C000     		.sleb128 64
 1772 01cb 0C       		.uleb128 0xc
 1773 01cc B0000000 		.4byte	.LASF51
 1774 01d0 C100     		.sleb128 65
 1775 01d2 0C       		.uleb128 0xc
 1776 01d3 DB1A0000 		.4byte	.LASF52
ARM GAS  C:\Users\Sarah\AppData\Local\Temp\ccLQenA3.s 			page 61


 1777 01d7 C200     		.sleb128 66
 1778 01d9 0C       		.uleb128 0xc
 1779 01da 0A130000 		.4byte	.LASF53
 1780 01de C300     		.sleb128 67
 1781 01e0 0C       		.uleb128 0xc
 1782 01e1 BB050000 		.4byte	.LASF54
 1783 01e5 C400     		.sleb128 68
 1784 01e7 0C       		.uleb128 0xc
 1785 01e8 72050000 		.4byte	.LASF55
 1786 01ec C500     		.sleb128 69
 1787 01ee 0C       		.uleb128 0xc
 1788 01ef 2C150000 		.4byte	.LASF56
 1789 01f3 C600     		.sleb128 70
 1790 01f5 0C       		.uleb128 0xc
 1791 01f6 0E150000 		.4byte	.LASF57
 1792 01fa C700     		.sleb128 71
 1793 01fc 0C       		.uleb128 0xc
 1794 01fd 82060000 		.4byte	.LASF58
 1795 0201 C800     		.sleb128 72
 1796 0203 0C       		.uleb128 0xc
 1797 0204 CA110000 		.4byte	.LASF59
 1798 0208 C900     		.sleb128 73
 1799 020a 0C       		.uleb128 0xc
 1800 020b AA070000 		.4byte	.LASF60
 1801 020f CA00     		.sleb128 74
 1802 0211 0C       		.uleb128 0xc
 1803 0212 ED060000 		.4byte	.LASF61
 1804 0216 CB00     		.sleb128 75
 1805 0218 0C       		.uleb128 0xc
 1806 0219 E7100000 		.4byte	.LASF62
 1807 021d CC00     		.sleb128 76
 1808 021f 0C       		.uleb128 0xc
 1809 0220 9F150000 		.4byte	.LASF63
 1810 0224 CD00     		.sleb128 77
 1811 0226 0C       		.uleb128 0xc
 1812 0227 07030000 		.4byte	.LASF64
 1813 022b CE00     		.sleb128 78
 1814 022d 0C       		.uleb128 0xc
 1815 022e E70F0000 		.4byte	.LASF65
 1816 0232 CF00     		.sleb128 79
 1817 0234 0C       		.uleb128 0xc
 1818 0235 94170000 		.4byte	.LASF66
 1819 0239 D000     		.sleb128 80
 1820 023b 0C       		.uleb128 0xc
 1821 023c C8070000 		.4byte	.LASF67
 1822 0240 D100     		.sleb128 81
 1823 0242 0C       		.uleb128 0xc
 1824 0243 F7010000 		.4byte	.LASF68
 1825 0247 D200     		.sleb128 82
 1826 0249 0C       		.uleb128 0xc
 1827 024a 20190000 		.4byte	.LASF69
 1828 024e D300     		.sleb128 83
 1829 0250 0C       		.uleb128 0xc
 1830 0251 701B0000 		.4byte	.LASF70
 1831 0255 D400     		.sleb128 84
 1832 0257 0C       		.uleb128 0xc
 1833 0258 24110000 		.4byte	.LASF71
ARM GAS  C:\Users\Sarah\AppData\Local\Temp\ccLQenA3.s 			page 62


 1834 025c D500     		.sleb128 85
 1835 025e 0C       		.uleb128 0xc
 1836 025f 57080000 		.4byte	.LASF72
 1837 0263 D600     		.sleb128 86
 1838 0265 0C       		.uleb128 0xc
 1839 0266 720F0000 		.4byte	.LASF73
 1840 026a D700     		.sleb128 87
 1841 026c 0C       		.uleb128 0xc
 1842 026d 2B1B0000 		.4byte	.LASF74
 1843 0271 D800     		.sleb128 88
 1844 0273 0C       		.uleb128 0xc
 1845 0274 B2190000 		.4byte	.LASF75
 1846 0278 F000     		.sleb128 112
 1847 027a 0C       		.uleb128 0xc
 1848 027b 400A0000 		.4byte	.LASF76
 1849 027f F100     		.sleb128 113
 1850 0281 0C       		.uleb128 0xc
 1851 0282 9C040000 		.4byte	.LASF77
 1852 0286 F200     		.sleb128 114
 1853 0288 0C       		.uleb128 0xc
 1854 0289 76170000 		.4byte	.LASF78
 1855 028d F300     		.sleb128 115
 1856 028f 0C       		.uleb128 0xc
 1857 0290 0F120000 		.4byte	.LASF79
 1858 0294 F400     		.sleb128 116
 1859 0296 0C       		.uleb128 0xc
 1860 0297 2A0D0000 		.4byte	.LASF80
 1861 029b F500     		.sleb128 117
 1862 029d 0C       		.uleb128 0xc
 1863 029e 61060000 		.4byte	.LASF81
 1864 02a2 F600     		.sleb128 118
 1865 02a4 0C       		.uleb128 0xc
 1866 02a5 15140000 		.4byte	.LASF82
 1867 02a9 F700     		.sleb128 119
 1868 02ab 0C       		.uleb128 0xc
 1869 02ac 67010000 		.4byte	.LASF83
 1870 02b0 F800     		.sleb128 120
 1871 02b2 0C       		.uleb128 0xc
 1872 02b3 25030000 		.4byte	.LASF84
 1873 02b7 F900     		.sleb128 121
 1874 02b9 0C       		.uleb128 0xc
 1875 02ba 071B0000 		.4byte	.LASF85
 1876 02be FA00     		.sleb128 122
 1877 02c0 0C       		.uleb128 0xc
 1878 02c1 4A0E0000 		.4byte	.LASF86
 1879 02c5 FA01     		.sleb128 250
 1880 02c7 0C       		.uleb128 0xc
 1881 02c8 DA180000 		.4byte	.LASF87
 1882 02cc FB01     		.sleb128 251
 1883 02ce 0C       		.uleb128 0xc
 1884 02cf 660A0000 		.4byte	.LASF88
 1885 02d3 FC01     		.sleb128 252
 1886 02d5 0C       		.uleb128 0xc
 1887 02d6 5F120000 		.4byte	.LASF89
 1888 02da FD01     		.sleb128 253
 1889 02dc 0C       		.uleb128 0xc
 1890 02dd 84100000 		.4byte	.LASF90
ARM GAS  C:\Users\Sarah\AppData\Local\Temp\ccLQenA3.s 			page 63


 1891 02e1 FF01     		.sleb128 255
 1892 02e3 00       		.byte	0
 1893 02e4 0B       		.uleb128 0xb
 1894 02e5 02       		.byte	0x2
 1895 02e6 04       		.byte	0x4
 1896 02e7 0204     		.2byte	0x402
 1897 02e9 BB030000 		.4byte	0x3bb
 1898 02ed 0C       		.uleb128 0xc
 1899 02ee 3F050000 		.4byte	.LASF91
 1900 02f2 00       		.sleb128 0
 1901 02f3 0C       		.uleb128 0xc
 1902 02f4 F3080000 		.4byte	.LASF92
 1903 02f8 01       		.sleb128 1
 1904 02f9 0C       		.uleb128 0xc
 1905 02fa 8E1A0000 		.4byte	.LASF93
 1906 02fe 02       		.sleb128 2
 1907 02ff 0C       		.uleb128 0xc
 1908 0300 7F090000 		.4byte	.LASF94
 1909 0304 03       		.sleb128 3
 1910 0305 0C       		.uleb128 0xc
 1911 0306 370B0000 		.4byte	.LASF95
 1912 030a 04       		.sleb128 4
 1913 030b 0C       		.uleb128 0xc
 1914 030c 030E0000 		.4byte	.LASF96
 1915 0310 05       		.sleb128 5
 1916 0311 0C       		.uleb128 0xc
 1917 0312 AD180000 		.4byte	.LASF97
 1918 0316 06       		.sleb128 6
 1919 0317 0C       		.uleb128 0xc
 1920 0318 8D070000 		.4byte	.LASF98
 1921 031c 07       		.sleb128 7
 1922 031d 0C       		.uleb128 0xc
 1923 031e 200F0000 		.4byte	.LASF99
 1924 0322 08       		.sleb128 8
 1925 0323 0C       		.uleb128 0xc
 1926 0324 06180000 		.4byte	.LASF100
 1927 0328 09       		.sleb128 9
 1928 0329 0C       		.uleb128 0xc
 1929 032a A41B0000 		.4byte	.LASF101
 1930 032e 0A       		.sleb128 10
 1931 032f 0C       		.uleb128 0xc
 1932 0330 50020000 		.4byte	.LASF102
 1933 0334 0B       		.sleb128 11
 1934 0335 0C       		.uleb128 0xc
 1935 0336 41190000 		.4byte	.LASF103
 1936 033a 0C       		.sleb128 12
 1937 033b 0C       		.uleb128 0xc
 1938 033c 3F100000 		.4byte	.LASF104
 1939 0340 0D       		.sleb128 13
 1940 0341 0C       		.uleb128 0xc
 1941 0342 CE0B0000 		.4byte	.LASF105
 1942 0346 0E       		.sleb128 14
 1943 0347 0C       		.uleb128 0xc
 1944 0348 DE0D0000 		.4byte	.LASF106
 1945 034c 0F       		.sleb128 15
 1946 034d 0C       		.uleb128 0xc
 1947 034e FE000000 		.4byte	.LASF107
ARM GAS  C:\Users\Sarah\AppData\Local\Temp\ccLQenA3.s 			page 64


 1948 0352 10       		.sleb128 16
 1949 0353 0C       		.uleb128 0xc
 1950 0354 CE0E0000 		.4byte	.LASF108
 1951 0358 11       		.sleb128 17
 1952 0359 0C       		.uleb128 0xc
 1953 035a D3030000 		.4byte	.LASF109
 1954 035e 12       		.sleb128 18
 1955 035f 0C       		.uleb128 0xc
 1956 0360 CA040000 		.4byte	.LASF110
 1957 0364 13       		.sleb128 19
 1958 0365 0C       		.uleb128 0xc
 1959 0366 280E0000 		.4byte	.LASF111
 1960 036a 27       		.sleb128 39
 1961 036b 0C       		.uleb128 0xc
 1962 036c 4D0F0000 		.4byte	.LASF112
 1963 0370 28       		.sleb128 40
 1964 0371 0C       		.uleb128 0xc
 1965 0372 2C010000 		.4byte	.LASF113
 1966 0376 29       		.sleb128 41
 1967 0377 0C       		.uleb128 0xc
 1968 0378 F7160000 		.4byte	.LASF114
 1969 037c 2A       		.sleb128 42
 1970 037d 0C       		.uleb128 0xc
 1971 037e 6C0B0000 		.4byte	.LASF115
 1972 0382 2B       		.sleb128 43
 1973 0383 0C       		.uleb128 0xc
 1974 0384 56140000 		.4byte	.LASF116
 1975 0388 2C       		.sleb128 44
 1976 0389 0C       		.uleb128 0xc
 1977 038a D7080000 		.4byte	.LASF117
 1978 038e FE01     		.sleb128 254
 1979 0390 0C       		.uleb128 0xc
 1980 0391 300A0000 		.4byte	.LASF118
 1981 0395 FF01     		.sleb128 255
 1982 0397 0C       		.uleb128 0xc
 1983 0398 B1110000 		.4byte	.LASF119
 1984 039c 8002     		.sleb128 256
 1985 039e 0C       		.uleb128 0xc
 1986 039f 98110000 		.4byte	.LASF120
 1987 03a3 8102     		.sleb128 257
 1988 03a5 0C       		.uleb128 0xc
 1989 03a6 3B040000 		.4byte	.LASF121
 1990 03aa 8202     		.sleb128 258
 1991 03ac 0C       		.uleb128 0xc
 1992 03ad DF130000 		.4byte	.LASF122
 1993 03b1 8302     		.sleb128 259
 1994 03b3 0C       		.uleb128 0xc
 1995 03b4 FC0A0000 		.4byte	.LASF123
 1996 03b8 8402     		.sleb128 260
 1997 03ba 00       		.byte	0
 1998 03bb 04       		.uleb128 0x4
 1999 03bc F9180000 		.4byte	.LASF124
 2000 03c0 04       		.byte	0x4
 2001 03c1 7104     		.2byte	0x471
 2002 03c3 E4020000 		.4byte	0x2e4
 2003 03c7 0D       		.uleb128 0xd
 2004 03c8 07       		.byte	0x7
ARM GAS  C:\Users\Sarah\AppData\Local\Temp\ccLQenA3.s 			page 65


 2005 03c9 04       		.byte	0x4
 2006 03ca 3F05     		.2byte	0x53f
 2007 03cc EB030000 		.4byte	0x3eb
 2008 03d0 0E       		.uleb128 0xe
 2009 03d1 6D180000 		.4byte	.LASF125
 2010 03d5 04       		.byte	0x4
 2011 03d6 4205     		.2byte	0x542
 2012 03d8 EB030000 		.4byte	0x3eb
 2013 03dc 00       		.byte	0
 2014 03dd 0E       		.uleb128 0xe
 2015 03de B1010000 		.4byte	.LASF126
 2016 03e2 04       		.byte	0x4
 2017 03e3 4405     		.2byte	0x544
 2018 03e5 6B000000 		.4byte	0x6b
 2019 03e9 06       		.byte	0x6
 2020 03ea 00       		.byte	0
 2021 03eb 0F       		.uleb128 0xf
 2022 03ec 6B000000 		.4byte	0x6b
 2023 03f0 FB030000 		.4byte	0x3fb
 2024 03f4 10       		.uleb128 0x10
 2025 03f5 C0000000 		.4byte	0xc0
 2026 03f9 05       		.byte	0x5
 2027 03fa 00       		.byte	0
 2028 03fb 04       		.uleb128 0x4
 2029 03fc 7B140000 		.4byte	.LASF127
 2030 0400 04       		.byte	0x4
 2031 0401 4505     		.2byte	0x545
 2032 0403 C7030000 		.4byte	0x3c7
 2033 0407 0D       		.uleb128 0xd
 2034 0408 04       		.byte	0x4
 2035 0409 04       		.byte	0x4
 2036 040a 4F05     		.2byte	0x54f
 2037 040c 2B040000 		.4byte	0x42b
 2038 0410 0E       		.uleb128 0xe
 2039 0411 8C120000 		.4byte	.LASF128
 2040 0415 04       		.byte	0x4
 2041 0416 5205     		.2byte	0x552
 2042 0418 77000000 		.4byte	0x77
 2043 041c 00       		.byte	0
 2044 041d 0E       		.uleb128 0xe
 2045 041e 1A050000 		.4byte	.LASF129
 2046 0422 04       		.byte	0x4
 2047 0423 5405     		.2byte	0x554
 2048 0425 6B000000 		.4byte	0x6b
 2049 0429 02       		.byte	0x2
 2050 042a 00       		.byte	0
 2051 042b 04       		.uleb128 0x4
 2052 042c 7B030000 		.4byte	.LASF130
 2053 0430 04       		.byte	0x4
 2054 0431 5505     		.2byte	0x555
 2055 0433 07040000 		.4byte	0x407
 2056 0437 0D       		.uleb128 0xd
 2057 0438 06       		.byte	0x6
 2058 0439 04       		.byte	0x4
 2059 043a 5905     		.2byte	0x559
 2060 043c 68040000 		.4byte	0x468
 2061 0440 0E       		.uleb128 0xe
ARM GAS  C:\Users\Sarah\AppData\Local\Temp\ccLQenA3.s 			page 66


 2062 0441 950D0000 		.4byte	.LASF131
 2063 0445 04       		.byte	0x4
 2064 0446 5C05     		.2byte	0x55c
 2065 0448 77000000 		.4byte	0x77
 2066 044c 00       		.byte	0
 2067 044d 0E       		.uleb128 0xe
 2068 044e 411A0000 		.4byte	.LASF132
 2069 0452 04       		.byte	0x4
 2070 0453 5F05     		.2byte	0x55f
 2071 0455 77000000 		.4byte	0x77
 2072 0459 02       		.byte	0x2
 2073 045a 0E       		.uleb128 0xe
 2074 045b BE0F0000 		.4byte	.LASF133
 2075 045f 04       		.byte	0x4
 2076 0460 6205     		.2byte	0x562
 2077 0462 6B000000 		.4byte	0x6b
 2078 0466 04       		.byte	0x4
 2079 0467 00       		.byte	0
 2080 0468 04       		.uleb128 0x4
 2081 0469 EE020000 		.4byte	.LASF134
 2082 046d 04       		.byte	0x4
 2083 046e 6305     		.2byte	0x563
 2084 0470 37040000 		.4byte	0x437
 2085 0474 0D       		.uleb128 0xd
 2086 0475 01       		.byte	0x1
 2087 0476 04       		.byte	0x4
 2088 0477 6605     		.2byte	0x566
 2089 0479 8B040000 		.4byte	0x48b
 2090 047d 0E       		.uleb128 0xe
 2091 047e BC0B0000 		.4byte	.LASF135
 2092 0482 04       		.byte	0x4
 2093 0483 6905     		.2byte	0x569
 2094 0485 6B000000 		.4byte	0x6b
 2095 0489 00       		.byte	0
 2096 048a 00       		.byte	0
 2097 048b 04       		.uleb128 0x4
 2098 048c F20E0000 		.4byte	.LASF136
 2099 0490 04       		.byte	0x4
 2100 0491 6A05     		.2byte	0x56a
 2101 0493 74040000 		.4byte	0x474
 2102 0497 0D       		.uleb128 0xd
 2103 0498 0C       		.byte	0xc
 2104 0499 04       		.byte	0x4
 2105 049a 7005     		.2byte	0x570
 2106 049c C8040000 		.4byte	0x4c8
 2107 04a0 0E       		.uleb128 0xe
 2108 04a1 95030000 		.4byte	.LASF137
 2109 04a5 04       		.byte	0x4
 2110 04a6 7305     		.2byte	0x573
 2111 04a8 C8040000 		.4byte	0x4c8
 2112 04ac 00       		.byte	0
 2113 04ad 0E       		.uleb128 0xe
 2114 04ae 8F140000 		.4byte	.LASF138
 2115 04b2 04       		.byte	0x4
 2116 04b3 7605     		.2byte	0x576
 2117 04b5 CE040000 		.4byte	0x4ce
 2118 04b9 04       		.byte	0x4
ARM GAS  C:\Users\Sarah\AppData\Local\Temp\ccLQenA3.s 			page 67


 2119 04ba 0E       		.uleb128 0xe
 2120 04bb DA0F0000 		.4byte	.LASF139
 2121 04bf 04       		.byte	0x4
 2122 04c0 7C05     		.2byte	0x57c
 2123 04c2 77000000 		.4byte	0x77
 2124 04c6 08       		.byte	0x8
 2125 04c7 00       		.byte	0
 2126 04c8 08       		.uleb128 0x8
 2127 04c9 04       		.byte	0x4
 2128 04ca 68040000 		.4byte	0x468
 2129 04ce 08       		.uleb128 0x8
 2130 04cf 04       		.byte	0x4
 2131 04d0 8B040000 		.4byte	0x48b
 2132 04d4 04       		.uleb128 0x4
 2133 04d5 7A0D0000 		.4byte	.LASF140
 2134 04d9 04       		.byte	0x4
 2135 04da 7D05     		.2byte	0x57d
 2136 04dc 97040000 		.4byte	0x497
 2137 04e0 08       		.uleb128 0x8
 2138 04e1 04       		.byte	0x4
 2139 04e2 6B000000 		.4byte	0x6b
 2140 04e6 11       		.uleb128 0x11
 2141 04e7 01       		.byte	0x1
 2142 04e8 05       		.byte	0x5
 2143 04e9 E0       		.byte	0xe0
 2144 04ea 0D050000 		.4byte	0x50d
 2145 04ee 0C       		.uleb128 0xc
 2146 04ef 621A0000 		.4byte	.LASF141
 2147 04f3 00       		.sleb128 0
 2148 04f4 0C       		.uleb128 0xc
 2149 04f5 E3110000 		.4byte	.LASF142
 2150 04f9 01       		.sleb128 1
 2151 04fa 0C       		.uleb128 0xc
 2152 04fb 52170000 		.4byte	.LASF143
 2153 04ff 02       		.sleb128 2
 2154 0500 0C       		.uleb128 0xc
 2155 0501 72040000 		.4byte	.LASF144
 2156 0505 03       		.sleb128 3
 2157 0506 0C       		.uleb128 0xc
 2158 0507 54090000 		.4byte	.LASF145
 2159 050b 04       		.sleb128 4
 2160 050c 00       		.byte	0
 2161 050d 06       		.uleb128 0x6
 2162 050e D6100000 		.4byte	.LASF146
 2163 0512 05       		.byte	0x5
 2164 0513 F0       		.byte	0xf0
 2165 0514 E6040000 		.4byte	0x4e6
 2166 0518 0D       		.uleb128 0xd
 2167 0519 10       		.byte	0x10
 2168 051a 05       		.byte	0x5
 2169 051b 2102     		.2byte	0x221
 2170 051d 8A050000 		.4byte	0x58a
 2171 0521 0E       		.uleb128 0xe
 2172 0522 18060000 		.4byte	.LASF147
 2173 0526 05       		.byte	0x5
 2174 0527 2702     		.2byte	0x227
 2175 0529 77000000 		.4byte	0x77
ARM GAS  C:\Users\Sarah\AppData\Local\Temp\ccLQenA3.s 			page 68


 2176 052d 00       		.byte	0
 2177 052e 0E       		.uleb128 0xe
 2178 052f BE1B0000 		.4byte	.LASF148
 2179 0533 05       		.byte	0x5
 2180 0534 2D02     		.2byte	0x22d
 2181 0536 77000000 		.4byte	0x77
 2182 053a 02       		.byte	0x2
 2183 053b 0E       		.uleb128 0xe
 2184 053c 2F0B0000 		.4byte	.LASF149
 2185 0540 05       		.byte	0x5
 2186 0541 3602     		.2byte	0x236
 2187 0543 0D050000 		.4byte	0x50d
 2188 0547 04       		.byte	0x4
 2189 0548 0E       		.uleb128 0xe
 2190 0549 981B0000 		.4byte	.LASF150
 2191 054d 05       		.byte	0x5
 2192 054e 3E02     		.2byte	0x23e
 2193 0550 6B000000 		.4byte	0x6b
 2194 0554 05       		.byte	0x5
 2195 0555 0E       		.uleb128 0xe
 2196 0556 9B0E0000 		.4byte	.LASF151
 2197 055a 05       		.byte	0x5
 2198 055b 4502     		.2byte	0x245
 2199 055d 6B000000 		.4byte	0x6b
 2200 0561 06       		.byte	0x6
 2201 0562 0E       		.uleb128 0xe
 2202 0563 201A0000 		.4byte	.LASF152
 2203 0567 05       		.byte	0x5
 2204 0568 4B02     		.2byte	0x24b
 2205 056a EB030000 		.4byte	0x3eb
 2206 056e 07       		.byte	0x7
 2207 056f 0E       		.uleb128 0xe
 2208 0570 541A0000 		.4byte	.LASF153
 2209 0574 05       		.byte	0x5
 2210 0575 5302     		.2byte	0x253
 2211 0577 6B000000 		.4byte	0x6b
 2212 057b 0D       		.byte	0xd
 2213 057c 0E       		.uleb128 0xe
 2214 057d D20A0000 		.4byte	.LASF154
 2215 0581 05       		.byte	0x5
 2216 0582 5F02     		.2byte	0x25f
 2217 0584 6B000000 		.4byte	0x6b
 2218 0588 0E       		.byte	0xe
 2219 0589 00       		.byte	0
 2220 058a 04       		.uleb128 0x4
 2221 058b 860A0000 		.4byte	.LASF155
 2222 058f 05       		.byte	0x5
 2223 0590 6102     		.2byte	0x261
 2224 0592 18050000 		.4byte	0x518
 2225 0596 0D       		.uleb128 0xd
 2226 0597 20       		.byte	0x20
 2227 0598 05       		.byte	0x5
 2228 0599 6402     		.2byte	0x264
 2229 059b BA050000 		.4byte	0x5ba
 2230 059f 0E       		.uleb128 0xe
 2231 05a0 1C110000 		.4byte	.LASF156
 2232 05a4 05       		.byte	0x5
ARM GAS  C:\Users\Sarah\AppData\Local\Temp\ccLQenA3.s 			page 69


 2233 05a5 6702     		.2byte	0x267
 2234 05a7 BA050000 		.4byte	0x5ba
 2235 05ab 00       		.byte	0
 2236 05ac 0E       		.uleb128 0xe
 2237 05ad C2140000 		.4byte	.LASF157
 2238 05b1 05       		.byte	0x5
 2239 05b2 6A02     		.2byte	0x26a
 2240 05b4 6B000000 		.4byte	0x6b
 2241 05b8 1F       		.byte	0x1f
 2242 05b9 00       		.byte	0
 2243 05ba 0F       		.uleb128 0xf
 2244 05bb 6B000000 		.4byte	0x6b
 2245 05bf CA050000 		.4byte	0x5ca
 2246 05c3 10       		.uleb128 0x10
 2247 05c4 C0000000 		.4byte	0xc0
 2248 05c8 1E       		.byte	0x1e
 2249 05c9 00       		.byte	0
 2250 05ca 04       		.uleb128 0x4
 2251 05cb 4A060000 		.4byte	.LASF158
 2252 05cf 05       		.byte	0x5
 2253 05d0 6C02     		.2byte	0x26c
 2254 05d2 96050000 		.4byte	0x596
 2255 05d6 0D       		.uleb128 0xd
 2256 05d7 20       		.byte	0x20
 2257 05d8 05       		.byte	0x5
 2258 05d9 6F02     		.2byte	0x26f
 2259 05db FA050000 		.4byte	0x5fa
 2260 05df 0E       		.uleb128 0xe
 2261 05e0 2A000000 		.4byte	.LASF159
 2262 05e4 05       		.byte	0x5
 2263 05e5 7302     		.2byte	0x273
 2264 05e7 BA050000 		.4byte	0x5ba
 2265 05eb 00       		.byte	0
 2266 05ec 0E       		.uleb128 0xe
 2267 05ed E8160000 		.4byte	.LASF160
 2268 05f1 05       		.byte	0x5
 2269 05f2 7602     		.2byte	0x276
 2270 05f4 6B000000 		.4byte	0x6b
 2271 05f8 1F       		.byte	0x1f
 2272 05f9 00       		.byte	0
 2273 05fa 04       		.uleb128 0x4
 2274 05fb 31160000 		.4byte	.LASF161
 2275 05ff 05       		.byte	0x5
 2276 0600 7802     		.2byte	0x278
 2277 0602 D6050000 		.4byte	0x5d6
 2278 0606 0D       		.uleb128 0xd
 2279 0607 14       		.byte	0x14
 2280 0608 05       		.byte	0x5
 2281 0609 7B02     		.2byte	0x27b
 2282 060b 51060000 		.4byte	0x651
 2283 060f 0E       		.uleb128 0xe
 2284 0610 F5000000 		.4byte	.LASF162
 2285 0614 05       		.byte	0x5
 2286 0615 8302     		.2byte	0x283
 2287 0617 6B000000 		.4byte	0x6b
 2288 061b 00       		.byte	0
 2289 061c 0E       		.uleb128 0xe
ARM GAS  C:\Users\Sarah\AppData\Local\Temp\ccLQenA3.s 			page 70


 2290 061d D50D0000 		.4byte	.LASF163
 2291 0621 05       		.byte	0x5
 2292 0622 8602     		.2byte	0x286
 2293 0624 51060000 		.4byte	0x651
 2294 0628 04       		.byte	0x4
 2295 0629 0E       		.uleb128 0xe
 2296 062a 1C110000 		.4byte	.LASF156
 2297 062e 05       		.byte	0x5
 2298 062f 8802     		.2byte	0x288
 2299 0631 57060000 		.4byte	0x657
 2300 0635 08       		.byte	0x8
 2301 0636 0E       		.uleb128 0xe
 2302 0637 2A000000 		.4byte	.LASF159
 2303 063b 05       		.byte	0x5
 2304 063c 8A02     		.2byte	0x28a
 2305 063e 5D060000 		.4byte	0x65d
 2306 0642 0C       		.byte	0xc
 2307 0643 0E       		.uleb128 0xe
 2308 0644 86120000 		.4byte	.LASF164
 2309 0648 05       		.byte	0x5
 2310 0649 9402     		.2byte	0x294
 2311 064b 77000000 		.4byte	0x77
 2312 064f 10       		.byte	0x10
 2313 0650 00       		.byte	0
 2314 0651 08       		.uleb128 0x8
 2315 0652 04       		.byte	0x4
 2316 0653 8A050000 		.4byte	0x58a
 2317 0657 08       		.uleb128 0x8
 2318 0658 04       		.byte	0x4
 2319 0659 CA050000 		.4byte	0x5ca
 2320 065d 08       		.uleb128 0x8
 2321 065e 04       		.byte	0x4
 2322 065f FA050000 		.4byte	0x5fa
 2323 0663 04       		.uleb128 0x4
 2324 0664 D2140000 		.4byte	.LASF165
 2325 0668 05       		.byte	0x5
 2326 0669 9602     		.2byte	0x296
 2327 066b 06060000 		.4byte	0x606
 2328 066f 0D       		.uleb128 0xd
 2329 0670 0C       		.byte	0xc
 2330 0671 05       		.byte	0x5
 2331 0672 9902     		.2byte	0x299
 2332 0674 E1060000 		.4byte	0x6e1
 2333 0678 0E       		.uleb128 0xe
 2334 0679 9E0A0000 		.4byte	.LASF166
 2335 067d 05       		.byte	0x5
 2336 067e A002     		.2byte	0x2a0
 2337 0680 6B000000 		.4byte	0x6b
 2338 0684 00       		.byte	0
 2339 0685 0E       		.uleb128 0xe
 2340 0686 32040000 		.4byte	.LASF167
 2341 068a 05       		.byte	0x5
 2342 068b A602     		.2byte	0x2a6
 2343 068d 6B000000 		.4byte	0x6b
 2344 0691 01       		.byte	0x1
 2345 0692 0E       		.uleb128 0xe
 2346 0693 3E0F0000 		.4byte	.LASF168
ARM GAS  C:\Users\Sarah\AppData\Local\Temp\ccLQenA3.s 			page 71


 2347 0697 05       		.byte	0x5
 2348 0698 AC02     		.2byte	0x2ac
 2349 069a 77000000 		.4byte	0x77
 2350 069e 02       		.byte	0x2
 2351 069f 0E       		.uleb128 0xe
 2352 06a0 75130000 		.4byte	.LASF169
 2353 06a4 05       		.byte	0x5
 2354 06a5 B102     		.2byte	0x2b1
 2355 06a7 77000000 		.4byte	0x77
 2356 06ab 04       		.byte	0x4
 2357 06ac 0E       		.uleb128 0xe
 2358 06ad 981B0000 		.4byte	.LASF150
 2359 06b1 05       		.byte	0x5
 2360 06b2 B902     		.2byte	0x2b9
 2361 06b4 6B000000 		.4byte	0x6b
 2362 06b8 06       		.byte	0x6
 2363 06b9 0E       		.uleb128 0xe
 2364 06ba B51A0000 		.4byte	.LASF170
 2365 06be 05       		.byte	0x5
 2366 06bf C102     		.2byte	0x2c1
 2367 06c1 6B000000 		.4byte	0x6b
 2368 06c5 07       		.byte	0x7
 2369 06c6 0E       		.uleb128 0xe
 2370 06c7 EE140000 		.4byte	.LASF171
 2371 06cb 05       		.byte	0x5
 2372 06cc C702     		.2byte	0x2c7
 2373 06ce 77000000 		.4byte	0x77
 2374 06d2 08       		.byte	0x8
 2375 06d3 0E       		.uleb128 0xe
 2376 06d4 AD0F0000 		.4byte	.LASF172
 2377 06d8 05       		.byte	0x5
 2378 06d9 D102     		.2byte	0x2d1
 2379 06db 6B000000 		.4byte	0x6b
 2380 06df 0A       		.byte	0xa
 2381 06e0 00       		.byte	0
 2382 06e1 04       		.uleb128 0x4
 2383 06e2 F3120000 		.4byte	.LASF173
 2384 06e6 05       		.byte	0x5
 2385 06e7 D302     		.2byte	0x2d3
 2386 06e9 6F060000 		.4byte	0x66f
 2387 06ed 0D       		.uleb128 0xd
 2388 06ee 1A       		.byte	0x1a
 2389 06ef 05       		.byte	0x5
 2390 06f0 D602     		.2byte	0x2d6
 2391 06f2 93070000 		.4byte	0x793
 2392 06f6 0E       		.uleb128 0xe
 2393 06f7 3E0F0000 		.4byte	.LASF168
 2394 06fb 05       		.byte	0x5
 2395 06fc DC02     		.2byte	0x2dc
 2396 06fe 77000000 		.4byte	0x77
 2397 0702 00       		.byte	0
 2398 0703 0E       		.uleb128 0xe
 2399 0704 75130000 		.4byte	.LASF169
 2400 0708 05       		.byte	0x5
 2401 0709 E102     		.2byte	0x2e1
 2402 070b 77000000 		.4byte	0x77
 2403 070f 02       		.byte	0x2
ARM GAS  C:\Users\Sarah\AppData\Local\Temp\ccLQenA3.s 			page 72


 2404 0710 0E       		.uleb128 0xe
 2405 0711 13100000 		.4byte	.LASF174
 2406 0715 05       		.byte	0x5
 2407 0716 E902     		.2byte	0x2e9
 2408 0718 6B000000 		.4byte	0x6b
 2409 071c 04       		.byte	0x4
 2410 071d 0E       		.uleb128 0xe
 2411 071e 67050000 		.4byte	.LASF175
 2412 0722 05       		.byte	0x5
 2413 0723 EC02     		.2byte	0x2ec
 2414 0725 EB030000 		.4byte	0x3eb
 2415 0729 05       		.byte	0x5
 2416 072a 0E       		.uleb128 0xe
 2417 072b F9170000 		.4byte	.LASF176
 2418 072f 05       		.byte	0x5
 2419 0730 F402     		.2byte	0x2f4
 2420 0732 6B000000 		.4byte	0x6b
 2421 0736 0B       		.byte	0xb
 2422 0737 0E       		.uleb128 0xe
 2423 0738 981B0000 		.4byte	.LASF150
 2424 073c 05       		.byte	0x5
 2425 073d FC02     		.2byte	0x2fc
 2426 073f 6B000000 		.4byte	0x6b
 2427 0743 0C       		.byte	0xc
 2428 0744 0E       		.uleb128 0xe
 2429 0745 5E040000 		.4byte	.LASF177
 2430 0749 05       		.byte	0x5
 2431 074a 0303     		.2byte	0x303
 2432 074c 77000000 		.4byte	0x77
 2433 0750 0E       		.byte	0xe
 2434 0751 0E       		.uleb128 0xe
 2435 0752 011A0000 		.4byte	.LASF178
 2436 0756 05       		.byte	0x5
 2437 0757 0A03     		.2byte	0x30a
 2438 0759 77000000 		.4byte	0x77
 2439 075d 10       		.byte	0x10
 2440 075e 0E       		.uleb128 0xe
 2441 075f 82190000 		.4byte	.LASF179
 2442 0763 05       		.byte	0x5
 2443 0764 0F03     		.2byte	0x30f
 2444 0766 77000000 		.4byte	0x77
 2445 076a 12       		.byte	0x12
 2446 076b 0E       		.uleb128 0xe
 2447 076c F91A0000 		.4byte	.LASF180
 2448 0770 05       		.byte	0x5
 2449 0771 1503     		.2byte	0x315
 2450 0773 77000000 		.4byte	0x77
 2451 0777 14       		.byte	0x14
 2452 0778 0E       		.uleb128 0xe
 2453 0779 A80D0000 		.4byte	.LASF181
 2454 077d 05       		.byte	0x5
 2455 077e 1A03     		.2byte	0x31a
 2456 0780 77000000 		.4byte	0x77
 2457 0784 16       		.byte	0x16
 2458 0785 0E       		.uleb128 0xe
 2459 0786 E90C0000 		.4byte	.LASF182
 2460 078a 05       		.byte	0x5
ARM GAS  C:\Users\Sarah\AppData\Local\Temp\ccLQenA3.s 			page 73


 2461 078b 1F03     		.2byte	0x31f
 2462 078d 77000000 		.4byte	0x77
 2463 0791 18       		.byte	0x18
 2464 0792 00       		.byte	0
 2465 0793 04       		.uleb128 0x4
 2466 0794 AA140000 		.4byte	.LASF183
 2467 0798 05       		.byte	0x5
 2468 0799 2103     		.2byte	0x321
 2469 079b ED060000 		.4byte	0x6ed
 2470 079f 04       		.uleb128 0x4
 2471 07a0 F9130000 		.4byte	.LASF184
 2472 07a4 06       		.byte	0x6
 2473 07a5 8901     		.2byte	0x189
 2474 07a7 77000000 		.4byte	0x77
 2475 07ab 0D       		.uleb128 0xd
 2476 07ac 02       		.byte	0x2
 2477 07ad 06       		.byte	0x6
 2478 07ae 9301     		.2byte	0x193
 2479 07b0 CF070000 		.4byte	0x7cf
 2480 07b4 0E       		.uleb128 0xe
 2481 07b5 E5020000 		.4byte	.LASF185
 2482 07b9 06       		.byte	0x6
 2483 07ba 9A01     		.2byte	0x19a
 2484 07bc 6B000000 		.4byte	0x6b
 2485 07c0 00       		.byte	0
 2486 07c1 0E       		.uleb128 0xe
 2487 07c2 881A0000 		.4byte	.LASF186
 2488 07c6 06       		.byte	0x6
 2489 07c7 A001     		.2byte	0x1a0
 2490 07c9 6B000000 		.4byte	0x6b
 2491 07cd 01       		.byte	0x1
 2492 07ce 00       		.byte	0
 2493 07cf 04       		.uleb128 0x4
 2494 07d0 2F020000 		.4byte	.LASF187
 2495 07d4 06       		.byte	0x6
 2496 07d5 A201     		.2byte	0x1a2
 2497 07d7 AB070000 		.4byte	0x7ab
 2498 07db 08       		.uleb128 0x8
 2499 07dc 04       		.byte	0x4
 2500 07dd 77000000 		.4byte	0x77
 2501 07e1 12       		.uleb128 0x12
 2502 07e2 08       		.byte	0x8
 2503 07e3 07       		.byte	0x7
 2504 07e4 C8       		.byte	0xc8
 2505 07e5 02080000 		.4byte	0x802
 2506 07e9 13       		.uleb128 0x13
 2507 07ea 9D140000 		.4byte	.LASF188
 2508 07ee 07       		.byte	0x7
 2509 07ef CB       		.byte	0xcb
 2510 07f0 77000000 		.4byte	0x77
 2511 07f4 00       		.byte	0
 2512 07f5 13       		.uleb128 0x13
 2513 07f6 4C160000 		.4byte	.LASF189
 2514 07fa 07       		.byte	0x7
 2515 07fb D0       		.byte	0xd0
 2516 07fc C7000000 		.4byte	0xc7
 2517 0800 04       		.byte	0x4
ARM GAS  C:\Users\Sarah\AppData\Local\Temp\ccLQenA3.s 			page 74


 2518 0801 00       		.byte	0
 2519 0802 06       		.uleb128 0x6
 2520 0803 41120000 		.4byte	.LASF190
 2521 0807 07       		.byte	0x7
 2522 0808 D2       		.byte	0xd2
 2523 0809 E1070000 		.4byte	0x7e1
 2524 080d 12       		.uleb128 0x12
 2525 080e 08       		.byte	0x8
 2526 080f 07       		.byte	0x7
 2527 0810 D5       		.byte	0xd5
 2528 0811 2E080000 		.4byte	0x82e
 2529 0815 13       		.uleb128 0x13
 2530 0816 DF060000 		.4byte	.LASF191
 2531 081a 07       		.byte	0x7
 2532 081b D8       		.byte	0xd8
 2533 081c 77000000 		.4byte	0x77
 2534 0820 00       		.byte	0
 2535 0821 13       		.uleb128 0x13
 2536 0822 C8160000 		.4byte	.LASF192
 2537 0826 07       		.byte	0x7
 2538 0827 DD       		.byte	0xdd
 2539 0828 2E080000 		.4byte	0x82e
 2540 082c 04       		.byte	0x4
 2541 082d 00       		.byte	0
 2542 082e 08       		.uleb128 0x8
 2543 082f 04       		.byte	0x4
 2544 0830 02080000 		.4byte	0x802
 2545 0834 06       		.uleb128 0x6
 2546 0835 EA150000 		.4byte	.LASF193
 2547 0839 07       		.byte	0x7
 2548 083a DF       		.byte	0xdf
 2549 083b 0D080000 		.4byte	0x80d
 2550 083f 14       		.uleb128 0x14
 2551 0840 08       		.byte	0x8
 2552 0841 07       		.byte	0x7
 2553 0842 E2       		.byte	0xe2
 2554 0843 5E080000 		.4byte	0x85e
 2555 0847 15       		.uleb128 0x15
 2556 0848 D9160000 		.4byte	.LASF194
 2557 084c 07       		.byte	0x7
 2558 084d E9       		.byte	0xe9
 2559 084e 34080000 		.4byte	0x834
 2560 0852 15       		.uleb128 0x15
 2561 0853 850C0000 		.4byte	.LASF195
 2562 0857 07       		.byte	0x7
 2563 0858 EC       		.byte	0xec
 2564 0859 77000000 		.4byte	0x77
 2565 085d 00       		.byte	0
 2566 085e 06       		.uleb128 0x6
 2567 085f D2150000 		.4byte	.LASF196
 2568 0863 07       		.byte	0x7
 2569 0864 EE       		.byte	0xee
 2570 0865 3F080000 		.4byte	0x83f
 2571 0869 12       		.uleb128 0x12
 2572 086a 14       		.byte	0x14
 2573 086b 07       		.byte	0x7
 2574 086c F1       		.byte	0xf1
ARM GAS  C:\Users\Sarah\AppData\Local\Temp\ccLQenA3.s 			page 75


 2575 086d B1080000 		.4byte	0x8b1
 2576 0871 13       		.uleb128 0x13
 2577 0872 23060000 		.4byte	.LASF197
 2578 0876 07       		.byte	0x7
 2579 0877 F4       		.byte	0xf4
 2580 0878 77000000 		.4byte	0x77
 2581 087c 00       		.byte	0
 2582 087d 13       		.uleb128 0x13
 2583 087e 6A040000 		.4byte	.LASF198
 2584 0882 07       		.byte	0x7
 2585 0883 FA       		.byte	0xfa
 2586 0884 77000000 		.4byte	0x77
 2587 0888 02       		.byte	0x2
 2588 0889 0E       		.uleb128 0xe
 2589 088a A6010000 		.4byte	.LASF199
 2590 088e 07       		.byte	0x7
 2591 088f 0501     		.2byte	0x105
 2592 0891 83000000 		.4byte	0x83
 2593 0895 04       		.byte	0x4
 2594 0896 0E       		.uleb128 0xe
 2595 0897 06100000 		.4byte	.LASF200
 2596 089b 07       		.byte	0x7
 2597 089c 0801     		.2byte	0x108
 2598 089e 77000000 		.4byte	0x77
 2599 08a2 08       		.byte	0x8
 2600 08a3 0E       		.uleb128 0xe
 2601 08a4 3A140000 		.4byte	.LASF201
 2602 08a8 07       		.byte	0x7
 2603 08a9 1101     		.2byte	0x111
 2604 08ab 5E080000 		.4byte	0x85e
 2605 08af 0C       		.byte	0xc
 2606 08b0 00       		.byte	0
 2607 08b1 04       		.uleb128 0x4
 2608 08b2 79080000 		.4byte	.LASF202
 2609 08b6 07       		.byte	0x7
 2610 08b7 1201     		.2byte	0x112
 2611 08b9 69080000 		.4byte	0x869
 2612 08bd 04       		.uleb128 0x4
 2613 08be CB010000 		.4byte	.LASF203
 2614 08c2 08       		.byte	0x8
 2615 08c3 0302     		.2byte	0x203
 2616 08c5 EB000000 		.4byte	0xeb
 2617 08c9 16       		.uleb128 0x16
 2618 08ca 8F02     		.2byte	0x28f
 2619 08cc 09       		.byte	0x9
 2620 08cd 9C       		.byte	0x9c
 2621 08ce 06090000 		.4byte	0x906
 2622 08d2 13       		.uleb128 0x13
 2623 08d3 780A0000 		.4byte	.LASF204
 2624 08d7 09       		.byte	0x9
 2625 08d8 9F       		.byte	0x9f
 2626 08d9 06090000 		.4byte	0x906
 2627 08dd 00       		.byte	0
 2628 08de 17       		.uleb128 0x17
 2629 08df DF090000 		.4byte	.LASF205
 2630 08e3 09       		.byte	0x9
 2631 08e4 A2       		.byte	0xa2
ARM GAS  C:\Users\Sarah\AppData\Local\Temp\ccLQenA3.s 			page 76


 2632 08e5 17090000 		.4byte	0x917
 2633 08e9 7902     		.2byte	0x279
 2634 08eb 17       		.uleb128 0x17
 2635 08ec D7170000 		.4byte	.LASF206
 2636 08f0 09       		.byte	0x9
 2637 08f1 A5       		.byte	0xa5
 2638 08f2 6B000000 		.4byte	0x6b
 2639 08f6 8D02     		.2byte	0x28d
 2640 08f8 17       		.uleb128 0x17
 2641 08f9 25090000 		.4byte	.LASF207
 2642 08fd 09       		.byte	0x9
 2643 08fe A8       		.byte	0xa8
 2644 08ff 6B000000 		.4byte	0x6b
 2645 0903 8E02     		.2byte	0x28e
 2646 0905 00       		.byte	0
 2647 0906 0F       		.uleb128 0xf
 2648 0907 6B000000 		.4byte	0x6b
 2649 090b 17090000 		.4byte	0x917
 2650 090f 18       		.uleb128 0x18
 2651 0910 C0000000 		.4byte	0xc0
 2652 0914 7802     		.2byte	0x278
 2653 0916 00       		.byte	0
 2654 0917 0F       		.uleb128 0xf
 2655 0918 6B000000 		.4byte	0x6b
 2656 091c 2D090000 		.4byte	0x92d
 2657 0920 10       		.uleb128 0x10
 2658 0921 C0000000 		.4byte	0xc0
 2659 0925 04       		.byte	0x4
 2660 0926 10       		.uleb128 0x10
 2661 0927 C0000000 		.4byte	0xc0
 2662 092b 03       		.byte	0x3
 2663 092c 00       		.byte	0
 2664 092d 06       		.uleb128 0x6
 2665 092e A70B0000 		.4byte	.LASF208
 2666 0932 09       		.byte	0x9
 2667 0933 A9       		.byte	0xa9
 2668 0934 C9080000 		.4byte	0x8c9
 2669 0938 0B       		.uleb128 0xb
 2670 0939 01       		.byte	0x1
 2671 093a 0A       		.byte	0xa
 2672 093b 5008     		.2byte	0x850
 2673 093d 6C090000 		.4byte	0x96c
 2674 0941 0C       		.uleb128 0xc
 2675 0942 99050000 		.4byte	.LASF209
 2676 0946 00       		.sleb128 0
 2677 0947 0C       		.uleb128 0xc
 2678 0948 110D0000 		.4byte	.LASF210
 2679 094c 01       		.sleb128 1
 2680 094d 0C       		.uleb128 0xc
 2681 094e 2B1A0000 		.4byte	.LASF211
 2682 0952 02       		.sleb128 2
 2683 0953 0C       		.uleb128 0xc
 2684 0954 A4020000 		.4byte	.LASF212
 2685 0958 03       		.sleb128 3
 2686 0959 0C       		.uleb128 0xc
 2687 095a BD130000 		.4byte	.LASF213
 2688 095e 04       		.sleb128 4
ARM GAS  C:\Users\Sarah\AppData\Local\Temp\ccLQenA3.s 			page 77


 2689 095f 0C       		.uleb128 0xc
 2690 0960 0C070000 		.4byte	.LASF214
 2691 0964 05       		.sleb128 5
 2692 0965 0C       		.uleb128 0xc
 2693 0966 B9150000 		.4byte	.LASF215
 2694 096a 06       		.sleb128 6
 2695 096b 00       		.byte	0
 2696 096c 04       		.uleb128 0x4
 2697 096d 44170000 		.4byte	.LASF216
 2698 0971 0A       		.byte	0xa
 2699 0972 5E08     		.2byte	0x85e
 2700 0974 38090000 		.4byte	0x938
 2701 0978 0D       		.uleb128 0xd
 2702 0979 0C       		.byte	0xc
 2703 097a 0A       		.byte	0xa
 2704 097b 9909     		.2byte	0x999
 2705 097d D0090000 		.4byte	0x9d0
 2706 0981 0E       		.uleb128 0xe
 2707 0982 EC190000 		.4byte	.LASF217
 2708 0986 0A       		.byte	0xa
 2709 0987 9C09     		.2byte	0x99c
 2710 0989 9F070000 		.4byte	0x79f
 2711 098d 00       		.byte	0
 2712 098e 0E       		.uleb128 0xe
 2713 098f 860E0000 		.4byte	.LASF218
 2714 0993 0A       		.byte	0xa
 2715 0994 9E09     		.2byte	0x99e
 2716 0996 9F070000 		.4byte	0x79f
 2717 099a 02       		.byte	0x2
 2718 099b 0E       		.uleb128 0xe
 2719 099c C1120000 		.4byte	.LASF219
 2720 09a0 0A       		.byte	0xa
 2721 09a1 A009     		.2byte	0x9a0
 2722 09a3 9F070000 		.4byte	0x79f
 2723 09a7 04       		.byte	0x4
 2724 09a8 0E       		.uleb128 0xe
 2725 09a9 5A110000 		.4byte	.LASF220
 2726 09ad 0A       		.byte	0xa
 2727 09ae A309     		.2byte	0x9a3
 2728 09b0 9F070000 		.4byte	0x79f
 2729 09b4 06       		.byte	0x6
 2730 09b5 0E       		.uleb128 0xe
 2731 09b6 4D180000 		.4byte	.LASF221
 2732 09ba 0A       		.byte	0xa
 2733 09bb A509     		.2byte	0x9a5
 2734 09bd 9F070000 		.4byte	0x79f
 2735 09c1 08       		.byte	0x8
 2736 09c2 0E       		.uleb128 0xe
 2737 09c3 B8040000 		.4byte	.LASF222
 2738 09c7 0A       		.byte	0xa
 2739 09c8 A709     		.2byte	0x9a7
 2740 09ca 9F070000 		.4byte	0x79f
 2741 09ce 0A       		.byte	0xa
 2742 09cf 00       		.byte	0
 2743 09d0 04       		.uleb128 0x4
 2744 09d1 6E140000 		.4byte	.LASF223
 2745 09d5 0A       		.byte	0xa
ARM GAS  C:\Users\Sarah\AppData\Local\Temp\ccLQenA3.s 			page 78


 2746 09d6 A809     		.2byte	0x9a8
 2747 09d8 78090000 		.4byte	0x978
 2748 09dc 08       		.uleb128 0x8
 2749 09dd 04       		.byte	0x4
 2750 09de E2090000 		.4byte	0x9e2
 2751 09e2 19       		.uleb128 0x19
 2752 09e3 1A       		.uleb128 0x1a
 2753 09e4 CB000000 		.4byte	.LASF310
 2754 09e8 01       		.byte	0x1
 2755 09e9 B804     		.2byte	0x4b8
 2756 09eb 00000000 		.4byte	.LFB15
 2757 09ef 78000000 		.4byte	.LFE15-.LFB15
 2758 09f3 01       		.uleb128 0x1
 2759 09f4 9C       		.byte	0x9c
 2760 09f5 780A0000 		.4byte	0xa78
 2761 09f9 1B       		.uleb128 0x1b
 2762 09fa 5A160000 		.4byte	.LASF224
 2763 09fe 01       		.byte	0x1
 2764 09ff B804     		.2byte	0x4b8
 2765 0a01 780A0000 		.4byte	0xa78
 2766 0a05 00000000 		.4byte	.LLST0
 2767 0a09 1B       		.uleb128 0x1b
 2768 0a0a CD140000 		.4byte	.LASF225
 2769 0a0e 01       		.byte	0x1
 2770 0a0f B804     		.2byte	0x4b8
 2771 0a11 6B000000 		.4byte	0x6b
 2772 0a15 21000000 		.4byte	.LLST1
 2773 0a19 1C       		.uleb128 0x1c
 2774 0a1a 6900     		.ascii	"i\000"
 2775 0a1c 01       		.byte	0x1
 2776 0a1d BA04     		.2byte	0x4ba
 2777 0a1f 6B000000 		.4byte	0x6b
 2778 0a23 42000000 		.4byte	.LLST2
 2779 0a27 1D       		.uleb128 0x1d
 2780 0a28 29100000 		.4byte	.LASF226
 2781 0a2c 01       		.byte	0x1
 2782 0a2d BB04     		.2byte	0x4bb
 2783 0a2f 6B000000 		.4byte	0x6b
 2784 0a33 76000000 		.4byte	.LLST3
 2785 0a37 1D       		.uleb128 0x1d
 2786 0a38 AC1A0000 		.4byte	.LASF227
 2787 0a3c 01       		.byte	0x1
 2788 0a3d BC04     		.2byte	0x4bc
 2789 0a3f 6B000000 		.4byte	0x6b
 2790 0a43 95000000 		.4byte	.LLST4
 2791 0a47 1D       		.uleb128 0x1d
 2792 0a48 CE180000 		.4byte	.LASF228
 2793 0a4c 01       		.byte	0x1
 2794 0a4d BD04     		.2byte	0x4bd
 2795 0a4f 6B000000 		.4byte	0x6b
 2796 0a53 BF000000 		.4byte	.LLST5
 2797 0a57 1D       		.uleb128 0x1d
 2798 0a58 EA000000 		.4byte	.LASF229
 2799 0a5c 01       		.byte	0x1
 2800 0a5d BE04     		.2byte	0x4be
 2801 0a5f E0040000 		.4byte	0x4e0
 2802 0a63 FF000000 		.4byte	.LLST6
ARM GAS  C:\Users\Sarah\AppData\Local\Temp\ccLQenA3.s 			page 79


 2803 0a67 1D       		.uleb128 0x1d
 2804 0a68 AC0A0000 		.4byte	.LASF230
 2805 0a6c 01       		.byte	0x1
 2806 0a6d BF04     		.2byte	0x4bf
 2807 0a6f 6B000000 		.4byte	0x6b
 2808 0a73 32010000 		.4byte	.LLST7
 2809 0a77 00       		.byte	0
 2810 0a78 08       		.uleb128 0x8
 2811 0a79 04       		.byte	0x4
 2812 0a7a 7E0A0000 		.4byte	0xa7e
 2813 0a7e 1E       		.uleb128 0x1e
 2814 0a7f 9D000000 		.4byte	0x9d
 2815 0a83 1F       		.uleb128 0x1f
 2816 0a84 51030000 		.4byte	.LASF231
 2817 0a88 01       		.byte	0x1
 2818 0a89 D9       		.byte	0xd9
 2819 0a8a 00000000 		.4byte	.LFB3
 2820 0a8e 08000000 		.4byte	.LFE3-.LFB3
 2821 0a92 01       		.uleb128 0x1
 2822 0a93 9C       		.byte	0x9c
 2823 0a94 A20A0000 		.4byte	0xaa2
 2824 0a98 20       		.uleb128 0x20
 2825 0a99 06000000 		.4byte	.LVL26
 2826 0a9d 8E120000 		.4byte	0x128e
 2827 0aa1 00       		.byte	0
 2828 0aa2 1F       		.uleb128 0x1f
 2829 0aa3 E7070000 		.4byte	.LASF232
 2830 0aa7 01       		.byte	0x1
 2831 0aa8 A8       		.byte	0xa8
 2832 0aa9 00000000 		.4byte	.LFB2
 2833 0aad 7C000000 		.4byte	.LFE2-.LFB2
 2834 0ab1 01       		.uleb128 0x1
 2835 0ab2 9C       		.byte	0x9c
 2836 0ab3 C10A0000 		.4byte	0xac1
 2837 0ab7 20       		.uleb128 0x20
 2838 0ab8 4C000000 		.4byte	.LVL27
 2839 0abc 830A0000 		.4byte	0xa83
 2840 0ac0 00       		.byte	0
 2841 0ac1 21       		.uleb128 0x21
 2842 0ac2 70150000 		.4byte	.LASF241
 2843 0ac6 01       		.byte	0x1
 2844 0ac7 A701     		.2byte	0x1a7
 2845 0ac9 BB030000 		.4byte	0x3bb
 2846 0acd 00000000 		.4byte	.LFB4
 2847 0ad1 B0000000 		.4byte	.LFE4-.LFB4
 2848 0ad5 01       		.uleb128 0x1
 2849 0ad6 9C       		.byte	0x9c
 2850 0ad7 DC0B0000 		.4byte	0xbdc
 2851 0adb 1B       		.uleb128 0x1b
 2852 0adc 43020000 		.4byte	.LASF233
 2853 0ae0 01       		.byte	0x1
 2854 0ae1 A701     		.2byte	0x1a7
 2855 0ae3 BD080000 		.4byte	0x8bd
 2856 0ae7 50010000 		.4byte	.LLST8
 2857 0aeb 1D       		.uleb128 0x1d
 2858 0aec 87000000 		.4byte	.LASF234
 2859 0af0 01       		.byte	0x1
ARM GAS  C:\Users\Sarah\AppData\Local\Temp\ccLQenA3.s 			page 80


 2860 0af1 A901     		.2byte	0x1a9
 2861 0af3 BB030000 		.4byte	0x3bb
 2862 0af7 7C010000 		.4byte	.LLST9
 2863 0afb 22       		.uleb128 0x22
 2864 0afc 11090000 		.4byte	.LASF235
 2865 0b00 01       		.byte	0x1
 2866 0b01 AD01     		.2byte	0x1ad
 2867 0b03 DC0B0000 		.4byte	0xbdc
 2868 0b07 02       		.uleb128 0x2
 2869 0b08 91       		.byte	0x91
 2870 0b09 64       		.sleb128 -28
 2871 0b0a 23       		.uleb128 0x23
 2872 0b0b 2E000000 		.4byte	.LBB2
 2873 0b0f 24000000 		.4byte	.LBE2-.LBB2
 2874 0b13 6A0B0000 		.4byte	0xb6a
 2875 0b17 22       		.uleb128 0x22
 2876 0b18 88150000 		.4byte	.LASF236
 2877 0b1c 01       		.byte	0x1
 2878 0b1d CF01     		.2byte	0x1cf
 2879 0b1f 68040000 		.4byte	0x468
 2880 0b23 02       		.uleb128 0x2
 2881 0b24 91       		.byte	0x91
 2882 0b25 50       		.sleb128 -48
 2883 0b26 22       		.uleb128 0x22
 2884 0b27 2D120000 		.4byte	.LASF237
 2885 0b2b 01       		.byte	0x1
 2886 0b2c D001     		.2byte	0x1d0
 2887 0b2e 8B040000 		.4byte	0x48b
 2888 0b32 02       		.uleb128 0x2
 2889 0b33 91       		.byte	0x91
 2890 0b34 4C       		.sleb128 -52
 2891 0b35 22       		.uleb128 0x22
 2892 0b36 B4030000 		.4byte	.LASF238
 2893 0b3a 01       		.byte	0x1
 2894 0b3b D101     		.2byte	0x1d1
 2895 0b3d D4040000 		.4byte	0x4d4
 2896 0b41 02       		.uleb128 0x2
 2897 0b42 91       		.byte	0x91
 2898 0b43 58       		.sleb128 -40
 2899 0b44 22       		.uleb128 0x22
 2900 0b45 35090000 		.4byte	.LASF239
 2901 0b49 01       		.byte	0x1
 2902 0b4a D201     		.2byte	0x1d2
 2903 0b4c 77000000 		.4byte	0x77
 2904 0b50 02       		.uleb128 0x2
 2905 0b51 91       		.byte	0x91
 2906 0b52 4E       		.sleb128 -50
 2907 0b53 24       		.uleb128 0x24
 2908 0b54 52000000 		.4byte	.LVL33
 2909 0b58 95120000 		.4byte	0x1295
 2910 0b5c 25       		.uleb128 0x25
 2911 0b5d 01       		.uleb128 0x1
 2912 0b5e 51       		.byte	0x51
 2913 0b5f 02       		.uleb128 0x2
 2914 0b60 91       		.byte	0x91
 2915 0b61 4E       		.sleb128 -50
 2916 0b62 25       		.uleb128 0x25
ARM GAS  C:\Users\Sarah\AppData\Local\Temp\ccLQenA3.s 			page 81


 2917 0b63 01       		.uleb128 0x1
 2918 0b64 50       		.byte	0x50
 2919 0b65 02       		.uleb128 0x2
 2920 0b66 91       		.byte	0x91
 2921 0b67 58       		.sleb128 -40
 2922 0b68 00       		.byte	0
 2923 0b69 00       		.byte	0
 2924 0b6a 26       		.uleb128 0x26
 2925 0b6b 10000000 		.4byte	.LVL31
 2926 0b6f BB120000 		.4byte	0x12bb
 2927 0b73 8C0B0000 		.4byte	0xb8c
 2928 0b77 25       		.uleb128 0x25
 2929 0b78 01       		.uleb128 0x1
 2930 0b79 52       		.byte	0x52
 2931 0b7a 01       		.uleb128 0x1
 2932 0b7b 44       		.byte	0x44
 2933 0b7c 25       		.uleb128 0x25
 2934 0b7d 01       		.uleb128 0x1
 2935 0b7e 51       		.byte	0x51
 2936 0b7f 05       		.uleb128 0x5
 2937 0b80 03       		.byte	0x3
 2938 0b81 00000000 		.4byte	.LANCHOR2
 2939 0b85 25       		.uleb128 0x25
 2940 0b86 01       		.uleb128 0x1
 2941 0b87 50       		.byte	0x50
 2942 0b88 02       		.uleb128 0x2
 2943 0b89 91       		.byte	0x91
 2944 0b8a 64       		.sleb128 -28
 2945 0b8b 00       		.byte	0
 2946 0b8c 20       		.uleb128 0x20
 2947 0b8d 1E000000 		.4byte	.LVL32
 2948 0b91 A20A0000 		.4byte	0xaa2
 2949 0b95 26       		.uleb128 0x26
 2950 0b96 70000000 		.4byte	.LVL35
 2951 0b9a D8120000 		.4byte	0x12d8
 2952 0b9e C70B0000 		.4byte	0xbc7
 2953 0ba2 25       		.uleb128 0x25
 2954 0ba3 01       		.uleb128 0x1
 2955 0ba4 53       		.byte	0x53
 2956 0ba5 02       		.uleb128 0x2
 2957 0ba6 91       		.byte	0x91
 2958 0ba7 64       		.sleb128 -28
 2959 0ba8 25       		.uleb128 0x25
 2960 0ba9 01       		.uleb128 0x1
 2961 0baa 52       		.byte	0x52
 2962 0bab 03       		.uleb128 0x3
 2963 0bac 0A       		.byte	0xa
 2964 0bad E00A     		.2byte	0xae0
 2965 0baf 25       		.uleb128 0x25
 2966 0bb0 01       		.uleb128 0x1
 2967 0bb1 51       		.byte	0x51
 2968 0bb2 05       		.uleb128 0x5
 2969 0bb3 03       		.byte	0x3
 2970 0bb4 00000000 		.4byte	.LANCHOR3
 2971 0bb8 25       		.uleb128 0x25
 2972 0bb9 02       		.uleb128 0x2
 2973 0bba 7D       		.byte	0x7d
ARM GAS  C:\Users\Sarah\AppData\Local\Temp\ccLQenA3.s 			page 82


 2974 0bbb 08       		.sleb128 8
 2975 0bbc 03       		.uleb128 0x3
 2976 0bbd 0A       		.byte	0xa
 2977 0bbe 7902     		.2byte	0x279
 2978 0bc0 25       		.uleb128 0x25
 2979 0bc1 02       		.uleb128 0x2
 2980 0bc2 7D       		.byte	0x7d
 2981 0bc3 00       		.sleb128 0
 2982 0bc4 01       		.uleb128 0x1
 2983 0bc5 35       		.byte	0x35
 2984 0bc6 00       		.byte	0
 2985 0bc7 24       		.uleb128 0x24
 2986 0bc8 84000000 		.4byte	.LVL37
 2987 0bcc 12130000 		.4byte	0x1312
 2988 0bd0 25       		.uleb128 0x25
 2989 0bd1 01       		.uleb128 0x1
 2990 0bd2 52       		.byte	0x52
 2991 0bd3 01       		.uleb128 0x1
 2992 0bd4 3B       		.byte	0x3b
 2993 0bd5 25       		.uleb128 0x25
 2994 0bd6 01       		.uleb128 0x1
 2995 0bd7 51       		.byte	0x51
 2996 0bd8 01       		.uleb128 0x1
 2997 0bd9 46       		.byte	0x46
 2998 0bda 00       		.byte	0
 2999 0bdb 00       		.byte	0
 3000 0bdc 0F       		.uleb128 0xf
 3001 0bdd 2B040000 		.4byte	0x42b
 3002 0be1 EC0B0000 		.4byte	0xbec
 3003 0be5 10       		.uleb128 0x10
 3004 0be6 C0000000 		.4byte	0xc0
 3005 0bea 04       		.byte	0x4
 3006 0beb 00       		.byte	0
 3007 0bec 27       		.uleb128 0x27
 3008 0bed 4B0D0000 		.4byte	.LASF240
 3009 0bf1 01       		.byte	0x1
 3010 0bf2 2C02     		.2byte	0x22c
 3011 0bf4 00000000 		.4byte	.LFB5
 3012 0bf8 14000000 		.4byte	.LFE5-.LFB5
 3013 0bfc 01       		.uleb128 0x1
 3014 0bfd 9C       		.byte	0x9c
 3015 0bfe 0C0C0000 		.4byte	0xc0c
 3016 0c02 20       		.uleb128 0x20
 3017 0c03 06000000 		.4byte	.LVL41
 3018 0c07 3D130000 		.4byte	0x133d
 3019 0c0b 00       		.byte	0
 3020 0c0c 21       		.uleb128 0x21
 3021 0c0d 96180000 		.4byte	.LASF242
 3022 0c11 01       		.byte	0x1
 3023 0c12 6302     		.2byte	0x263
 3024 0c14 BB030000 		.4byte	0x3bb
 3025 0c18 00000000 		.4byte	.LFB6
 3026 0c1c EC000000 		.4byte	.LFE6-.LFB6
 3027 0c20 01       		.uleb128 0x1
 3028 0c21 9C       		.byte	0x9c
 3029 0c22 E00C0000 		.4byte	0xce0
 3030 0c26 1B       		.uleb128 0x1b
ARM GAS  C:\Users\Sarah\AppData\Local\Temp\ccLQenA3.s 			page 83


 3031 0c27 D2130000 		.4byte	.LASF243
 3032 0c2b 01       		.byte	0x1
 3033 0c2c 6302     		.2byte	0x263
 3034 0c2e 6B000000 		.4byte	0x6b
 3035 0c32 C8010000 		.4byte	.LLST10
 3036 0c36 1D       		.uleb128 0x1d
 3037 0c37 87000000 		.4byte	.LASF234
 3038 0c3b 01       		.byte	0x1
 3039 0c3c 6502     		.2byte	0x265
 3040 0c3e BB030000 		.4byte	0x3bb
 3041 0c42 02020000 		.4byte	.LLST11
 3042 0c46 23       		.uleb128 0x23
 3043 0c47 7C000000 		.4byte	.LBB3
 3044 0c4b 28000000 		.4byte	.LBE3-.LBB3
 3045 0c4f 7E0C0000 		.4byte	0xc7e
 3046 0c53 22       		.uleb128 0x22
 3047 0c54 9B0F0000 		.4byte	.LASF244
 3048 0c58 01       		.byte	0x1
 3049 0c59 8902     		.2byte	0x289
 3050 0c5b 17090000 		.4byte	0x917
 3051 0c5f 02       		.uleb128 0x2
 3052 0c60 91       		.byte	0x91
 3053 0c61 64       		.sleb128 -28
 3054 0c62 24       		.uleb128 0x24
 3055 0c63 94000000 		.4byte	.LVL53
 3056 0c67 45130000 		.4byte	0x1345
 3057 0c6b 25       		.uleb128 0x25
 3058 0c6c 01       		.uleb128 0x1
 3059 0c6d 53       		.byte	0x53
 3060 0c6e 02       		.uleb128 0x2
 3061 0c6f 74       		.byte	0x74
 3062 0c70 00       		.sleb128 0
 3063 0c71 25       		.uleb128 0x25
 3064 0c72 01       		.uleb128 0x1
 3065 0c73 52       		.byte	0x52
 3066 0c74 01       		.uleb128 0x1
 3067 0c75 44       		.byte	0x44
 3068 0c76 25       		.uleb128 0x25
 3069 0c77 01       		.uleb128 0x1
 3070 0c78 50       		.byte	0x50
 3071 0c79 02       		.uleb128 0x2
 3072 0c7a 91       		.byte	0x91
 3073 0c7b 64       		.sleb128 -28
 3074 0c7c 00       		.byte	0
 3075 0c7d 00       		.byte	0
 3076 0c7e 23       		.uleb128 0x23
 3077 0c7f A4000000 		.4byte	.LBB4
 3078 0c83 2C000000 		.4byte	.LBE4-.LBB4
 3079 0c87 B60C0000 		.4byte	0xcb6
 3080 0c8b 22       		.uleb128 0x22
 3081 0c8c 9B0F0000 		.4byte	.LASF244
 3082 0c90 01       		.byte	0x1
 3083 0c91 9602     		.2byte	0x296
 3084 0c93 E00C0000 		.4byte	0xce0
 3085 0c97 02       		.uleb128 0x2
 3086 0c98 91       		.byte	0x91
 3087 0c99 64       		.sleb128 -28
ARM GAS  C:\Users\Sarah\AppData\Local\Temp\ccLQenA3.s 			page 84


 3088 0c9a 24       		.uleb128 0x24
 3089 0c9b C2000000 		.4byte	.LVL55
 3090 0c9f 45130000 		.4byte	0x1345
 3091 0ca3 25       		.uleb128 0x25
 3092 0ca4 01       		.uleb128 0x1
 3093 0ca5 53       		.byte	0x53
 3094 0ca6 02       		.uleb128 0x2
 3095 0ca7 74       		.byte	0x74
 3096 0ca8 00       		.sleb128 0
 3097 0ca9 25       		.uleb128 0x25
 3098 0caa 01       		.uleb128 0x1
 3099 0cab 52       		.byte	0x52
 3100 0cac 01       		.uleb128 0x1
 3101 0cad 34       		.byte	0x34
 3102 0cae 25       		.uleb128 0x25
 3103 0caf 01       		.uleb128 0x1
 3104 0cb0 50       		.byte	0x50
 3105 0cb1 02       		.uleb128 0x2
 3106 0cb2 91       		.byte	0x91
 3107 0cb3 64       		.sleb128 -28
 3108 0cb4 00       		.byte	0
 3109 0cb5 00       		.byte	0
 3110 0cb6 26       		.uleb128 0x26
 3111 0cb7 12000000 		.4byte	.LVL44
 3112 0cbb 69130000 		.4byte	0x1369
 3113 0cbf CA0C0000 		.4byte	0xcca
 3114 0cc3 25       		.uleb128 0x25
 3115 0cc4 01       		.uleb128 0x1
 3116 0cc5 50       		.byte	0x50
 3117 0cc6 02       		.uleb128 0x2
 3118 0cc7 74       		.byte	0x74
 3119 0cc8 00       		.sleb128 0
 3120 0cc9 00       		.byte	0
 3121 0cca 24       		.uleb128 0x24
 3122 0ccb 58000000 		.4byte	.LVL50
 3123 0ccf 45130000 		.4byte	0x1345
 3124 0cd3 25       		.uleb128 0x25
 3125 0cd4 01       		.uleb128 0x1
 3126 0cd5 53       		.byte	0x53
 3127 0cd6 02       		.uleb128 0x2
 3128 0cd7 74       		.byte	0x74
 3129 0cd8 00       		.sleb128 0
 3130 0cd9 25       		.uleb128 0x25
 3131 0cda 01       		.uleb128 0x1
 3132 0cdb 52       		.byte	0x52
 3133 0cdc 01       		.uleb128 0x1
 3134 0cdd 34       		.byte	0x34
 3135 0cde 00       		.byte	0
 3136 0cdf 00       		.byte	0
 3137 0ce0 0F       		.uleb128 0xf
 3138 0ce1 6B000000 		.4byte	0x6b
 3139 0ce5 F00C0000 		.4byte	0xcf0
 3140 0ce9 10       		.uleb128 0x10
 3141 0cea C0000000 		.4byte	0xc0
 3142 0cee 03       		.byte	0x3
 3143 0cef 00       		.byte	0
 3144 0cf0 21       		.uleb128 0x21
ARM GAS  C:\Users\Sarah\AppData\Local\Temp\ccLQenA3.s 			page 85


 3145 0cf1 FE040000 		.4byte	.LASF245
 3146 0cf5 01       		.byte	0x1
 3147 0cf6 C502     		.2byte	0x2c5
 3148 0cf8 BB030000 		.4byte	0x3bb
 3149 0cfc 00000000 		.4byte	.LFB7
 3150 0d00 70000000 		.4byte	.LFE7-.LFB7
 3151 0d04 01       		.uleb128 0x1
 3152 0d05 9C       		.byte	0x9c
 3153 0d06 9C0D0000 		.4byte	0xd9c
 3154 0d0a 1B       		.uleb128 0x1b
 3155 0d0b 6D180000 		.4byte	.LASF125
 3156 0d0f 01       		.byte	0x1
 3157 0d10 C502     		.2byte	0x2c5
 3158 0d12 9C0D0000 		.4byte	0xd9c
 3159 0d16 59020000 		.4byte	.LLST12
 3160 0d1a 1D       		.uleb128 0x1d
 3161 0d1b 87000000 		.4byte	.LASF234
 3162 0d1f 01       		.byte	0x1
 3163 0d20 C702     		.2byte	0x2c7
 3164 0d22 BB030000 		.4byte	0x3bb
 3165 0d26 90020000 		.4byte	.LLST13
 3166 0d2a 28       		.uleb128 0x28
 3167 0d2b 0E000000 		.4byte	.LBB5
 3168 0d2f 54000000 		.4byte	.LBE5-.LBB5
 3169 0d33 22       		.uleb128 0x22
 3170 0d34 8A010000 		.4byte	.LASF246
 3171 0d38 01       		.byte	0x1
 3172 0d39 CE02     		.2byte	0x2ce
 3173 0d3b 6B000000 		.4byte	0x6b
 3174 0d3f 02       		.uleb128 0x2
 3175 0d40 91       		.byte	0x91
 3176 0d41 67       		.sleb128 -25
 3177 0d42 22       		.uleb128 0x22
 3178 0d43 58190000 		.4byte	.LASF247
 3179 0d47 01       		.byte	0x1
 3180 0d48 CF02     		.2byte	0x2cf
 3181 0d4a FB030000 		.4byte	0x3fb
 3182 0d4e 02       		.uleb128 0x2
 3183 0d4f 91       		.byte	0x91
 3184 0d50 68       		.sleb128 -24
 3185 0d51 26       		.uleb128 0x26
 3186 0d52 26000000 		.4byte	.LVL59
 3187 0d56 7E130000 		.4byte	0x137e
 3188 0d5a 700D0000 		.4byte	0xd70
 3189 0d5e 25       		.uleb128 0x25
 3190 0d5f 01       		.uleb128 0x1
 3191 0d60 52       		.byte	0x52
 3192 0d61 01       		.uleb128 0x1
 3193 0d62 36       		.byte	0x36
 3194 0d63 25       		.uleb128 0x25
 3195 0d64 01       		.uleb128 0x1
 3196 0d65 51       		.byte	0x51
 3197 0d66 02       		.uleb128 0x2
 3198 0d67 91       		.byte	0x91
 3199 0d68 68       		.sleb128 -24
 3200 0d69 25       		.uleb128 0x25
 3201 0d6a 01       		.uleb128 0x1
ARM GAS  C:\Users\Sarah\AppData\Local\Temp\ccLQenA3.s 			page 86


 3202 0d6b 50       		.byte	0x50
 3203 0d6c 02       		.uleb128 0x2
 3204 0d6d 74       		.byte	0x74
 3205 0d6e 00       		.sleb128 0
 3206 0d6f 00       		.byte	0
 3207 0d70 26       		.uleb128 0x26
 3208 0d71 3E000000 		.4byte	.LVL60
 3209 0d75 9D130000 		.4byte	0x139d
 3210 0d79 8A0D0000 		.4byte	0xd8a
 3211 0d7d 25       		.uleb128 0x25
 3212 0d7e 01       		.uleb128 0x1
 3213 0d7f 51       		.byte	0x51
 3214 0d80 02       		.uleb128 0x2
 3215 0d81 74       		.byte	0x74
 3216 0d82 00       		.sleb128 0
 3217 0d83 25       		.uleb128 0x25
 3218 0d84 01       		.uleb128 0x1
 3219 0d85 50       		.byte	0x50
 3220 0d86 02       		.uleb128 0x2
 3221 0d87 7D       		.byte	0x7d
 3222 0d88 07       		.sleb128 7
 3223 0d89 00       		.byte	0
 3224 0d8a 24       		.uleb128 0x24
 3225 0d8b 60000000 		.4byte	.LVL63
 3226 0d8f B8130000 		.4byte	0x13b8
 3227 0d93 25       		.uleb128 0x25
 3228 0d94 01       		.uleb128 0x1
 3229 0d95 50       		.byte	0x50
 3230 0d96 02       		.uleb128 0x2
 3231 0d97 74       		.byte	0x74
 3232 0d98 00       		.sleb128 0
 3233 0d99 00       		.byte	0
 3234 0d9a 00       		.byte	0
 3235 0d9b 00       		.byte	0
 3236 0d9c 08       		.uleb128 0x8
 3237 0d9d 04       		.byte	0x4
 3238 0d9e FB030000 		.4byte	0x3fb
 3239 0da2 21       		.uleb128 0x21
 3240 0da3 2D060000 		.4byte	.LASF248
 3241 0da7 01       		.byte	0x1
 3242 0da8 2603     		.2byte	0x326
 3243 0daa BB030000 		.4byte	0x3bb
 3244 0dae 00000000 		.4byte	.LFB8
 3245 0db2 84000000 		.4byte	.LFE8-.LFB8
 3246 0db6 01       		.uleb128 0x1
 3247 0db7 9C       		.byte	0x9c
 3248 0db8 F00D0000 		.4byte	0xdf0
 3249 0dbc 1B       		.uleb128 0x1b
 3250 0dbd 63030000 		.4byte	.LASF249
 3251 0dc1 01       		.byte	0x1
 3252 0dc2 2603     		.2byte	0x326
 3253 0dc4 6B000000 		.4byte	0x6b
 3254 0dc8 D1020000 		.4byte	.LLST14
 3255 0dcc 1D       		.uleb128 0x1d
 3256 0dcd 87000000 		.4byte	.LASF234
 3257 0dd1 01       		.byte	0x1
 3258 0dd2 2803     		.2byte	0x328
ARM GAS  C:\Users\Sarah\AppData\Local\Temp\ccLQenA3.s 			page 87


 3259 0dd4 BB030000 		.4byte	0x3bb
 3260 0dd8 49030000 		.4byte	.LLST15
 3261 0ddc 24       		.uleb128 0x24
 3262 0ddd 54000000 		.4byte	.LVL68
 3263 0de1 CE130000 		.4byte	0x13ce
 3264 0de5 25       		.uleb128 0x25
 3265 0de6 01       		.uleb128 0x1
 3266 0de7 50       		.byte	0x50
 3267 0de8 05       		.uleb128 0x5
 3268 0de9 03       		.byte	0x3
 3269 0dea 2C000000 		.4byte	.LANCHOR0+44
 3270 0dee 00       		.byte	0
 3271 0def 00       		.byte	0
 3272 0df0 27       		.uleb128 0x27
 3273 0df1 AC080000 		.4byte	.LASF250
 3274 0df5 01       		.byte	0x1
 3275 0df6 6303     		.2byte	0x363
 3276 0df8 00000000 		.4byte	.LFB9
 3277 0dfc 18000000 		.4byte	.LFE9-.LFB9
 3278 0e00 01       		.uleb128 0x1
 3279 0e01 9C       		.byte	0x9c
 3280 0e02 100E0000 		.4byte	0xe10
 3281 0e06 20       		.uleb128 0x20
 3282 0e07 06000000 		.4byte	.LVL76
 3283 0e0b EA130000 		.4byte	0x13ea
 3284 0e0f 00       		.byte	0
 3285 0e10 27       		.uleb128 0x27
 3286 0e11 F50C0000 		.4byte	.LASF251
 3287 0e15 01       		.byte	0x1
 3288 0e16 7903     		.2byte	0x379
 3289 0e18 00000000 		.4byte	.LFB10
 3290 0e1c 02000000 		.4byte	.LFE10-.LFB10
 3291 0e20 01       		.uleb128 0x1
 3292 0e21 9C       		.byte	0x9c
 3293 0e22 5A0E0000 		.4byte	0xe5a
 3294 0e26 29       		.uleb128 0x29
 3295 0e27 6D180000 		.4byte	.LASF125
 3296 0e2b 01       		.byte	0x1
 3297 0e2c 7903     		.2byte	0x379
 3298 0e2e 5A0E0000 		.4byte	0xe5a
 3299 0e32 01       		.uleb128 0x1
 3300 0e33 50       		.byte	0x50
 3301 0e34 29       		.uleb128 0x29
 3302 0e35 CD140000 		.4byte	.LASF225
 3303 0e39 01       		.byte	0x1
 3304 0e3a 7903     		.2byte	0x379
 3305 0e3c 6B000000 		.4byte	0x6b
 3306 0e40 01       		.uleb128 0x1
 3307 0e41 51       		.byte	0x51
 3308 0e42 2A       		.uleb128 0x2a
 3309 0e43 6900     		.ascii	"i\000"
 3310 0e45 01       		.byte	0x1
 3311 0e46 7B03     		.2byte	0x37b
 3312 0e48 6B000000 		.4byte	0x6b
 3313 0e4c 2B       		.uleb128 0x2b
 3314 0e4d EA000000 		.4byte	.LASF229
 3315 0e51 01       		.byte	0x1
ARM GAS  C:\Users\Sarah\AppData\Local\Temp\ccLQenA3.s 			page 88


 3316 0e52 7C03     		.2byte	0x37c
 3317 0e54 E0040000 		.4byte	0x4e0
 3318 0e58 00       		.byte	0
 3319 0e59 00       		.byte	0
 3320 0e5a 08       		.uleb128 0x8
 3321 0e5b 04       		.byte	0x4
 3322 0e5c 600E0000 		.4byte	0xe60
 3323 0e60 1E       		.uleb128 0x1e
 3324 0e61 FB030000 		.4byte	0x3fb
 3325 0e65 21       		.uleb128 0x21
 3326 0e66 97130000 		.4byte	.LASF252
 3327 0e6a 01       		.byte	0x1
 3328 0e6b E303     		.2byte	0x3e3
 3329 0e6d BB030000 		.4byte	0x3bb
 3330 0e71 00000000 		.4byte	.LFB11
 3331 0e75 58000000 		.4byte	.LFE11-.LFB11
 3332 0e79 01       		.uleb128 0x1
 3333 0e7a 9C       		.byte	0x9c
 3334 0e7b B30E0000 		.4byte	0xeb3
 3335 0e7f 1B       		.uleb128 0x1b
 3336 0e80 B6010000 		.4byte	.LASF253
 3337 0e84 01       		.byte	0x1
 3338 0e85 E303     		.2byte	0x3e3
 3339 0e87 6B000000 		.4byte	0x6b
 3340 0e8b 67030000 		.4byte	.LLST16
 3341 0e8f 1D       		.uleb128 0x1d
 3342 0e90 87000000 		.4byte	.LASF234
 3343 0e94 01       		.byte	0x1
 3344 0e95 E503     		.2byte	0x3e5
 3345 0e97 BB030000 		.4byte	0x3bb
 3346 0e9b AD030000 		.4byte	.LLST17
 3347 0e9f 24       		.uleb128 0x24
 3348 0ea0 38000000 		.4byte	.LVL80
 3349 0ea4 F2130000 		.4byte	0x13f2
 3350 0ea8 25       		.uleb128 0x25
 3351 0ea9 01       		.uleb128 0x1
 3352 0eaa 50       		.byte	0x50
 3353 0eab 05       		.uleb128 0x5
 3354 0eac 03       		.byte	0x3
 3355 0ead 20000000 		.4byte	.LANCHOR0+32
 3356 0eb1 00       		.byte	0
 3357 0eb2 00       		.byte	0
 3358 0eb3 27       		.uleb128 0x27
 3359 0eb4 70020000 		.4byte	.LASF254
 3360 0eb8 01       		.byte	0x1
 3361 0eb9 1B04     		.2byte	0x41b
 3362 0ebb 00000000 		.4byte	.LFB12
 3363 0ebf 18000000 		.4byte	.LFE12-.LFB12
 3364 0ec3 01       		.uleb128 0x1
 3365 0ec4 9C       		.byte	0x9c
 3366 0ec5 D30E0000 		.4byte	0xed3
 3367 0ec9 20       		.uleb128 0x20
 3368 0eca 06000000 		.4byte	.LVL83
 3369 0ece 0E140000 		.4byte	0x140e
 3370 0ed2 00       		.byte	0
 3371 0ed3 21       		.uleb128 0x21
 3372 0ed4 12000000 		.4byte	.LASF255
ARM GAS  C:\Users\Sarah\AppData\Local\Temp\ccLQenA3.s 			page 89


 3373 0ed8 01       		.byte	0x1
 3374 0ed9 5004     		.2byte	0x450
 3375 0edb BB030000 		.4byte	0x3bb
 3376 0edf 00000000 		.4byte	.LFB13
 3377 0ee3 5C000000 		.4byte	.LFE13-.LFB13
 3378 0ee7 01       		.uleb128 0x1
 3379 0ee8 9C       		.byte	0x9c
 3380 0ee9 3C0F0000 		.4byte	0xf3c
 3381 0eed 1B       		.uleb128 0x1b
 3382 0eee 9F0B0000 		.4byte	.LASF256
 3383 0ef2 01       		.byte	0x1
 3384 0ef3 5004     		.2byte	0x450
 3385 0ef5 5A0E0000 		.4byte	0xe5a
 3386 0ef9 CB030000 		.4byte	.LLST18
 3387 0efd 1D       		.uleb128 0x1d
 3388 0efe 87000000 		.4byte	.LASF234
 3389 0f02 01       		.byte	0x1
 3390 0f03 5204     		.2byte	0x452
 3391 0f05 BB030000 		.4byte	0x3bb
 3392 0f09 05040000 		.4byte	.LLST19
 3393 0f0d 1C       		.uleb128 0x1c
 3394 0f0e 6900     		.ascii	"i\000"
 3395 0f10 01       		.byte	0x1
 3396 0f11 5304     		.2byte	0x453
 3397 0f13 6B000000 		.4byte	0x6b
 3398 0f17 2E040000 		.4byte	.LLST20
 3399 0f1b 26       		.uleb128 0x26
 3400 0f1c 2C000000 		.4byte	.LVL90
 3401 0f20 16140000 		.4byte	0x1416
 3402 0f24 320F0000 		.4byte	0xf32
 3403 0f28 25       		.uleb128 0x25
 3404 0f29 01       		.uleb128 0x1
 3405 0f2a 50       		.byte	0x50
 3406 0f2b 05       		.uleb128 0x5
 3407 0f2c 03       		.byte	0x3
 3408 0f2d 00000000 		.4byte	cyBle_connectionParameters
 3409 0f31 00       		.byte	0
 3410 0f32 20       		.uleb128 0x20
 3411 0f33 42000000 		.4byte	.LVL93
 3412 0f37 32140000 		.4byte	0x1432
 3413 0f3b 00       		.byte	0
 3414 0f3c 21       		.uleb128 0x21
 3415 0f3d A4090000 		.4byte	.LASF257
 3416 0f41 01       		.byte	0x1
 3417 0f42 8804     		.2byte	0x488
 3418 0f44 BB030000 		.4byte	0x3bb
 3419 0f48 00000000 		.4byte	.LFB14
 3420 0f4c 38000000 		.4byte	.LFE14-.LFB14
 3421 0f50 01       		.uleb128 0x1
 3422 0f51 9C       		.byte	0x9c
 3423 0f52 790F0000 		.4byte	0xf79
 3424 0f56 1D       		.uleb128 0x1d
 3425 0f57 87000000 		.4byte	.LASF234
 3426 0f5b 01       		.byte	0x1
 3427 0f5c 8A04     		.2byte	0x48a
 3428 0f5e BB030000 		.4byte	0x3bb
 3429 0f62 4C040000 		.4byte	.LLST21
ARM GAS  C:\Users\Sarah\AppData\Local\Temp\ccLQenA3.s 			page 90


 3430 0f66 20       		.uleb128 0x20
 3431 0f67 0E000000 		.4byte	.LVL97
 3432 0f6b 47140000 		.4byte	0x1447
 3433 0f6f 20       		.uleb128 0x20
 3434 0f70 1C000000 		.4byte	.LVL99
 3435 0f74 53140000 		.4byte	0x1453
 3436 0f78 00       		.byte	0
 3437 0f79 21       		.uleb128 0x21
 3438 0f7a B2160000 		.4byte	.LASF258
 3439 0f7e 01       		.byte	0x1
 3440 0f7f 1D05     		.2byte	0x51d
 3441 0f81 BB030000 		.4byte	0x3bb
 3442 0f85 00000000 		.4byte	.LFB16
 3443 0f89 60000000 		.4byte	.LFE16-.LFB16
 3444 0f8d 01       		.uleb128 0x1
 3445 0f8e 9C       		.byte	0x9c
 3446 0f8f 10100000 		.4byte	0x1010
 3447 0f93 1B       		.uleb128 0x1b
 3448 0f94 5A160000 		.4byte	.LASF224
 3449 0f98 01       		.byte	0x1
 3450 0f99 1D05     		.2byte	0x51d
 3451 0f9b 780A0000 		.4byte	0xa78
 3452 0f9f 75040000 		.4byte	.LLST22
 3453 0fa3 1D       		.uleb128 0x1d
 3454 0fa4 87000000 		.4byte	.LASF234
 3455 0fa8 01       		.byte	0x1
 3456 0fa9 1F05     		.2byte	0x51f
 3457 0fab BB030000 		.4byte	0x3bb
 3458 0faf AC040000 		.4byte	.LLST23
 3459 0fb3 1C       		.uleb128 0x1c
 3460 0fb4 6900     		.ascii	"i\000"
 3461 0fb6 01       		.byte	0x1
 3462 0fb7 2005     		.2byte	0x520
 3463 0fb9 6B000000 		.4byte	0x6b
 3464 0fbd CB040000 		.4byte	.LLST24
 3465 0fc1 1C       		.uleb128 0x1c
 3466 0fc2 70747200 		.ascii	"ptr\000"
 3467 0fc6 01       		.byte	0x1
 3468 0fc7 2105     		.2byte	0x521
 3469 0fc9 10100000 		.4byte	0x1010
 3470 0fcd F5040000 		.4byte	.LLST25
 3471 0fd1 1D       		.uleb128 0x1d
 3472 0fd2 64100000 		.4byte	.LASF259
 3473 0fd6 01       		.byte	0x1
 3474 0fd7 2205     		.2byte	0x522
 3475 0fd9 6B000000 		.4byte	0x6b
 3476 0fdd 08050000 		.4byte	.LLST26
 3477 0fe1 26       		.uleb128 0x26
 3478 0fe2 48000000 		.4byte	.LVL113
 3479 0fe6 E3090000 		.4byte	0x9e3
 3480 0fea FA0F0000 		.4byte	0xffa
 3481 0fee 25       		.uleb128 0x25
 3482 0fef 01       		.uleb128 0x1
 3483 0ff0 51       		.byte	0x51
 3484 0ff1 01       		.uleb128 0x1
 3485 0ff2 30       		.byte	0x30
 3486 0ff3 25       		.uleb128 0x25
ARM GAS  C:\Users\Sarah\AppData\Local\Temp\ccLQenA3.s 			page 91


 3487 0ff4 01       		.uleb128 0x1
 3488 0ff5 50       		.byte	0x50
 3489 0ff6 02       		.uleb128 0x2
 3490 0ff7 74       		.byte	0x74
 3491 0ff8 00       		.sleb128 0
 3492 0ff9 00       		.byte	0
 3493 0ffa 24       		.uleb128 0x24
 3494 0ffb 50000000 		.4byte	.LVL114
 3495 0fff E3090000 		.4byte	0x9e3
 3496 1003 25       		.uleb128 0x25
 3497 1004 01       		.uleb128 0x1
 3498 1005 51       		.byte	0x51
 3499 1006 01       		.uleb128 0x1
 3500 1007 31       		.byte	0x31
 3501 1008 25       		.uleb128 0x25
 3502 1009 01       		.uleb128 0x1
 3503 100a 50       		.byte	0x50
 3504 100b 02       		.uleb128 0x2
 3505 100c 74       		.byte	0x74
 3506 100d 00       		.sleb128 0
 3507 100e 00       		.byte	0
 3508 100f 00       		.byte	0
 3509 1010 08       		.uleb128 0x8
 3510 1011 04       		.byte	0x4
 3511 1012 9D000000 		.4byte	0x9d
 3512 1016 21       		.uleb128 0x21
 3513 1017 56070000 		.4byte	.LASF260
 3514 101b 01       		.byte	0x1
 3515 101c 6505     		.2byte	0x565
 3516 101e BB030000 		.4byte	0x3bb
 3517 1022 00000000 		.4byte	.LFB17
 3518 1026 48000000 		.4byte	.LFE17-.LFB17
 3519 102a 01       		.uleb128 0x1
 3520 102b 9C       		.byte	0x9c
 3521 102c 7F100000 		.4byte	0x107f
 3522 1030 1B       		.uleb128 0x1b
 3523 1031 5A160000 		.4byte	.LASF224
 3524 1035 01       		.byte	0x1
 3525 1036 6505     		.2byte	0x565
 3526 1038 10100000 		.4byte	0x1010
 3527 103c 1B050000 		.4byte	.LLST27
 3528 1040 1D       		.uleb128 0x1d
 3529 1041 87000000 		.4byte	.LASF234
 3530 1045 01       		.byte	0x1
 3531 1046 6705     		.2byte	0x567
 3532 1048 BB030000 		.4byte	0x3bb
 3533 104c 55050000 		.4byte	.LLST28
 3534 1050 1D       		.uleb128 0x1d
 3535 1051 64100000 		.4byte	.LASF259
 3536 1055 01       		.byte	0x1
 3537 1056 6805     		.2byte	0x568
 3538 1058 6B000000 		.4byte	0x6b
 3539 105c 74050000 		.4byte	.LLST29
 3540 1060 1C       		.uleb128 0x1c
 3541 1061 6900     		.ascii	"i\000"
 3542 1063 01       		.byte	0x1
 3543 1064 6905     		.2byte	0x569
ARM GAS  C:\Users\Sarah\AppData\Local\Temp\ccLQenA3.s 			page 92


 3544 1066 6B000000 		.4byte	0x6b
 3545 106a 87050000 		.4byte	.LLST30
 3546 106e 1C       		.uleb128 0x1c
 3547 106f 70747200 		.ascii	"ptr\000"
 3548 1073 01       		.byte	0x1
 3549 1074 6A05     		.2byte	0x56a
 3550 1076 10100000 		.4byte	0x1010
 3551 107a B1050000 		.4byte	.LLST31
 3552 107e 00       		.byte	0
 3553 107f 21       		.uleb128 0x21
 3554 1080 B0120000 		.4byte	.LASF261
 3555 1084 01       		.byte	0x1
 3556 1085 9705     		.2byte	0x597
 3557 1087 77000000 		.4byte	0x77
 3558 108b 00000000 		.4byte	.LFB18
 3559 108f 0A000000 		.4byte	.LFE18-.LFB18
 3560 1093 01       		.uleb128 0x1
 3561 1094 9C       		.byte	0x9c
 3562 1095 AA100000 		.4byte	0x10aa
 3563 1099 2C       		.uleb128 0x2c
 3564 109a 70747200 		.ascii	"ptr\000"
 3565 109e 01       		.byte	0x1
 3566 109f 9705     		.2byte	0x597
 3567 10a1 AA100000 		.4byte	0x10aa
 3568 10a5 C4050000 		.4byte	.LLST32
 3569 10a9 00       		.byte	0
 3570 10aa 08       		.uleb128 0x8
 3571 10ab 04       		.byte	0x4
 3572 10ac B0100000 		.4byte	0x10b0
 3573 10b0 1E       		.uleb128 0x1e
 3574 10b1 6B000000 		.4byte	0x6b
 3575 10b5 27       		.uleb128 0x27
 3576 10b6 2E100000 		.4byte	.LASF262
 3577 10ba 01       		.byte	0x1
 3578 10bb AA05     		.2byte	0x5aa
 3579 10bd 00000000 		.4byte	.LFB19
 3580 10c1 08000000 		.4byte	.LFE19-.LFB19
 3581 10c5 01       		.uleb128 0x1
 3582 10c6 9C       		.byte	0x9c
 3583 10c7 EA100000 		.4byte	0x10ea
 3584 10cb 2D       		.uleb128 0x2d
 3585 10cc 70747200 		.ascii	"ptr\000"
 3586 10d0 01       		.byte	0x1
 3587 10d1 AA05     		.2byte	0x5aa
 3588 10d3 E0040000 		.4byte	0x4e0
 3589 10d7 01       		.uleb128 0x1
 3590 10d8 50       		.byte	0x50
 3591 10d9 1B       		.uleb128 0x1b
 3592 10da 34140000 		.4byte	.LASF263
 3593 10de 01       		.byte	0x1
 3594 10df AA05     		.2byte	0x5aa
 3595 10e1 77000000 		.4byte	0x77
 3596 10e5 E5050000 		.4byte	.LLST33
 3597 10e9 00       		.byte	0
 3598 10ea 2E       		.uleb128 0x2e
 3599 10eb 8A080000 		.4byte	.LASF264
 3600 10ef 01       		.byte	0x1
ARM GAS  C:\Users\Sarah\AppData\Local\Temp\ccLQenA3.s 			page 93


 3601 10f0 94       		.byte	0x94
 3602 10f1 6B000000 		.4byte	0x6b
 3603 10f5 05       		.uleb128 0x5
 3604 10f6 03       		.byte	0x3
 3605 10f7 21000000 		.4byte	cyBle_pendingFlashClearCccdHandle
 3606 10fb 2F       		.uleb128 0x2f
 3607 10fc 43140000 		.4byte	.LASF265
 3608 1100 01       		.byte	0x1
 3609 1101 99       		.byte	0x99
 3610 1102 BD080000 		.4byte	0x8bd
 3611 1106 05       		.uleb128 0x5
 3612 1107 03       		.byte	0x3
 3613 1108 00000000 		.4byte	CyBle_ApplCallback
 3614 110c 2F       		.uleb128 0x2f
 3615 110d 65160000 		.4byte	.LASF266
 3616 1111 01       		.byte	0x1
 3617 1112 2B       		.byte	0x2b
 3618 1113 6B000000 		.4byte	0x6b
 3619 1117 05       		.uleb128 0x5
 3620 1118 03       		.byte	0x3
 3621 1119 00000000 		.4byte	cyBle_initVar
 3622 111d 0F       		.uleb128 0xf
 3623 111e 6B000000 		.4byte	0x6b
 3624 1122 2E110000 		.4byte	0x112e
 3625 1126 18       		.uleb128 0x18
 3626 1127 C0000000 		.4byte	0xc0
 3627 112b DF0A     		.2byte	0xadf
 3628 112d 00       		.byte	0
 3629 112e 2F       		.uleb128 0x2f
 3630 112f 1B180000 		.4byte	.LASF267
 3631 1133 01       		.byte	0x1
 3632 1134 36       		.byte	0x36
 3633 1135 1D110000 		.4byte	0x111d
 3634 1139 05       		.uleb128 0x5
 3635 113a 03       		.byte	0x3
 3636 113b 00000000 		.4byte	cyBle_stackMemoryRam
 3637 113f 30       		.uleb128 0x30
 3638 1140 7F180000 		.4byte	.LASF268
 3639 1144 08       		.byte	0x8
 3640 1145 A302     		.2byte	0x2a3
 3641 1147 B0000000 		.4byte	0xb0
 3642 114b 2F       		.uleb128 0x2f
 3643 114c 1E040000 		.4byte	.LASF269
 3644 1150 01       		.byte	0x1
 3645 1151 9A       		.byte	0x9a
 3646 1152 FB030000 		.4byte	0x3fb
 3647 1156 05       		.uleb128 0x5
 3648 1157 03       		.byte	0x3
 3649 1158 00000000 		.4byte	cyBle_deviceAddress
 3650 115c 2F       		.uleb128 0x2f
 3651 115d C5090000 		.4byte	.LASF270
 3652 1161 01       		.byte	0x1
 3653 1162 9B       		.byte	0x9b
 3654 1163 9C0D0000 		.4byte	0xd9c
 3655 1167 05       		.uleb128 0x5
 3656 1168 03       		.byte	0x3
 3657 1169 00000000 		.4byte	cyBle_sflashDeviceAddress
ARM GAS  C:\Users\Sarah\AppData\Local\Temp\ccLQenA3.s 			page 94


 3658 116d 2F       		.uleb128 0x2f
 3659 116e C2100000 		.4byte	.LASF271
 3660 1172 01       		.byte	0x1
 3661 1173 80       		.byte	0x80
 3662 1174 E1060000 		.4byte	0x6e1
 3663 1178 05       		.uleb128 0x5
 3664 1179 03       		.byte	0x3
 3665 117a 00000000 		.4byte	cyBle_discoveryInfo
 3666 117e 2F       		.uleb128 0x2f
 3667 117f 150A0000 		.4byte	.LASF272
 3668 1183 01       		.byte	0x1
 3669 1184 6F       		.byte	0x6f
 3670 1185 93070000 		.4byte	0x793
 3671 1189 05       		.uleb128 0x5
 3672 118a 03       		.byte	0x3
 3673 118b 00000000 		.4byte	cyBle_connectionParameters
 3674 118f 2F       		.uleb128 0x2f
 3675 1190 6C100000 		.4byte	.LASF273
 3676 1194 01       		.byte	0x1
 3677 1195 74       		.byte	0x74
 3678 1196 77000000 		.4byte	0x77
 3679 119a 05       		.uleb128 0x5
 3680 119b 03       		.byte	0x3
 3681 119c 00000000 		.4byte	cyBle_connectingTimeout
 3682 11a0 2F       		.uleb128 0x2f
 3683 11a1 F6030000 		.4byte	.LASF274
 3684 11a5 01       		.byte	0x1
 3685 11a6 3C       		.byte	0x3c
 3686 11a7 8A050000 		.4byte	0x58a
 3687 11ab 05       		.uleb128 0x5
 3688 11ac 03       		.byte	0x3
 3689 11ad 00000000 		.4byte	cyBle_discoveryParam
 3690 11b1 2F       		.uleb128 0x2f
 3691 11b2 D8190000 		.4byte	.LASF275
 3692 11b6 01       		.byte	0x1
 3693 11b7 48       		.byte	0x48
 3694 11b8 CA050000 		.4byte	0x5ca
 3695 11bc 05       		.uleb128 0x5
 3696 11bd 03       		.byte	0x3
 3697 11be 00000000 		.4byte	cyBle_discoveryData
 3698 11c2 2F       		.uleb128 0x2f
 3699 11c3 48110000 		.4byte	.LASF276
 3700 11c7 01       		.byte	0x1
 3701 11c8 51       		.byte	0x51
 3702 11c9 FA050000 		.4byte	0x5fa
 3703 11cd 05       		.uleb128 0x5
 3704 11ce 03       		.byte	0x3
 3705 11cf 00000000 		.4byte	cyBle_scanRspData
 3706 11d3 2F       		.uleb128 0x2f
 3707 11d4 E1170000 		.4byte	.LASF277
 3708 11d8 01       		.byte	0x1
 3709 11d9 61       		.byte	0x61
 3710 11da 63060000 		.4byte	0x663
 3711 11de 05       		.uleb128 0x5
 3712 11df 03       		.byte	0x3
 3713 11e0 00000000 		.4byte	cyBle_discoveryModeInfo
 3714 11e4 2F       		.uleb128 0x2f
ARM GAS  C:\Users\Sarah\AppData\Local\Temp\ccLQenA3.s 			page 95


 3715 11e5 28130000 		.4byte	.LASF278
 3716 11e9 01       		.byte	0x1
 3717 11ea 91       		.byte	0x91
 3718 11eb 6B000000 		.4byte	0x6b
 3719 11ef 05       		.uleb128 0x5
 3720 11f0 03       		.byte	0x3
 3721 11f1 00000000 		.4byte	cyBle_pendingFlashWrite
 3722 11f5 2F       		.uleb128 0x2f
 3723 11f6 00000000 		.4byte	.LASF279
 3724 11fa 01       		.byte	0x1
 3725 11fb 90       		.byte	0x90
 3726 11fc 6B000000 		.4byte	0x6b
 3727 1200 05       		.uleb128 0x5
 3728 1201 03       		.byte	0x3
 3729 1202 00000000 		.4byte	cyBle_peerBonding
 3730 1206 0F       		.uleb128 0xf
 3731 1207 B1080000 		.4byte	0x8b1
 3732 120b 16120000 		.4byte	0x1216
 3733 120f 10       		.uleb128 0x10
 3734 1210 C0000000 		.4byte	0xc0
 3735 1214 15       		.byte	0x15
 3736 1215 00       		.byte	0
 3737 1216 31       		.uleb128 0x31
 3738 1217 130F0000 		.4byte	.LASF280
 3739 121b 09       		.byte	0x9
 3740 121c E8       		.byte	0xe8
 3741 121d 21120000 		.4byte	0x1221
 3742 1221 1E       		.uleb128 0x1e
 3743 1222 06120000 		.4byte	0x1206
 3744 1226 31       		.uleb128 0x31
 3745 1227 0C190000 		.4byte	.LASF281
 3746 122b 09       		.byte	0x9
 3747 122c EC       		.byte	0xec
 3748 122d E00C0000 		.4byte	0xce0
 3749 1231 31       		.uleb128 0x31
 3750 1232 B40D0000 		.4byte	.LASF282
 3751 1236 09       		.byte	0x9
 3752 1237 F4       		.byte	0xf4
 3753 1238 3C120000 		.4byte	0x123c
 3754 123c 1E       		.uleb128 0x1e
 3755 123d 2D090000 		.4byte	0x92d
 3756 1241 30       		.uleb128 0x30
 3757 1242 7C150000 		.4byte	.LASF283
 3758 1246 0A       		.byte	0xa
 3759 1247 A90A     		.2byte	0xaa9
 3760 1249 6C090000 		.4byte	0x96c
 3761 124d 30       		.uleb128 0x30
 3762 124e 97160000 		.4byte	.LASF284
 3763 1252 0A       		.byte	0xa
 3764 1253 AA0A     		.2byte	0xaaa
 3765 1255 CF070000 		.4byte	0x7cf
 3766 1259 30       		.uleb128 0x30
 3767 125a D80C0000 		.4byte	.LASF285
 3768 125e 0A       		.byte	0xa
 3769 125f AB0A     		.2byte	0xaab
 3770 1261 B0000000 		.4byte	0xb0
 3771 1265 30       		.uleb128 0x30
ARM GAS  C:\Users\Sarah\AppData\Local\Temp\ccLQenA3.s 			page 96


 3772 1266 74180000 		.4byte	.LASF286
 3773 126a 0A       		.byte	0xa
 3774 126b AC0A     		.2byte	0xaac
 3775 126d 71120000 		.4byte	0x1271
 3776 1271 1E       		.uleb128 0x1e
 3777 1272 D0090000 		.4byte	0x9d0
 3778 1276 30       		.uleb128 0x30
 3779 1277 680E0000 		.4byte	.LASF287
 3780 127b 0A       		.byte	0xa
 3781 127c AF0A     		.2byte	0xaaf
 3782 127e 6B000000 		.4byte	0x6b
 3783 1282 30       		.uleb128 0x30
 3784 1283 DC010000 		.4byte	.LASF288
 3785 1287 0A       		.byte	0xa
 3786 1288 B30A     		.2byte	0xab3
 3787 128a 6B000000 		.4byte	0x6b
 3788 128e 32       		.uleb128 0x32
 3789 128f B1100000 		.4byte	.LASF292
 3790 1293 0B       		.byte	0xb
 3791 1294 AF       		.byte	0xaf
 3792 1295 33       		.uleb128 0x33
 3793 1296 130B0000 		.4byte	.LASF289
 3794 129a 04       		.byte	0x4
 3795 129b 2306     		.2byte	0x623
 3796 129d BB030000 		.4byte	0x3bb
 3797 12a1 B0120000 		.4byte	0x12b0
 3798 12a5 0A       		.uleb128 0xa
 3799 12a6 B0120000 		.4byte	0x12b0
 3800 12aa 0A       		.uleb128 0xa
 3801 12ab DB070000 		.4byte	0x7db
 3802 12af 00       		.byte	0
 3803 12b0 08       		.uleb128 0x8
 3804 12b1 04       		.byte	0x4
 3805 12b2 B6120000 		.4byte	0x12b6
 3806 12b6 1E       		.uleb128 0x1e
 3807 12b7 D4040000 		.4byte	0x4d4
 3808 12bb 34       		.uleb128 0x34
 3809 12bc C7180000 		.4byte	.LASF311
 3810 12c0 C7000000 		.4byte	0xc7
 3811 12c4 D8120000 		.4byte	0x12d8
 3812 12c8 0A       		.uleb128 0xa
 3813 12c9 C7000000 		.4byte	0xc7
 3814 12cd 0A       		.uleb128 0xa
 3815 12ce DC090000 		.4byte	0x9dc
 3816 12d2 0A       		.uleb128 0xa
 3817 12d3 C0000000 		.4byte	0xc0
 3818 12d7 00       		.byte	0
 3819 12d8 33       		.uleb128 0x33
 3820 12d9 CF060000 		.4byte	.LASF290
 3821 12dd 04       		.byte	0x4
 3822 12de EB06     		.2byte	0x6eb
 3823 12e0 BB030000 		.4byte	0x3bb
 3824 12e4 0C130000 		.4byte	0x130c
 3825 12e8 0A       		.uleb128 0xa
 3826 12e9 C9000000 		.4byte	0xc9
 3827 12ed 0A       		.uleb128 0xa
 3828 12ee E0040000 		.4byte	0x4e0
ARM GAS  C:\Users\Sarah\AppData\Local\Temp\ccLQenA3.s 			page 97


 3829 12f2 0A       		.uleb128 0xa
 3830 12f3 77000000 		.4byte	0x77
 3831 12f7 0A       		.uleb128 0xa
 3832 12f8 0C130000 		.4byte	0x130c
 3833 12fc 0A       		.uleb128 0xa
 3834 12fd 6B000000 		.4byte	0x6b
 3835 1301 0A       		.uleb128 0xa
 3836 1302 AA100000 		.4byte	0x10aa
 3837 1306 0A       		.uleb128 0xa
 3838 1307 83000000 		.4byte	0x83
 3839 130b 00       		.byte	0
 3840 130c 08       		.uleb128 0x8
 3841 130d 04       		.byte	0x4
 3842 130e 2B040000 		.4byte	0x42b
 3843 1312 33       		.uleb128 0x33
 3844 1313 14170000 		.4byte	.LASF291
 3845 1317 07       		.byte	0x7
 3846 1318 5401     		.2byte	0x154
 3847 131a BB030000 		.4byte	0x3bb
 3848 131e 32130000 		.4byte	0x1332
 3849 1322 0A       		.uleb128 0xa
 3850 1323 32130000 		.4byte	0x1332
 3851 1327 0A       		.uleb128 0xa
 3852 1328 77000000 		.4byte	0x77
 3853 132c 0A       		.uleb128 0xa
 3854 132d 77000000 		.4byte	0x77
 3855 1331 00       		.byte	0
 3856 1332 08       		.uleb128 0x8
 3857 1333 04       		.byte	0x4
 3858 1334 38130000 		.4byte	0x1338
 3859 1338 1E       		.uleb128 0x1e
 3860 1339 B1080000 		.4byte	0x8b1
 3861 133d 35       		.uleb128 0x35
 3862 133e C8080000 		.4byte	.LASF293
 3863 1342 04       		.byte	0x4
 3864 1343 0607     		.2byte	0x706
 3865 1345 36       		.uleb128 0x36
 3866 1346 0B040000 		.4byte	.LASF294
 3867 134a 0C       		.byte	0xc
 3868 134b 82       		.byte	0x82
 3869 134c BB030000 		.4byte	0x3bb
 3870 1350 69130000 		.4byte	0x1369
 3871 1354 0A       		.uleb128 0xa
 3872 1355 E0040000 		.4byte	0x4e0
 3873 1359 0A       		.uleb128 0xa
 3874 135a AA100000 		.4byte	0x10aa
 3875 135e 0A       		.uleb128 0xa
 3876 135f 83000000 		.4byte	0x83
 3877 1363 0A       		.uleb128 0xa
 3878 1364 6B000000 		.4byte	0x6b
 3879 1368 00       		.byte	0
 3880 1369 36       		.uleb128 0x36
 3881 136a 9F030000 		.4byte	.LASF295
 3882 136e 0C       		.byte	0xc
 3883 136f 64       		.byte	0x64
 3884 1370 BB030000 		.4byte	0x3bb
 3885 1374 7E130000 		.4byte	0x137e
ARM GAS  C:\Users\Sarah\AppData\Local\Temp\ccLQenA3.s 			page 98


 3886 1378 0A       		.uleb128 0xa
 3887 1379 6B000000 		.4byte	0x6b
 3888 137d 00       		.byte	0
 3889 137e 36       		.uleb128 0x36
 3890 137f 98150000 		.4byte	.LASF296
 3891 1383 0D       		.byte	0xd
 3892 1384 16       		.byte	0x16
 3893 1385 5D000000 		.4byte	0x5d
 3894 1389 9D130000 		.4byte	0x139d
 3895 138d 0A       		.uleb128 0xa
 3896 138e DC090000 		.4byte	0x9dc
 3897 1392 0A       		.uleb128 0xa
 3898 1393 DC090000 		.4byte	0x9dc
 3899 1397 0A       		.uleb128 0xa
 3900 1398 B5000000 		.4byte	0xb5
 3901 139c 00       		.byte	0
 3902 139d 33       		.uleb128 0x33
 3903 139e 48010000 		.4byte	.LASF297
 3904 13a2 05       		.byte	0x5
 3905 13a3 9005     		.2byte	0x590
 3906 13a5 BB030000 		.4byte	0x3bb
 3907 13a9 B8130000 		.4byte	0x13b8
 3908 13ad 0A       		.uleb128 0xa
 3909 13ae E0040000 		.4byte	0x4e0
 3910 13b2 0A       		.uleb128 0xa
 3911 13b3 9C0D0000 		.4byte	0xd9c
 3912 13b7 00       		.byte	0
 3913 13b8 33       		.uleb128 0x33
 3914 13b9 4D150000 		.4byte	.LASF298
 3915 13bd 05       		.byte	0x5
 3916 13be C108     		.2byte	0x8c1
 3917 13c0 BB030000 		.4byte	0x3bb
 3918 13c4 CE130000 		.4byte	0x13ce
 3919 13c8 0A       		.uleb128 0xa
 3920 13c9 9C0D0000 		.4byte	0xd9c
 3921 13cd 00       		.byte	0
 3922 13ce 33       		.uleb128 0x33
 3923 13cf 920C0000 		.4byte	.LASF299
 3924 13d3 05       		.byte	0x5
 3925 13d4 EA05     		.2byte	0x5ea
 3926 13d6 BB030000 		.4byte	0x3bb
 3927 13da E4130000 		.4byte	0x13e4
 3928 13de 0A       		.uleb128 0xa
 3929 13df E4130000 		.4byte	0x13e4
 3930 13e3 00       		.byte	0
 3931 13e4 08       		.uleb128 0x8
 3932 13e5 04       		.byte	0x4
 3933 13e6 63060000 		.4byte	0x663
 3934 13ea 35       		.uleb128 0x35
 3935 13eb 3A070000 		.4byte	.LASF300
 3936 13ef 05       		.byte	0x5
 3937 13f0 FB05     		.2byte	0x5fb
 3938 13f2 33       		.uleb128 0x33
 3939 13f3 4E050000 		.4byte	.LASF301
 3940 13f7 05       		.byte	0x5
 3941 13f8 5106     		.2byte	0x651
 3942 13fa BB030000 		.4byte	0x3bb
ARM GAS  C:\Users\Sarah\AppData\Local\Temp\ccLQenA3.s 			page 99


 3943 13fe 08140000 		.4byte	0x1408
 3944 1402 0A       		.uleb128 0xa
 3945 1403 08140000 		.4byte	0x1408
 3946 1407 00       		.byte	0
 3947 1408 08       		.uleb128 0x8
 3948 1409 04       		.byte	0x4
 3949 140a E1060000 		.4byte	0x6e1
 3950 140e 35       		.uleb128 0x35
 3951 140f 6F000000 		.4byte	.LASF302
 3952 1413 05       		.byte	0x5
 3953 1414 6206     		.2byte	0x662
 3954 1416 33       		.uleb128 0x33
 3955 1417 F5140000 		.4byte	.LASF303
 3956 141b 05       		.byte	0x5
 3957 141c A206     		.2byte	0x6a2
 3958 141e BB030000 		.4byte	0x3bb
 3959 1422 2C140000 		.4byte	0x142c
 3960 1426 0A       		.uleb128 0xa
 3961 1427 2C140000 		.4byte	0x142c
 3962 142b 00       		.byte	0
 3963 142c 08       		.uleb128 0x8
 3964 142d 04       		.byte	0x4
 3965 142e 93070000 		.4byte	0x793
 3966 1432 36       		.uleb128 0x36
 3967 1433 95010000 		.4byte	.LASF304
 3968 1437 0C       		.byte	0xc
 3969 1438 A8       		.byte	0xa8
 3970 1439 BB030000 		.4byte	0x3bb
 3971 143d 47140000 		.4byte	0x1447
 3972 1441 0A       		.uleb128 0xa
 3973 1442 77000000 		.4byte	0x77
 3974 1446 00       		.byte	0
 3975 1447 37       		.uleb128 0x37
 3976 1448 01110000 		.4byte	.LASF305
 3977 144c 05       		.byte	0x5
 3978 144d BC06     		.2byte	0x6bc
 3979 144f BB030000 		.4byte	0x3bb
 3980 1453 38       		.uleb128 0x38
 3981 1454 44090000 		.4byte	.LASF306
 3982 1458 0C       		.byte	0xc
 3983 1459 C1       		.byte	0xc1
 3984 145a BB030000 		.4byte	0x3bb
 3985 145e 00       		.byte	0
 3986              		.section	.debug_abbrev,"",%progbits
 3987              	.Ldebug_abbrev0:
 3988 0000 01       		.uleb128 0x1
 3989 0001 11       		.uleb128 0x11
 3990 0002 01       		.byte	0x1
 3991 0003 25       		.uleb128 0x25
 3992 0004 0E       		.uleb128 0xe
 3993 0005 13       		.uleb128 0x13
 3994 0006 0B       		.uleb128 0xb
 3995 0007 03       		.uleb128 0x3
 3996 0008 0E       		.uleb128 0xe
 3997 0009 1B       		.uleb128 0x1b
 3998 000a 0E       		.uleb128 0xe
 3999 000b 55       		.uleb128 0x55
ARM GAS  C:\Users\Sarah\AppData\Local\Temp\ccLQenA3.s 			page 100


 4000 000c 17       		.uleb128 0x17
 4001 000d 11       		.uleb128 0x11
 4002 000e 01       		.uleb128 0x1
 4003 000f 10       		.uleb128 0x10
 4004 0010 17       		.uleb128 0x17
 4005 0011 00       		.byte	0
 4006 0012 00       		.byte	0
 4007 0013 02       		.uleb128 0x2
 4008 0014 24       		.uleb128 0x24
 4009 0015 00       		.byte	0
 4010 0016 0B       		.uleb128 0xb
 4011 0017 0B       		.uleb128 0xb
 4012 0018 3E       		.uleb128 0x3e
 4013 0019 0B       		.uleb128 0xb
 4014 001a 03       		.uleb128 0x3
 4015 001b 0E       		.uleb128 0xe
 4016 001c 00       		.byte	0
 4017 001d 00       		.byte	0
 4018 001e 03       		.uleb128 0x3
 4019 001f 24       		.uleb128 0x24
 4020 0020 00       		.byte	0
 4021 0021 0B       		.uleb128 0xb
 4022 0022 0B       		.uleb128 0xb
 4023 0023 3E       		.uleb128 0x3e
 4024 0024 0B       		.uleb128 0xb
 4025 0025 03       		.uleb128 0x3
 4026 0026 08       		.uleb128 0x8
 4027 0027 00       		.byte	0
 4028 0028 00       		.byte	0
 4029 0029 04       		.uleb128 0x4
 4030 002a 16       		.uleb128 0x16
 4031 002b 00       		.byte	0
 4032 002c 03       		.uleb128 0x3
 4033 002d 0E       		.uleb128 0xe
 4034 002e 3A       		.uleb128 0x3a
 4035 002f 0B       		.uleb128 0xb
 4036 0030 3B       		.uleb128 0x3b
 4037 0031 05       		.uleb128 0x5
 4038 0032 49       		.uleb128 0x49
 4039 0033 13       		.uleb128 0x13
 4040 0034 00       		.byte	0
 4041 0035 00       		.byte	0
 4042 0036 05       		.uleb128 0x5
 4043 0037 35       		.uleb128 0x35
 4044 0038 00       		.byte	0
 4045 0039 49       		.uleb128 0x49
 4046 003a 13       		.uleb128 0x13
 4047 003b 00       		.byte	0
 4048 003c 00       		.byte	0
 4049 003d 06       		.uleb128 0x6
 4050 003e 16       		.uleb128 0x16
 4051 003f 00       		.byte	0
 4052 0040 03       		.uleb128 0x3
 4053 0041 0E       		.uleb128 0xe
 4054 0042 3A       		.uleb128 0x3a
 4055 0043 0B       		.uleb128 0xb
 4056 0044 3B       		.uleb128 0x3b
ARM GAS  C:\Users\Sarah\AppData\Local\Temp\ccLQenA3.s 			page 101


 4057 0045 0B       		.uleb128 0xb
 4058 0046 49       		.uleb128 0x49
 4059 0047 13       		.uleb128 0x13
 4060 0048 00       		.byte	0
 4061 0049 00       		.byte	0
 4062 004a 07       		.uleb128 0x7
 4063 004b 0F       		.uleb128 0xf
 4064 004c 00       		.byte	0
 4065 004d 0B       		.uleb128 0xb
 4066 004e 0B       		.uleb128 0xb
 4067 004f 00       		.byte	0
 4068 0050 00       		.byte	0
 4069 0051 08       		.uleb128 0x8
 4070 0052 0F       		.uleb128 0xf
 4071 0053 00       		.byte	0
 4072 0054 0B       		.uleb128 0xb
 4073 0055 0B       		.uleb128 0xb
 4074 0056 49       		.uleb128 0x49
 4075 0057 13       		.uleb128 0x13
 4076 0058 00       		.byte	0
 4077 0059 00       		.byte	0
 4078 005a 09       		.uleb128 0x9
 4079 005b 15       		.uleb128 0x15
 4080 005c 01       		.byte	0x1
 4081 005d 27       		.uleb128 0x27
 4082 005e 19       		.uleb128 0x19
 4083 005f 01       		.uleb128 0x1
 4084 0060 13       		.uleb128 0x13
 4085 0061 00       		.byte	0
 4086 0062 00       		.byte	0
 4087 0063 0A       		.uleb128 0xa
 4088 0064 05       		.uleb128 0x5
 4089 0065 00       		.byte	0
 4090 0066 49       		.uleb128 0x49
 4091 0067 13       		.uleb128 0x13
 4092 0068 00       		.byte	0
 4093 0069 00       		.byte	0
 4094 006a 0B       		.uleb128 0xb
 4095 006b 04       		.uleb128 0x4
 4096 006c 01       		.byte	0x1
 4097 006d 0B       		.uleb128 0xb
 4098 006e 0B       		.uleb128 0xb
 4099 006f 3A       		.uleb128 0x3a
 4100 0070 0B       		.uleb128 0xb
 4101 0071 3B       		.uleb128 0x3b
 4102 0072 05       		.uleb128 0x5
 4103 0073 01       		.uleb128 0x1
 4104 0074 13       		.uleb128 0x13
 4105 0075 00       		.byte	0
 4106 0076 00       		.byte	0
 4107 0077 0C       		.uleb128 0xc
 4108 0078 28       		.uleb128 0x28
 4109 0079 00       		.byte	0
 4110 007a 03       		.uleb128 0x3
 4111 007b 0E       		.uleb128 0xe
 4112 007c 1C       		.uleb128 0x1c
 4113 007d 0D       		.uleb128 0xd
ARM GAS  C:\Users\Sarah\AppData\Local\Temp\ccLQenA3.s 			page 102


 4114 007e 00       		.byte	0
 4115 007f 00       		.byte	0
 4116 0080 0D       		.uleb128 0xd
 4117 0081 13       		.uleb128 0x13
 4118 0082 01       		.byte	0x1
 4119 0083 0B       		.uleb128 0xb
 4120 0084 0B       		.uleb128 0xb
 4121 0085 3A       		.uleb128 0x3a
 4122 0086 0B       		.uleb128 0xb
 4123 0087 3B       		.uleb128 0x3b
 4124 0088 05       		.uleb128 0x5
 4125 0089 01       		.uleb128 0x1
 4126 008a 13       		.uleb128 0x13
 4127 008b 00       		.byte	0
 4128 008c 00       		.byte	0
 4129 008d 0E       		.uleb128 0xe
 4130 008e 0D       		.uleb128 0xd
 4131 008f 00       		.byte	0
 4132 0090 03       		.uleb128 0x3
 4133 0091 0E       		.uleb128 0xe
 4134 0092 3A       		.uleb128 0x3a
 4135 0093 0B       		.uleb128 0xb
 4136 0094 3B       		.uleb128 0x3b
 4137 0095 05       		.uleb128 0x5
 4138 0096 49       		.uleb128 0x49
 4139 0097 13       		.uleb128 0x13
 4140 0098 38       		.uleb128 0x38
 4141 0099 0B       		.uleb128 0xb
 4142 009a 00       		.byte	0
 4143 009b 00       		.byte	0
 4144 009c 0F       		.uleb128 0xf
 4145 009d 01       		.uleb128 0x1
 4146 009e 01       		.byte	0x1
 4147 009f 49       		.uleb128 0x49
 4148 00a0 13       		.uleb128 0x13
 4149 00a1 01       		.uleb128 0x1
 4150 00a2 13       		.uleb128 0x13
 4151 00a3 00       		.byte	0
 4152 00a4 00       		.byte	0
 4153 00a5 10       		.uleb128 0x10
 4154 00a6 21       		.uleb128 0x21
 4155 00a7 00       		.byte	0
 4156 00a8 49       		.uleb128 0x49
 4157 00a9 13       		.uleb128 0x13
 4158 00aa 2F       		.uleb128 0x2f
 4159 00ab 0B       		.uleb128 0xb
 4160 00ac 00       		.byte	0
 4161 00ad 00       		.byte	0
 4162 00ae 11       		.uleb128 0x11
 4163 00af 04       		.uleb128 0x4
 4164 00b0 01       		.byte	0x1
 4165 00b1 0B       		.uleb128 0xb
 4166 00b2 0B       		.uleb128 0xb
 4167 00b3 3A       		.uleb128 0x3a
 4168 00b4 0B       		.uleb128 0xb
 4169 00b5 3B       		.uleb128 0x3b
 4170 00b6 0B       		.uleb128 0xb
ARM GAS  C:\Users\Sarah\AppData\Local\Temp\ccLQenA3.s 			page 103


 4171 00b7 01       		.uleb128 0x1
 4172 00b8 13       		.uleb128 0x13
 4173 00b9 00       		.byte	0
 4174 00ba 00       		.byte	0
 4175 00bb 12       		.uleb128 0x12
 4176 00bc 13       		.uleb128 0x13
 4177 00bd 01       		.byte	0x1
 4178 00be 0B       		.uleb128 0xb
 4179 00bf 0B       		.uleb128 0xb
 4180 00c0 3A       		.uleb128 0x3a
 4181 00c1 0B       		.uleb128 0xb
 4182 00c2 3B       		.uleb128 0x3b
 4183 00c3 0B       		.uleb128 0xb
 4184 00c4 01       		.uleb128 0x1
 4185 00c5 13       		.uleb128 0x13
 4186 00c6 00       		.byte	0
 4187 00c7 00       		.byte	0
 4188 00c8 13       		.uleb128 0x13
 4189 00c9 0D       		.uleb128 0xd
 4190 00ca 00       		.byte	0
 4191 00cb 03       		.uleb128 0x3
 4192 00cc 0E       		.uleb128 0xe
 4193 00cd 3A       		.uleb128 0x3a
 4194 00ce 0B       		.uleb128 0xb
 4195 00cf 3B       		.uleb128 0x3b
 4196 00d0 0B       		.uleb128 0xb
 4197 00d1 49       		.uleb128 0x49
 4198 00d2 13       		.uleb128 0x13
 4199 00d3 38       		.uleb128 0x38
 4200 00d4 0B       		.uleb128 0xb
 4201 00d5 00       		.byte	0
 4202 00d6 00       		.byte	0
 4203 00d7 14       		.uleb128 0x14
 4204 00d8 17       		.uleb128 0x17
 4205 00d9 01       		.byte	0x1
 4206 00da 0B       		.uleb128 0xb
 4207 00db 0B       		.uleb128 0xb
 4208 00dc 3A       		.uleb128 0x3a
 4209 00dd 0B       		.uleb128 0xb
 4210 00de 3B       		.uleb128 0x3b
 4211 00df 0B       		.uleb128 0xb
 4212 00e0 01       		.uleb128 0x1
 4213 00e1 13       		.uleb128 0x13
 4214 00e2 00       		.byte	0
 4215 00e3 00       		.byte	0
 4216 00e4 15       		.uleb128 0x15
 4217 00e5 0D       		.uleb128 0xd
 4218 00e6 00       		.byte	0
 4219 00e7 03       		.uleb128 0x3
 4220 00e8 0E       		.uleb128 0xe
 4221 00e9 3A       		.uleb128 0x3a
 4222 00ea 0B       		.uleb128 0xb
 4223 00eb 3B       		.uleb128 0x3b
 4224 00ec 0B       		.uleb128 0xb
 4225 00ed 49       		.uleb128 0x49
 4226 00ee 13       		.uleb128 0x13
 4227 00ef 00       		.byte	0
ARM GAS  C:\Users\Sarah\AppData\Local\Temp\ccLQenA3.s 			page 104


 4228 00f0 00       		.byte	0
 4229 00f1 16       		.uleb128 0x16
 4230 00f2 13       		.uleb128 0x13
 4231 00f3 01       		.byte	0x1
 4232 00f4 0B       		.uleb128 0xb
 4233 00f5 05       		.uleb128 0x5
 4234 00f6 3A       		.uleb128 0x3a
 4235 00f7 0B       		.uleb128 0xb
 4236 00f8 3B       		.uleb128 0x3b
 4237 00f9 0B       		.uleb128 0xb
 4238 00fa 01       		.uleb128 0x1
 4239 00fb 13       		.uleb128 0x13
 4240 00fc 00       		.byte	0
 4241 00fd 00       		.byte	0
 4242 00fe 17       		.uleb128 0x17
 4243 00ff 0D       		.uleb128 0xd
 4244 0100 00       		.byte	0
 4245 0101 03       		.uleb128 0x3
 4246 0102 0E       		.uleb128 0xe
 4247 0103 3A       		.uleb128 0x3a
 4248 0104 0B       		.uleb128 0xb
 4249 0105 3B       		.uleb128 0x3b
 4250 0106 0B       		.uleb128 0xb
 4251 0107 49       		.uleb128 0x49
 4252 0108 13       		.uleb128 0x13
 4253 0109 38       		.uleb128 0x38
 4254 010a 05       		.uleb128 0x5
 4255 010b 00       		.byte	0
 4256 010c 00       		.byte	0
 4257 010d 18       		.uleb128 0x18
 4258 010e 21       		.uleb128 0x21
 4259 010f 00       		.byte	0
 4260 0110 49       		.uleb128 0x49
 4261 0111 13       		.uleb128 0x13
 4262 0112 2F       		.uleb128 0x2f
 4263 0113 05       		.uleb128 0x5
 4264 0114 00       		.byte	0
 4265 0115 00       		.byte	0
 4266 0116 19       		.uleb128 0x19
 4267 0117 26       		.uleb128 0x26
 4268 0118 00       		.byte	0
 4269 0119 00       		.byte	0
 4270 011a 00       		.byte	0
 4271 011b 1A       		.uleb128 0x1a
 4272 011c 2E       		.uleb128 0x2e
 4273 011d 01       		.byte	0x1
 4274 011e 03       		.uleb128 0x3
 4275 011f 0E       		.uleb128 0xe
 4276 0120 3A       		.uleb128 0x3a
 4277 0121 0B       		.uleb128 0xb
 4278 0122 3B       		.uleb128 0x3b
 4279 0123 05       		.uleb128 0x5
 4280 0124 27       		.uleb128 0x27
 4281 0125 19       		.uleb128 0x19
 4282 0126 11       		.uleb128 0x11
 4283 0127 01       		.uleb128 0x1
 4284 0128 12       		.uleb128 0x12
ARM GAS  C:\Users\Sarah\AppData\Local\Temp\ccLQenA3.s 			page 105


 4285 0129 06       		.uleb128 0x6
 4286 012a 40       		.uleb128 0x40
 4287 012b 18       		.uleb128 0x18
 4288 012c 9742     		.uleb128 0x2117
 4289 012e 19       		.uleb128 0x19
 4290 012f 01       		.uleb128 0x1
 4291 0130 13       		.uleb128 0x13
 4292 0131 00       		.byte	0
 4293 0132 00       		.byte	0
 4294 0133 1B       		.uleb128 0x1b
 4295 0134 05       		.uleb128 0x5
 4296 0135 00       		.byte	0
 4297 0136 03       		.uleb128 0x3
 4298 0137 0E       		.uleb128 0xe
 4299 0138 3A       		.uleb128 0x3a
 4300 0139 0B       		.uleb128 0xb
 4301 013a 3B       		.uleb128 0x3b
 4302 013b 05       		.uleb128 0x5
 4303 013c 49       		.uleb128 0x49
 4304 013d 13       		.uleb128 0x13
 4305 013e 02       		.uleb128 0x2
 4306 013f 17       		.uleb128 0x17
 4307 0140 00       		.byte	0
 4308 0141 00       		.byte	0
 4309 0142 1C       		.uleb128 0x1c
 4310 0143 34       		.uleb128 0x34
 4311 0144 00       		.byte	0
 4312 0145 03       		.uleb128 0x3
 4313 0146 08       		.uleb128 0x8
 4314 0147 3A       		.uleb128 0x3a
 4315 0148 0B       		.uleb128 0xb
 4316 0149 3B       		.uleb128 0x3b
 4317 014a 05       		.uleb128 0x5
 4318 014b 49       		.uleb128 0x49
 4319 014c 13       		.uleb128 0x13
 4320 014d 02       		.uleb128 0x2
 4321 014e 17       		.uleb128 0x17
 4322 014f 00       		.byte	0
 4323 0150 00       		.byte	0
 4324 0151 1D       		.uleb128 0x1d
 4325 0152 34       		.uleb128 0x34
 4326 0153 00       		.byte	0
 4327 0154 03       		.uleb128 0x3
 4328 0155 0E       		.uleb128 0xe
 4329 0156 3A       		.uleb128 0x3a
 4330 0157 0B       		.uleb128 0xb
 4331 0158 3B       		.uleb128 0x3b
 4332 0159 05       		.uleb128 0x5
 4333 015a 49       		.uleb128 0x49
 4334 015b 13       		.uleb128 0x13
 4335 015c 02       		.uleb128 0x2
 4336 015d 17       		.uleb128 0x17
 4337 015e 00       		.byte	0
 4338 015f 00       		.byte	0
 4339 0160 1E       		.uleb128 0x1e
 4340 0161 26       		.uleb128 0x26
 4341 0162 00       		.byte	0
ARM GAS  C:\Users\Sarah\AppData\Local\Temp\ccLQenA3.s 			page 106


 4342 0163 49       		.uleb128 0x49
 4343 0164 13       		.uleb128 0x13
 4344 0165 00       		.byte	0
 4345 0166 00       		.byte	0
 4346 0167 1F       		.uleb128 0x1f
 4347 0168 2E       		.uleb128 0x2e
 4348 0169 01       		.byte	0x1
 4349 016a 3F       		.uleb128 0x3f
 4350 016b 19       		.uleb128 0x19
 4351 016c 03       		.uleb128 0x3
 4352 016d 0E       		.uleb128 0xe
 4353 016e 3A       		.uleb128 0x3a
 4354 016f 0B       		.uleb128 0xb
 4355 0170 3B       		.uleb128 0x3b
 4356 0171 0B       		.uleb128 0xb
 4357 0172 27       		.uleb128 0x27
 4358 0173 19       		.uleb128 0x19
 4359 0174 11       		.uleb128 0x11
 4360 0175 01       		.uleb128 0x1
 4361 0176 12       		.uleb128 0x12
 4362 0177 06       		.uleb128 0x6
 4363 0178 40       		.uleb128 0x40
 4364 0179 18       		.uleb128 0x18
 4365 017a 9742     		.uleb128 0x2117
 4366 017c 19       		.uleb128 0x19
 4367 017d 01       		.uleb128 0x1
 4368 017e 13       		.uleb128 0x13
 4369 017f 00       		.byte	0
 4370 0180 00       		.byte	0
 4371 0181 20       		.uleb128 0x20
 4372 0182 898201   		.uleb128 0x4109
 4373 0185 00       		.byte	0
 4374 0186 11       		.uleb128 0x11
 4375 0187 01       		.uleb128 0x1
 4376 0188 31       		.uleb128 0x31
 4377 0189 13       		.uleb128 0x13
 4378 018a 00       		.byte	0
 4379 018b 00       		.byte	0
 4380 018c 21       		.uleb128 0x21
 4381 018d 2E       		.uleb128 0x2e
 4382 018e 01       		.byte	0x1
 4383 018f 3F       		.uleb128 0x3f
 4384 0190 19       		.uleb128 0x19
 4385 0191 03       		.uleb128 0x3
 4386 0192 0E       		.uleb128 0xe
 4387 0193 3A       		.uleb128 0x3a
 4388 0194 0B       		.uleb128 0xb
 4389 0195 3B       		.uleb128 0x3b
 4390 0196 05       		.uleb128 0x5
 4391 0197 27       		.uleb128 0x27
 4392 0198 19       		.uleb128 0x19
 4393 0199 49       		.uleb128 0x49
 4394 019a 13       		.uleb128 0x13
 4395 019b 11       		.uleb128 0x11
 4396 019c 01       		.uleb128 0x1
 4397 019d 12       		.uleb128 0x12
 4398 019e 06       		.uleb128 0x6
ARM GAS  C:\Users\Sarah\AppData\Local\Temp\ccLQenA3.s 			page 107


 4399 019f 40       		.uleb128 0x40
 4400 01a0 18       		.uleb128 0x18
 4401 01a1 9742     		.uleb128 0x2117
 4402 01a3 19       		.uleb128 0x19
 4403 01a4 01       		.uleb128 0x1
 4404 01a5 13       		.uleb128 0x13
 4405 01a6 00       		.byte	0
 4406 01a7 00       		.byte	0
 4407 01a8 22       		.uleb128 0x22
 4408 01a9 34       		.uleb128 0x34
 4409 01aa 00       		.byte	0
 4410 01ab 03       		.uleb128 0x3
 4411 01ac 0E       		.uleb128 0xe
 4412 01ad 3A       		.uleb128 0x3a
 4413 01ae 0B       		.uleb128 0xb
 4414 01af 3B       		.uleb128 0x3b
 4415 01b0 05       		.uleb128 0x5
 4416 01b1 49       		.uleb128 0x49
 4417 01b2 13       		.uleb128 0x13
 4418 01b3 02       		.uleb128 0x2
 4419 01b4 18       		.uleb128 0x18
 4420 01b5 00       		.byte	0
 4421 01b6 00       		.byte	0
 4422 01b7 23       		.uleb128 0x23
 4423 01b8 0B       		.uleb128 0xb
 4424 01b9 01       		.byte	0x1
 4425 01ba 11       		.uleb128 0x11
 4426 01bb 01       		.uleb128 0x1
 4427 01bc 12       		.uleb128 0x12
 4428 01bd 06       		.uleb128 0x6
 4429 01be 01       		.uleb128 0x1
 4430 01bf 13       		.uleb128 0x13
 4431 01c0 00       		.byte	0
 4432 01c1 00       		.byte	0
 4433 01c2 24       		.uleb128 0x24
 4434 01c3 898201   		.uleb128 0x4109
 4435 01c6 01       		.byte	0x1
 4436 01c7 11       		.uleb128 0x11
 4437 01c8 01       		.uleb128 0x1
 4438 01c9 31       		.uleb128 0x31
 4439 01ca 13       		.uleb128 0x13
 4440 01cb 00       		.byte	0
 4441 01cc 00       		.byte	0
 4442 01cd 25       		.uleb128 0x25
 4443 01ce 8A8201   		.uleb128 0x410a
 4444 01d1 00       		.byte	0
 4445 01d2 02       		.uleb128 0x2
 4446 01d3 18       		.uleb128 0x18
 4447 01d4 9142     		.uleb128 0x2111
 4448 01d6 18       		.uleb128 0x18
 4449 01d7 00       		.byte	0
 4450 01d8 00       		.byte	0
 4451 01d9 26       		.uleb128 0x26
 4452 01da 898201   		.uleb128 0x4109
 4453 01dd 01       		.byte	0x1
 4454 01de 11       		.uleb128 0x11
 4455 01df 01       		.uleb128 0x1
ARM GAS  C:\Users\Sarah\AppData\Local\Temp\ccLQenA3.s 			page 108


 4456 01e0 31       		.uleb128 0x31
 4457 01e1 13       		.uleb128 0x13
 4458 01e2 01       		.uleb128 0x1
 4459 01e3 13       		.uleb128 0x13
 4460 01e4 00       		.byte	0
 4461 01e5 00       		.byte	0
 4462 01e6 27       		.uleb128 0x27
 4463 01e7 2E       		.uleb128 0x2e
 4464 01e8 01       		.byte	0x1
 4465 01e9 3F       		.uleb128 0x3f
 4466 01ea 19       		.uleb128 0x19
 4467 01eb 03       		.uleb128 0x3
 4468 01ec 0E       		.uleb128 0xe
 4469 01ed 3A       		.uleb128 0x3a
 4470 01ee 0B       		.uleb128 0xb
 4471 01ef 3B       		.uleb128 0x3b
 4472 01f0 05       		.uleb128 0x5
 4473 01f1 27       		.uleb128 0x27
 4474 01f2 19       		.uleb128 0x19
 4475 01f3 11       		.uleb128 0x11
 4476 01f4 01       		.uleb128 0x1
 4477 01f5 12       		.uleb128 0x12
 4478 01f6 06       		.uleb128 0x6
 4479 01f7 40       		.uleb128 0x40
 4480 01f8 18       		.uleb128 0x18
 4481 01f9 9742     		.uleb128 0x2117
 4482 01fb 19       		.uleb128 0x19
 4483 01fc 01       		.uleb128 0x1
 4484 01fd 13       		.uleb128 0x13
 4485 01fe 00       		.byte	0
 4486 01ff 00       		.byte	0
 4487 0200 28       		.uleb128 0x28
 4488 0201 0B       		.uleb128 0xb
 4489 0202 01       		.byte	0x1
 4490 0203 11       		.uleb128 0x11
 4491 0204 01       		.uleb128 0x1
 4492 0205 12       		.uleb128 0x12
 4493 0206 06       		.uleb128 0x6
 4494 0207 00       		.byte	0
 4495 0208 00       		.byte	0
 4496 0209 29       		.uleb128 0x29
 4497 020a 05       		.uleb128 0x5
 4498 020b 00       		.byte	0
 4499 020c 03       		.uleb128 0x3
 4500 020d 0E       		.uleb128 0xe
 4501 020e 3A       		.uleb128 0x3a
 4502 020f 0B       		.uleb128 0xb
 4503 0210 3B       		.uleb128 0x3b
 4504 0211 05       		.uleb128 0x5
 4505 0212 49       		.uleb128 0x49
 4506 0213 13       		.uleb128 0x13
 4507 0214 02       		.uleb128 0x2
 4508 0215 18       		.uleb128 0x18
 4509 0216 00       		.byte	0
 4510 0217 00       		.byte	0
 4511 0218 2A       		.uleb128 0x2a
 4512 0219 34       		.uleb128 0x34
ARM GAS  C:\Users\Sarah\AppData\Local\Temp\ccLQenA3.s 			page 109


 4513 021a 00       		.byte	0
 4514 021b 03       		.uleb128 0x3
 4515 021c 08       		.uleb128 0x8
 4516 021d 3A       		.uleb128 0x3a
 4517 021e 0B       		.uleb128 0xb
 4518 021f 3B       		.uleb128 0x3b
 4519 0220 05       		.uleb128 0x5
 4520 0221 49       		.uleb128 0x49
 4521 0222 13       		.uleb128 0x13
 4522 0223 00       		.byte	0
 4523 0224 00       		.byte	0
 4524 0225 2B       		.uleb128 0x2b
 4525 0226 34       		.uleb128 0x34
 4526 0227 00       		.byte	0
 4527 0228 03       		.uleb128 0x3
 4528 0229 0E       		.uleb128 0xe
 4529 022a 3A       		.uleb128 0x3a
 4530 022b 0B       		.uleb128 0xb
 4531 022c 3B       		.uleb128 0x3b
 4532 022d 05       		.uleb128 0x5
 4533 022e 49       		.uleb128 0x49
 4534 022f 13       		.uleb128 0x13
 4535 0230 1C       		.uleb128 0x1c
 4536 0231 0B       		.uleb128 0xb
 4537 0232 00       		.byte	0
 4538 0233 00       		.byte	0
 4539 0234 2C       		.uleb128 0x2c
 4540 0235 05       		.uleb128 0x5
 4541 0236 00       		.byte	0
 4542 0237 03       		.uleb128 0x3
 4543 0238 08       		.uleb128 0x8
 4544 0239 3A       		.uleb128 0x3a
 4545 023a 0B       		.uleb128 0xb
 4546 023b 3B       		.uleb128 0x3b
 4547 023c 05       		.uleb128 0x5
 4548 023d 49       		.uleb128 0x49
 4549 023e 13       		.uleb128 0x13
 4550 023f 02       		.uleb128 0x2
 4551 0240 17       		.uleb128 0x17
 4552 0241 00       		.byte	0
 4553 0242 00       		.byte	0
 4554 0243 2D       		.uleb128 0x2d
 4555 0244 05       		.uleb128 0x5
 4556 0245 00       		.byte	0
 4557 0246 03       		.uleb128 0x3
 4558 0247 08       		.uleb128 0x8
 4559 0248 3A       		.uleb128 0x3a
 4560 0249 0B       		.uleb128 0xb
 4561 024a 3B       		.uleb128 0x3b
 4562 024b 05       		.uleb128 0x5
 4563 024c 49       		.uleb128 0x49
 4564 024d 13       		.uleb128 0x13
 4565 024e 02       		.uleb128 0x2
 4566 024f 18       		.uleb128 0x18
 4567 0250 00       		.byte	0
 4568 0251 00       		.byte	0
 4569 0252 2E       		.uleb128 0x2e
ARM GAS  C:\Users\Sarah\AppData\Local\Temp\ccLQenA3.s 			page 110


 4570 0253 34       		.uleb128 0x34
 4571 0254 00       		.byte	0
 4572 0255 03       		.uleb128 0x3
 4573 0256 0E       		.uleb128 0xe
 4574 0257 3A       		.uleb128 0x3a
 4575 0258 0B       		.uleb128 0xb
 4576 0259 3B       		.uleb128 0x3b
 4577 025a 0B       		.uleb128 0xb
 4578 025b 49       		.uleb128 0x49
 4579 025c 13       		.uleb128 0x13
 4580 025d 02       		.uleb128 0x2
 4581 025e 18       		.uleb128 0x18
 4582 025f 00       		.byte	0
 4583 0260 00       		.byte	0
 4584 0261 2F       		.uleb128 0x2f
 4585 0262 34       		.uleb128 0x34
 4586 0263 00       		.byte	0
 4587 0264 03       		.uleb128 0x3
 4588 0265 0E       		.uleb128 0xe
 4589 0266 3A       		.uleb128 0x3a
 4590 0267 0B       		.uleb128 0xb
 4591 0268 3B       		.uleb128 0x3b
 4592 0269 0B       		.uleb128 0xb
 4593 026a 49       		.uleb128 0x49
 4594 026b 13       		.uleb128 0x13
 4595 026c 3F       		.uleb128 0x3f
 4596 026d 19       		.uleb128 0x19
 4597 026e 02       		.uleb128 0x2
 4598 026f 18       		.uleb128 0x18
 4599 0270 00       		.byte	0
 4600 0271 00       		.byte	0
 4601 0272 30       		.uleb128 0x30
 4602 0273 34       		.uleb128 0x34
 4603 0274 00       		.byte	0
 4604 0275 03       		.uleb128 0x3
 4605 0276 0E       		.uleb128 0xe
 4606 0277 3A       		.uleb128 0x3a
 4607 0278 0B       		.uleb128 0xb
 4608 0279 3B       		.uleb128 0x3b
 4609 027a 05       		.uleb128 0x5
 4610 027b 49       		.uleb128 0x49
 4611 027c 13       		.uleb128 0x13
 4612 027d 3F       		.uleb128 0x3f
 4613 027e 19       		.uleb128 0x19
 4614 027f 3C       		.uleb128 0x3c
 4615 0280 19       		.uleb128 0x19
 4616 0281 00       		.byte	0
 4617 0282 00       		.byte	0
 4618 0283 31       		.uleb128 0x31
 4619 0284 34       		.uleb128 0x34
 4620 0285 00       		.byte	0
 4621 0286 03       		.uleb128 0x3
 4622 0287 0E       		.uleb128 0xe
 4623 0288 3A       		.uleb128 0x3a
 4624 0289 0B       		.uleb128 0xb
 4625 028a 3B       		.uleb128 0x3b
 4626 028b 0B       		.uleb128 0xb
ARM GAS  C:\Users\Sarah\AppData\Local\Temp\ccLQenA3.s 			page 111


 4627 028c 49       		.uleb128 0x49
 4628 028d 13       		.uleb128 0x13
 4629 028e 3F       		.uleb128 0x3f
 4630 028f 19       		.uleb128 0x19
 4631 0290 3C       		.uleb128 0x3c
 4632 0291 19       		.uleb128 0x19
 4633 0292 00       		.byte	0
 4634 0293 00       		.byte	0
 4635 0294 32       		.uleb128 0x32
 4636 0295 2E       		.uleb128 0x2e
 4637 0296 00       		.byte	0
 4638 0297 3F       		.uleb128 0x3f
 4639 0298 19       		.uleb128 0x19
 4640 0299 03       		.uleb128 0x3
 4641 029a 0E       		.uleb128 0xe
 4642 029b 3A       		.uleb128 0x3a
 4643 029c 0B       		.uleb128 0xb
 4644 029d 3B       		.uleb128 0x3b
 4645 029e 0B       		.uleb128 0xb
 4646 029f 27       		.uleb128 0x27
 4647 02a0 19       		.uleb128 0x19
 4648 02a1 3C       		.uleb128 0x3c
 4649 02a2 19       		.uleb128 0x19
 4650 02a3 00       		.byte	0
 4651 02a4 00       		.byte	0
 4652 02a5 33       		.uleb128 0x33
 4653 02a6 2E       		.uleb128 0x2e
 4654 02a7 01       		.byte	0x1
 4655 02a8 3F       		.uleb128 0x3f
 4656 02a9 19       		.uleb128 0x19
 4657 02aa 03       		.uleb128 0x3
 4658 02ab 0E       		.uleb128 0xe
 4659 02ac 3A       		.uleb128 0x3a
 4660 02ad 0B       		.uleb128 0xb
 4661 02ae 3B       		.uleb128 0x3b
 4662 02af 05       		.uleb128 0x5
 4663 02b0 27       		.uleb128 0x27
 4664 02b1 19       		.uleb128 0x19
 4665 02b2 49       		.uleb128 0x49
 4666 02b3 13       		.uleb128 0x13
 4667 02b4 3C       		.uleb128 0x3c
 4668 02b5 19       		.uleb128 0x19
 4669 02b6 01       		.uleb128 0x1
 4670 02b7 13       		.uleb128 0x13
 4671 02b8 00       		.byte	0
 4672 02b9 00       		.byte	0
 4673 02ba 34       		.uleb128 0x34
 4674 02bb 2E       		.uleb128 0x2e
 4675 02bc 01       		.byte	0x1
 4676 02bd 3F       		.uleb128 0x3f
 4677 02be 19       		.uleb128 0x19
 4678 02bf 03       		.uleb128 0x3
 4679 02c0 0E       		.uleb128 0xe
 4680 02c1 27       		.uleb128 0x27
 4681 02c2 19       		.uleb128 0x19
 4682 02c3 49       		.uleb128 0x49
 4683 02c4 13       		.uleb128 0x13
ARM GAS  C:\Users\Sarah\AppData\Local\Temp\ccLQenA3.s 			page 112


 4684 02c5 34       		.uleb128 0x34
 4685 02c6 19       		.uleb128 0x19
 4686 02c7 3C       		.uleb128 0x3c
 4687 02c8 19       		.uleb128 0x19
 4688 02c9 01       		.uleb128 0x1
 4689 02ca 13       		.uleb128 0x13
 4690 02cb 00       		.byte	0
 4691 02cc 00       		.byte	0
 4692 02cd 35       		.uleb128 0x35
 4693 02ce 2E       		.uleb128 0x2e
 4694 02cf 00       		.byte	0
 4695 02d0 3F       		.uleb128 0x3f
 4696 02d1 19       		.uleb128 0x19
 4697 02d2 03       		.uleb128 0x3
 4698 02d3 0E       		.uleb128 0xe
 4699 02d4 3A       		.uleb128 0x3a
 4700 02d5 0B       		.uleb128 0xb
 4701 02d6 3B       		.uleb128 0x3b
 4702 02d7 05       		.uleb128 0x5
 4703 02d8 27       		.uleb128 0x27
 4704 02d9 19       		.uleb128 0x19
 4705 02da 3C       		.uleb128 0x3c
 4706 02db 19       		.uleb128 0x19
 4707 02dc 00       		.byte	0
 4708 02dd 00       		.byte	0
 4709 02de 36       		.uleb128 0x36
 4710 02df 2E       		.uleb128 0x2e
 4711 02e0 01       		.byte	0x1
 4712 02e1 3F       		.uleb128 0x3f
 4713 02e2 19       		.uleb128 0x19
 4714 02e3 03       		.uleb128 0x3
 4715 02e4 0E       		.uleb128 0xe
 4716 02e5 3A       		.uleb128 0x3a
 4717 02e6 0B       		.uleb128 0xb
 4718 02e7 3B       		.uleb128 0x3b
 4719 02e8 0B       		.uleb128 0xb
 4720 02e9 27       		.uleb128 0x27
 4721 02ea 19       		.uleb128 0x19
 4722 02eb 49       		.uleb128 0x49
 4723 02ec 13       		.uleb128 0x13
 4724 02ed 3C       		.uleb128 0x3c
 4725 02ee 19       		.uleb128 0x19
 4726 02ef 01       		.uleb128 0x1
 4727 02f0 13       		.uleb128 0x13
 4728 02f1 00       		.byte	0
 4729 02f2 00       		.byte	0
 4730 02f3 37       		.uleb128 0x37
 4731 02f4 2E       		.uleb128 0x2e
 4732 02f5 00       		.byte	0
 4733 02f6 3F       		.uleb128 0x3f
 4734 02f7 19       		.uleb128 0x19
 4735 02f8 03       		.uleb128 0x3
 4736 02f9 0E       		.uleb128 0xe
 4737 02fa 3A       		.uleb128 0x3a
 4738 02fb 0B       		.uleb128 0xb
 4739 02fc 3B       		.uleb128 0x3b
 4740 02fd 05       		.uleb128 0x5
ARM GAS  C:\Users\Sarah\AppData\Local\Temp\ccLQenA3.s 			page 113


 4741 02fe 27       		.uleb128 0x27
 4742 02ff 19       		.uleb128 0x19
 4743 0300 49       		.uleb128 0x49
 4744 0301 13       		.uleb128 0x13
 4745 0302 3C       		.uleb128 0x3c
 4746 0303 19       		.uleb128 0x19
 4747 0304 00       		.byte	0
 4748 0305 00       		.byte	0
 4749 0306 38       		.uleb128 0x38
 4750 0307 2E       		.uleb128 0x2e
 4751 0308 00       		.byte	0
 4752 0309 3F       		.uleb128 0x3f
 4753 030a 19       		.uleb128 0x19
 4754 030b 03       		.uleb128 0x3
 4755 030c 0E       		.uleb128 0xe
 4756 030d 3A       		.uleb128 0x3a
 4757 030e 0B       		.uleb128 0xb
 4758 030f 3B       		.uleb128 0x3b
 4759 0310 0B       		.uleb128 0xb
 4760 0311 27       		.uleb128 0x27
 4761 0312 19       		.uleb128 0x19
 4762 0313 49       		.uleb128 0x49
 4763 0314 13       		.uleb128 0x13
 4764 0315 3C       		.uleb128 0x3c
 4765 0316 19       		.uleb128 0x19
 4766 0317 00       		.byte	0
 4767 0318 00       		.byte	0
 4768 0319 00       		.byte	0
 4769              		.section	.debug_loc,"",%progbits
 4770              	.Ldebug_loc0:
 4771              	.LLST0:
 4772 0000 00000000 		.4byte	.LVL0
 4773 0004 5E000000 		.4byte	.LVL20
 4774 0008 0100     		.2byte	0x1
 4775 000a 50       		.byte	0x50
 4776 000b 5E000000 		.4byte	.LVL20
 4777 000f 78000000 		.4byte	.LFE15
 4778 0013 0400     		.2byte	0x4
 4779 0015 F3       		.byte	0xf3
 4780 0016 01       		.uleb128 0x1
 4781 0017 50       		.byte	0x50
 4782 0018 9F       		.byte	0x9f
 4783 0019 00000000 		.4byte	0
 4784 001d 00000000 		.4byte	0
 4785              	.LLST1:
 4786 0021 00000000 		.4byte	.LVL0
 4787 0025 18000000 		.4byte	.LVL6
 4788 0029 0100     		.2byte	0x1
 4789 002b 51       		.byte	0x51
 4790 002c 18000000 		.4byte	.LVL6
 4791 0030 78000000 		.4byte	.LFE15
 4792 0034 0400     		.2byte	0x4
 4793 0036 F3       		.byte	0xf3
 4794 0037 01       		.uleb128 0x1
 4795 0038 51       		.byte	0x51
 4796 0039 9F       		.byte	0x9f
 4797 003a 00000000 		.4byte	0
ARM GAS  C:\Users\Sarah\AppData\Local\Temp\ccLQenA3.s 			page 114


 4798 003e 00000000 		.4byte	0
 4799              	.LLST2:
 4800 0042 46000000 		.4byte	.LVL16
 4801 0046 4A000000 		.4byte	.LVL17
 4802 004a 0100     		.2byte	0x1
 4803 004c 53       		.byte	0x53
 4804 004d 4A000000 		.4byte	.LVL17
 4805 0051 4E000000 		.4byte	.LVL18
 4806 0055 0100     		.2byte	0x1
 4807 0057 52       		.byte	0x52
 4808 0058 50000000 		.4byte	.LVL19
 4809 005c 66000000 		.4byte	.LVL21
 4810 0060 0100     		.2byte	0x1
 4811 0062 52       		.byte	0x52
 4812 0063 68000000 		.4byte	.LVL22
 4813 0067 6C000000 		.4byte	.LVL23
 4814 006b 0100     		.2byte	0x1
 4815 006d 52       		.byte	0x52
 4816 006e 00000000 		.4byte	0
 4817 0072 00000000 		.4byte	0
 4818              	.LLST3:
 4819 0076 02000000 		.4byte	.LVL1
 4820 007a 18000000 		.4byte	.LVL6
 4821 007e 0200     		.2byte	0x2
 4822 0080 30       		.byte	0x30
 4823 0081 9F       		.byte	0x9f
 4824 0082 18000000 		.4byte	.LVL6
 4825 0086 4A000000 		.4byte	.LVL17
 4826 008a 0100     		.2byte	0x1
 4827 008c 55       		.byte	0x55
 4828 008d 00000000 		.4byte	0
 4829 0091 00000000 		.4byte	0
 4830              	.LLST4:
 4831 0095 02000000 		.4byte	.LVL1
 4832 0099 18000000 		.4byte	.LVL6
 4833 009d 0200     		.2byte	0x2
 4834 009f 30       		.byte	0x30
 4835 00a0 9F       		.byte	0x9f
 4836 00a1 18000000 		.4byte	.LVL6
 4837 00a5 40000000 		.4byte	.LVL13
 4838 00a9 0100     		.2byte	0x1
 4839 00ab 52       		.byte	0x52
 4840 00ac 42000000 		.4byte	.LVL14
 4841 00b0 6C000000 		.4byte	.LVL23
 4842 00b4 0100     		.2byte	0x1
 4843 00b6 51       		.byte	0x51
 4844 00b7 00000000 		.4byte	0
 4845 00bb 00000000 		.4byte	0
 4846              	.LLST5:
 4847 00bf 02000000 		.4byte	.LVL1
 4848 00c3 18000000 		.4byte	.LVL6
 4849 00c7 0200     		.2byte	0x2
 4850 00c9 30       		.byte	0x30
 4851 00ca 9F       		.byte	0x9f
 4852 00cb 18000000 		.4byte	.LVL6
 4853 00cf 20000000 		.4byte	.LVL8
 4854 00d3 0100     		.2byte	0x1
ARM GAS  C:\Users\Sarah\AppData\Local\Temp\ccLQenA3.s 			page 115


 4855 00d5 53       		.byte	0x53
 4856 00d6 22000000 		.4byte	.LVL9
 4857 00da 2C000000 		.4byte	.LVL10
 4858 00de 0100     		.2byte	0x1
 4859 00e0 53       		.byte	0x53
 4860 00e1 2E000000 		.4byte	.LVL11
 4861 00e5 44000000 		.4byte	.LVL15
 4862 00e9 0100     		.2byte	0x1
 4863 00eb 53       		.byte	0x53
 4864 00ec 46000000 		.4byte	.LVL16
 4865 00f0 5E000000 		.4byte	.LVL20
 4866 00f4 0100     		.2byte	0x1
 4867 00f6 53       		.byte	0x53
 4868 00f7 00000000 		.4byte	0
 4869 00fb 00000000 		.4byte	0
 4870              	.LLST6:
 4871 00ff 06000000 		.4byte	.LVL2
 4872 0103 0A000000 		.4byte	.LVL3
 4873 0107 0600     		.2byte	0x6
 4874 0109 03       		.byte	0x3
 4875 010a 00000000 		.4byte	cyBle_discoveryData
 4876 010e 9F       		.byte	0x9f
 4877 010f 12000000 		.4byte	.LVL4
 4878 0113 18000000 		.4byte	.LVL6
 4879 0117 0600     		.2byte	0x6
 4880 0119 03       		.byte	0x3
 4881 011a 00000000 		.4byte	cyBle_scanRspData
 4882 011e 9F       		.byte	0x9f
 4883 011f 18000000 		.4byte	.LVL6
 4884 0123 6C000000 		.4byte	.LVL24
 4885 0127 0100     		.2byte	0x1
 4886 0129 54       		.byte	0x54
 4887 012a 00000000 		.4byte	0
 4888 012e 00000000 		.4byte	0
 4889              	.LLST7:
 4890 0132 0A000000 		.4byte	.LVL3
 4891 0136 12000000 		.4byte	.LVL4
 4892 013a 0100     		.2byte	0x1
 4893 013c 56       		.byte	0x56
 4894 013d 16000000 		.4byte	.LVL5
 4895 0141 6C000000 		.4byte	.LVL25
 4896 0145 0100     		.2byte	0x1
 4897 0147 56       		.byte	0x56
 4898 0148 00000000 		.4byte	0
 4899 014c 00000000 		.4byte	0
 4900              	.LLST8:
 4901 0150 00000000 		.4byte	.LVL28
 4902 0154 08000000 		.4byte	.LVL30
 4903 0158 0100     		.2byte	0x1
 4904 015a 50       		.byte	0x50
 4905 015b 08000000 		.4byte	.LVL30
 4906 015f 8A000000 		.4byte	.LVL40
 4907 0163 0100     		.2byte	0x1
 4908 0165 54       		.byte	0x54
 4909 0166 8A000000 		.4byte	.LVL40
 4910 016a B0000000 		.4byte	.LFE4
 4911 016e 0400     		.2byte	0x4
ARM GAS  C:\Users\Sarah\AppData\Local\Temp\ccLQenA3.s 			page 116


 4912 0170 F3       		.byte	0xf3
 4913 0171 01       		.uleb128 0x1
 4914 0172 50       		.byte	0x50
 4915 0173 9F       		.byte	0x9f
 4916 0174 00000000 		.4byte	0
 4917 0178 00000000 		.4byte	0
 4918              	.LLST9:
 4919 017c 06000000 		.4byte	.LVL29
 4920 0180 52000000 		.4byte	.LVL33
 4921 0184 0200     		.2byte	0x2
 4922 0186 30       		.byte	0x30
 4923 0187 9F       		.byte	0x9f
 4924 0188 52000000 		.4byte	.LVL33
 4925 018c 64000000 		.4byte	.LVL34
 4926 0190 0100     		.2byte	0x1
 4927 0192 50       		.byte	0x50
 4928 0193 70000000 		.4byte	.LVL35
 4929 0197 7C000000 		.4byte	.LVL36
 4930 019b 0100     		.2byte	0x1
 4931 019d 50       		.byte	0x50
 4932 019e 84000000 		.4byte	.LVL37
 4933 01a2 86000000 		.4byte	.LVL38
 4934 01a6 0100     		.2byte	0x1
 4935 01a8 50       		.byte	0x50
 4936 01a9 86000000 		.4byte	.LVL38
 4937 01ad 88000000 		.4byte	.LVL39
 4938 01b1 0200     		.2byte	0x2
 4939 01b3 30       		.byte	0x30
 4940 01b4 9F       		.byte	0x9f
 4941 01b5 88000000 		.4byte	.LVL39
 4942 01b9 B0000000 		.4byte	.LFE4
 4943 01bd 0100     		.2byte	0x1
 4944 01bf 50       		.byte	0x50
 4945 01c0 00000000 		.4byte	0
 4946 01c4 00000000 		.4byte	0
 4947              	.LLST10:
 4948 01c8 00000000 		.4byte	.LVL42
 4949 01cc 11000000 		.4byte	.LVL44-1
 4950 01d0 0100     		.2byte	0x1
 4951 01d2 50       		.byte	0x50
 4952 01d3 11000000 		.4byte	.LVL44-1
 4953 01d7 26000000 		.4byte	.LVL45
 4954 01db 0400     		.2byte	0x4
 4955 01dd F3       		.byte	0xf3
 4956 01de 01       		.uleb128 0x1
 4957 01df 50       		.byte	0x50
 4958 01e0 9F       		.byte	0x9f
 4959 01e1 26000000 		.4byte	.LVL45
 4960 01e5 28000000 		.4byte	.LVL46
 4961 01e9 0100     		.2byte	0x1
 4962 01eb 50       		.byte	0x50
 4963 01ec 28000000 		.4byte	.LVL46
 4964 01f0 EC000000 		.4byte	.LFE6
 4965 01f4 0400     		.2byte	0x4
 4966 01f6 F3       		.byte	0xf3
 4967 01f7 01       		.uleb128 0x1
 4968 01f8 50       		.byte	0x50
ARM GAS  C:\Users\Sarah\AppData\Local\Temp\ccLQenA3.s 			page 117


 4969 01f9 9F       		.byte	0x9f
 4970 01fa 00000000 		.4byte	0
 4971 01fe 00000000 		.4byte	0
 4972              	.LLST11:
 4973 0202 06000000 		.4byte	.LVL43
 4974 0206 12000000 		.4byte	.LVL44
 4975 020a 0200     		.2byte	0x2
 4976 020c 30       		.byte	0x30
 4977 020d 9F       		.byte	0x9f
 4978 020e 12000000 		.4byte	.LVL44
 4979 0212 26000000 		.4byte	.LVL45
 4980 0216 0100     		.2byte	0x1
 4981 0218 50       		.byte	0x50
 4982 0219 26000000 		.4byte	.LVL45
 4983 021d 2A000000 		.4byte	.LVL47
 4984 0221 0200     		.2byte	0x2
 4985 0223 30       		.byte	0x30
 4986 0224 9F       		.byte	0x9f
 4987 0225 2A000000 		.4byte	.LVL47
 4988 0229 50000000 		.4byte	.LVL49
 4989 022d 0100     		.2byte	0x1
 4990 022f 50       		.byte	0x50
 4991 0230 58000000 		.4byte	.LVL50
 4992 0234 8A000000 		.4byte	.LVL52
 4993 0238 0100     		.2byte	0x1
 4994 023a 50       		.byte	0x50
 4995 023b 94000000 		.4byte	.LVL53
 4996 023f BA000000 		.4byte	.LVL54
 4997 0243 0100     		.2byte	0x1
 4998 0245 50       		.byte	0x50
 4999 0246 C2000000 		.4byte	.LVL55
 5000 024a EC000000 		.4byte	.LFE6
 5001 024e 0100     		.2byte	0x1
 5002 0250 50       		.byte	0x50
 5003 0251 00000000 		.4byte	0
 5004 0255 00000000 		.4byte	0
 5005              	.LLST12:
 5006 0259 00000000 		.4byte	.LVL57
 5007 025d 25000000 		.4byte	.LVL59-1
 5008 0261 0100     		.2byte	0x1
 5009 0263 50       		.byte	0x50
 5010 0264 25000000 		.4byte	.LVL59-1
 5011 0268 62000000 		.4byte	.LVL64
 5012 026c 0100     		.2byte	0x1
 5013 026e 54       		.byte	0x54
 5014 026f 62000000 		.4byte	.LVL64
 5015 0273 64000000 		.4byte	.LVL65
 5016 0277 0100     		.2byte	0x1
 5017 0279 50       		.byte	0x50
 5018 027a 64000000 		.4byte	.LVL65
 5019 027e 70000000 		.4byte	.LFE7
 5020 0282 0400     		.2byte	0x4
 5021 0284 F3       		.byte	0xf3
 5022 0285 01       		.uleb128 0x1
 5023 0286 50       		.byte	0x50
 5024 0287 9F       		.byte	0x9f
 5025 0288 00000000 		.4byte	0
ARM GAS  C:\Users\Sarah\AppData\Local\Temp\ccLQenA3.s 			page 118


 5026 028c 00000000 		.4byte	0
 5027              	.LLST13:
 5028 0290 04000000 		.4byte	.LVL58
 5029 0294 3E000000 		.4byte	.LVL60
 5030 0298 0200     		.2byte	0x2
 5031 029a 30       		.byte	0x30
 5032 029b 9F       		.byte	0x9f
 5033 029c 3E000000 		.4byte	.LVL60
 5034 02a0 5C000000 		.4byte	.LVL62
 5035 02a4 0100     		.2byte	0x1
 5036 02a6 50       		.byte	0x50
 5037 02a7 60000000 		.4byte	.LVL63
 5038 02ab 62000000 		.4byte	.LVL64
 5039 02af 0100     		.2byte	0x1
 5040 02b1 50       		.byte	0x50
 5041 02b2 62000000 		.4byte	.LVL64
 5042 02b6 64000000 		.4byte	.LVL65
 5043 02ba 0200     		.2byte	0x2
 5044 02bc 30       		.byte	0x30
 5045 02bd 9F       		.byte	0x9f
 5046 02be 64000000 		.4byte	.LVL65
 5047 02c2 70000000 		.4byte	.LFE7
 5048 02c6 0100     		.2byte	0x1
 5049 02c8 50       		.byte	0x50
 5050 02c9 00000000 		.4byte	0
 5051 02cd 00000000 		.4byte	0
 5052              	.LLST14:
 5053 02d1 00000000 		.4byte	.LVL66
 5054 02d5 4E000000 		.4byte	.LVL67
 5055 02d9 0100     		.2byte	0x1
 5056 02db 50       		.byte	0x50
 5057 02dc 4E000000 		.4byte	.LVL67
 5058 02e0 53000000 		.4byte	.LVL68-1
 5059 02e4 0200     		.2byte	0x2
 5060 02e6 73       		.byte	0x73
 5061 02e7 00       		.sleb128 0
 5062 02e8 53000000 		.4byte	.LVL68-1
 5063 02ec 64000000 		.4byte	.LVL69
 5064 02f0 0400     		.2byte	0x4
 5065 02f2 F3       		.byte	0xf3
 5066 02f3 01       		.uleb128 0x1
 5067 02f4 50       		.byte	0x50
 5068 02f5 9F       		.byte	0x9f
 5069 02f6 64000000 		.4byte	.LVL69
 5070 02fa 66000000 		.4byte	.LVL70
 5071 02fe 0100     		.2byte	0x1
 5072 0300 50       		.byte	0x50
 5073 0301 66000000 		.4byte	.LVL70
 5074 0305 68000000 		.4byte	.LVL71
 5075 0309 0400     		.2byte	0x4
 5076 030b F3       		.byte	0xf3
 5077 030c 01       		.uleb128 0x1
 5078 030d 50       		.byte	0x50
 5079 030e 9F       		.byte	0x9f
 5080 030f 68000000 		.4byte	.LVL71
 5081 0313 6A000000 		.4byte	.LVL72
 5082 0317 0100     		.2byte	0x1
ARM GAS  C:\Users\Sarah\AppData\Local\Temp\ccLQenA3.s 			page 119


 5083 0319 50       		.byte	0x50
 5084 031a 6A000000 		.4byte	.LVL72
 5085 031e 6E000000 		.4byte	.LVL73
 5086 0322 0400     		.2byte	0x4
 5087 0324 F3       		.byte	0xf3
 5088 0325 01       		.uleb128 0x1
 5089 0326 50       		.byte	0x50
 5090 0327 9F       		.byte	0x9f
 5091 0328 6E000000 		.4byte	.LVL73
 5092 032c 70000000 		.4byte	.LVL74
 5093 0330 0100     		.2byte	0x1
 5094 0332 50       		.byte	0x50
 5095 0333 70000000 		.4byte	.LVL74
 5096 0337 84000000 		.4byte	.LFE8
 5097 033b 0400     		.2byte	0x4
 5098 033d F3       		.byte	0xf3
 5099 033e 01       		.uleb128 0x1
 5100 033f 50       		.byte	0x50
 5101 0340 9F       		.byte	0x9f
 5102 0341 00000000 		.4byte	0
 5103 0345 00000000 		.4byte	0
 5104              	.LLST15:
 5105 0349 54000000 		.4byte	.LVL68
 5106 034d 64000000 		.4byte	.LVL69
 5107 0351 0100     		.2byte	0x1
 5108 0353 50       		.byte	0x50
 5109 0354 72000000 		.4byte	.LVL75
 5110 0358 84000000 		.4byte	.LFE8
 5111 035c 0100     		.2byte	0x1
 5112 035e 50       		.byte	0x50
 5113 035f 00000000 		.4byte	0
 5114 0363 00000000 		.4byte	0
 5115              	.LLST16:
 5116 0367 00000000 		.4byte	.LVL78
 5117 036b 32000000 		.4byte	.LVL79
 5118 036f 0100     		.2byte	0x1
 5119 0371 50       		.byte	0x50
 5120 0372 32000000 		.4byte	.LVL79
 5121 0376 37000000 		.4byte	.LVL80-1
 5122 037a 0200     		.2byte	0x2
 5123 037c 73       		.byte	0x73
 5124 037d 00       		.sleb128 0
 5125 037e 37000000 		.4byte	.LVL80-1
 5126 0382 48000000 		.4byte	.LVL81
 5127 0386 0400     		.2byte	0x4
 5128 0388 F3       		.byte	0xf3
 5129 0389 01       		.uleb128 0x1
 5130 038a 50       		.byte	0x50
 5131 038b 9F       		.byte	0x9f
 5132 038c 48000000 		.4byte	.LVL81
 5133 0390 4A000000 		.4byte	.LVL82
 5134 0394 0100     		.2byte	0x1
 5135 0396 50       		.byte	0x50
 5136 0397 4A000000 		.4byte	.LVL82
 5137 039b 58000000 		.4byte	.LFE11
 5138 039f 0400     		.2byte	0x4
 5139 03a1 F3       		.byte	0xf3
ARM GAS  C:\Users\Sarah\AppData\Local\Temp\ccLQenA3.s 			page 120


 5140 03a2 01       		.uleb128 0x1
 5141 03a3 50       		.byte	0x50
 5142 03a4 9F       		.byte	0x9f
 5143 03a5 00000000 		.4byte	0
 5144 03a9 00000000 		.4byte	0
 5145              	.LLST17:
 5146 03ad 38000000 		.4byte	.LVL80
 5147 03b1 48000000 		.4byte	.LVL81
 5148 03b5 0100     		.2byte	0x1
 5149 03b7 50       		.byte	0x50
 5150 03b8 4A000000 		.4byte	.LVL82
 5151 03bc 58000000 		.4byte	.LFE11
 5152 03c0 0100     		.2byte	0x1
 5153 03c2 50       		.byte	0x50
 5154 03c3 00000000 		.4byte	0
 5155 03c7 00000000 		.4byte	0
 5156              	.LLST18:
 5157 03cb 00000000 		.4byte	.LVL84
 5158 03cf 26000000 		.4byte	.LVL89
 5159 03d3 0100     		.2byte	0x1
 5160 03d5 50       		.byte	0x50
 5161 03d6 26000000 		.4byte	.LVL89
 5162 03da 44000000 		.4byte	.LVL94
 5163 03de 0400     		.2byte	0x4
 5164 03e0 F3       		.byte	0xf3
 5165 03e1 01       		.uleb128 0x1
 5166 03e2 50       		.byte	0x50
 5167 03e3 9F       		.byte	0x9f
 5168 03e4 44000000 		.4byte	.LVL94
 5169 03e8 4C000000 		.4byte	.LVL95
 5170 03ec 0100     		.2byte	0x1
 5171 03ee 50       		.byte	0x50
 5172 03ef 4C000000 		.4byte	.LVL95
 5173 03f3 5C000000 		.4byte	.LFE13
 5174 03f7 0400     		.2byte	0x4
 5175 03f9 F3       		.byte	0xf3
 5176 03fa 01       		.uleb128 0x1
 5177 03fb 50       		.byte	0x50
 5178 03fc 9F       		.byte	0x9f
 5179 03fd 00000000 		.4byte	0
 5180 0401 00000000 		.4byte	0
 5181              	.LLST19:
 5182 0405 2E000000 		.4byte	.LVL91
 5183 0409 3A000000 		.4byte	.LVL92
 5184 040d 0100     		.2byte	0x1
 5185 040f 50       		.byte	0x50
 5186 0410 3A000000 		.4byte	.LVL92
 5187 0414 44000000 		.4byte	.LVL94
 5188 0418 0100     		.2byte	0x1
 5189 041a 54       		.byte	0x54
 5190 041b 4C000000 		.4byte	.LVL95
 5191 041f 4E000000 		.4byte	.LVL96
 5192 0423 0100     		.2byte	0x1
 5193 0425 54       		.byte	0x54
 5194 0426 00000000 		.4byte	0
 5195 042a 00000000 		.4byte	0
 5196              	.LLST20:
ARM GAS  C:\Users\Sarah\AppData\Local\Temp\ccLQenA3.s 			page 121


 5197 042e 12000000 		.4byte	.LVL85
 5198 0432 1C000000 		.4byte	.LVL86
 5199 0436 0100     		.2byte	0x1
 5200 0438 53       		.byte	0x53
 5201 0439 1E000000 		.4byte	.LVL87
 5202 043d 24000000 		.4byte	.LVL88
 5203 0441 0100     		.2byte	0x1
 5204 0443 53       		.byte	0x53
 5205 0444 00000000 		.4byte	0
 5206 0448 00000000 		.4byte	0
 5207              	.LLST21:
 5208 044c 10000000 		.4byte	.LVL98
 5209 0450 1B000000 		.4byte	.LVL99-1
 5210 0454 0100     		.2byte	0x1
 5211 0456 50       		.byte	0x50
 5212 0457 1B000000 		.4byte	.LVL99-1
 5213 045b 28000000 		.4byte	.LVL100
 5214 045f 0100     		.2byte	0x1
 5215 0461 54       		.byte	0x54
 5216 0462 2C000000 		.4byte	.LVL101
 5217 0466 2E000000 		.4byte	.LVL102
 5218 046a 0100     		.2byte	0x1
 5219 046c 54       		.byte	0x54
 5220 046d 00000000 		.4byte	0
 5221 0471 00000000 		.4byte	0
 5222              	.LLST22:
 5223 0475 00000000 		.4byte	.LVL103
 5224 0479 47000000 		.4byte	.LVL113-1
 5225 047d 0100     		.2byte	0x1
 5226 047f 50       		.byte	0x50
 5227 0480 47000000 		.4byte	.LVL113-1
 5228 0484 54000000 		.4byte	.LVL115
 5229 0488 0100     		.2byte	0x1
 5230 048a 54       		.byte	0x54
 5231 048b 54000000 		.4byte	.LVL115
 5232 048f 56000000 		.4byte	.LVL116
 5233 0493 0100     		.2byte	0x1
 5234 0495 50       		.byte	0x50
 5235 0496 56000000 		.4byte	.LVL116
 5236 049a 60000000 		.4byte	.LFE16
 5237 049e 0400     		.2byte	0x4
 5238 04a0 F3       		.byte	0xf3
 5239 04a1 01       		.uleb128 0x1
 5240 04a2 50       		.byte	0x50
 5241 04a3 9F       		.byte	0x9f
 5242 04a4 00000000 		.4byte	0
 5243 04a8 00000000 		.4byte	0
 5244              	.LLST23:
 5245 04ac 02000000 		.4byte	.LVL104
 5246 04b0 56000000 		.4byte	.LVL116
 5247 04b4 0200     		.2byte	0x2
 5248 04b6 30       		.byte	0x30
 5249 04b7 9F       		.byte	0x9f
 5250 04b8 56000000 		.4byte	.LVL116
 5251 04bc 60000000 		.4byte	.LFE16
 5252 04c0 0100     		.2byte	0x1
 5253 04c2 50       		.byte	0x50
ARM GAS  C:\Users\Sarah\AppData\Local\Temp\ccLQenA3.s 			page 122


 5254 04c3 00000000 		.4byte	0
 5255 04c7 00000000 		.4byte	0
 5256              	.LLST24:
 5257 04cb 22000000 		.4byte	.LVL106
 5258 04cf 26000000 		.4byte	.LVL107
 5259 04d3 0200     		.2byte	0x2
 5260 04d5 30       		.byte	0x30
 5261 04d6 9F       		.byte	0x9f
 5262 04d7 26000000 		.4byte	.LVL107
 5263 04db 2A000000 		.4byte	.LVL108
 5264 04df 0100     		.2byte	0x1
 5265 04e1 53       		.byte	0x53
 5266 04e2 2C000000 		.4byte	.LVL109
 5267 04e6 3C000000 		.4byte	.LVL110
 5268 04ea 0100     		.2byte	0x1
 5269 04ec 53       		.byte	0x53
 5270 04ed 00000000 		.4byte	0
 5271 04f1 00000000 		.4byte	0
 5272              	.LLST25:
 5273 04f5 1A000000 		.4byte	.LVL105
 5274 04f9 42000000 		.4byte	.LVL111
 5275 04fd 0100     		.2byte	0x1
 5276 04ff 54       		.byte	0x54
 5277 0500 00000000 		.4byte	0
 5278 0504 00000000 		.4byte	0
 5279              	.LLST26:
 5280 0508 22000000 		.4byte	.LVL106
 5281 050c 44000000 		.4byte	.LVL112
 5282 0510 0100     		.2byte	0x1
 5283 0512 51       		.byte	0x51
 5284 0513 00000000 		.4byte	0
 5285 0517 00000000 		.4byte	0
 5286              	.LLST27:
 5287 051b 00000000 		.4byte	.LVL117
 5288 051f 38000000 		.4byte	.LVL125
 5289 0523 0100     		.2byte	0x1
 5290 0525 50       		.byte	0x50
 5291 0526 38000000 		.4byte	.LVL125
 5292 052a 3A000000 		.4byte	.LVL126
 5293 052e 0400     		.2byte	0x4
 5294 0530 F3       		.byte	0xf3
 5295 0531 01       		.uleb128 0x1
 5296 0532 50       		.byte	0x50
 5297 0533 9F       		.byte	0x9f
 5298 0534 3A000000 		.4byte	.LVL126
 5299 0538 3C000000 		.4byte	.LVL127
 5300 053c 0100     		.2byte	0x1
 5301 053e 50       		.byte	0x50
 5302 053f 3C000000 		.4byte	.LVL127
 5303 0543 48000000 		.4byte	.LFE17
 5304 0547 0400     		.2byte	0x4
 5305 0549 F3       		.byte	0xf3
 5306 054a 01       		.uleb128 0x1
 5307 054b 50       		.byte	0x50
 5308 054c 9F       		.byte	0x9f
 5309 054d 00000000 		.4byte	0
 5310 0551 00000000 		.4byte	0
ARM GAS  C:\Users\Sarah\AppData\Local\Temp\ccLQenA3.s 			page 123


 5311              	.LLST28:
 5312 0555 02000000 		.4byte	.LVL118
 5313 0559 3C000000 		.4byte	.LVL127
 5314 055d 0200     		.2byte	0x2
 5315 055f 30       		.byte	0x30
 5316 0560 9F       		.byte	0x9f
 5317 0561 3C000000 		.4byte	.LVL127
 5318 0565 48000000 		.4byte	.LFE17
 5319 0569 0100     		.2byte	0x1
 5320 056b 50       		.byte	0x50
 5321 056c 00000000 		.4byte	0
 5322 0570 00000000 		.4byte	0
 5323              	.LLST29:
 5324 0574 1C000000 		.4byte	.LVL120
 5325 0578 3A000000 		.4byte	.LVL126
 5326 057c 0100     		.2byte	0x1
 5327 057e 51       		.byte	0x51
 5328 057f 00000000 		.4byte	0
 5329 0583 00000000 		.4byte	0
 5330              	.LLST30:
 5331 0587 1C000000 		.4byte	.LVL120
 5332 058b 20000000 		.4byte	.LVL121
 5333 058f 0200     		.2byte	0x2
 5334 0591 30       		.byte	0x30
 5335 0592 9F       		.byte	0x9f
 5336 0593 20000000 		.4byte	.LVL121
 5337 0597 24000000 		.4byte	.LVL122
 5338 059b 0100     		.2byte	0x1
 5339 059d 53       		.byte	0x53
 5340 059e 26000000 		.4byte	.LVL123
 5341 05a2 32000000 		.4byte	.LVL124
 5342 05a6 0100     		.2byte	0x1
 5343 05a8 53       		.byte	0x53
 5344 05a9 00000000 		.4byte	0
 5345 05ad 00000000 		.4byte	0
 5346              	.LLST31:
 5347 05b1 1A000000 		.4byte	.LVL119
 5348 05b5 3A000000 		.4byte	.LVL126
 5349 05b9 0100     		.2byte	0x1
 5350 05bb 54       		.byte	0x54
 5351 05bc 00000000 		.4byte	0
 5352 05c0 00000000 		.4byte	0
 5353              	.LLST32:
 5354 05c4 00000000 		.4byte	.LVL128
 5355 05c8 04000000 		.4byte	.LVL129
 5356 05cc 0100     		.2byte	0x1
 5357 05ce 50       		.byte	0x50
 5358 05cf 04000000 		.4byte	.LVL129
 5359 05d3 0A000000 		.4byte	.LFE18
 5360 05d7 0400     		.2byte	0x4
 5361 05d9 F3       		.byte	0xf3
 5362 05da 01       		.uleb128 0x1
 5363 05db 50       		.byte	0x50
 5364 05dc 9F       		.byte	0x9f
 5365 05dd 00000000 		.4byte	0
 5366 05e1 00000000 		.4byte	0
 5367              	.LLST33:
ARM GAS  C:\Users\Sarah\AppData\Local\Temp\ccLQenA3.s 			page 124


 5368 05e5 00000000 		.4byte	.LVL130
 5369 05e9 04000000 		.4byte	.LVL131
 5370 05ed 0100     		.2byte	0x1
 5371 05ef 51       		.byte	0x51
 5372 05f0 04000000 		.4byte	.LVL131
 5373 05f4 08000000 		.4byte	.LFE19
 5374 05f8 0400     		.2byte	0x4
 5375 05fa F3       		.byte	0xf3
 5376 05fb 01       		.uleb128 0x1
 5377 05fc 51       		.byte	0x51
 5378 05fd 9F       		.byte	0x9f
 5379 05fe 00000000 		.4byte	0
 5380 0602 00000000 		.4byte	0
 5381              		.section	.debug_aranges,"",%progbits
 5382 0000 A4000000 		.4byte	0xa4
 5383 0004 0200     		.2byte	0x2
 5384 0006 00000000 		.4byte	.Ldebug_info0
 5385 000a 04       		.byte	0x4
 5386 000b 00       		.byte	0
 5387 000c 0000     		.2byte	0
 5388 000e 0000     		.2byte	0
 5389 0010 00000000 		.4byte	.LFB15
 5390 0014 78000000 		.4byte	.LFE15-.LFB15
 5391 0018 00000000 		.4byte	.LFB3
 5392 001c 08000000 		.4byte	.LFE3-.LFB3
 5393 0020 00000000 		.4byte	.LFB2
 5394 0024 7C000000 		.4byte	.LFE2-.LFB2
 5395 0028 00000000 		.4byte	.LFB4
 5396 002c B0000000 		.4byte	.LFE4-.LFB4
 5397 0030 00000000 		.4byte	.LFB5
 5398 0034 14000000 		.4byte	.LFE5-.LFB5
 5399 0038 00000000 		.4byte	.LFB6
 5400 003c EC000000 		.4byte	.LFE6-.LFB6
 5401 0040 00000000 		.4byte	.LFB7
 5402 0044 70000000 		.4byte	.LFE7-.LFB7
 5403 0048 00000000 		.4byte	.LFB8
 5404 004c 84000000 		.4byte	.LFE8-.LFB8
 5405 0050 00000000 		.4byte	.LFB9
 5406 0054 18000000 		.4byte	.LFE9-.LFB9
 5407 0058 00000000 		.4byte	.LFB10
 5408 005c 02000000 		.4byte	.LFE10-.LFB10
 5409 0060 00000000 		.4byte	.LFB11
 5410 0064 58000000 		.4byte	.LFE11-.LFB11
 5411 0068 00000000 		.4byte	.LFB12
 5412 006c 18000000 		.4byte	.LFE12-.LFB12
 5413 0070 00000000 		.4byte	.LFB13
 5414 0074 5C000000 		.4byte	.LFE13-.LFB13
 5415 0078 00000000 		.4byte	.LFB14
 5416 007c 38000000 		.4byte	.LFE14-.LFB14
 5417 0080 00000000 		.4byte	.LFB16
 5418 0084 60000000 		.4byte	.LFE16-.LFB16
 5419 0088 00000000 		.4byte	.LFB17
 5420 008c 48000000 		.4byte	.LFE17-.LFB17
 5421 0090 00000000 		.4byte	.LFB18
 5422 0094 0A000000 		.4byte	.LFE18-.LFB18
 5423 0098 00000000 		.4byte	.LFB19
 5424 009c 08000000 		.4byte	.LFE19-.LFB19
ARM GAS  C:\Users\Sarah\AppData\Local\Temp\ccLQenA3.s 			page 125


 5425 00a0 00000000 		.4byte	0
 5426 00a4 00000000 		.4byte	0
 5427              		.section	.debug_ranges,"",%progbits
 5428              	.Ldebug_ranges0:
 5429 0000 00000000 		.4byte	.LFB15
 5430 0004 78000000 		.4byte	.LFE15
 5431 0008 00000000 		.4byte	.LFB3
 5432 000c 08000000 		.4byte	.LFE3
 5433 0010 00000000 		.4byte	.LFB2
 5434 0014 7C000000 		.4byte	.LFE2
 5435 0018 00000000 		.4byte	.LFB4
 5436 001c B0000000 		.4byte	.LFE4
 5437 0020 00000000 		.4byte	.LFB5
 5438 0024 14000000 		.4byte	.LFE5
 5439 0028 00000000 		.4byte	.LFB6
 5440 002c EC000000 		.4byte	.LFE6
 5441 0030 00000000 		.4byte	.LFB7
 5442 0034 70000000 		.4byte	.LFE7
 5443 0038 00000000 		.4byte	.LFB8
 5444 003c 84000000 		.4byte	.LFE8
 5445 0040 00000000 		.4byte	.LFB9
 5446 0044 18000000 		.4byte	.LFE9
 5447 0048 00000000 		.4byte	.LFB10
 5448 004c 02000000 		.4byte	.LFE10
 5449 0050 00000000 		.4byte	.LFB11
 5450 0054 58000000 		.4byte	.LFE11
 5451 0058 00000000 		.4byte	.LFB12
 5452 005c 18000000 		.4byte	.LFE12
 5453 0060 00000000 		.4byte	.LFB13
 5454 0064 5C000000 		.4byte	.LFE13
 5455 0068 00000000 		.4byte	.LFB14
 5456 006c 38000000 		.4byte	.LFE14
 5457 0070 00000000 		.4byte	.LFB16
 5458 0074 60000000 		.4byte	.LFE16
 5459 0078 00000000 		.4byte	.LFB17
 5460 007c 48000000 		.4byte	.LFE17
 5461 0080 00000000 		.4byte	.LFB18
 5462 0084 0A000000 		.4byte	.LFE18
 5463 0088 00000000 		.4byte	.LFB19
 5464 008c 08000000 		.4byte	.LFE19
 5465 0090 00000000 		.4byte	0
 5466 0094 00000000 		.4byte	0
 5467              		.section	.debug_line,"",%progbits
 5468              	.Ldebug_line0:
 5469 0000 65040000 		.section	.debug_str,"MS",%progbits,1
 5469      0200D301 
 5469      00000201 
 5469      FB0E0D00 
 5469      01010101 
 5470              	.LASF279:
 5471 0000 6379426C 		.ascii	"cyBle_peerBonding\000"
 5471      655F7065 
 5471      6572426F 
 5471      6E64696E 
 5471      6700
 5472              	.LASF255:
 5473 0012 4379426C 		.ascii	"CyBle_GapcConnectDevice\000"
ARM GAS  C:\Users\Sarah\AppData\Local\Temp\ccLQenA3.s 			page 126


 5473      655F4761 
 5473      7063436F 
 5473      6E6E6563 
 5473      74446576 
 5474              	.LASF159:
 5475 002a 7363616E 		.ascii	"scanRspData\000"
 5475      52737044 
 5475      61746100 
 5476              	.LASF16:
 5477 0036 73697A65 		.ascii	"size_t\000"
 5477      5F7400
 5478              	.LASF17:
 5479 003d 73697A65 		.ascii	"sizetype\000"
 5479      74797065 
 5479      00
 5480              	.LASF39:
 5481 0046 4359424C 		.ascii	"CYBLE_EVT_GAP_NUMERIC_COMPARISON_REQUEST\000"
 5481      455F4556 
 5481      545F4741 
 5481      505F4E55 
 5481      4D455249 
 5482              	.LASF302:
 5483 006f 4379426C 		.ascii	"CyBle_GapcStopDiscovery\000"
 5483      655F4761 
 5483      70635374 
 5483      6F704469 
 5483      73636F76 
 5484              	.LASF234:
 5485 0087 61706952 		.ascii	"apiResult\000"
 5485      6573756C 
 5485      7400
 5486              	.LASF33:
 5487 0091 4359424C 		.ascii	"CYBLE_EVT_GAP_DEVICE_CONNECTED\000"
 5487      455F4556 
 5487      545F4741 
 5487      505F4445 
 5487      56494345 
 5488              	.LASF51:
 5489 00b0 4359424C 		.ascii	"CYBLE_EVT_GATT_CONNECT_IND\000"
 5489      455F4556 
 5489      545F4741 
 5489      54545F43 
 5489      4F4E4E45 
 5490              	.LASF310:
 5491 00cb 4379426C 		.ascii	"CyBle_ChangeAdLocalName\000"
 5491      655F4368 
 5491      616E6765 
 5491      41644C6F 
 5491      63616C4E 
 5492              	.LASF11:
 5493 00e3 75696E74 		.ascii	"uint32\000"
 5493      333200
 5494              	.LASF229:
 5495 00ea 64657374 		.ascii	"destBuffer\000"
 5495      42756666 
 5495      657200
 5496              	.LASF162:
ARM GAS  C:\Users\Sarah\AppData\Local\Temp\ccLQenA3.s 			page 127


 5497 00f5 64697363 		.ascii	"discMode\000"
 5497      4D6F6465 
 5497      00
 5498              	.LASF107:
 5499 00fe 4359424C 		.ascii	"CYBLE_ERROR_L2CAP_CONNECTION_ENTITY_NOT_FOUND\000"
 5499      455F4552 
 5499      524F525F 
 5499      4C324341 
 5499      505F434F 
 5500              	.LASF113:
 5501 012c 4359424C 		.ascii	"CYBLE_ERROR_MIC_AUTH_FAILED\000"
 5501      455F4552 
 5501      524F525F 
 5501      4D49435F 
 5501      41555448 
 5502              	.LASF297:
 5503 0148 4379426C 		.ascii	"CyBle_GapGetPeerBdHandle\000"
 5503      655F4761 
 5503      70476574 
 5503      50656572 
 5503      42644861 
 5504              	.LASF14:
 5505 0161 63686172 		.ascii	"char8\000"
 5505      3800
 5506              	.LASF83:
 5507 0167 4359424C 		.ascii	"CYBLE_EVT_L2CAP_CBFC_RX_CREDIT_IND\000"
 5507      455F4556 
 5507      545F4C32 
 5507      4341505F 
 5507      43424643 
 5508              	.LASF246:
 5509 018a 62446576 		.ascii	"bDevHandle\000"
 5509      48616E64 
 5509      6C6500
 5510              	.LASF304:
 5511 0195 4379426C 		.ascii	"CyBle_StartTimer\000"
 5511      655F5374 
 5511      61727454 
 5511      696D6572 
 5511      00
 5512              	.LASF199:
 5513 01a6 7065726D 		.ascii	"permission\000"
 5513      69737369 
 5513      6F6E00
 5514              	.LASF126:
 5515 01b1 74797065 		.ascii	"type\000"
 5515      00
 5516              	.LASF253:
 5517 01b6 7363616E 		.ascii	"scanningIntervalType\000"
 5517      6E696E67 
 5517      496E7465 
 5517      7276616C 
 5517      54797065 
 5518              	.LASF203:
 5519 01cb 4359424C 		.ascii	"CYBLE_CALLBACK_T\000"
 5519      455F4341 
 5519      4C4C4241 
ARM GAS  C:\Users\Sarah\AppData\Local\Temp\ccLQenA3.s 			page 128


 5519      434B5F54 
 5519      00
 5520              	.LASF288:
 5521 01dc 6379426C 		.ascii	"cyBle_scanningIntervalType\000"
 5521      655F7363 
 5521      616E6E69 
 5521      6E67496E 
 5521      74657276 
 5522              	.LASF68:
 5523 01f7 4359424C 		.ascii	"CYBLE_EVT_GATTC_HANDLE_VALUE_NTF\000"
 5523      455F4556 
 5523      545F4741 
 5523      5454435F 
 5523      48414E44 
 5524              	.LASF27:
 5525 0218 4359424C 		.ascii	"CYBLE_EVT_GAP_AUTH_REQ\000"
 5525      455F4556 
 5525      545F4741 
 5525      505F4155 
 5525      54485F52 
 5526              	.LASF187:
 5527 022f 4359424C 		.ascii	"CYBLE_CONN_HANDLE_T\000"
 5527      455F434F 
 5527      4E4E5F48 
 5527      414E444C 
 5527      455F5400 
 5528              	.LASF233:
 5529 0243 63616C6C 		.ascii	"callbackFunc\000"
 5529      6261636B 
 5529      46756E63 
 5529      00
 5530              	.LASF102:
 5531 0250 4359424C 		.ascii	"CYBLE_ERROR_BT_ON_NOT_COMPLETED\000"
 5531      455F4552 
 5531      524F525F 
 5531      42545F4F 
 5531      4E5F4E4F 
 5532              	.LASF254:
 5533 0270 4379426C 		.ascii	"CyBle_GapcStopScan\000"
 5533      655F4761 
 5533      70635374 
 5533      6F705363 
 5533      616E00
 5534              	.LASF48:
 5535 0283 4359424C 		.ascii	"CYBLE_EVT_GAP_AUTH_REQ_REPLY_ERR\000"
 5535      455F4556 
 5535      545F4741 
 5535      505F4155 
 5535      54485F52 
 5536              	.LASF212:
 5537 02a4 4359424C 		.ascii	"CYBLE_STATE_ADVERTISING\000"
 5537      455F5354 
 5537      4154455F 
 5537      41445645 
 5537      52544953 
 5538              	.LASF41:
 5539 02bc 4359424C 		.ascii	"CYBLE_EVT_GAP_OOB_GENERATED_NOTIFICATION\000"
ARM GAS  C:\Users\Sarah\AppData\Local\Temp\ccLQenA3.s 			page 129


 5539      455F4556 
 5539      545F4741 
 5539      505F4F4F 
 5539      425F4745 
 5540              	.LASF185:
 5541 02e5 62644861 		.ascii	"bdHandle\000"
 5541      6E646C65 
 5541      00
 5542              	.LASF134:
 5543 02ee 4359424C 		.ascii	"CYBLE_DLE_CONFIG_PARAM_T\000"
 5543      455F444C 
 5543      455F434F 
 5543      4E464947 
 5543      5F504152 
 5544              	.LASF64:
 5545 0307 4359424C 		.ascii	"CYBLE_EVT_GATTS_WRITE_CMD_REQ\000"
 5545      455F4556 
 5545      545F4741 
 5545      5454535F 
 5545      57524954 
 5546              	.LASF84:
 5547 0325 4359424C 		.ascii	"CYBLE_EVT_L2CAP_CBFC_TX_CREDIT_IND\000"
 5547      455F4556 
 5547      545F4C32 
 5547      4341505F 
 5547      43424643 
 5548              	.LASF4:
 5549 0348 6C6F6E67 		.ascii	"long int\000"
 5549      20696E74 
 5549      00
 5550              	.LASF231:
 5551 0351 4379426C 		.ascii	"CyBle_ServiceInit\000"
 5551      655F5365 
 5551      72766963 
 5551      65496E69 
 5551      7400
 5552              	.LASF249:
 5553 0363 61647665 		.ascii	"advertisingIntervalType\000"
 5553      72746973 
 5553      696E6749 
 5553      6E746572 
 5553      76616C54 
 5554              	.LASF130:
 5555 037b 4359424C 		.ascii	"CYBLE_STK_APP_DATA_BUFF_T\000"
 5555      455F5354 
 5555      4B5F4150 
 5555      505F4441 
 5555      54415F42 
 5556              	.LASF137:
 5557 0395 646C6543 		.ascii	"dleConfig\000"
 5557      6F6E6669 
 5557      6700
 5558              	.LASF295:
 5559 039f 4379426C 		.ascii	"CyBle_StoreStackData\000"
 5559      655F5374 
 5559      6F726553 
 5559      7461636B 
ARM GAS  C:\Users\Sarah\AppData\Local\Temp\ccLQenA3.s 			page 130


 5559      44617461 
 5560              	.LASF238:
 5561 03b4 73746163 		.ascii	"stackConfig\000"
 5561      6B436F6E 
 5561      66696700 
 5562              	.LASF20:
 5563 03c0 4359424C 		.ascii	"CYBLE_EVT_STACK_ON\000"
 5563      455F4556 
 5563      545F5354 
 5563      41434B5F 
 5563      4F4E00
 5564              	.LASF109:
 5565 03d3 4359424C 		.ascii	"CYBLE_ERROR_L2CAP_PSM_NOT_IN_RANGE\000"
 5565      455F4552 
 5565      524F525F 
 5565      4C324341 
 5565      505F5053 
 5566              	.LASF274:
 5567 03f6 6379426C 		.ascii	"cyBle_discoveryParam\000"
 5567      655F6469 
 5567      73636F76 
 5567      65727950 
 5567      6172616D 
 5568              	.LASF294:
 5569 040b 4379426C 		.ascii	"CyBle_StoreAppData\000"
 5569      655F5374 
 5569      6F726541 
 5569      70704461 
 5569      746100
 5570              	.LASF269:
 5571 041e 6379426C 		.ascii	"cyBle_deviceAddress\000"
 5571      655F6465 
 5571      76696365 
 5571      41646472 
 5571      65737300 
 5572              	.LASF167:
 5573 0432 7363616E 		.ascii	"scanType\000"
 5573      54797065 
 5573      00
 5574              	.LASF121:
 5575 043b 4359424C 		.ascii	"CYBLE_ERROR_CHAR_IS_NOT_DISCOVERED\000"
 5575      455F4552 
 5575      524F525F 
 5575      43484152 
 5575      5F49535F 
 5576              	.LASF177:
 5577 045e 636F6E6E 		.ascii	"connIntvMin\000"
 5577      496E7476 
 5577      4D696E00 
 5578              	.LASF198:
 5579 046a 61747454 		.ascii	"attType\000"
 5579      79706500 
 5580              	.LASF144:
 5581 0472 4359424C 		.ascii	"CYBLE_GAPP_NON_CONNECTABLE_UNDIRECTED_ADV\000"
 5581      455F4741 
 5581      50505F4E 
 5581      4F4E5F43 
ARM GAS  C:\Users\Sarah\AppData\Local\Temp\ccLQenA3.s 			page 131


 5581      4F4E4E45 
 5582              	.LASF77:
 5583 049c 4359424C 		.ascii	"CYBLE_EVT_L2CAP_COMMAND_REJ\000"
 5583      455F4556 
 5583      545F4C32 
 5583      4341505F 
 5583      434F4D4D 
 5584              	.LASF222:
 5585 04b8 7270614F 		.ascii	"rpaOnlyCharHandle\000"
 5585      6E6C7943 
 5585      68617248 
 5585      616E646C 
 5585      6500
 5586              	.LASF110:
 5587 04ca 4359424C 		.ascii	"CYBLE_ERROR_GATT_DB_INVALID_ATTR_HANDLE\000"
 5587      455F4552 
 5587      524F525F 
 5587      47415454 
 5587      5F44425F 
 5588              	.LASF0:
 5589 04f2 7369676E 		.ascii	"signed char\000"
 5589      65642063 
 5589      68617200 
 5590              	.LASF245:
 5591 04fe 4379426C 		.ascii	"CyBle_GapRemoveBondedDevice\000"
 5591      655F4761 
 5591      7052656D 
 5591      6F766542 
 5591      6F6E6465 
 5592              	.LASF129:
 5593 051a 62756666 		.ascii	"bufferUnits\000"
 5593      6572556E 
 5593      69747300 
 5594              	.LASF22:
 5595 0526 4359424C 		.ascii	"CYBLE_EVT_HARDWARE_ERROR\000"
 5595      455F4556 
 5595      545F4841 
 5595      52445741 
 5595      52455F45 
 5596              	.LASF91:
 5597 053f 4359424C 		.ascii	"CYBLE_ERROR_OK\000"
 5597      455F4552 
 5597      524F525F 
 5597      4F4B00
 5598              	.LASF301:
 5599 054e 4379426C 		.ascii	"CyBle_GapcStartDiscovery\000"
 5599      655F4761 
 5599      70635374 
 5599      61727444 
 5599      6973636F 
 5600              	.LASF175:
 5601 0567 70656572 		.ascii	"peerBdAddr\000"
 5601      42644164 
 5601      647200
 5602              	.LASF55:
 5603 0572 4359424C 		.ascii	"CYBLE_EVT_GATTC_READ_BY_GROUP_TYPE_RSP\000"
 5603      455F4556 
ARM GAS  C:\Users\Sarah\AppData\Local\Temp\ccLQenA3.s 			page 132


 5603      545F4741 
 5603      5454435F 
 5603      52454144 
 5604              	.LASF209:
 5605 0599 4359424C 		.ascii	"CYBLE_STATE_STOPPED\000"
 5605      455F5354 
 5605      4154455F 
 5605      53544F50 
 5605      50454400 
 5606              	.LASF1:
 5607 05ad 756E7369 		.ascii	"unsigned char\000"
 5607      676E6564 
 5607      20636861 
 5607      7200
 5608              	.LASF54:
 5609 05bb 4359424C 		.ascii	"CYBLE_EVT_GATTC_XCHNG_MTU_RSP\000"
 5609      455F4556 
 5609      545F4741 
 5609      5454435F 
 5609      5843484E 
 5610              	.LASF45:
 5611 05d9 4359424C 		.ascii	"CYBLE_EVT_GAP_SMP_NEGOTIATED_AUTH_INFO\000"
 5611      455F4556 
 5611      545F4741 
 5611      505F534D 
 5611      505F4E45 
 5612              	.LASF46:
 5613 0600 4359424C 		.ascii	"CYBLE_EVT_GAP_CONN_ESTB\000"
 5613      455F4556 
 5613      545F4741 
 5613      505F434F 
 5613      4E4E5F45 
 5614              	.LASF147:
 5615 0618 61647649 		.ascii	"advIntvMin\000"
 5615      6E74764D 
 5615      696E00
 5616              	.LASF197:
 5617 0623 61747448 		.ascii	"attHandle\000"
 5617      616E646C 
 5617      6500
 5618              	.LASF248:
 5619 062d 4379426C 		.ascii	"CyBle_GappStartAdvertisement\000"
 5619      655F4761 
 5619      70705374 
 5619      61727441 
 5619      64766572 
 5620              	.LASF158:
 5621 064a 4359424C 		.ascii	"CYBLE_GAPP_DISC_DATA_T\000"
 5621      455F4741 
 5621      50505F44 
 5621      4953435F 
 5621      44415441 
 5622              	.LASF81:
 5623 0661 4359424C 		.ascii	"CYBLE_EVT_L2CAP_CBFC_DISCONN_CNF\000"
 5623      455F4556 
 5623      545F4C32 
 5623      4341505F 
ARM GAS  C:\Users\Sarah\AppData\Local\Temp\ccLQenA3.s 			page 133


 5623      43424643 
 5624              	.LASF58:
 5625 0682 4359424C 		.ascii	"CYBLE_EVT_GATTC_FIND_BY_TYPE_VALUE_RSP\000"
 5625      455F4556 
 5625      545F4741 
 5625      5454435F 
 5625      46494E44 
 5626              	.LASF42:
 5627 06a9 4359424C 		.ascii	"CYBLE_EVT_GAP_DATA_LENGTH_CHANGE\000"
 5627      455F4556 
 5627      545F4741 
 5627      505F4441 
 5627      54415F4C 
 5628              	.LASF15:
 5629 06ca 63686172 		.ascii	"char\000"
 5629      00
 5630              	.LASF290:
 5631 06cf 4379426C 		.ascii	"CyBle_StackInit\000"
 5631      655F5374 
 5631      61636B49 
 5631      6E697400 
 5632              	.LASF191:
 5633 06df 6D617841 		.ascii	"maxAttrLength\000"
 5633      7474724C 
 5633      656E6774 
 5633      6800
 5634              	.LASF61:
 5635 06ed 4359424C 		.ascii	"CYBLE_EVT_GATTC_READ_MULTI_RSP\000"
 5635      455F4556 
 5635      545F4741 
 5635      5454435F 
 5635      52454144 
 5636              	.LASF214:
 5637 070c 4359424C 		.ascii	"CYBLE_STATE_CONNECTING\000"
 5637      455F5354 
 5637      4154455F 
 5637      434F4E4E 
 5637      45435449 
 5638              	.LASF19:
 5639 0723 4359424C 		.ascii	"CYBLE_EVT_HOST_INVALID\000"
 5639      455F4556 
 5639      545F484F 
 5639      53545F49 
 5639      4E56414C 
 5640              	.LASF300:
 5641 073a 4379426C 		.ascii	"CyBle_GappExitDiscoveryMode\000"
 5641      655F4761 
 5641      70704578 
 5641      69744469 
 5641      73636F76 
 5642              	.LASF260:
 5643 0756 4379426C 		.ascii	"CyBle_GapGetLocalName\000"
 5643      655F4761 
 5643      70476574 
 5643      4C6F6361 
 5643      6C4E616D 
 5644              	.LASF44:
ARM GAS  C:\Users\Sarah\AppData\Local\Temp\ccLQenA3.s 			page 134


 5645 076c 4359424C 		.ascii	"CYBLE_EVT_GAPC_DIRECT_ADV_REPORT\000"
 5645      455F4556 
 5645      545F4741 
 5645      50435F44 
 5645      49524543 
 5646              	.LASF98:
 5647 078d 4359424C 		.ascii	"CYBLE_ERROR_NO_DEVICE_ENTITY\000"
 5647      455F4552 
 5647      524F525F 
 5647      4E4F5F44 
 5647      45564943 
 5648              	.LASF60:
 5649 07aa 4359424C 		.ascii	"CYBLE_EVT_GATTC_READ_BLOB_RSP\000"
 5649      455F4556 
 5649      545F4741 
 5649      5454435F 
 5649      52454144 
 5650              	.LASF67:
 5651 07c8 4359424C 		.ascii	"CYBLE_EVT_GATTC_EXEC_WRITE_RSP\000"
 5651      455F4556 
 5651      545F4741 
 5651      5454435F 
 5651      45584543 
 5652              	.LASF232:
 5653 07e7 4379426C 		.ascii	"CyBle_Init\000"
 5653      655F496E 
 5653      697400
 5654              	.LASF309:
 5655 07f2 433A5C55 		.ascii	"C:\\Users\\Sarah\\Documents\\DVCS\\bleapp-master\\b"
 5655      73657273 
 5655      5C536172 
 5655      61685C44 
 5655      6F63756D 
 5656 081f 6C656170 		.ascii	"leapp-master\\PSoC_Creator\\capsenseled\\capsensele"
 5656      702D6D61 
 5656      73746572 
 5656      5C50536F 
 5656      435F4372 
 5657 084f 642E6379 		.ascii	"d.cydsn\000"
 5657      64736E00 
 5658              	.LASF72:
 5659 0857 4359424C 		.ascii	"CYBLE_EVT_GATTC_STOP_CMD_COMPLETE\000"
 5659      455F4556 
 5659      545F4741 
 5659      5454435F 
 5659      53544F50 
 5660              	.LASF202:
 5661 0879 4359424C 		.ascii	"CYBLE_GATTS_DB_T\000"
 5661      455F4741 
 5661      5454535F 
 5661      44425F54 
 5661      00
 5662              	.LASF264:
 5663 088a 6379426C 		.ascii	"cyBle_pendingFlashClearCccdHandle\000"
 5663      655F7065 
 5663      6E64696E 
 5663      67466C61 
ARM GAS  C:\Users\Sarah\AppData\Local\Temp\ccLQenA3.s 			page 135


 5663      7368436C 
 5664              	.LASF250:
 5665 08ac 4379426C 		.ascii	"CyBle_GappStopAdvertisement\000"
 5665      655F4761 
 5665      70705374 
 5665      6F704164 
 5665      76657274 
 5666              	.LASF293:
 5667 08c8 4379426C 		.ascii	"CyBle_Shutdown\000"
 5667      655F5368 
 5667      7574646F 
 5667      776E00
 5668              	.LASF117:
 5669 08d7 4359424C 		.ascii	"CYBLE_ERROR_CONTROLLER_BUSY\000"
 5669      455F4552 
 5669      524F525F 
 5669      434F4E54 
 5669      524F4C4C 
 5670              	.LASF92:
 5671 08f3 4359424C 		.ascii	"CYBLE_ERROR_INVALID_PARAMETER\000"
 5671      455F4552 
 5671      524F525F 
 5671      494E5641 
 5671      4C49445F 
 5672              	.LASF235:
 5673 0911 6379426C 		.ascii	"cyBle_stackDataBuff\000"
 5673      655F7374 
 5673      61636B44 
 5673      61746142 
 5673      75666600 
 5674              	.LASF207:
 5675 0925 626F756E 		.ascii	"boundedDevCount\000"
 5675      64656444 
 5675      6576436F 
 5675      756E7400 
 5676              	.LASF239:
 5677 0935 66656174 		.ascii	"featureHeapReq\000"
 5677      75726548 
 5677      65617052 
 5677      657100
 5678              	.LASF306:
 5679 0944 4379426C 		.ascii	"CyBle_StopTimer\000"
 5679      655F5374 
 5679      6F705469 
 5679      6D657200 
 5680              	.LASF145:
 5681 0954 4359424C 		.ascii	"CYBLE_GAPP_CONNECTABLE_LOW_DC_DIRECTED_ADV\000"
 5681      455F4741 
 5681      50505F43 
 5681      4F4E4E45 
 5681      43544142 
 5682              	.LASF94:
 5683 097f 4359424C 		.ascii	"CYBLE_ERROR_MEMORY_ALLOCATION_FAILED\000"
 5683      455F4552 
 5683      524F525F 
 5683      4D454D4F 
 5683      52595F41 
ARM GAS  C:\Users\Sarah\AppData\Local\Temp\ccLQenA3.s 			page 136


 5684              	.LASF257:
 5685 09a4 4379426C 		.ascii	"CyBle_GapcCancelDeviceConnection\000"
 5685      655F4761 
 5685      70634361 
 5685      6E63656C 
 5685      44657669 
 5686              	.LASF270:
 5687 09c5 6379426C 		.ascii	"cyBle_sflashDeviceAddress\000"
 5687      655F7366 
 5687      6C617368 
 5687      44657669 
 5687      63654164 
 5688              	.LASF205:
 5689 09df 61747456 		.ascii	"attValuesCCCDFlashMemory\000"
 5689      616C7565 
 5689      73434343 
 5689      44466C61 
 5689      73684D65 
 5690              	.LASF308:
 5691 09f8 47656E65 		.ascii	"Generated_Source\\PSoC4\\ble.c\000"
 5691      72617465 
 5691      645F536F 
 5691      75726365 
 5691      5C50536F 
 5692              	.LASF272:
 5693 0a15 6379426C 		.ascii	"cyBle_connectionParameters\000"
 5693      655F636F 
 5693      6E6E6563 
 5693      74696F6E 
 5693      50617261 
 5694              	.LASF118:
 5695 0a30 4359424C 		.ascii	"CYBLE_ERROR_MAX\000"
 5695      455F4552 
 5695      524F525F 
 5695      4D415800 
 5696              	.LASF76:
 5697 0a40 4359424C 		.ascii	"CYBLE_EVT_L2CAP_CONN_PARAM_UPDATE_RSP\000"
 5697      455F4556 
 5697      545F4C32 
 5697      4341505F 
 5697      434F4E4E 
 5698              	.LASF88:
 5699 0a66 4359424C 		.ascii	"CYBLE_EVT_HCI_PKT\000"
 5699      455F4556 
 5699      545F4843 
 5699      495F504B 
 5699      5400
 5700              	.LASF204:
 5701 0a78 73746163 		.ascii	"stackFlashptr\000"
 5701      6B466C61 
 5701      73687074 
 5701      7200
 5702              	.LASF155:
 5703 0a86 4359424C 		.ascii	"CYBLE_GAPP_DISC_PARAM_T\000"
 5703      455F4741 
 5703      50505F44 
 5703      4953435F 
ARM GAS  C:\Users\Sarah\AppData\Local\Temp\ccLQenA3.s 			page 137


 5703      50415241 
 5704              	.LASF166:
 5705 0a9e 64697363 		.ascii	"discProcedure\000"
 5705      50726F63 
 5705      65647572 
 5705      6500
 5706              	.LASF230:
 5707 0aac 6D61784C 		.ascii	"maxLength\000"
 5707      656E6774 
 5707      6800
 5708              	.LASF30:
 5709 0ab6 4359424C 		.ascii	"CYBLE_EVT_GAP_AUTH_COMPLETE\000"
 5709      455F4556 
 5709      545F4741 
 5709      505F4155 
 5709      54485F43 
 5710              	.LASF154:
 5711 0ad2 61647646 		.ascii	"advFilterPolicy\000"
 5711      696C7465 
 5711      72506F6C 
 5711      69637900 
 5712              	.LASF31:
 5713 0ae2 4359424C 		.ascii	"CYBLE_EVT_GAP_AUTH_FAILED\000"
 5713      455F4556 
 5713      545F4741 
 5713      505F4155 
 5713      54485F46 
 5714              	.LASF123:
 5715 0afc 4359424C 		.ascii	"CYBLE_ERROR_STACK_BUSY\000"
 5715      455F4552 
 5715      524F525F 
 5715      53544143 
 5715      4B5F4255 
 5716              	.LASF289:
 5717 0b13 4379426C 		.ascii	"CyBle_StackSetFeatureConfig\000"
 5717      655F5374 
 5717      61636B53 
 5717      65744665 
 5717      61747572 
 5718              	.LASF149:
 5719 0b2f 61647654 		.ascii	"advType\000"
 5719      79706500 
 5720              	.LASF95:
 5721 0b37 4359424C 		.ascii	"CYBLE_ERROR_INSUFFICIENT_RESOURCES\000"
 5721      455F4552 
 5721      524F525F 
 5721      494E5355 
 5721      46464943 
 5722              	.LASF5:
 5723 0b5a 6C6F6E67 		.ascii	"long unsigned int\000"
 5723      20756E73 
 5723      69676E65 
 5723      6420696E 
 5723      7400
 5724              	.LASF115:
 5725 0b6c 4359424C 		.ascii	"CYBLE_ERROR_UNSUPPORTED_FEATURE_OR_PARAMETER_VALUE\000"
 5725      455F4552 
ARM GAS  C:\Users\Sarah\AppData\Local\Temp\ccLQenA3.s 			page 138


 5725      524F525F 
 5725      554E5355 
 5725      50504F52 
 5726              	.LASF256:
 5727 0b9f 61646472 		.ascii	"address\000"
 5727      65737300 
 5728              	.LASF208:
 5729 0ba7 43595F42 		.ascii	"CY_BLE_FLASH_STORAGE\000"
 5729      4C455F46 
 5729      4C415348 
 5729      5F53544F 
 5729      52414745 
 5730              	.LASF135:
 5731 0bbc 7265736F 		.ascii	"resolvingListSize\000"
 5731      6C76696E 
 5731      674C6973 
 5731      7453697A 
 5731      6500
 5732              	.LASF105:
 5733 0bce 4359424C 		.ascii	"CYBLE_ERROR_L2CAP_PSM_ALREADY_REGISTERED\000"
 5733      455F4552 
 5733      524F525F 
 5733      4C324341 
 5733      505F5053 
 5734              	.LASF307:
 5735 0bf7 474E5520 		.ascii	"GNU C 4.9.3 20150303 (release) [ARM/embedded-4_9-br"
 5735      4320342E 
 5735      392E3320 
 5735      32303135 
 5735      30333033 
 5736 0c2a 616E6368 		.ascii	"anch revision 221220] -mcpu=cortex-m0 -mthumb -g -O"
 5736      20726576 
 5736      6973696F 
 5736      6E203232 
 5736      31323230 
 5737 0c5d 67202D66 		.ascii	"g -ffunction-sections -ffat-lto-objects\000"
 5737      66756E63 
 5737      74696F6E 
 5737      2D736563 
 5737      74696F6E 
 5738              	.LASF195:
 5739 0c85 61747456 		.ascii	"attValueUuid\000"
 5739      616C7565 
 5739      55756964 
 5739      00
 5740              	.LASF299:
 5741 0c92 4379426C 		.ascii	"CyBle_GappEnterDiscoveryMode\000"
 5741      655F4761 
 5741      7070456E 
 5741      74657244 
 5741      6973636F 
 5742              	.LASF36:
 5743 0caf 4359424C 		.ascii	"CYBLE_EVT_GAP_CONNECTION_UPDATE_COMPLETE\000"
 5743      455F4556 
 5743      545F4741 
 5743      505F434F 
 5743      4E4E4543 
ARM GAS  C:\Users\Sarah\AppData\Local\Temp\ccLQenA3.s 			page 139


 5744              	.LASF285:
 5745 0cd8 6379426C 		.ascii	"cyBle_busyStatus\000"
 5745      655F6275 
 5745      73795374 
 5745      61747573 
 5745      00
 5746              	.LASF182:
 5747 0ce9 6D617843 		.ascii	"maxCeLength\000"
 5747      654C656E 
 5747      67746800 
 5748              	.LASF251:
 5749 0cf5 4379426C 		.ascii	"CyBle_ChangeAdDeviceAddress\000"
 5749      655F4368 
 5749      616E6765 
 5749      41644465 
 5749      76696365 
 5750              	.LASF210:
 5751 0d11 4359424C 		.ascii	"CYBLE_STATE_INITIALIZING\000"
 5751      455F5354 
 5751      4154455F 
 5751      494E4954 
 5751      49414C49 
 5752              	.LASF80:
 5753 0d2a 4359424C 		.ascii	"CYBLE_EVT_L2CAP_CBFC_DISCONN_IND\000"
 5753      455F4556 
 5753      545F4C32 
 5753      4341505F 
 5753      43424643 
 5754              	.LASF240:
 5755 0d4b 4379426C 		.ascii	"CyBle_Stop\000"
 5755      655F5374 
 5755      6F7000
 5756              	.LASF28:
 5757 0d56 4359424C 		.ascii	"CYBLE_EVT_GAP_PASSKEY_ENTRY_REQUEST\000"
 5757      455F4556 
 5757      545F4741 
 5757      505F5041 
 5757      53534B45 
 5758              	.LASF140:
 5759 0d7a 4359424C 		.ascii	"CYBLE_STACK_CONFIG_PARAM_T\000"
 5759      455F5354 
 5759      41434B5F 
 5759      434F4E46 
 5759      49475F50 
 5760              	.LASF131:
 5761 0d95 646C654D 		.ascii	"dleMaxTxCapability\000"
 5761      61785478 
 5761      43617061 
 5761      62696C69 
 5761      747900
 5762              	.LASF181:
 5763 0da8 6D696E43 		.ascii	"minCeLength\000"
 5763      654C656E 
 5763      67746800 
 5764              	.LASF282:
 5765 0db4 6379426C 		.ascii	"cyBle_flashStorage\000"
 5765      655F666C 
ARM GAS  C:\Users\Sarah\AppData\Local\Temp\ccLQenA3.s 			page 140


 5765      61736853 
 5765      746F7261 
 5765      676500
 5766              	.LASF6:
 5767 0dc7 6C6F6E67 		.ascii	"long long int\000"
 5767      206C6F6E 
 5767      6720696E 
 5767      7400
 5768              	.LASF163:
 5769 0dd5 61647650 		.ascii	"advParam\000"
 5769      6172616D 
 5769      00
 5770              	.LASF106:
 5771 0dde 4359424C 		.ascii	"CYBLE_ERROR_L2CAP_PSM_NOT_REGISTERED\000"
 5771      455F4552 
 5771      524F525F 
 5771      4C324341 
 5771      505F5053 
 5772              	.LASF96:
 5773 0e03 4359424C 		.ascii	"CYBLE_ERROR_OOB_NOT_AVAILABLE\000"
 5773      455F4552 
 5773      524F525F 
 5773      4F4F425F 
 5773      4E4F545F 
 5774              	.LASF13:
 5775 0e21 646F7562 		.ascii	"double\000"
 5775      6C6500
 5776              	.LASF111:
 5777 0e28 4359424C 		.ascii	"CYBLE_ERROR_DEVICE_ALREADY_EXISTS\000"
 5777      455F4552 
 5777      524F525F 
 5777      44455649 
 5777      43455F41 
 5778              	.LASF86:
 5779 0e4a 4359424C 		.ascii	"CYBLE_EVT_PENDING_FLASH_WRITE\000"
 5779      455F4556 
 5779      545F5045 
 5779      4E44494E 
 5779      475F464C 
 5780              	.LASF287:
 5781 0e68 6379426C 		.ascii	"cyBle_advertisingIntervalType\000"
 5781      655F6164 
 5781      76657274 
 5781      6973696E 
 5781      67496E74 
 5782              	.LASF218:
 5783 0e86 64657669 		.ascii	"deviceNameCharHandle\000"
 5783      63654E61 
 5783      6D654368 
 5783      61724861 
 5783      6E646C65 
 5784              	.LASF151:
 5785 0e9b 64697265 		.ascii	"directAddrType\000"
 5785      63744164 
 5785      64725479 
 5785      706500
 5786              	.LASF43:
ARM GAS  C:\Users\Sarah\AppData\Local\Temp\ccLQenA3.s 			page 141


 5787 0eaa 4359424C 		.ascii	"CYBLE_EVT_GAP_ENHANCE_CONN_COMPLETE\000"
 5787      455F4556 
 5787      545F4741 
 5787      505F454E 
 5787      48414E43 
 5788              	.LASF108:
 5789 0ece 4359424C 		.ascii	"CYBLE_ERROR_L2CAP_CHANNEL_NOT_FOUND\000"
 5789      455F4552 
 5789      524F525F 
 5789      4C324341 
 5789      505F4348 
 5790              	.LASF136:
 5791 0ef2 4359424C 		.ascii	"CYBLE_PRIVACY_1_2_CONFIG_PARAM_T\000"
 5791      455F5052 
 5791      49564143 
 5791      595F315F 
 5791      325F434F 
 5792              	.LASF280:
 5793 0f13 6379426C 		.ascii	"cyBle_gattDB\000"
 5793      655F6761 
 5793      74744442 
 5793      00
 5794              	.LASF99:
 5795 0f20 4359424C 		.ascii	"CYBLE_ERROR_REPEATED_ATTEMPTS\000"
 5795      455F4552 
 5795      524F525F 
 5795      52455045 
 5795      41544544 
 5796              	.LASF168:
 5797 0f3e 7363616E 		.ascii	"scanIntv\000"
 5797      496E7476 
 5797      00
 5798              	.LASF12:
 5799 0f47 666C6F61 		.ascii	"float\000"
 5799      7400
 5800              	.LASF112:
 5801 0f4d 4359424C 		.ascii	"CYBLE_ERROR_FLASH_WRITE_NOT_PERMITED\000"
 5801      455F4552 
 5801      524F525F 
 5801      464C4153 
 5801      485F5752 
 5802              	.LASF73:
 5803 0f72 4359424C 		.ascii	"CYBLE_EVT_GATTS_READ_CHAR_VAL_ACCESS_REQ\000"
 5803      455F4556 
 5803      545F4741 
 5803      5454535F 
 5803      52454144 
 5804              	.LASF244:
 5805 0f9b 64656661 		.ascii	"defaultValuesCCCD\000"
 5805      756C7456 
 5805      616C7565 
 5805      73434343 
 5805      4400
 5806              	.LASF172:
 5807 0fad 66696C74 		.ascii	"filterDuplicates\000"
 5807      65724475 
 5807      706C6963 
ARM GAS  C:\Users\Sarah\AppData\Local\Temp\ccLQenA3.s 			page 142


 5807      61746573 
 5807      00
 5808              	.LASF133:
 5809 0fbe 646C654E 		.ascii	"dleNumTxBuffer\000"
 5809      756D5478 
 5809      42756666 
 5809      657200
 5810              	.LASF8:
 5811 0fcd 756E7369 		.ascii	"unsigned int\000"
 5811      676E6564 
 5811      20696E74 
 5811      00
 5812              	.LASF139:
 5813 0fda 66656174 		.ascii	"feature_mask\000"
 5813      7572655F 
 5813      6D61736B 
 5813      00
 5814              	.LASF65:
 5815 0fe7 4359424C 		.ascii	"CYBLE_EVT_GATTS_PREP_WRITE_REQ\000"
 5815      455F4556 
 5815      545F4741 
 5815      5454535F 
 5815      50524550 
 5816              	.LASF200:
 5817 1006 61747445 		.ascii	"attEndHandle\000"
 5817      6E644861 
 5817      6E646C65 
 5817      00
 5818              	.LASF174:
 5819 1013 696E6974 		.ascii	"initiatorFilterPolicy\000"
 5819      6961746F 
 5819      7246696C 
 5819      74657250 
 5819      6F6C6963 
 5820              	.LASF226:
 5821 1029 666C6167 		.ascii	"flag\000"
 5821      00
 5822              	.LASF262:
 5823 102e 4379426C 		.ascii	"CyBle_Set16ByPtr\000"
 5823      655F5365 
 5823      74313642 
 5823      79507472 
 5823      00
 5824              	.LASF104:
 5825 103f 4359424C 		.ascii	"CYBLE_ERROR_L2CAP_PSM_WRONG_ENCODING\000"
 5825      455F4552 
 5825      524F525F 
 5825      4C324341 
 5825      505F5053 
 5826              	.LASF259:
 5827 1064 63686172 		.ascii	"charLen\000"
 5827      4C656E00 
 5828              	.LASF273:
 5829 106c 6379426C 		.ascii	"cyBle_connectingTimeout\000"
 5829      655F636F 
 5829      6E6E6563 
 5829      74696E67 
ARM GAS  C:\Users\Sarah\AppData\Local\Temp\ccLQenA3.s 			page 143


 5829      54696D65 
 5830              	.LASF90:
 5831 1084 4359424C 		.ascii	"CYBLE_EVT_MAX\000"
 5831      455F4556 
 5831      545F4D41 
 5831      5800
 5832              	.LASF37:
 5833 1092 4359424C 		.ascii	"CYBLE_EVT_GAPC_SCAN_START_STOP\000"
 5833      455F4556 
 5833      545F4741 
 5833      50435F53 
 5833      43414E5F 
 5834              	.LASF292:
 5835 10b1 4379426C 		.ascii	"CyBle_CustomInit\000"
 5835      655F4375 
 5835      73746F6D 
 5835      496E6974 
 5835      00
 5836              	.LASF271:
 5837 10c2 6379426C 		.ascii	"cyBle_discoveryInfo\000"
 5837      655F6469 
 5837      73636F76 
 5837      65727949 
 5837      6E666F00 
 5838              	.LASF146:
 5839 10d6 4359424C 		.ascii	"CYBLE_GAPP_ADV_T\000"
 5839      455F4741 
 5839      50505F41 
 5839      44565F54 
 5839      00
 5840              	.LASF62:
 5841 10e7 4359424C 		.ascii	"CYBLE_EVT_GATTS_WRITE_REQ\000"
 5841      455F4556 
 5841      545F4741 
 5841      5454535F 
 5841      57524954 
 5842              	.LASF305:
 5843 1101 4379426C 		.ascii	"CyBle_GapcCancelConnection\000"
 5843      655F4761 
 5843      70634361 
 5843      6E63656C 
 5843      436F6E6E 
 5844              	.LASF156:
 5845 111c 61647644 		.ascii	"advData\000"
 5845      61746100 
 5846              	.LASF71:
 5847 1124 4359424C 		.ascii	"CYBLE_EVT_GATTS_DATA_SIGNED_CMD_REQ\000"
 5847      455F4556 
 5847      545F4741 
 5847      5454535F 
 5847      44415441 
 5848              	.LASF276:
 5849 1148 6379426C 		.ascii	"cyBle_scanRspData\000"
 5849      655F7363 
 5849      616E5273 
 5849      70446174 
 5849      6100
ARM GAS  C:\Users\Sarah\AppData\Local\Temp\ccLQenA3.s 			page 144


 5850              	.LASF220:
 5851 115a 70726566 		.ascii	"prefConnParamCharHandle\000"
 5851      436F6E6E 
 5851      50617261 
 5851      6D436861 
 5851      7248616E 
 5852              	.LASF29:
 5853 1172 4359424C 		.ascii	"CYBLE_EVT_GAP_PASSKEY_DISPLAY_REQUEST\000"
 5853      455F4556 
 5853      545F4741 
 5853      505F5041 
 5853      53534B45 
 5854              	.LASF120:
 5855 1198 4359424C 		.ascii	"CYBLE_ERROR_IND_DISABLED\000"
 5855      455F4552 
 5855      524F525F 
 5855      494E445F 
 5855      44495341 
 5856              	.LASF119:
 5857 11b1 4359424C 		.ascii	"CYBLE_ERROR_NTF_DISABLED\000"
 5857      455F4552 
 5857      524F525F 
 5857      4E54465F 
 5857      44495341 
 5858              	.LASF59:
 5859 11ca 4359424C 		.ascii	"CYBLE_EVT_GATTC_READ_RSP\000"
 5859      455F4556 
 5859      545F4741 
 5859      5454435F 
 5859      52454144 
 5860              	.LASF142:
 5861 11e3 4359424C 		.ascii	"CYBLE_GAPP_CONNECTABLE_HIGH_DC_DIRECTED_ADV\000"
 5861      455F4741 
 5861      50505F43 
 5861      4F4E4E45 
 5861      43544142 
 5862              	.LASF79:
 5863 120f 4359424C 		.ascii	"CYBLE_EVT_L2CAP_CBFC_CONN_CNF\000"
 5863      455F4556 
 5863      545F4C32 
 5863      4341505F 
 5863      43424643 
 5864              	.LASF237:
 5865 122d 70726976 		.ascii	"privacyConfigParams\000"
 5865      61637943 
 5865      6F6E6669 
 5865      67506172 
 5865      616D7300 
 5866              	.LASF190:
 5867 1241 4359424C 		.ascii	"CYBLE_GATTS_ATT_GEN_VAL_LEN_T\000"
 5867      455F4741 
 5867      5454535F 
 5867      4154545F 
 5867      47454E5F 
 5868              	.LASF89:
 5869 125f 4359424C 		.ascii	"CYBLE_EVT_FLASH_CORRUPT\000"
 5869      455F4556 
ARM GAS  C:\Users\Sarah\AppData\Local\Temp\ccLQenA3.s 			page 145


 5869      545F464C 
 5869      4153485F 
 5869      434F5252 
 5870              	.LASF18:
 5871 1277 4359424C 		.ascii	"CYBLE_APP_CB_T\000"
 5871      455F4150 
 5871      505F4342 
 5871      5F5400
 5872              	.LASF164:
 5873 1286 61647654 		.ascii	"advTo\000"
 5873      6F00
 5874              	.LASF128:
 5875 128c 62756666 		.ascii	"bufferSize\000"
 5875      65725369 
 5875      7A6500
 5876              	.LASF25:
 5877 1297 4359424C 		.ascii	"CYBLE_EVT_MEMORY_REQUEST\000"
 5877      455F4556 
 5877      545F4D45 
 5877      4D4F5259 
 5877      5F524551 
 5878              	.LASF261:
 5879 12b0 4379426C 		.ascii	"CyBle_Get16ByPtr\000"
 5879      655F4765 
 5879      74313642 
 5879      79507472 
 5879      00
 5880              	.LASF219:
 5881 12c1 61707065 		.ascii	"appearanceCharHandle\000"
 5881      6172616E 
 5881      63654368 
 5881      61724861 
 5881      6E646C65 
 5882              	.LASF35:
 5883 12d6 4359424C 		.ascii	"CYBLE_EVT_GAP_ENCRYPT_CHANGE\000"
 5883      455F4556 
 5883      545F4741 
 5883      505F454E 
 5883      43525950 
 5884              	.LASF173:
 5885 12f3 4359424C 		.ascii	"CYBLE_GAPC_DISC_INFO_T\000"
 5885      455F4741 
 5885      50435F44 
 5885      4953435F 
 5885      494E464F 
 5886              	.LASF53:
 5887 130a 4359424C 		.ascii	"CYBLE_EVT_GATTS_XCNHG_MTU_REQ\000"
 5887      455F4556 
 5887      545F4741 
 5887      5454535F 
 5887      58434E48 
 5888              	.LASF278:
 5889 1328 6379426C 		.ascii	"cyBle_pendingFlashWrite\000"
 5889      655F7065 
 5889      6E64696E 
 5889      67466C61 
 5889      73685772 
ARM GAS  C:\Users\Sarah\AppData\Local\Temp\ccLQenA3.s 			page 146


 5890              	.LASF49:
 5891 1340 4359424C 		.ascii	"CYBLE_EVT_GAP_SMP_LOC_P256_KEYS_GEN_AND_SET_COMPLET"
 5891      455F4556 
 5891      545F4741 
 5891      505F534D 
 5891      505F4C4F 
 5892 1373 4500     		.ascii	"E\000"
 5893              	.LASF169:
 5894 1375 7363616E 		.ascii	"scanWindow\000"
 5894      57696E64 
 5894      6F7700
 5895              	.LASF7:
 5896 1380 6C6F6E67 		.ascii	"long long unsigned int\000"
 5896      206C6F6E 
 5896      6720756E 
 5896      7369676E 
 5896      65642069 
 5897              	.LASF252:
 5898 1397 4379426C 		.ascii	"CyBle_GapcStartScan\000"
 5898      655F4761 
 5898      70635374 
 5898      61727453 
 5898      63616E00 
 5899              	.LASF21:
 5900 13ab 4359424C 		.ascii	"CYBLE_EVT_TIMEOUT\000"
 5900      455F4556 
 5900      545F5449 
 5900      4D454F55 
 5900      5400
 5901              	.LASF213:
 5902 13bd 4359424C 		.ascii	"CYBLE_STATE_SCANNING\000"
 5902      455F5354 
 5902      4154455F 
 5902      5343414E 
 5902      4E494E47 
 5903              	.LASF243:
 5904 13d2 6973466F 		.ascii	"isForceWrite\000"
 5904      72636557 
 5904      72697465 
 5904      00
 5905              	.LASF122:
 5906 13df 4359424C 		.ascii	"CYBLE_ERROR_INVALID_STATE\000"
 5906      455F4552 
 5906      524F525F 
 5906      494E5641 
 5906      4C49445F 
 5907              	.LASF184:
 5908 13f9 4359424C 		.ascii	"CYBLE_GATT_DB_ATTR_HANDLE_T\000"
 5908      455F4741 
 5908      54545F44 
 5908      425F4154 
 5908      54525F48 
 5909              	.LASF82:
 5910 1415 4359424C 		.ascii	"CYBLE_EVT_L2CAP_CBFC_DATA_READ\000"
 5910      455F4556 
 5910      545F4C32 
 5910      4341505F 
ARM GAS  C:\Users\Sarah\AppData\Local\Temp\ccLQenA3.s 			page 147


 5910      43424643 
 5911              	.LASF263:
 5912 1434 76616C75 		.ascii	"value\000"
 5912      6500
 5913              	.LASF201:
 5914 143a 61747456 		.ascii	"attValue\000"
 5914      616C7565 
 5914      00
 5915              	.LASF265:
 5916 1443 4379426C 		.ascii	"CyBle_ApplCallback\000"
 5916      655F4170 
 5916      706C4361 
 5916      6C6C6261 
 5916      636B00
 5917              	.LASF116:
 5918 1456 4359424C 		.ascii	"CYBLE_ERROR_FLASH_WRITE\000"
 5918      455F4552 
 5918      524F525F 
 5918      464C4153 
 5918      485F5752 
 5919              	.LASF223:
 5920 146e 4359424C 		.ascii	"CYBLE_GAPS_T\000"
 5920      455F4741 
 5920      50535F54 
 5920      00
 5921              	.LASF127:
 5922 147b 4359424C 		.ascii	"CYBLE_GAP_BD_ADDR_T\000"
 5922      455F4741 
 5922      505F4244 
 5922      5F414444 
 5922      525F5400 
 5923              	.LASF138:
 5924 148f 70726976 		.ascii	"privacyConfig\000"
 5924      61637943 
 5924      6F6E6669 
 5924      6700
 5925              	.LASF188:
 5926 149d 61637475 		.ascii	"actualLength\000"
 5926      616C4C65 
 5926      6E677468 
 5926      00
 5927              	.LASF183:
 5928 14aa 4359424C 		.ascii	"CYBLE_GAPC_CONN_PARAM_T\000"
 5928      455F4741 
 5928      50435F43 
 5928      4F4E4E5F 
 5928      50415241 
 5929              	.LASF157:
 5930 14c2 61647644 		.ascii	"advDataLen\000"
 5930      6174614C 
 5930      656E00
 5931              	.LASF225:
 5932 14cd 64657374 		.ascii	"dest\000"
 5932      00
 5933              	.LASF165:
 5934 14d2 4359424C 		.ascii	"CYBLE_GAPP_DISC_MODE_INFO_T\000"
 5934      455F4741 
ARM GAS  C:\Users\Sarah\AppData\Local\Temp\ccLQenA3.s 			page 148


 5934      50505F44 
 5934      4953435F 
 5934      4D4F4445 
 5935              	.LASF171:
 5936 14ee 7363616E 		.ascii	"scanTo\000"
 5936      546F00
 5937              	.LASF303:
 5938 14f5 4379426C 		.ascii	"CyBle_GapcInitConnection\000"
 5938      655F4761 
 5938      7063496E 
 5938      6974436F 
 5938      6E6E6563 
 5939              	.LASF57:
 5940 150e 4359424C 		.ascii	"CYBLE_EVT_GATTC_FIND_INFO_RSP\000"
 5940      455F4556 
 5940      545F4741 
 5940      5454435F 
 5940      46494E44 
 5941              	.LASF56:
 5942 152c 4359424C 		.ascii	"CYBLE_EVT_GATTC_READ_BY_TYPE_RSP\000"
 5942      455F4556 
 5942      545F4741 
 5942      5454435F 
 5942      52454144 
 5943              	.LASF298:
 5944 154d 4379426C 		.ascii	"CyBle_GapRemoveDeviceFromWhiteList\000"
 5944      655F4761 
 5944      7052656D 
 5944      6F766544 
 5944      65766963 
 5945              	.LASF241:
 5946 1570 4379426C 		.ascii	"CyBle_Start\000"
 5946      655F5374 
 5946      61727400 
 5947              	.LASF283:
 5948 157c 6379426C 		.ascii	"cyBle_state\000"
 5948      655F7374 
 5948      61746500 
 5949              	.LASF236:
 5950 1588 646C6543 		.ascii	"dleConfigParams\000"
 5950      6F6E6669 
 5950      67506172 
 5950      616D7300 
 5951              	.LASF296:
 5952 1598 6D656D63 		.ascii	"memcmp\000"
 5952      6D7000
 5953              	.LASF63:
 5954 159f 4359424C 		.ascii	"CYBLE_EVT_GATTC_WRITE_RSP\000"
 5954      455F4556 
 5954      545F4741 
 5954      5454435F 
 5954      57524954 
 5955              	.LASF215:
 5956 15b9 4359424C 		.ascii	"CYBLE_STATE_DISCONNECTED\000"
 5956      455F5354 
 5956      4154455F 
 5956      44495343 
ARM GAS  C:\Users\Sarah\AppData\Local\Temp\ccLQenA3.s 			page 149


 5956      4F4E4E45 
 5957              	.LASF196:
 5958 15d2 4359424C 		.ascii	"CYBLE_GATTS_ATT_VALUE_T\000"
 5958      455F4741 
 5958      5454535F 
 5958      4154545F 
 5958      56414C55 
 5959              	.LASF193:
 5960 15ea 4359424C 		.ascii	"CYBLE_GATTS_ATT_PACK_VAL_LEN_T\000"
 5960      455F4741 
 5960      5454535F 
 5960      4154545F 
 5960      5041434B 
 5961              	.LASF32:
 5962 1609 4359424C 		.ascii	"CYBLE_EVT_GAPP_ADVERTISEMENT_START_STOP\000"
 5962      455F4556 
 5962      545F4741 
 5962      50505F41 
 5962      44564552 
 5963              	.LASF161:
 5964 1631 4359424C 		.ascii	"CYBLE_GAPP_SCAN_RSP_DATA_T\000"
 5964      455F4741 
 5964      50505F53 
 5964      43414E5F 
 5964      5253505F 
 5965              	.LASF189:
 5966 164c 61747447 		.ascii	"attGenericVal\000"
 5966      656E6572 
 5966      69635661 
 5966      6C00
 5967              	.LASF224:
 5968 165a 6E616D65 		.ascii	"name\000"
 5968      00
 5969              	.LASF9:
 5970 165f 75696E74 		.ascii	"uint8\000"
 5970      3800
 5971              	.LASF266:
 5972 1665 6379426C 		.ascii	"cyBle_initVar\000"
 5972      655F696E 
 5972      69745661 
 5972      7200
 5973              	.LASF40:
 5974 1673 4359424C 		.ascii	"CYBLE_EVT_GAP_KEYPRESS_NOTIFICATION\000"
 5974      455F4556 
 5974      545F4741 
 5974      505F4B45 
 5974      59505245 
 5975              	.LASF284:
 5976 1697 6379426C 		.ascii	"cyBle_connHandle\000"
 5976      655F636F 
 5976      6E6E4861 
 5976      6E646C65 
 5976      00
 5977              	.LASF2:
 5978 16a8 73686F72 		.ascii	"short int\000"
 5978      7420696E 
 5978      7400
ARM GAS  C:\Users\Sarah\AppData\Local\Temp\ccLQenA3.s 			page 150


 5979              	.LASF258:
 5980 16b2 4379426C 		.ascii	"CyBle_GapSetLocalName\000"
 5980      655F4761 
 5980      70536574 
 5980      4C6F6361 
 5980      6C4E616D 
 5981              	.LASF192:
 5982 16c8 61747447 		.ascii	"attGenericValLen\000"
 5982      656E6572 
 5982      69635661 
 5982      6C4C656E 
 5982      00
 5983              	.LASF194:
 5984 16d9 61747446 		.ascii	"attFormatValue\000"
 5984      6F726D61 
 5984      7456616C 
 5984      756500
 5985              	.LASF160:
 5986 16e8 7363616E 		.ascii	"scanRspDataLen\000"
 5986      52737044 
 5986      6174614C 
 5986      656E00
 5987              	.LASF114:
 5988 16f7 4359424C 		.ascii	"CYBLE_ERROR_HARDWARE_FAILURE\000"
 5988      455F4552 
 5988      524F525F 
 5988      48415244 
 5988      57415245 
 5989              	.LASF291:
 5990 1714 4379426C 		.ascii	"CyBle_GattsDbRegister\000"
 5990      655F4761 
 5990      74747344 
 5990      62526567 
 5990      69737465 
 5991              	.LASF50:
 5992 172a 4359424C 		.ascii	"CYBLE_EVT_GATTC_ERROR_RSP\000"
 5992      455F4556 
 5992      545F4741 
 5992      5454435F 
 5992      4552524F 
 5993              	.LASF216:
 5994 1744 4359424C 		.ascii	"CYBLE_STATE_T\000"
 5994      455F5354 
 5994      4154455F 
 5994      5400
 5995              	.LASF143:
 5996 1752 4359424C 		.ascii	"CYBLE_GAPP_SCANNABLE_UNDIRECTED_ADV\000"
 5996      455F4741 
 5996      50505F53 
 5996      43414E4E 
 5996      41424C45 
 5997              	.LASF78:
 5998 1776 4359424C 		.ascii	"CYBLE_EVT_L2CAP_CBFC_CONN_IND\000"
 5998      455F4556 
 5998      545F4C32 
 5998      4341505F 
 5998      43424643 
ARM GAS  C:\Users\Sarah\AppData\Local\Temp\ccLQenA3.s 			page 151


 5999              	.LASF66:
 6000 1794 4359424C 		.ascii	"CYBLE_EVT_GATTS_EXEC_WRITE_REQ\000"
 6000      455F4556 
 6000      545F4741 
 6000      5454535F 
 6000      45584543 
 6001              	.LASF26:
 6002 17b3 4359424C 		.ascii	"CYBLE_EVT_GAPC_SCAN_PROGRESS_RESULT\000"
 6002      455F4556 
 6002      545F4741 
 6002      50435F53 
 6002      43414E5F 
 6003              	.LASF206:
 6004 17d7 63636364 		.ascii	"cccdCount\000"
 6004      436F756E 
 6004      7400
 6005              	.LASF277:
 6006 17e1 6379426C 		.ascii	"cyBle_discoveryModeInfo\000"
 6006      655F6469 
 6006      73636F76 
 6006      6572794D 
 6006      6F646549 
 6007              	.LASF176:
 6008 17f9 70656572 		.ascii	"peerAddrType\000"
 6008      41646472 
 6008      54797065 
 6008      00
 6009              	.LASF100:
 6010 1806 4359424C 		.ascii	"CYBLE_ERROR_GAP_ROLE\000"
 6010      455F4552 
 6010      524F525F 
 6010      4741505F 
 6010      524F4C45 
 6011              	.LASF267:
 6012 181b 6379426C 		.ascii	"cyBle_stackMemoryRam\000"
 6012      655F7374 
 6012      61636B4D 
 6012      656D6F72 
 6012      7952616D 
 6013              	.LASF47:
 6014 1830 4359424C 		.ascii	"CYBLE_EVT_GAP_SCAN_REQ_RECVD\000"
 6014      455F4556 
 6014      545F4741 
 6014      505F5343 
 6014      414E5F52 
 6015              	.LASF221:
 6016 184d 63656E74 		.ascii	"centralAddrResolutionCharHandle\000"
 6016      72616C41 
 6016      64647252 
 6016      65736F6C 
 6016      7574696F 
 6017              	.LASF125:
 6018 186d 62644164 		.ascii	"bdAddr\000"
 6018      647200
 6019              	.LASF286:
 6020 1874 6379426C 		.ascii	"cyBle_gaps\000"
 6020      655F6761 
ARM GAS  C:\Users\Sarah\AppData\Local\Temp\ccLQenA3.s 			page 152


 6020      707300
 6021              	.LASF268:
 6022 187f 6379426C 		.ascii	"cyBle_eventHandlerFlag\000"
 6022      655F6576 
 6022      656E7448 
 6022      616E646C 
 6022      6572466C 
 6023              	.LASF242:
 6024 1896 4379426C 		.ascii	"CyBle_StoreBondingData\000"
 6024      655F5374 
 6024      6F726542 
 6024      6F6E6469 
 6024      6E674461 
 6025              	.LASF97:
 6026 18ad 4359424C 		.ascii	"CYBLE_ERROR_NO_CONNECTION\000"
 6026      455F4552 
 6026      524F525F 
 6026      4E4F5F43 
 6026      4F4E4E45 
 6027              	.LASF311:
 6028 18c7 6D656D63 		.ascii	"memcpy\000"
 6028      707900
 6029              	.LASF228:
 6030 18ce 62797465 		.ascii	"byteCounter\000"
 6030      436F756E 
 6030      74657200 
 6031              	.LASF87:
 6032 18da 4359424C 		.ascii	"CYBLE_EVT_LE_PING_AUTH_TIMEOUT\000"
 6032      455F4556 
 6032      545F4C45 
 6032      5F50494E 
 6032      475F4155 
 6033              	.LASF124:
 6034 18f9 4359424C 		.ascii	"CYBLE_API_RESULT_T\000"
 6034      455F4150 
 6034      495F5245 
 6034      53554C54 
 6034      5F5400
 6035              	.LASF281:
 6036 190c 6379426C 		.ascii	"cyBle_attValuesCCCD\000"
 6036      655F6174 
 6036      7456616C 
 6036      75657343 
 6036      43434400 
 6037              	.LASF69:
 6038 1920 4359424C 		.ascii	"CYBLE_EVT_GATTC_HANDLE_VALUE_IND\000"
 6038      455F4556 
 6038      545F4741 
 6038      5454435F 
 6038      48414E44 
 6039              	.LASF103:
 6040 1941 4359424C 		.ascii	"CYBLE_ERROR_SEC_FAILED\000"
 6040      455F4552 
 6040      524F525F 
 6040      5345435F 
 6040      4641494C 
 6041              	.LASF247:
ARM GAS  C:\Users\Sarah\AppData\Local\Temp\ccLQenA3.s 			page 153


 6042 1958 696E7661 		.ascii	"invalidBdAddr\000"
 6042      6C696442 
 6042      64416464 
 6042      7200
 6043              	.LASF24:
 6044 1966 4359424C 		.ascii	"CYBLE_EVT_STACK_BUSY_STATUS\000"
 6044      455F4556 
 6044      545F5354 
 6044      41434B5F 
 6044      42555359 
 6045              	.LASF179:
 6046 1982 636F6E6E 		.ascii	"connLatency\000"
 6046      4C617465 
 6046      6E637900 
 6047              	.LASF38:
 6048 198e 4359424C 		.ascii	"CYBLE_EVT_GAP_KEYINFO_EXCHNGE_CMPLT\000"
 6048      455F4556 
 6048      545F4741 
 6048      505F4B45 
 6048      59494E46 
 6049              	.LASF75:
 6050 19b2 4359424C 		.ascii	"CYBLE_EVT_L2CAP_CONN_PARAM_UPDATE_REQ\000"
 6050      455F4556 
 6050      545F4C32 
 6050      4341505F 
 6050      434F4E4E 
 6051              	.LASF275:
 6052 19d8 6379426C 		.ascii	"cyBle_discoveryData\000"
 6052      655F6469 
 6052      73636F76 
 6052      65727944 
 6052      61746100 
 6053              	.LASF217:
 6054 19ec 67617053 		.ascii	"gapServiceCharHandle\000"
 6054      65727669 
 6054      63654368 
 6054      61724861 
 6054      6E646C65 
 6055              	.LASF178:
 6056 1a01 636F6E6E 		.ascii	"connIntvMax\000"
 6056      496E7476 
 6056      4D617800 
 6057              	.LASF3:
 6058 1a0d 73686F72 		.ascii	"short unsigned int\000"
 6058      7420756E 
 6058      7369676E 
 6058      65642069 
 6058      6E7400
 6059              	.LASF152:
 6060 1a20 64697265 		.ascii	"directAddr\000"
 6060      63744164 
 6060      647200
 6061              	.LASF211:
 6062 1a2b 4359424C 		.ascii	"CYBLE_STATE_CONNECTED\000"
 6062      455F5354 
 6062      4154455F 
 6062      434F4E4E 
ARM GAS  C:\Users\Sarah\AppData\Local\Temp\ccLQenA3.s 			page 154


 6062      45435445 
 6063              	.LASF132:
 6064 1a41 646C654D 		.ascii	"dleMaxRxCapability\000"
 6064      61785278 
 6064      43617061 
 6064      62696C69 
 6064      747900
 6065              	.LASF153:
 6066 1a54 61647643 		.ascii	"advChannelMap\000"
 6066      68616E6E 
 6066      656C4D61 
 6066      7000
 6067              	.LASF141:
 6068 1a62 4359424C 		.ascii	"CYBLE_GAPP_CONNECTABLE_UNDIRECTED_ADV\000"
 6068      455F4741 
 6068      50505F43 
 6068      4F4E4E45 
 6068      43544142 
 6069              	.LASF186:
 6070 1a88 61747449 		.ascii	"attId\000"
 6070      6400
 6071              	.LASF93:
 6072 1a8e 4359424C 		.ascii	"CYBLE_ERROR_INVALID_OPERATION\000"
 6072      455F4552 
 6072      524F525F 
 6072      494E5641 
 6072      4C49445F 
 6073              	.LASF227:
 6074 1aac 61644C65 		.ascii	"adLength\000"
 6074      6E677468 
 6074      00
 6075              	.LASF170:
 6076 1ab5 7363616E 		.ascii	"scanFilterPolicy\000"
 6076      46696C74 
 6076      6572506F 
 6076      6C696379 
 6076      00
 6077              	.LASF23:
 6078 1ac6 4359424C 		.ascii	"CYBLE_EVT_HCI_STATUS\000"
 6078      455F4556 
 6078      545F4843 
 6078      495F5354 
 6078      41545553 
 6079              	.LASF52:
 6080 1adb 4359424C 		.ascii	"CYBLE_EVT_GATT_DISCONNECT_IND\000"
 6080      455F4556 
 6080      545F4741 
 6080      54545F44 
 6080      4953434F 
 6081              	.LASF180:
 6082 1af9 73757065 		.ascii	"supervisionTO\000"
 6082      72766973 
 6082      696F6E54 
 6082      4F00
 6083              	.LASF85:
 6084 1b07 4359424C 		.ascii	"CYBLE_EVT_L2CAP_CBFC_DATA_WRITE_IND\000"
 6084      455F4556 
ARM GAS  C:\Users\Sarah\AppData\Local\Temp\ccLQenA3.s 			page 155


 6084      545F4C32 
 6084      4341505F 
 6084      43424643 
 6085              	.LASF74:
 6086 1b2b 4359424C 		.ascii	"CYBLE_EVT_GATTC_LONG_PROCEDURE_END\000"
 6086      455F4556 
 6086      545F4741 
 6086      5454435F 
 6086      4C4F4E47 
 6087              	.LASF34:
 6088 1b4e 4359424C 		.ascii	"CYBLE_EVT_GAP_DEVICE_DISCONNECTED\000"
 6088      455F4556 
 6088      545F4741 
 6088      505F4445 
 6088      56494345 
 6089              	.LASF70:
 6090 1b70 4359424C 		.ascii	"CYBLE_EVT_GATTS_HANDLE_VALUE_CNF\000"
 6090      455F4556 
 6090      545F4741 
 6090      5454535F 
 6090      48414E44 
 6091              	.LASF10:
 6092 1b91 75696E74 		.ascii	"uint16\000"
 6092      313600
 6093              	.LASF150:
 6094 1b98 6F776E41 		.ascii	"ownAddrType\000"
 6094      64647254 
 6094      79706500 
 6095              	.LASF101:
 6096 1ba4 4359424C 		.ascii	"CYBLE_ERROR_TX_POWER_READ\000"
 6096      455F4552 
 6096      524F525F 
 6096      54585F50 
 6096      4F574552 
 6097              	.LASF148:
 6098 1bbe 61647649 		.ascii	"advIntvMax\000"
 6098      6E74764D 
 6098      617800
 6099              		.ident	"GCC: (GNU Tools for ARM Embedded Processors) 4.9.3 20150303 (release) [ARM/embedded-4_9-br
