ARM GAS  C:\Users\Sarah\AppData\Local\Temp\ccLQenA3.s 			page 1


   1              		.cpu cortex-m0
   2              		.fpu softvfp
   3              		.eabi_attribute 20, 1
   4              		.eabi_attribute 21, 1
   5              		.eabi_attribute 23, 3
   6              		.eabi_attribute 24, 1
   7              		.eabi_attribute 25, 1
   8              		.eabi_attribute 26, 1
   9              		.eabi_attribute 30, 1
  10              		.eabi_attribute 34, 0
  11              		.eabi_attribute 18, 4
  12              		.code	16
  13              		.file	"ble.c"
  14              		.text
  15              	.Ltext0:
  16              		.cfi_sections	.debug_frame
  17              		.section	.text.CyBle_ChangeAdLocalName,"ax",%progbits
  18              		.align	2
  19              		.code	16
  20              		.thumb_func
  21              		.type	CyBle_ChangeAdLocalName, %function
  22              	CyBle_ChangeAdLocalName:
  23              	.LFB15:
  24              		.file 1 "Generated_Source\\PSoC4\\ble.c"
   1:Generated_Source\PSoC4/ble.c **** /***************************************************************************//**
   2:Generated_Source\PSoC4/ble.c **** * \file CYBLE.c
   3:Generated_Source\PSoC4/ble.c **** * \version 3.30
   4:Generated_Source\PSoC4/ble.c **** * 
   5:Generated_Source\PSoC4/ble.c **** * \brief
   6:Generated_Source\PSoC4/ble.c **** *  This file contains the source code for the Common APIs of the BLE Component.
   7:Generated_Source\PSoC4/ble.c **** * 
   8:Generated_Source\PSoC4/ble.c **** ********************************************************************************
   9:Generated_Source\PSoC4/ble.c **** * \copyright
  10:Generated_Source\PSoC4/ble.c **** * Copyright 2014-2016, Cypress Semiconductor Corporation.  All rights reserved.
  11:Generated_Source\PSoC4/ble.c **** * You may use this file only in accordance with the license, terms, conditions,
  12:Generated_Source\PSoC4/ble.c **** * disclaimers, and limitations in the end user license agreement accompanying
  13:Generated_Source\PSoC4/ble.c **** * the software package with which this file was provided.
  14:Generated_Source\PSoC4/ble.c **** *******************************************************************************/
  15:Generated_Source\PSoC4/ble.c **** 
  16:Generated_Source\PSoC4/ble.c **** #include "ble_eventHandler.h"
  17:Generated_Source\PSoC4/ble.c **** #include "ble_HAL_PVT.h"
  18:Generated_Source\PSoC4/ble.c **** #include <stdlib.h>
  19:Generated_Source\PSoC4/ble.c **** 
  20:Generated_Source\PSoC4/ble.c **** 
  21:Generated_Source\PSoC4/ble.c **** /***************************************
  22:Generated_Source\PSoC4/ble.c **** * Function Prototypes
  23:Generated_Source\PSoC4/ble.c **** ***************************************/
  24:Generated_Source\PSoC4/ble.c **** 
  25:Generated_Source\PSoC4/ble.c **** #if(CYBLE_GATT_ROLE_SERVER)
  26:Generated_Source\PSoC4/ble.c ****     #if(CYBLE_GAP_ROLE_PERIPHERAL)
  27:Generated_Source\PSoC4/ble.c ****         static void CyBle_ChangeAdLocalName(const char8 name[], uint8 dest);
  28:Generated_Source\PSoC4/ble.c ****     #endif /* (CYBLE_GAP_ROLE_PERIPHERAL) */
  29:Generated_Source\PSoC4/ble.c **** #endif /* (CYBLE_GATT_ROLE_SERVER) */
  30:Generated_Source\PSoC4/ble.c ****     
  31:Generated_Source\PSoC4/ble.c **** 
  32:Generated_Source\PSoC4/ble.c **** /***************************************
  33:Generated_Source\PSoC4/ble.c **** * Global Variables
ARM GAS  C:\Users\Sarah\AppData\Local\Temp\ccLQenA3.s 			page 2


  34:Generated_Source\PSoC4/ble.c **** ***************************************/
  35:Generated_Source\PSoC4/ble.c **** 
  36:Generated_Source\PSoC4/ble.c **** /* Indicates whether the BLE has been initialized. The variable is initialized to
  37:Generated_Source\PSoC4/ble.c ****    0 and set to 1 the first time CyBle_Start() is called. This allows the component
  38:Generated_Source\PSoC4/ble.c ****    to restart without reinitialization after the first call to the CyBle_Start() 
  39:Generated_Source\PSoC4/ble.c ****    routine. If reinitialization of the component is required, the variable should 
  40:Generated_Source\PSoC4/ble.c ****    be set to 0 before the CyBle_Start() routine is called. Alternatively, the BLE
  41:Generated_Source\PSoC4/ble.c ****    can be reinitialized by calling the CyBle_Init() function.
  42:Generated_Source\PSoC4/ble.c **** */
  43:Generated_Source\PSoC4/ble.c **** uint8  cyBle_initVar = 0u;
  44:Generated_Source\PSoC4/ble.c **** 
  45:Generated_Source\PSoC4/ble.c **** /* Allocate RAM memory for stack. This buffer could be reused by application when 
  46:Generated_Source\PSoC4/ble.c ****    BLE component is stopped. For export mode buffer is allocated in heap.
  47:Generated_Source\PSoC4/ble.c **** */
  48:Generated_Source\PSoC4/ble.c **** #if(CYBLE_SHARING_MODE_EXPORT)
  49:Generated_Source\PSoC4/ble.c ****     
  50:Generated_Source\PSoC4/ble.c **** uint8 *cyBle_stackMemoryRam = NULL;
  51:Generated_Source\PSoC4/ble.c **** 
  52:Generated_Source\PSoC4/ble.c **** #else
  53:Generated_Source\PSoC4/ble.c **** 
  54:Generated_Source\PSoC4/ble.c **** CYBLE_CYALIGNED_BEGIN CY_NOINIT uint8 cyBle_stackMemoryRam[CYBLE_STACK_RAM_SIZE] CYBLE_CYALIGNED_EN
  55:Generated_Source\PSoC4/ble.c **** 
  56:Generated_Source\PSoC4/ble.c **** #endif  /* CYBLE_SHARING_MODE_EXPORT */
  57:Generated_Source\PSoC4/ble.c **** 
  58:Generated_Source\PSoC4/ble.c **** #if(CYBLE_GAP_ROLE_PERIPHERAL || CYBLE_GAP_ROLE_BROADCASTER)
  59:Generated_Source\PSoC4/ble.c **** 
  60:Generated_Source\PSoC4/ble.c **** CYBLE_GAPP_DISC_PARAM_T cyBle_discoveryParam =
  61:Generated_Source\PSoC4/ble.c **** {
  62:Generated_Source\PSoC4/ble.c ****     0x0020u,    /* uint16 advertising_interval_min */
  63:Generated_Source\PSoC4/ble.c ****     0x0030u,    /* uint16 advertising_interval_max */
  64:Generated_Source\PSoC4/ble.c ****     CYBLE_GAPP_CONNECTABLE_UNDIRECTED_ADV, /* uint8 advertising_type */
  65:Generated_Source\PSoC4/ble.c ****     0x00u,      /* uint8 own_addr_type */
  66:Generated_Source\PSoC4/ble.c ****     0x00u,      /* uint8 direct_addr_type */
  67:Generated_Source\PSoC4/ble.c ****     {0x00u, 0x00u, 0x00u, 0x50u, 0xA0u, 0x00u}, /* uint8* direct_addr */
  68:Generated_Source\PSoC4/ble.c ****     0x07u,      /* uint8 advertising_channel_map */
  69:Generated_Source\PSoC4/ble.c ****     0x00u,      /* uint8 advertising_filter_policy */
  70:Generated_Source\PSoC4/ble.c **** };
  71:Generated_Source\PSoC4/ble.c **** 
  72:Generated_Source\PSoC4/ble.c **** CYBLE_GAPP_DISC_DATA_T cyBle_discoveryData =
  73:Generated_Source\PSoC4/ble.c **** {
  74:Generated_Source\PSoC4/ble.c ****     { 0x02u, 0x01u, 0x06u, 0x07u, 0x09u, 0x63u, 0x61u,
  75:Generated_Source\PSoC4/ble.c ****     0x70u, 0x6Cu, 0x65u, 0x64u, 0x11u, 0x07u, 0xF0u, 0x34u,
  76:Generated_Source\PSoC4/ble.c ****     0x9Bu, 0x5Fu, 0x80u, 0x00u, 0x00u, 0x80u, 0x00u, 0x10u,
  77:Generated_Source\PSoC4/ble.c ****     0x00u, 0x00u, 0x00u, 0x00u, 0x00u, 0x00u, 0x00u, 0x00u }, /* uint8 advertising_data[CYBLE_MAX_A
  78:Generated_Source\PSoC4/ble.c ****     0x1Du,      /* uint8 adv_data_length */
  79:Generated_Source\PSoC4/ble.c **** };
  80:Generated_Source\PSoC4/ble.c **** 
  81:Generated_Source\PSoC4/ble.c **** CYBLE_GAPP_SCAN_RSP_DATA_T cyBle_scanRspData =
  82:Generated_Source\PSoC4/ble.c **** {
  83:Generated_Source\PSoC4/ble.c ****     { 0x00u, 0x00u, 0x00u, 0x00u, 0x00u, 0x00u, 0x00u,
  84:Generated_Source\PSoC4/ble.c ****     0x00u, 0x00u, 0x00u, 0x00u, 0x00u, 0x00u, 0x00u, 0x00u,
  85:Generated_Source\PSoC4/ble.c ****     0x00u, 0x00u, 0x00u, 0x00u, 0x00u, 0x00u, 0x00u, 0x00u,
  86:Generated_Source\PSoC4/ble.c ****     0x00u, 0x00u, 0x00u, 0x00u, 0x00u, 0x00u, 0x00u, 0x00u }, /* uint8 scan_rsp_data[CYBLE_MAX_SCAN
  87:Generated_Source\PSoC4/ble.c ****     0x00u,      /* uint8 scan_rsp_data_length */
  88:Generated_Source\PSoC4/ble.c **** };
  89:Generated_Source\PSoC4/ble.c **** 
  90:Generated_Source\PSoC4/ble.c **** /* This variable of type CYBLE_GAPP_DISC_MODE_INFO_T is present only when 
ARM GAS  C:\Users\Sarah\AppData\Local\Temp\ccLQenA3.s 			page 3


  91:Generated_Source\PSoC4/ble.c ****    the BLE component is configured for Peripheral GAP role or Central and 
  92:Generated_Source\PSoC4/ble.c ****    Peripheral GAP role. It contains the Advertisement settings and also the 
  93:Generated_Source\PSoC4/ble.c ****    Advertisement and Scan response data parameters entered in the customizer.
  94:Generated_Source\PSoC4/ble.c ****    This variable can be used by advanced users to change Advertisement settings,
  95:Generated_Source\PSoC4/ble.c ****    Advertisement or Scan response data in runtime. 
  96:Generated_Source\PSoC4/ble.c **** */
  97:Generated_Source\PSoC4/ble.c **** CYBLE_GAPP_DISC_MODE_INFO_T cyBle_discoveryModeInfo =
  98:Generated_Source\PSoC4/ble.c **** {
  99:Generated_Source\PSoC4/ble.c ****     0x02u,      /* uint8 discMode */
 100:Generated_Source\PSoC4/ble.c ****     &cyBle_discoveryParam,
 101:Generated_Source\PSoC4/ble.c ****     &cyBle_discoveryData,
 102:Generated_Source\PSoC4/ble.c ****     &cyBle_scanRspData,
 103:Generated_Source\PSoC4/ble.c ****     0x0000u,    /* uint16 advTo */
 104:Generated_Source\PSoC4/ble.c **** };
 105:Generated_Source\PSoC4/ble.c **** 
 106:Generated_Source\PSoC4/ble.c **** 
 107:Generated_Source\PSoC4/ble.c **** #endif /* CYBLE_GAP_ROLE_PERIPHERAL || CYBLE_GAP_ROLE_BROADCASTER */
 108:Generated_Source\PSoC4/ble.c **** 
 109:Generated_Source\PSoC4/ble.c **** #if(CYBLE_GAP_ROLE_CENTRAL)
 110:Generated_Source\PSoC4/ble.c ****     
 111:Generated_Source\PSoC4/ble.c **** CYBLE_GAPC_CONN_PARAM_T cyBle_connectionParameters;
 112:Generated_Source\PSoC4/ble.c **** 
 113:Generated_Source\PSoC4/ble.c **** /* Connecting timeout is set to 30 seconds in CyBle_Init function. 
 114:Generated_Source\PSoC4/ble.c ****    Not zero value starts timer in CyBle_GapcConnectDevice API.
 115:Generated_Source\PSoC4/ble.c **** */
 116:Generated_Source\PSoC4/ble.c **** uint16 cyBle_connectingTimeout;
 117:Generated_Source\PSoC4/ble.c ****     
 118:Generated_Source\PSoC4/ble.c **** #endif /* CYBLE_GAP_ROLE_CENTRAL */
 119:Generated_Source\PSoC4/ble.c **** 
 120:Generated_Source\PSoC4/ble.c **** #if(CYBLE_GAP_ROLE_CENTRAL || CYBLE_GAP_ROLE_OBSERVER)
 121:Generated_Source\PSoC4/ble.c ****     
 122:Generated_Source\PSoC4/ble.c **** /* This variable of type CYBLE_GAPC_DISC_INFO_T is present only when  
 123:Generated_Source\PSoC4/ble.c ****    the BLE component is configured for Central GAP role or Central and  
 124:Generated_Source\PSoC4/ble.c ****    Peripheral GAP role. It contains the Scan settings entered in the  
 125:Generated_Source\PSoC4/ble.c ****    customizer. This variable can be used by advanced users to change Scan  
 126:Generated_Source\PSoC4/ble.c ****    settings in runtime.
 127:Generated_Source\PSoC4/ble.c **** */
 128:Generated_Source\PSoC4/ble.c **** CYBLE_GAPC_DISC_INFO_T cyBle_discoveryInfo =
 129:Generated_Source\PSoC4/ble.c **** {
 130:Generated_Source\PSoC4/ble.c ****     0x02u,      /* discProcedure */
 131:Generated_Source\PSoC4/ble.c ****     0x01u,      /* scanType */
 132:Generated_Source\PSoC4/ble.c ****     0x0030u,    /* scanInterval */
 133:Generated_Source\PSoC4/ble.c ****     0x0030u,    /* scanWindow */
 134:Generated_Source\PSoC4/ble.c ****     0x00u,      /* ownAddrType */
 135:Generated_Source\PSoC4/ble.c ****     0x00u,      /* scanFilterPolicy */
 136:Generated_Source\PSoC4/ble.c ****     0x001Eu,    /* scanTO */
 137:Generated_Source\PSoC4/ble.c ****     0x00u,      /* filterDuplicates */
 138:Generated_Source\PSoC4/ble.c **** };
 139:Generated_Source\PSoC4/ble.c ****     
 140:Generated_Source\PSoC4/ble.c **** #endif /* CYBLE_GAP_ROLE_CENTRAL || CYBLE_GAP_ROLE_OBSERVER */
 141:Generated_Source\PSoC4/ble.c **** 
 142:Generated_Source\PSoC4/ble.c **** #if((CYBLE_GAP_ROLE_PERIPHERAL || CYBLE_GAP_ROLE_CENTRAL) && (CYBLE_BONDING_REQUIREMENT == CYBLE_BO
 143:Generated_Source\PSoC4/ble.c **** 
 144:Generated_Source\PSoC4/ble.c **** uint8 cyBle_peerBonding;
 145:Generated_Source\PSoC4/ble.c **** uint8 cyBle_pendingFlashWrite;
 146:Generated_Source\PSoC4/ble.c ****     
 147:Generated_Source\PSoC4/ble.c **** #if(CYBLE_GATT_DB_CCCD_COUNT != 0u)
ARM GAS  C:\Users\Sarah\AppData\Local\Temp\ccLQenA3.s 			page 4


 148:Generated_Source\PSoC4/ble.c ****     static uint8 cyBle_pendingFlashClearCccdHandle;
 149:Generated_Source\PSoC4/ble.c **** #endif /* CYBLE_GATT_DB_CCCD_COUNT != 0u */
 150:Generated_Source\PSoC4/ble.c ****     
 151:Generated_Source\PSoC4/ble.c **** #endif  /* (CYBLE_BONDING_REQUIREMENT == CYBLE_BONDING_YES) */
 152:Generated_Source\PSoC4/ble.c **** 
 153:Generated_Source\PSoC4/ble.c **** CYBLE_CALLBACK_T CyBle_ApplCallback;
 154:Generated_Source\PSoC4/ble.c **** CYBLE_GAP_BD_ADDR_T cyBle_deviceAddress = {{0x00u, 0x00u, 0x00u, 0x50u, 0xA0u, 0x00u}, 0x00u };
 155:Generated_Source\PSoC4/ble.c **** CYBLE_GAP_BD_ADDR_T * cyBle_sflashDeviceAddress = CYBLE_SFLASH_DEVICE_ADDRESS_PTR;
 156:Generated_Source\PSoC4/ble.c **** 
 157:Generated_Source\PSoC4/ble.c **** 
 158:Generated_Source\PSoC4/ble.c **** /******************************************************************************
 159:Generated_Source\PSoC4/ble.c **** * Function Name: CyBle_Init
 160:Generated_Source\PSoC4/ble.c **** ***************************************************************************//**
 161:Generated_Source\PSoC4/ble.c **** *
 162:Generated_Source\PSoC4/ble.c **** *   Initializes the component with the parameters set in the customizer.
 163:Generated_Source\PSoC4/ble.c **** * 
 164:Generated_Source\PSoC4/ble.c **** *  \return
 165:Generated_Source\PSoC4/ble.c **** *   None
 166:Generated_Source\PSoC4/ble.c **** * 
 167:Generated_Source\PSoC4/ble.c **** ******************************************************************************/
 168:Generated_Source\PSoC4/ble.c **** void CyBle_Init(void)
 169:Generated_Source\PSoC4/ble.c **** {
 170:Generated_Source\PSoC4/ble.c ****     cyBle_eventHandlerFlag = 0u;
 171:Generated_Source\PSoC4/ble.c ****     cyBle_busyStatus = CYBLE_STACK_STATE_FREE;
 172:Generated_Source\PSoC4/ble.c **** 
 173:Generated_Source\PSoC4/ble.c ****     #if(CYBLE_GAP_ROLE_PERIPHERAL || CYBLE_GAP_ROLE_BROADCASTER) 
 174:Generated_Source\PSoC4/ble.c ****         cyBle_advertisingIntervalType = CYBLE_ADVERTISING_FAST; 
 175:Generated_Source\PSoC4/ble.c ****     #endif /* (CYBLE_GAP_ROLE_PERIPHERAL || CYBLE_GAP_ROLE_BROADCASTER)  */
 176:Generated_Source\PSoC4/ble.c ****     #if(CYBLE_GAP_ROLE_CENTRAL || CYBLE_GAP_ROLE_OBSERVER)
 177:Generated_Source\PSoC4/ble.c ****         cyBle_scanningIntervalType = CYBLE_SCANNING_FAST; 
 178:Generated_Source\PSoC4/ble.c ****     #endif /* (CYBLE_GAP_ROLE_CENTRAL || CYBLE_GAP_ROLE_OBSERVER) */
 179:Generated_Source\PSoC4/ble.c ****         
 180:Generated_Source\PSoC4/ble.c ****     /* Init default connection parameters. 
 181:Generated_Source\PSoC4/ble.c ****        Application may change it before initiating a connection */
 182:Generated_Source\PSoC4/ble.c ****     #if(CYBLE_GAP_ROLE_CENTRAL)
 183:Generated_Source\PSoC4/ble.c ****         cyBle_connectionParameters.scanIntv = cyBle_discoveryInfo.scanIntv;
 184:Generated_Source\PSoC4/ble.c ****         cyBle_connectionParameters.scanWindow = cyBle_discoveryInfo.scanWindow;
 185:Generated_Source\PSoC4/ble.c ****         cyBle_connectionParameters.ownAddrType = cyBle_discoveryInfo.ownAddrType;
 186:Generated_Source\PSoC4/ble.c ****         cyBle_connectionParameters.initiatorFilterPolicy = cyBle_discoveryInfo.scanFilterPolicy;
 187:Generated_Source\PSoC4/ble.c ****         cyBle_connectionParameters.connIntvMin = CYBLE_GAPC_CONNECTION_INTERVAL_MIN;
 188:Generated_Source\PSoC4/ble.c ****         cyBle_connectionParameters.connIntvMax = CYBLE_GAPC_CONNECTION_INTERVAL_MAX;
 189:Generated_Source\PSoC4/ble.c ****         cyBle_connectionParameters.connLatency = CYBLE_GAPC_CONNECTION_SLAVE_LATENCY;
 190:Generated_Source\PSoC4/ble.c ****         cyBle_connectionParameters.supervisionTO = CYBLE_GAPC_CONNECTION_TIME_OUT;
 191:Generated_Source\PSoC4/ble.c ****         cyBle_connectionParameters.minCeLength = 0x0000u;
 192:Generated_Source\PSoC4/ble.c ****         cyBle_connectionParameters.maxCeLength = 0xFFFFu;
 193:Generated_Source\PSoC4/ble.c ****         
 194:Generated_Source\PSoC4/ble.c ****         cyBle_connectingTimeout = CYBLE_GAPC_CONNECTING_TIMEOUT;
 195:Generated_Source\PSoC4/ble.c ****     #endif /* CYBLE_GAP_ROLE_CENTRAL */
 196:Generated_Source\PSoC4/ble.c **** 
 197:Generated_Source\PSoC4/ble.c ****     CyBle_ServiceInit();
 198:Generated_Source\PSoC4/ble.c **** 
 199:Generated_Source\PSoC4/ble.c ****     #if((CYBLE_GAP_ROLE_PERIPHERAL || CYBLE_GAP_ROLE_CENTRAL) && (CYBLE_BONDING_REQUIREMENT == CYBL
 200:Generated_Source\PSoC4/ble.c ****         cyBle_pendingFlashWrite = 0u;
 201:Generated_Source\PSoC4/ble.c ****         cyBle_peerBonding = CYBLE_GAP_BONDING_NONE;
 202:Generated_Source\PSoC4/ble.c ****     #endif  /* (CYBLE_BONDING_REQUIREMENT == CYBLE_BONDING_YES) */
 203:Generated_Source\PSoC4/ble.c **** 
 204:Generated_Source\PSoC4/ble.c **** }
ARM GAS  C:\Users\Sarah\AppData\Local\Temp\ccLQenA3.s 			page 5


 205:Generated_Source\PSoC4/ble.c **** 
 206:Generated_Source\PSoC4/ble.c **** 
 207:Generated_Source\PSoC4/ble.c **** /******************************************************************************
 208:Generated_Source\PSoC4/ble.c **** * Function Name: CyBle_ServiceInit
 209:Generated_Source\PSoC4/ble.c **** ***************************************************************************//**
 210:Generated_Source\PSoC4/ble.c **** * 
 211:Generated_Source\PSoC4/ble.c **** *  Initializes all included services.
 212:Generated_Source\PSoC4/ble.c **** * 
 213:Generated_Source\PSoC4/ble.c **** * \return
 214:Generated_Source\PSoC4/ble.c **** *  None
 215:Generated_Source\PSoC4/ble.c **** * 
 216:Generated_Source\PSoC4/ble.c **** ******************************************************************************/
 217:Generated_Source\PSoC4/ble.c **** void CyBle_ServiceInit(void)
 218:Generated_Source\PSoC4/ble.c **** {
 219:Generated_Source\PSoC4/ble.c ****     #if(CYBLE_GATT_ROLE_CLIENT)
 220:Generated_Source\PSoC4/ble.c ****         /* Check service range before clearing to support partial discovery */
 221:Generated_Source\PSoC4/ble.c ****         if(cyBle_serverInfo[CYBLE_SRVI_GAP].range.startHandle == CYBLE_GATT_INVALID_ATTR_HANDLE_VAL
 222:Generated_Source\PSoC4/ble.c ****         {
 223:Generated_Source\PSoC4/ble.c ****             (void)memset(&cyBle_gapc, 0, sizeof(cyBle_gapc));
 224:Generated_Source\PSoC4/ble.c ****         }
 225:Generated_Source\PSoC4/ble.c ****         if(cyBle_serverInfo[CYBLE_SRVI_GATT].range.startHandle == CYBLE_GATT_INVALID_ATTR_HANDLE_VA
 226:Generated_Source\PSoC4/ble.c ****         {
 227:Generated_Source\PSoC4/ble.c ****             (void)memset(&cyBle_gattc, 0, sizeof(cyBle_gattc));
 228:Generated_Source\PSoC4/ble.c ****         }
 229:Generated_Source\PSoC4/ble.c ****     #endif /* CYBLE_GATT_ROLE_CLIENT */
 230:Generated_Source\PSoC4/ble.c **** 
 231:Generated_Source\PSoC4/ble.c ****    	#ifdef CYBLE_AIOS
 232:Generated_Source\PSoC4/ble.c ****         CyBle_AiosInit();
 233:Generated_Source\PSoC4/ble.c ****     #endif /* CYBLE_AIOS */
 234:Generated_Source\PSoC4/ble.c **** 
 235:Generated_Source\PSoC4/ble.c **** 	#ifdef CYBLE_ANCS
 236:Generated_Source\PSoC4/ble.c ****         CyBle_AncsInit();
 237:Generated_Source\PSoC4/ble.c ****     #endif /* CYBLE_ANCS */
 238:Generated_Source\PSoC4/ble.c **** 	
 239:Generated_Source\PSoC4/ble.c ****     #ifdef CYBLE_ANS
 240:Generated_Source\PSoC4/ble.c ****         CyBle_AnsInit();
 241:Generated_Source\PSoC4/ble.c ****     #endif /* CYBLE_ANS */
 242:Generated_Source\PSoC4/ble.c ****     
 243:Generated_Source\PSoC4/ble.c ****     #ifdef CYBLE_BAS
 244:Generated_Source\PSoC4/ble.c ****         CyBle_BasInit();
 245:Generated_Source\PSoC4/ble.c ****     #endif /* CYBLE_BAS */
 246:Generated_Source\PSoC4/ble.c ****     
 247:Generated_Source\PSoC4/ble.c ****     #ifdef CYBLE_BCS
 248:Generated_Source\PSoC4/ble.c ****         CyBle_BcsInit();
 249:Generated_Source\PSoC4/ble.c ****     #endif /* CYBLE_BCS */
 250:Generated_Source\PSoC4/ble.c **** 
 251:Generated_Source\PSoC4/ble.c ****     #ifdef CYBLE_BLS
 252:Generated_Source\PSoC4/ble.c ****         CyBle_BlsInit();
 253:Generated_Source\PSoC4/ble.c ****     #endif /* CYBLE_BLS */
 254:Generated_Source\PSoC4/ble.c ****     
 255:Generated_Source\PSoC4/ble.c ****     #ifdef CYBLE_BMS
 256:Generated_Source\PSoC4/ble.c ****         CyBle_BmsInit();
 257:Generated_Source\PSoC4/ble.c ****     #endif /* CYBLE_BMS */
 258:Generated_Source\PSoC4/ble.c ****     
 259:Generated_Source\PSoC4/ble.c ****     #ifdef CYBLE_CGMS
 260:Generated_Source\PSoC4/ble.c ****         CyBle_CgmsInit();
 261:Generated_Source\PSoC4/ble.c ****     #endif /* CYBLE_CGMS */
ARM GAS  C:\Users\Sarah\AppData\Local\Temp\ccLQenA3.s 			page 6


 262:Generated_Source\PSoC4/ble.c **** 
 263:Generated_Source\PSoC4/ble.c ****     #ifdef CYBLE_CPS
 264:Generated_Source\PSoC4/ble.c ****         CyBle_CpsInit();
 265:Generated_Source\PSoC4/ble.c ****     #endif /* CYBLE_CPS */
 266:Generated_Source\PSoC4/ble.c **** 
 267:Generated_Source\PSoC4/ble.c ****     #ifdef CYBLE_CSCS
 268:Generated_Source\PSoC4/ble.c ****         CyBle_CscsInit();
 269:Generated_Source\PSoC4/ble.c ****     #endif /* CYBLE_CSCS */
 270:Generated_Source\PSoC4/ble.c ****     
 271:Generated_Source\PSoC4/ble.c ****     #ifdef CYBLE_CTS
 272:Generated_Source\PSoC4/ble.c ****         CyBle_CtsInit();
 273:Generated_Source\PSoC4/ble.c ****     #endif /* CYBLE_CTS */
 274:Generated_Source\PSoC4/ble.c **** 
 275:Generated_Source\PSoC4/ble.c ****     #ifdef CYBLE_CUSTOM
 276:Generated_Source\PSoC4/ble.c ****         CyBle_CustomInit();
 277:Generated_Source\PSoC4/ble.c ****     #endif /* CYBLE_CUSTOM */
 278:Generated_Source\PSoC4/ble.c **** 
 279:Generated_Source\PSoC4/ble.c ****     #ifdef CYBLE_DIS
 280:Generated_Source\PSoC4/ble.c ****         CyBle_DisInit();
 281:Generated_Source\PSoC4/ble.c ****     #endif /* CYBLE_DIS */
 282:Generated_Source\PSoC4/ble.c **** 
 283:Generated_Source\PSoC4/ble.c ****     #ifdef CYBLE_ESS
 284:Generated_Source\PSoC4/ble.c ****         CyBle_EssInit();
 285:Generated_Source\PSoC4/ble.c ****     #endif /* CYBLE_ESS */
 286:Generated_Source\PSoC4/ble.c ****     
 287:Generated_Source\PSoC4/ble.c ****     #ifdef CYBLE_GLS
 288:Generated_Source\PSoC4/ble.c ****         CyBle_GlsInit();
 289:Generated_Source\PSoC4/ble.c ****     #endif /* CYBLE_GLS */
 290:Generated_Source\PSoC4/ble.c ****     
 291:Generated_Source\PSoC4/ble.c ****     #ifdef CYBLE_HIDS
 292:Generated_Source\PSoC4/ble.c ****         CyBle_HidsInit();
 293:Generated_Source\PSoC4/ble.c ****     #endif /* CYBLE_HIDS */
 294:Generated_Source\PSoC4/ble.c **** 
 295:Generated_Source\PSoC4/ble.c ****     #ifdef CYBLE_HPS
 296:Generated_Source\PSoC4/ble.c ****         CyBle_HpsInit();
 297:Generated_Source\PSoC4/ble.c ****     #endif /* CYBLE_HPS */
 298:Generated_Source\PSoC4/ble.c **** 
 299:Generated_Source\PSoC4/ble.c ****     #ifdef CYBLE_HRS
 300:Generated_Source\PSoC4/ble.c ****         CyBle_HrsInit();
 301:Generated_Source\PSoC4/ble.c ****     #endif /* CYBLE_HRS */
 302:Generated_Source\PSoC4/ble.c ****     
 303:Generated_Source\PSoC4/ble.c ****     #ifdef CYBLE_HTS
 304:Generated_Source\PSoC4/ble.c ****         CyBle_HtsInit();
 305:Generated_Source\PSoC4/ble.c ****     #endif /* CYBLE_RSCS */
 306:Generated_Source\PSoC4/ble.c **** 
 307:Generated_Source\PSoC4/ble.c ****     #ifdef CYBLE_IAS
 308:Generated_Source\PSoC4/ble.c ****         CyBle_IasInit();
 309:Generated_Source\PSoC4/ble.c ****     #endif /* CYBLE_IAS */
 310:Generated_Source\PSoC4/ble.c **** 
 311:Generated_Source\PSoC4/ble.c ****     #ifdef CYBLE_IPS
 312:Generated_Source\PSoC4/ble.c ****         CyBle_IpsInit();
 313:Generated_Source\PSoC4/ble.c ****     #endif /* CYBLE_IPS */
 314:Generated_Source\PSoC4/ble.c ****     
 315:Generated_Source\PSoC4/ble.c ****     #ifdef CYBLE_LLS
 316:Generated_Source\PSoC4/ble.c ****         CyBle_LlsInit();
 317:Generated_Source\PSoC4/ble.c ****     #endif /* CYBLE_LLS */
 318:Generated_Source\PSoC4/ble.c **** 
ARM GAS  C:\Users\Sarah\AppData\Local\Temp\ccLQenA3.s 			page 7


 319:Generated_Source\PSoC4/ble.c ****     #ifdef CYBLE_LNS
 320:Generated_Source\PSoC4/ble.c ****         CyBle_LnsInit();
 321:Generated_Source\PSoC4/ble.c ****     #endif /* CYBLE_LNS */
 322:Generated_Source\PSoC4/ble.c ****     
 323:Generated_Source\PSoC4/ble.c ****     #ifdef CYBLE_NDCS
 324:Generated_Source\PSoC4/ble.c ****         CyBle_NdcsInit();
 325:Generated_Source\PSoC4/ble.c ****     #endif /* CYBLE_NDCS */
 326:Generated_Source\PSoC4/ble.c ****     
 327:Generated_Source\PSoC4/ble.c ****     #ifdef CYBLE_PASS
 328:Generated_Source\PSoC4/ble.c ****         CyBle_PassInit();
 329:Generated_Source\PSoC4/ble.c ****     #endif /* CYBLE_PASS */
 330:Generated_Source\PSoC4/ble.c ****     
 331:Generated_Source\PSoC4/ble.c ****     #ifdef CYBLE_PLXS
 332:Generated_Source\PSoC4/ble.c ****         CyBle_PlxsInit();
 333:Generated_Source\PSoC4/ble.c ****     #endif /* CYBLE_PLXS */
 334:Generated_Source\PSoC4/ble.c ****     
 335:Generated_Source\PSoC4/ble.c ****     #ifdef CYBLE_RSCS
 336:Generated_Source\PSoC4/ble.c ****         CyBle_RscsInit();
 337:Generated_Source\PSoC4/ble.c ****     #endif /* CYBLE_RSCS */
 338:Generated_Source\PSoC4/ble.c **** 
 339:Generated_Source\PSoC4/ble.c ****     #ifdef CYBLE_RTUS
 340:Generated_Source\PSoC4/ble.c ****         CyBle_RtusInit();
 341:Generated_Source\PSoC4/ble.c ****     #endif /* CYBLE_RTUS */
 342:Generated_Source\PSoC4/ble.c **** 
 343:Generated_Source\PSoC4/ble.c ****     #ifdef CYBLE_SCPS
 344:Generated_Source\PSoC4/ble.c ****         CyBle_ScpsInit();
 345:Generated_Source\PSoC4/ble.c ****     #endif /* CYBLE_SCPS */
 346:Generated_Source\PSoC4/ble.c ****     
 347:Generated_Source\PSoC4/ble.c ****     #ifdef CYBLE_TPS
 348:Generated_Source\PSoC4/ble.c ****         CyBle_TpsInit();
 349:Generated_Source\PSoC4/ble.c ****     #endif /* CYBLE_TPS */
 350:Generated_Source\PSoC4/ble.c ****     
 351:Generated_Source\PSoC4/ble.c ****     #ifdef CYBLE_UDS
 352:Generated_Source\PSoC4/ble.c ****         CyBle_UdsInit();
 353:Generated_Source\PSoC4/ble.c ****     #endif /* CYBLE_UDS */
 354:Generated_Source\PSoC4/ble.c **** 
 355:Generated_Source\PSoC4/ble.c ****     #ifdef CYBLE_WPTS
 356:Generated_Source\PSoC4/ble.c ****         CyBle_WptsInit();
 357:Generated_Source\PSoC4/ble.c ****     #endif /* CYBLE_WPTS */
 358:Generated_Source\PSoC4/ble.c **** 
 359:Generated_Source\PSoC4/ble.c ****     #ifdef CYBLE_WSS
 360:Generated_Source\PSoC4/ble.c ****         CyBle_WssInit();
 361:Generated_Source\PSoC4/ble.c ****     #endif /* CYBLE_WSS */
 362:Generated_Source\PSoC4/ble.c **** }
 363:Generated_Source\PSoC4/ble.c **** 
 364:Generated_Source\PSoC4/ble.c **** 
 365:Generated_Source\PSoC4/ble.c **** /******************************************************************************
 366:Generated_Source\PSoC4/ble.c **** * Function Name: CyBle_Start
 367:Generated_Source\PSoC4/ble.c **** ***************************************************************************//**
 368:Generated_Source\PSoC4/ble.c **** * 
 369:Generated_Source\PSoC4/ble.c **** *  This function initializes the BLE Stack, which consists of the BLE Stack 
 370:Generated_Source\PSoC4/ble.c **** *  Manager, BLE Controller, and BLE Host modules. It takes care of initializing
 371:Generated_Source\PSoC4/ble.c **** *  the Profile layer, schedulers, Timer and other platform related
 372:Generated_Source\PSoC4/ble.c **** *  resources required for the BLE component. It also registers the callback 
 373:Generated_Source\PSoC4/ble.c **** *  function for BLE events that will be registered in the BLE stack.
 374:Generated_Source\PSoC4/ble.c **** * 
 375:Generated_Source\PSoC4/ble.c **** *  Note that this function does not reset the BLE Stack.
ARM GAS  C:\Users\Sarah\AppData\Local\Temp\ccLQenA3.s 			page 8


 376:Generated_Source\PSoC4/ble.c **** * 
 377:Generated_Source\PSoC4/ble.c **** *  For HCI-Mode of operation, this function will not initialize the BLE Host 
 378:Generated_Source\PSoC4/ble.c **** *  module.
 379:Generated_Source\PSoC4/ble.c **** * 
 380:Generated_Source\PSoC4/ble.c **** *  Calling this function results in the generation of CYBLE_EVT_STACK_ON event
 381:Generated_Source\PSoC4/ble.c **** *  on successful initialization of the BLE Stack.
 382:Generated_Source\PSoC4/ble.c **** * 
 383:Generated_Source\PSoC4/ble.c **** *  \param callbackFunc: Event callback function to receive events from BLE stack.
 384:Generated_Source\PSoC4/ble.c **** *   CYBLE_CALLBACK_T is a function pointer type.
 385:Generated_Source\PSoC4/ble.c **** * 
 386:Generated_Source\PSoC4/ble.c **** * \return
 387:Generated_Source\PSoC4/ble.c **** *  CYBLE_API_RESULT_T : Return value indicates if the function succeeded or 
 388:Generated_Source\PSoC4/ble.c **** *  failed. Following are the possible error codes.
 389:Generated_Source\PSoC4/ble.c **** * 
 390:Generated_Source\PSoC4/ble.c **** *   <table>
 391:Generated_Source\PSoC4/ble.c **** *  	  <tr>
 392:Generated_Source\PSoC4/ble.c **** *       <th>Error codes</th>
 393:Generated_Source\PSoC4/ble.c **** *       <th>Description</th>
 394:Generated_Source\PSoC4/ble.c **** *     </tr>
 395:Generated_Source\PSoC4/ble.c **** *     <tr>
 396:Generated_Source\PSoC4/ble.c **** *       <td>CYBLE_ERROR_OK</td>
 397:Generated_Source\PSoC4/ble.c **** *       <td>On successful operation.</td>
 398:Generated_Source\PSoC4/ble.c **** *     </tr>
 399:Generated_Source\PSoC4/ble.c **** *     <tr>
 400:Generated_Source\PSoC4/ble.c **** *       <td>CYBLE_ERROR_INVALID_PARAMETER</td>
 401:Generated_Source\PSoC4/ble.c **** *       <td>On passing a NULL pointer to the function. 
 402:Generated_Source\PSoC4/ble.c **** *		</td>
 403:Generated_Source\PSoC4/ble.c **** *     </tr>
 404:Generated_Source\PSoC4/ble.c **** *     <tr>
 405:Generated_Source\PSoC4/ble.c **** *       <td>CYBLE_ERROR_REPEATED_ATTEMPTS</td>
 406:Generated_Source\PSoC4/ble.c **** *       <td>On invoking this function more than once without calling CyBle_Shutdown() 
 407:Generated_Source\PSoC4/ble.c **** *           function between calls to this function.</td>
 408:Generated_Source\PSoC4/ble.c **** *     </tr>
 409:Generated_Source\PSoC4/ble.c **** *     <tr>
 410:Generated_Source\PSoC4/ble.c **** *       <td>CYBLE_ERROR_MEMORY_ALLOCATION_FAILED</td>
 411:Generated_Source\PSoC4/ble.c **** *       <td>There is insufficient memory available.</td>
 412:Generated_Source\PSoC4/ble.c **** *     </tr>
 413:Generated_Source\PSoC4/ble.c **** *   </table>
 414:Generated_Source\PSoC4/ble.c **** * 
 415:Generated_Source\PSoC4/ble.c **** *  \globalvars
 416:Generated_Source\PSoC4/ble.c **** *   The CyBle_initVar variable is used to indicate initial
 417:Generated_Source\PSoC4/ble.c **** *   configuration of this component. The variable is initialized to zero (0u)
 418:Generated_Source\PSoC4/ble.c **** *   and set to one (1u) the first time CyBle_Start() is called. This
 419:Generated_Source\PSoC4/ble.c **** *   allows for component initialization without re-initialization in all
 420:Generated_Source\PSoC4/ble.c **** *   subsequent calls to the CyBle_Start() routine.
 421:Generated_Source\PSoC4/ble.c **** * 
 422:Generated_Source\PSoC4/ble.c **** ******************************************************************************/
 423:Generated_Source\PSoC4/ble.c **** CYBLE_API_RESULT_T CyBle_Start(CYBLE_CALLBACK_T callbackFunc)
 424:Generated_Source\PSoC4/ble.c **** {
 425:Generated_Source\PSoC4/ble.c ****     CYBLE_API_RESULT_T apiResult = CYBLE_ERROR_OK;
 426:Generated_Source\PSoC4/ble.c ****     
 427:Generated_Source\PSoC4/ble.c ****     #if(CYBLE_MODE_PROFILE)
 428:Generated_Source\PSoC4/ble.c ****     
 429:Generated_Source\PSoC4/ble.c ****     CYBLE_STK_APP_DATA_BUFF_T cyBle_stackDataBuff[CYBLE_STACK_APP_MIN_POOL] = 
 430:Generated_Source\PSoC4/ble.c ****     {
 431:Generated_Source\PSoC4/ble.c ****         {CYBLE_GATT_MTU_PLUS_L2CAP_MEM_EXT, CYBLE_GATT_MTU_BUFF_COUNT + CYBLE_GATT_MAX_ATTR_BUFF_CO
 432:Generated_Source\PSoC4/ble.c ****         {CYBLE_L2CAP_PSM_PLUS_L2CAP_MEM_EXT, CYBLE_L2CAP_PSM_COUNT},
ARM GAS  C:\Users\Sarah\AppData\Local\Temp\ccLQenA3.s 			page 9


 433:Generated_Source\PSoC4/ble.c ****         {CYBLE_L2CAP_CBFC_PLUS_L2CAP_MEM_EXT, 2u * CYBLE_L2CAP_LOGICAL_CHANNEL_COUNT},
 434:Generated_Source\PSoC4/ble.c ****         {CYBLE_L2CAP_MTU_PLUS_L2CAP_MEM_EXT, CYBLE_L2CAP_LOGICAL_CHANNEL_COUNT},
 435:Generated_Source\PSoC4/ble.c ****         {CYBLE_L2CAP_MPS_PLUS_L2CAP_MEM_EXT, CYBLE_L2CAP_LOGICAL_CHANNEL_COUNT * (CYBLE_L2CAP_MTU_M
 436:Generated_Source\PSoC4/ble.c ****     }; 
 437:Generated_Source\PSoC4/ble.c **** 
 438:Generated_Source\PSoC4/ble.c ****     #endif /* CYBLE_MODE_PROFILE */
 439:Generated_Source\PSoC4/ble.c ****     
 440:Generated_Source\PSoC4/ble.c ****     /* If not initialized then initialize all the required hardware and software */
 441:Generated_Source\PSoC4/ble.c ****     if(cyBle_initVar == 0u)
 442:Generated_Source\PSoC4/ble.c ****     {
 443:Generated_Source\PSoC4/ble.c ****         CyBle_Init();
 444:Generated_Source\PSoC4/ble.c ****         cyBle_initVar = 1u;
 445:Generated_Source\PSoC4/ble.c ****     }
 446:Generated_Source\PSoC4/ble.c ****     
 447:Generated_Source\PSoC4/ble.c ****     if(callbackFunc != NULL)
 448:Generated_Source\PSoC4/ble.c ****     {
 449:Generated_Source\PSoC4/ble.c ****         CyBle_ApplCallback = callbackFunc;
 450:Generated_Source\PSoC4/ble.c ****         
 451:Generated_Source\PSoC4/ble.c ****     #if(CYBLE_SHARING_MODE_EXPORT)
 452:Generated_Source\PSoC4/ble.c ****         if(cyBle_stackMemoryRam == NULL)
 453:Generated_Source\PSoC4/ble.c ****         {
 454:Generated_Source\PSoC4/ble.c ****             cyBle_stackMemoryRam = (uint8 *)malloc(CYBLE_STACK_RAM_SIZE);
 455:Generated_Source\PSoC4/ble.c ****             if(cyBle_stackMemoryRam == NULL)
 456:Generated_Source\PSoC4/ble.c ****             {
 457:Generated_Source\PSoC4/ble.c ****                 apiResult = CYBLE_ERROR_MEMORY_ALLOCATION_FAILED;
 458:Generated_Source\PSoC4/ble.c ****             }
 459:Generated_Source\PSoC4/ble.c ****         }
 460:Generated_Source\PSoC4/ble.c ****     #endif /* CYBLE_SHARING_MODE_EXPORT */
 461:Generated_Source\PSoC4/ble.c ****         if(apiResult == CYBLE_ERROR_OK)
 462:Generated_Source\PSoC4/ble.c ****         {
 463:Generated_Source\PSoC4/ble.c ****             CYBLE_DLE_CONFIG_PARAM_T dleConfigParams;
 464:Generated_Source\PSoC4/ble.c ****             CYBLE_PRIVACY_1_2_CONFIG_PARAM_T privacyConfigParams;
 465:Generated_Source\PSoC4/ble.c ****             CYBLE_STACK_CONFIG_PARAM_T stackConfig;
 466:Generated_Source\PSoC4/ble.c ****             uint16 featureHeapReq;
 467:Generated_Source\PSoC4/ble.c ****             
 468:Generated_Source\PSoC4/ble.c ****             stackConfig.privacyConfig = &privacyConfigParams;
 469:Generated_Source\PSoC4/ble.c ****             stackConfig.dleConfig = &dleConfigParams;
 470:Generated_Source\PSoC4/ble.c ****             
 471:Generated_Source\PSoC4/ble.c ****             /* Configure default BLE 4.1 features and enabled 4.2 features */
 472:Generated_Source\PSoC4/ble.c ****             stackConfig.feature_mask = CYBLE_DLE_FEATURE | CYBLE_LL_PRIVACY_FEATURE | 
 473:Generated_Source\PSoC4/ble.c ****                                        CYBLE_SECURE_CONN_FEATURE;
 474:Generated_Source\PSoC4/ble.c **** 
 475:Generated_Source\PSoC4/ble.c ****             /* Configure DLE */
 476:Generated_Source\PSoC4/ble.c ****             dleConfigParams.dleMaxTxCapability = CYBLE_LL_MAX_TX_PAYLOAD_SIZE;
 477:Generated_Source\PSoC4/ble.c ****             dleConfigParams.dleMaxRxCapability = CYBLE_LL_MAX_RX_PAYLOAD_SIZE;
 478:Generated_Source\PSoC4/ble.c ****             dleConfigParams.dleNumTxBuffer = CYBLE_LL_DEFAULT_NUM_ACL_TX_PACKETS;
 479:Generated_Source\PSoC4/ble.c ****         #if(CYBLE_DLE_FEATURE_ENABLED)
 480:Generated_Source\PSoC4/ble.c ****             CyBle_EnableDleFeature();              /* Enable DLE code in stack */
 481:Generated_Source\PSoC4/ble.c ****         #endif /* CYBLE_DLE_FEATURE_ENABLED */
 482:Generated_Source\PSoC4/ble.c ****         
 483:Generated_Source\PSoC4/ble.c ****             /* Configure LL Privacy */
 484:Generated_Source\PSoC4/ble.c ****             privacyConfigParams.resolvingListSize = CYBLE_MAX_RESOLVABLE_DEVICES;
 485:Generated_Source\PSoC4/ble.c ****         #if(CYBLE_LL_PRIVACY_FEATURE_ENABLED)
 486:Generated_Source\PSoC4/ble.c ****             CyBle_EnablePrivacyFeature();          /* Enable LL Privacy code in stack */
 487:Generated_Source\PSoC4/ble.c ****         #endif /* CYBLE_LL_PRIVACY_FEATURE_ENABLED */
 488:Generated_Source\PSoC4/ble.c **** 
 489:Generated_Source\PSoC4/ble.c ****             apiResult = CyBle_StackSetFeatureConfig(&stackConfig, &featureHeapReq);
ARM GAS  C:\Users\Sarah\AppData\Local\Temp\ccLQenA3.s 			page 10


 490:Generated_Source\PSoC4/ble.c ****             }
 491:Generated_Source\PSoC4/ble.c ****     
 492:Generated_Source\PSoC4/ble.c ****         if(apiResult == CYBLE_ERROR_OK)
 493:Generated_Source\PSoC4/ble.c ****         {
 494:Generated_Source\PSoC4/ble.c ****         
 495:Generated_Source\PSoC4/ble.c ****         #if(CYBLE_MODE_PROFILE)
 496:Generated_Source\PSoC4/ble.c ****             #if(CYBLE_BONDING_REQUIREMENT == CYBLE_BONDING_YES)
 497:Generated_Source\PSoC4/ble.c ****                 apiResult = CyBle_StackInit(&CyBle_EventHandler, cyBle_stackMemoryRam, 
 498:Generated_Source\PSoC4/ble.c ****                     CYBLE_STACK_RAM_SIZE - CYBLE_GATT_PREPARE_WRITE_BUFF_LEN, cyBle_stackDataBuff, 
 499:Generated_Source\PSoC4/ble.c ****                     CYBLE_STACK_APP_MIN_POOL, cyBle_flashStorage.stackFlashptr, CYBLE_STACK_FLASH_S
 500:Generated_Source\PSoC4/ble.c ****             #else
 501:Generated_Source\PSoC4/ble.c ****                 apiResult = CyBle_StackInit(&CyBle_EventHandler, cyBle_stackMemoryRam, 
 502:Generated_Source\PSoC4/ble.c ****                     CYBLE_STACK_RAM_SIZE - CYBLE_GATT_PREPARE_WRITE_BUFF_LEN, cyBle_stackDataBuff, 
 503:Generated_Source\PSoC4/ble.c ****                     CYBLE_STACK_APP_MIN_POOL, NULL, 0u);
 504:Generated_Source\PSoC4/ble.c ****             #endif  /* CYBLE_BONDING_REQUIREMENT == CYBLE_BONDING_YES */
 505:Generated_Source\PSoC4/ble.c ****         #else /* HCI mode */
 506:Generated_Source\PSoC4/ble.c ****             /* The following will perform preparation to use HCI over UART or over
 507:Generated_Source\PSoC4/ble.c ****                software. But the following fucntions will not initialize the HCI
 508:Generated_Source\PSoC4/ble.c ****                Transport. This will be done as part of Stack initialization, so
 509:Generated_Source\PSoC4/ble.c ****                the functions should be called prior CyBle_StackInit().
 510:Generated_Source\PSoC4/ble.c ****             */
 511:Generated_Source\PSoC4/ble.c ****             #if (CYBLE_HCI_TYPE == CYBLE_HCI_OVER_UART)
 512:Generated_Source\PSoC4/ble.c ****                 CyBle_HciUartTransportEnable();
 513:Generated_Source\PSoC4/ble.c ****             #else
 514:Generated_Source\PSoC4/ble.c ****                 CyBle_HciSoftTransportEnable();
 515:Generated_Source\PSoC4/ble.c ****             #endif /* (CYBLE_HCI_TYPE == CYBLE_HCI_OVER_UART) */
 516:Generated_Source\PSoC4/ble.c ****             /* This will initialize BLE stack for HCI mode operation */
 517:Generated_Source\PSoC4/ble.c ****             apiResult = CyBle_StackInit(&CyBle_EventHandler, cyBle_stackMemoryRam, CYBLE_STACK_RAM_
 518:Generated_Source\PSoC4/ble.c ****                 NULL, 0u, NULL, 0u);
 519:Generated_Source\PSoC4/ble.c ****         #endif /* CYBLE_MODE_PROFILE */
 520:Generated_Source\PSoC4/ble.c **** 
 521:Generated_Source\PSoC4/ble.c ****             if(apiResult == CYBLE_ERROR_OK)
 522:Generated_Source\PSoC4/ble.c ****             {
 523:Generated_Source\PSoC4/ble.c ****                 CyBle_SetState(CYBLE_STATE_INITIALIZING);
 524:Generated_Source\PSoC4/ble.c ****                 
 525:Generated_Source\PSoC4/ble.c ****             #if (CYBLE_GATT_ROLE_CLIENT)
 526:Generated_Source\PSoC4/ble.c ****                 CyBle_SetClientState(CYBLE_CLIENT_STATE_DISCONNECTED);
 527:Generated_Source\PSoC4/ble.c ****             #endif /* CYBLE_GATT_ROLE_CLIENT */
 528:Generated_Source\PSoC4/ble.c ****                 
 529:Generated_Source\PSoC4/ble.c ****             #if(CYBLE_GATT_ROLE_SERVER)
 530:Generated_Source\PSoC4/ble.c ****                 apiResult = CyBle_GattsDbRegister(cyBle_gattDB, CYBLE_GATT_DB_INDEX_COUNT, CYBLE_GA
 531:Generated_Source\PSoC4/ble.c ****             #endif /* CYBLE_GATT_ROLE_SERVER */
 532:Generated_Source\PSoC4/ble.c ****             }
 533:Generated_Source\PSoC4/ble.c ****         }
 534:Generated_Source\PSoC4/ble.c ****     }
 535:Generated_Source\PSoC4/ble.c ****     else
 536:Generated_Source\PSoC4/ble.c ****     {
 537:Generated_Source\PSoC4/ble.c ****         apiResult = CYBLE_ERROR_INVALID_PARAMETER;
 538:Generated_Source\PSoC4/ble.c ****     }
 539:Generated_Source\PSoC4/ble.c **** 
 540:Generated_Source\PSoC4/ble.c ****     return (apiResult);
 541:Generated_Source\PSoC4/ble.c **** }
 542:Generated_Source\PSoC4/ble.c **** 
 543:Generated_Source\PSoC4/ble.c **** 
 544:Generated_Source\PSoC4/ble.c **** /******************************************************************************
 545:Generated_Source\PSoC4/ble.c **** * Function Name: CyBle_Stop
 546:Generated_Source\PSoC4/ble.c **** ***************************************************************************//**
ARM GAS  C:\Users\Sarah\AppData\Local\Temp\ccLQenA3.s 			page 11


 547:Generated_Source\PSoC4/ble.c **** * 
 548:Generated_Source\PSoC4/ble.c **** *  This function stops any ongoing operation in the BLE Stack and forces the 
 549:Generated_Source\PSoC4/ble.c **** *  BLE Stack to shut down. The only function that can be called after calling
 550:Generated_Source\PSoC4/ble.c **** *  this function is CyBle_Start(). 
 551:Generated_Source\PSoC4/ble.c **** * 
 552:Generated_Source\PSoC4/ble.c **** * \return
 553:Generated_Source\PSoC4/ble.c **** *  None
 554:Generated_Source\PSoC4/ble.c **** * 
 555:Generated_Source\PSoC4/ble.c **** ******************************************************************************/
 556:Generated_Source\PSoC4/ble.c **** void CyBle_Stop(void)
 557:Generated_Source\PSoC4/ble.c **** {
 558:Generated_Source\PSoC4/ble.c ****     CyBle_Shutdown();                         /* Stop all ongoing activities */
 559:Generated_Source\PSoC4/ble.c ****     CyBle_SetState(CYBLE_STATE_STOPPED);
 560:Generated_Source\PSoC4/ble.c ****     #if(CYBLE_SHARING_MODE_EXPORT)
 561:Generated_Source\PSoC4/ble.c ****         if(cyBle_stackMemoryRam != NULL)
 562:Generated_Source\PSoC4/ble.c ****         {
 563:Generated_Source\PSoC4/ble.c ****             free(cyBle_stackMemoryRam);
 564:Generated_Source\PSoC4/ble.c ****         }
 565:Generated_Source\PSoC4/ble.c ****     #endif /* CYBLE_SHARING_MODE_EXPORT */
 566:Generated_Source\PSoC4/ble.c **** }
 567:Generated_Source\PSoC4/ble.c **** 
 568:Generated_Source\PSoC4/ble.c **** 
 569:Generated_Source\PSoC4/ble.c **** #if((CYBLE_GAP_ROLE_PERIPHERAL || CYBLE_GAP_ROLE_CENTRAL) && (CYBLE_BONDING_REQUIREMENT == CYBLE_BO
 570:Generated_Source\PSoC4/ble.c **** 
 571:Generated_Source\PSoC4/ble.c ****     
 572:Generated_Source\PSoC4/ble.c **** /******************************************************************************
 573:Generated_Source\PSoC4/ble.c **** * Function Name: CyBle_StoreBondingData
 574:Generated_Source\PSoC4/ble.c **** ***************************************************************************//**
 575:Generated_Source\PSoC4/ble.c **** * 
 576:Generated_Source\PSoC4/ble.c **** *  This function writes the new bonding data from RAM to the dedicated Flash 
 577:Generated_Source\PSoC4/ble.c **** *  location as defined by the component. It performs data comparing between RAM
 578:Generated_Source\PSoC4/ble.c **** *  and Flash before writing to Flash. If there is no change between RAM and Flash
 579:Generated_Source\PSoC4/ble.c **** *  data, then no write is performed. It writes only one flash row in one call.
 580:Generated_Source\PSoC4/ble.c **** *  Application should keep calling this function till API return CYBLE_ERROR_OK. 
 581:Generated_Source\PSoC4/ble.c **** *  This function is available only when Bonding requirement is selected in
 582:Generated_Source\PSoC4/ble.c **** *  Security settings.    
 583:Generated_Source\PSoC4/ble.c **** * 
 584:Generated_Source\PSoC4/ble.c **** *  \param isForceWrite:  If value is set to 0, then stack will check if flash write 
 585:Generated_Source\PSoC4/ble.c **** *                 is permissible. 
 586:Generated_Source\PSoC4/ble.c **** *  
 587:Generated_Source\PSoC4/ble.c **** * \return
 588:Generated_Source\PSoC4/ble.c **** *  Return value is of type CYBLE_API_RESULT_T.
 589:Generated_Source\PSoC4/ble.c **** *
 590:Generated_Source\PSoC4/ble.c **** *   Errors codes                         | Description
 591:Generated_Source\PSoC4/ble.c **** *   ----------------------------------   | ------------------------------------
 592:Generated_Source\PSoC4/ble.c **** *   CYBLE_ERROR_OK                       | On successful operation
 593:Generated_Source\PSoC4/ble.c **** *   CYBLE_ERROR_FLASH_WRITE_NOT_PERMITED | Flash Write is not complete
 594:Generated_Source\PSoC4/ble.c **** *   CYBLE_ERROR_INVALID_PARAMETER        | Invalid input parameter  
 595:Generated_Source\PSoC4/ble.c **** *   CYBLE_ERROR_FLASH_WRITE              | Error in flash Write	
 596:Generated_Source\PSoC4/ble.c ****     
 597:Generated_Source\PSoC4/ble.c **** *  \sideeffect
 598:Generated_Source\PSoC4/ble.c **** *   For BLE devices with 128K of Flash memory this API will automatically 
 599:Generated_Source\PSoC4/ble.c **** *   modify the clock settings for the device.
 600:Generated_Source\PSoC4/ble.c **** *   Writing to flash requires changes to be done to the IMO (set to 48 MHz)
 601:Generated_Source\PSoC4/ble.c **** *   and HFCLK (source set to IMO) settings. The configuration is restored before
 602:Generated_Source\PSoC4/ble.c **** *   returning. This will impact the operation of most of the hardware in the
 603:Generated_Source\PSoC4/ble.c **** *   device.
ARM GAS  C:\Users\Sarah\AppData\Local\Temp\ccLQenA3.s 			page 12


 604:Generated_Source\PSoC4/ble.c **** * 
 605:Generated_Source\PSoC4/ble.c **** *  \globalvars
 606:Generated_Source\PSoC4/ble.c **** *   The cyBle_pendingFlashWrite variable is used to detect status
 607:Generated_Source\PSoC4/ble.c **** *   of pending write to flash operation for stack data and CCCD.
 608:Generated_Source\PSoC4/ble.c **** *   This API automatically clears pending bits after write operation complete.
 609:Generated_Source\PSoC4/ble.c **** *     
 610:Generated_Source\PSoC4/ble.c **** ******************************************************************************/
 611:Generated_Source\PSoC4/ble.c **** CYBLE_API_RESULT_T CyBle_StoreBondingData(uint8 isForceWrite)
 612:Generated_Source\PSoC4/ble.c **** {
 613:Generated_Source\PSoC4/ble.c ****     CYBLE_API_RESULT_T apiResult = CYBLE_ERROR_OK;
 614:Generated_Source\PSoC4/ble.c ****     
 615:Generated_Source\PSoC4/ble.c ****     /* Store Stack data */
 616:Generated_Source\PSoC4/ble.c ****     if((cyBle_pendingFlashWrite & CYBLE_PENDING_STACK_FLASH_WRITE_BIT) != 0u)
 617:Generated_Source\PSoC4/ble.c ****     {
 618:Generated_Source\PSoC4/ble.c ****         apiResult = CyBle_StoreStackData(isForceWrite);
 619:Generated_Source\PSoC4/ble.c ****         if(apiResult == CYBLE_ERROR_OK)
 620:Generated_Source\PSoC4/ble.c ****         {
 621:Generated_Source\PSoC4/ble.c ****             cyBle_pendingFlashWrite &= (uint8)~CYBLE_PENDING_STACK_FLASH_WRITE_BIT;
 622:Generated_Source\PSoC4/ble.c ****             /* Change apiResult if there are more pending data to store */
 623:Generated_Source\PSoC4/ble.c ****             if((cyBle_pendingFlashWrite & CYBLE_PENDING_CCCD_FLASH_WRITE_BIT) != 0u)
 624:Generated_Source\PSoC4/ble.c ****             {
 625:Generated_Source\PSoC4/ble.c ****                 apiResult = CYBLE_ERROR_FLASH_WRITE_NOT_PERMITED;
 626:Generated_Source\PSoC4/ble.c ****             }
 627:Generated_Source\PSoC4/ble.c ****         }
 628:Generated_Source\PSoC4/ble.c ****     }
 629:Generated_Source\PSoC4/ble.c **** #if(CYBLE_GATT_DB_CCCD_COUNT != 0u)
 630:Generated_Source\PSoC4/ble.c ****     /* Store CCCD values */
 631:Generated_Source\PSoC4/ble.c ****     if( ((apiResult == CYBLE_ERROR_OK) || (isForceWrite != 0u)) && 
 632:Generated_Source\PSoC4/ble.c ****         ((cyBle_pendingFlashWrite & CYBLE_PENDING_CCCD_FLASH_WRITE_BIT) != 0u) &&
 633:Generated_Source\PSoC4/ble.c ****         (cyBle_connHandle.bdHandle <= CYBLE_GAP_MAX_BONDED_DEVICE))
 634:Generated_Source\PSoC4/ble.c ****     {
 635:Generated_Source\PSoC4/ble.c ****         apiResult = CyBle_StoreAppData(cyBle_attValuesCCCD, cyBle_flashStorage.attValuesCCCDFlashMe
 636:Generated_Source\PSoC4/ble.c ****                         cyBle_connHandle.bdHandle], CYBLE_GATT_DB_CCCD_COUNT, isForceWrite);
 637:Generated_Source\PSoC4/ble.c ****         if(apiResult == CYBLE_ERROR_OK)
 638:Generated_Source\PSoC4/ble.c ****         {
 639:Generated_Source\PSoC4/ble.c ****             cyBle_pendingFlashWrite &= (uint8)~CYBLE_PENDING_CCCD_FLASH_WRITE_BIT;
 640:Generated_Source\PSoC4/ble.c ****         }
 641:Generated_Source\PSoC4/ble.c ****     }
 642:Generated_Source\PSoC4/ble.c ****     /* Clear requested CCCD values */
 643:Generated_Source\PSoC4/ble.c ****     if( ((apiResult == CYBLE_ERROR_OK) || (isForceWrite != 0u)) && 
 644:Generated_Source\PSoC4/ble.c ****         ((cyBle_pendingFlashWrite & CYBLE_PENDING_CCCD_FLASH_CLEAR_MASK) != 0u) )
 645:Generated_Source\PSoC4/ble.c ****     {
 646:Generated_Source\PSoC4/ble.c ****         if((cyBle_pendingFlashWrite & CYBLE_PENDING_CCCD_FLASH_CLEAR_ALL_BIT) != 0u)
 647:Generated_Source\PSoC4/ble.c ****         {
 648:Generated_Source\PSoC4/ble.c ****             /* Remove cccd values for all bonded devices */
 649:Generated_Source\PSoC4/ble.c ****             uint8 defaultValuesCCCD[CYBLE_GAP_MAX_BONDED_DEVICE + 1u][CYBLE_GATT_DB_CCCD_COUNT];
 650:Generated_Source\PSoC4/ble.c ****             
 651:Generated_Source\PSoC4/ble.c ****             (void)memset(defaultValuesCCCD, 0, sizeof(defaultValuesCCCD));
 652:Generated_Source\PSoC4/ble.c **** 
 653:Generated_Source\PSoC4/ble.c ****             apiResult = CyBle_StoreAppData((uint8 *)defaultValuesCCCD, 
 654:Generated_Source\PSoC4/ble.c ****                 (const uint8 *)cyBle_flashStorage.attValuesCCCDFlashMemory, sizeof(defaultValuesCCC
 655:Generated_Source\PSoC4/ble.c ****             if(apiResult == CYBLE_ERROR_OK)
 656:Generated_Source\PSoC4/ble.c ****             {
 657:Generated_Source\PSoC4/ble.c ****                 cyBle_pendingFlashWrite &= (uint8)~CYBLE_PENDING_CCCD_FLASH_CLEAR_ALL_BIT;
 658:Generated_Source\PSoC4/ble.c ****             }
 659:Generated_Source\PSoC4/ble.c ****         }
 660:Generated_Source\PSoC4/ble.c ****         else /* Remove cccd values for particular device */
ARM GAS  C:\Users\Sarah\AppData\Local\Temp\ccLQenA3.s 			page 13


 661:Generated_Source\PSoC4/ble.c ****         {
 662:Generated_Source\PSoC4/ble.c ****             uint8 defaultValuesCCCD[CYBLE_GATT_DB_CCCD_COUNT] = {0u};
 663:Generated_Source\PSoC4/ble.c ****             
 664:Generated_Source\PSoC4/ble.c ****             apiResult = CyBle_StoreAppData(defaultValuesCCCD, cyBle_flashStorage.attValuesCCCDFlash
 665:Generated_Source\PSoC4/ble.c ****                                     cyBle_pendingFlashClearCccdHandle], CYBLE_GATT_DB_CCCD_COUNT, i
 666:Generated_Source\PSoC4/ble.c ****             if(apiResult == CYBLE_ERROR_OK)
 667:Generated_Source\PSoC4/ble.c ****             {
 668:Generated_Source\PSoC4/ble.c ****                 cyBle_pendingFlashWrite &= (uint8)~CYBLE_PENDING_CCCD_FLASH_CLEAR_BIT;
 669:Generated_Source\PSoC4/ble.c ****             }
 670:Generated_Source\PSoC4/ble.c ****         }
 671:Generated_Source\PSoC4/ble.c ****     }
 672:Generated_Source\PSoC4/ble.c **** #endif /* CYBLE_GATT_DB_CCCD_COUNT != 0u */
 673:Generated_Source\PSoC4/ble.c ****     return(apiResult);
 674:Generated_Source\PSoC4/ble.c **** }
 675:Generated_Source\PSoC4/ble.c **** 
 676:Generated_Source\PSoC4/ble.c **** 
 677:Generated_Source\PSoC4/ble.c **** /******************************************************************************
 678:Generated_Source\PSoC4/ble.c **** * Function Name: CyBle_GapRemoveBondedDevice
 679:Generated_Source\PSoC4/ble.c **** ***************************************************************************//**
 680:Generated_Source\PSoC4/ble.c **** * 
 681:Generated_Source\PSoC4/ble.c **** *  This function marks the device untrusted. It removes the bonding information
 682:Generated_Source\PSoC4/ble.c **** *  of the device including CCCD values. This function removes device from the
 683:Generated_Source\PSoC4/ble.c **** *  white list also when autopopulate white list with bonded devices option is
 684:Generated_Source\PSoC4/ble.c **** *  enabled.
 685:Generated_Source\PSoC4/ble.c **** * 
 686:Generated_Source\PSoC4/ble.c **** *  This function is available only when Bonding requirement is selected in
 687:Generated_Source\PSoC4/ble.c **** *  Security settings.    
 688:Generated_Source\PSoC4/ble.c **** *
 689:Generated_Source\PSoC4/ble.c **** *  \param bdAddr: Pointer to peer device address, of type CYBLE_GAP_BD_ADDR_T.
 690:Generated_Source\PSoC4/ble.c **** *                 If device address is set to 0, then all devices shall be
 691:Generated_Source\PSoC4/ble.c **** *                 removed from trusted list and white list.
 692:Generated_Source\PSoC4/ble.c **** *
 693:Generated_Source\PSoC4/ble.c **** * \return
 694:Generated_Source\PSoC4/ble.c **** *  CYBLE_API_RESULT_T : Return value indicates if the function succeeded or
 695:Generated_Source\PSoC4/ble.c **** *  failed. Following are the possible error codes.
 696:Generated_Source\PSoC4/ble.c **** *
 697:Generated_Source\PSoC4/ble.c **** *   Errors codes                     | Description
 698:Generated_Source\PSoC4/ble.c **** *   ---------------------------------| ------------------------------------
 699:Generated_Source\PSoC4/ble.c **** *   CYBLE_ERROR_OK                   | On successful operation.
 700:Generated_Source\PSoC4/ble.c **** *   CYBLE_ERROR_INVALID_PARAMETER    | On specifying NULL as input parameter for 'bdAddr'.
 701:Generated_Source\PSoC4/ble.c **** *   CYBLE_ERROR_INVALID_OPERATION    | Whitelist is already in use or there is pending write to fla
 702:Generated_Source\PSoC4/ble.c **** *   CYBLE_ERROR_NO_DEVICE_ENTITY     | Device does not exist in the bond list.
 703:Generated_Source\PSoC4/ble.c **** *
 704:Generated_Source\PSoC4/ble.c **** *  \globalvars
 705:Generated_Source\PSoC4/ble.c **** *   The bdHandle is set in cyBle_pendingFlashWrite variable to indicate that
 706:Generated_Source\PSoC4/ble.c **** *   data should be stored to flash by CyBle_StoreBondingData afterwards. 
 707:Generated_Source\PSoC4/ble.c **** *     
 708:Generated_Source\PSoC4/ble.c **** ******************************************************************************/
 709:Generated_Source\PSoC4/ble.c **** CYBLE_API_RESULT_T CyBle_GapRemoveBondedDevice(CYBLE_GAP_BD_ADDR_T* bdAddr)
 710:Generated_Source\PSoC4/ble.c **** {
 711:Generated_Source\PSoC4/ble.c ****     CYBLE_API_RESULT_T apiResult = CYBLE_ERROR_OK;
 712:Generated_Source\PSoC4/ble.c ****     
 713:Generated_Source\PSoC4/ble.c ****     if(cyBle_pendingFlashWrite == 0u)
 714:Generated_Source\PSoC4/ble.c ****     {
 715:Generated_Source\PSoC4/ble.c ****         
 716:Generated_Source\PSoC4/ble.c ****     #if(CYBLE_GATT_DB_CCCD_COUNT != 0u)
 717:Generated_Source\PSoC4/ble.c ****         /* Request to clear CCCD values which will be done by CyBle_StoreBondingData API */
ARM GAS  C:\Users\Sarah\AppData\Local\Temp\ccLQenA3.s 			page 14


 718:Generated_Source\PSoC4/ble.c ****         uint8 bDevHandle;
 719:Generated_Source\PSoC4/ble.c ****         CYBLE_GAP_BD_ADDR_T invalidBdAddr = {{0u,0u,0u,0u,0u,0u}, 0u};
 720:Generated_Source\PSoC4/ble.c **** 
 721:Generated_Source\PSoC4/ble.c ****         if(memcmp(((uint8 *) &(bdAddr->bdAddr)), ((uint8 *) &(invalidBdAddr.bdAddr)), CYBLE_GAP_BD_
 722:Generated_Source\PSoC4/ble.c **** 	    {
 723:Generated_Source\PSoC4/ble.c ****             /* Request to remove all bonded devices by cyBle_StoreBondingData API */
 724:Generated_Source\PSoC4/ble.c ****             cyBle_pendingFlashWrite |= CYBLE_PENDING_CCCD_FLASH_CLEAR_ALL_BIT;
 725:Generated_Source\PSoC4/ble.c ****         }
 726:Generated_Source\PSoC4/ble.c ****         else
 727:Generated_Source\PSoC4/ble.c ****         {
 728:Generated_Source\PSoC4/ble.c ****             /* Get the BD handle from Address */
 729:Generated_Source\PSoC4/ble.c ****             apiResult = CyBle_GapGetPeerBdHandle(&bDevHandle, bdAddr);
 730:Generated_Source\PSoC4/ble.c ****             if(apiResult == CYBLE_ERROR_OK)
 731:Generated_Source\PSoC4/ble.c ****             {
 732:Generated_Source\PSoC4/ble.c ****                 /* Store BD handle to clear cccd values by CyBle_StoreBondingData API */
 733:Generated_Source\PSoC4/ble.c ****                 cyBle_pendingFlashWrite |= CYBLE_PENDING_CCCD_FLASH_CLEAR_BIT;
 734:Generated_Source\PSoC4/ble.c ****                 cyBle_pendingFlashClearCccdHandle = bDevHandle;
 735:Generated_Source\PSoC4/ble.c ****             }
 736:Generated_Source\PSoC4/ble.c ****         }
 737:Generated_Source\PSoC4/ble.c ****     #endif /* CYBLE_GATT_DB_CCCD_COUNT != 0u */
 738:Generated_Source\PSoC4/ble.c ****         if(apiResult == CYBLE_ERROR_OK)
 739:Generated_Source\PSoC4/ble.c ****         {
 740:Generated_Source\PSoC4/ble.c ****             apiResult = CyBle_GapRemoveDeviceFromWhiteList(bdAddr);
 741:Generated_Source\PSoC4/ble.c ****         }
 742:Generated_Source\PSoC4/ble.c ****     }
 743:Generated_Source\PSoC4/ble.c ****     else
 744:Generated_Source\PSoC4/ble.c ****     {
 745:Generated_Source\PSoC4/ble.c ****         apiResult = CYBLE_ERROR_INVALID_OPERATION;
 746:Generated_Source\PSoC4/ble.c ****     }
 747:Generated_Source\PSoC4/ble.c ****     
 748:Generated_Source\PSoC4/ble.c ****     return(apiResult);
 749:Generated_Source\PSoC4/ble.c **** }
 750:Generated_Source\PSoC4/ble.c **** 
 751:Generated_Source\PSoC4/ble.c **** 
 752:Generated_Source\PSoC4/ble.c **** #endif /* (CYBLE_GAP_ROLE_PERIPHERAL || CYBLE_GAP_ROLE_CENTRAL) && (CYBLE_BONDING_REQUIREMENT == CY
 753:Generated_Source\PSoC4/ble.c **** 
 754:Generated_Source\PSoC4/ble.c **** 
 755:Generated_Source\PSoC4/ble.c **** #if(CYBLE_GAP_ROLE_PERIPHERAL || CYBLE_GAP_ROLE_BROADCASTER)
 756:Generated_Source\PSoC4/ble.c **** 
 757:Generated_Source\PSoC4/ble.c ****     /******************************************************************************
 758:Generated_Source\PSoC4/ble.c ****     *  Function Name: CyBle_GappStartAdvertisement
 759:Generated_Source\PSoC4/ble.c ****     ***************************************************************************//**
 760:Generated_Source\PSoC4/ble.c ****     *     
 761:Generated_Source\PSoC4/ble.c ****     *  This function is used to start the advertisement using the advertisement data 
 762:Generated_Source\PSoC4/ble.c ****     *  set in the component customizer's GUI. After invoking this API, the device 
 763:Generated_Source\PSoC4/ble.c ****     *  will be available for connection by the devices configured for GAP central 
 764:Generated_Source\PSoC4/ble.c ****     *  role. It is only included if the device is configured for GAP Peripheral or 
 765:Generated_Source\PSoC4/ble.c ****     *  GAP Peripheral + Central role.
 766:Generated_Source\PSoC4/ble.c ****     *  
 767:Generated_Source\PSoC4/ble.c ****     *  On start of advertisement, GAP Peripheral receives the
 768:Generated_Source\PSoC4/ble.c ****     *  CYBLE_EVT_GAPP_ADVERTISEMENT_START_STOP event. The following events are 
 769:Generated_Source\PSoC4/ble.c ****     *  possible on invoking this function:
 770:Generated_Source\PSoC4/ble.c ****     *  
 771:Generated_Source\PSoC4/ble.c ****     *  * CYBLE_EVT_GAP_DEVICE_CONNECTED - If the device connects to a GAP Central and 
 772:Generated_Source\PSoC4/ble.c ****     *    Link Layer Privacy is disabled in component customizer.
 773:Generated_Source\PSoC4/ble.c ****     *  * CYBLE_EVT_GAP_ENHANCE_CONN_COMPLETE - If the device connects to a GAP Central and 
 774:Generated_Source\PSoC4/ble.c ****     *    Link Layer Privacy is enabled in component customizer.
ARM GAS  C:\Users\Sarah\AppData\Local\Temp\ccLQenA3.s 			page 15


 775:Generated_Source\PSoC4/ble.c ****     *  * CYBLE_EVT_TIMEOUT: If no device in GAP Central mode connects to this 
 776:Generated_Source\PSoC4/ble.c ****     *                       device within the specified timeout limit. Stack 
 777:Generated_Source\PSoC4/ble.c ****     *                       automatically initiate stop advertising when Slow 
 778:Generated_Source\PSoC4/ble.c ****     *                       advertising was initiated, or starts Slow advertising
 779:Generated_Source\PSoC4/ble.c ****     *                       after Fast advertising timeout occur.
 780:Generated_Source\PSoC4/ble.c ****     *  * CYBLE_EVT_GAPP_ADVERTISEMENT_START_STOP: If device started or stopped
 781:Generated_Source\PSoC4/ble.c ****     *                                               advertising. Use CyBle_GetState()
 782:Generated_Source\PSoC4/ble.c ****     *                                               to determine the state. Sequential 
 783:Generated_Source\PSoC4/ble.c ****     *                                               advertising could be started when
 784:Generated_Source\PSoC4/ble.c ****     *                                               CYBLE_STATE_DISCONNECTED state is
 785:Generated_Source\PSoC4/ble.c ****     *                                               returned.
 786:Generated_Source\PSoC4/ble.c ****     * 
 787:Generated_Source\PSoC4/ble.c ****     *  \param advertisingIntervalType: Fast or slow advertising interval with timings
 788:Generated_Source\PSoC4/ble.c ****     *                                 entered in Advertising settings section of the
 789:Generated_Source\PSoC4/ble.c ****     *                                 customizer.
 790:Generated_Source\PSoC4/ble.c ****     *  * CYBLE_ADVERTISING_FAST   0x00u
 791:Generated_Source\PSoC4/ble.c ****     *  * CYBLE_ADVERTISING_SLOW   0x01u
 792:Generated_Source\PSoC4/ble.c ****     *  * CYBLE_ADVERTISING_CUSTOM 0x02u
 793:Generated_Source\PSoC4/ble.c ****     * 
 794:Generated_Source\PSoC4/ble.c ****     * \return
 795:Generated_Source\PSoC4/ble.c ****     *  CYBLE_API_RESULT_T : Return value indicates if the function succeeded or
 796:Generated_Source\PSoC4/ble.c ****     *  failed. Following are the possible error codes.
 797:Generated_Source\PSoC4/ble.c ****     * 
 798:Generated_Source\PSoC4/ble.c ****     *   Errors codes                      |  Description
 799:Generated_Source\PSoC4/ble.c ****     *   --------------------------------- |  --------------------------------
 800:Generated_Source\PSoC4/ble.c ****     *   CYBLE_ERROR_OK                    |  On successful operation.
 801:Generated_Source\PSoC4/ble.c ****     *   CYBLE_ERROR_INVALID_PARAMETER     |  On passing an invalid parameter.
 802:Generated_Source\PSoC4/ble.c ****     *   CYBLE_ERROR_INVALID_STATE         |  On calling this API not in Disconnected state.
 803:Generated_Source\PSoC4/ble.c ****     *
 804:Generated_Source\PSoC4/ble.c ****     * 
 805:Generated_Source\PSoC4/ble.c ****     *******************************************************************************/
 806:Generated_Source\PSoC4/ble.c ****     CYBLE_API_RESULT_T CyBle_GappStartAdvertisement(uint8 advertisingIntervalType)
 807:Generated_Source\PSoC4/ble.c ****     {
 808:Generated_Source\PSoC4/ble.c ****         CYBLE_API_RESULT_T apiResult;
 809:Generated_Source\PSoC4/ble.c ****         
 810:Generated_Source\PSoC4/ble.c ****         if(advertisingIntervalType > CYBLE_ADVERTISING_CUSTOM)
 811:Generated_Source\PSoC4/ble.c ****         {
 812:Generated_Source\PSoC4/ble.c ****             apiResult = CYBLE_ERROR_INVALID_PARAMETER;
 813:Generated_Source\PSoC4/ble.c ****         }
 814:Generated_Source\PSoC4/ble.c ****         else if((CYBLE_STATE_DISCONNECTED == CyBle_GetState()) && ((cyBle_eventHandlerFlag & CYBLE_
 815:Generated_Source\PSoC4/ble.c ****         {   
 816:Generated_Source\PSoC4/ble.c ****             if(advertisingIntervalType == CYBLE_ADVERTISING_FAST)
 817:Generated_Source\PSoC4/ble.c ****             {
 818:Generated_Source\PSoC4/ble.c ****                 cyBle_discoveryModeInfo.advTo = CYBLE_FAST_ADV_TIMEOUT;
 819:Generated_Source\PSoC4/ble.c ****                 cyBle_discoveryModeInfo.advParam->advIntvMin = CYBLE_FAST_ADV_INT_MIN;
 820:Generated_Source\PSoC4/ble.c ****                 cyBle_discoveryModeInfo.advParam->advIntvMax = CYBLE_FAST_ADV_INT_MAX;
 821:Generated_Source\PSoC4/ble.c ****             }
 822:Generated_Source\PSoC4/ble.c ****             else if(advertisingIntervalType == CYBLE_ADVERTISING_SLOW)
 823:Generated_Source\PSoC4/ble.c ****             {
 824:Generated_Source\PSoC4/ble.c ****                 cyBle_discoveryModeInfo.advTo = CYBLE_SLOW_ADV_TIMEOUT;
 825:Generated_Source\PSoC4/ble.c ****                 cyBle_discoveryModeInfo.advParam->advIntvMin = CYBLE_SLOW_ADV_INT_MIN;
 826:Generated_Source\PSoC4/ble.c ****                 cyBle_discoveryModeInfo.advParam->advIntvMax = CYBLE_SLOW_ADV_INT_MAX;
 827:Generated_Source\PSoC4/ble.c ****             }       
 828:Generated_Source\PSoC4/ble.c ****             else /* Do not update advertising intervals */
 829:Generated_Source\PSoC4/ble.c ****             {
 830:Generated_Source\PSoC4/ble.c ****             }
 831:Generated_Source\PSoC4/ble.c ****             cyBle_advertisingIntervalType = advertisingIntervalType;
ARM GAS  C:\Users\Sarah\AppData\Local\Temp\ccLQenA3.s 			page 16


 832:Generated_Source\PSoC4/ble.c ****             apiResult = CyBle_GappEnterDiscoveryMode(&cyBle_discoveryModeInfo);
 833:Generated_Source\PSoC4/ble.c ****         
 834:Generated_Source\PSoC4/ble.c ****             if(apiResult == CYBLE_ERROR_OK)
 835:Generated_Source\PSoC4/ble.c ****             {
 836:Generated_Source\PSoC4/ble.c ****                 cyBle_eventHandlerFlag |= CYBLE_START_FLAG;
 837:Generated_Source\PSoC4/ble.c ****             }
 838:Generated_Source\PSoC4/ble.c ****         }
 839:Generated_Source\PSoC4/ble.c ****         else
 840:Generated_Source\PSoC4/ble.c ****         {
 841:Generated_Source\PSoC4/ble.c ****             apiResult = CYBLE_ERROR_INVALID_STATE;
 842:Generated_Source\PSoC4/ble.c ****         }
 843:Generated_Source\PSoC4/ble.c **** 
 844:Generated_Source\PSoC4/ble.c ****         return (apiResult);
 845:Generated_Source\PSoC4/ble.c ****     }
 846:Generated_Source\PSoC4/ble.c **** 
 847:Generated_Source\PSoC4/ble.c ****     
 848:Generated_Source\PSoC4/ble.c ****     /******************************************************************************
 849:Generated_Source\PSoC4/ble.c ****     * Function Name: CyBle_GappStopAdvertisement
 850:Generated_Source\PSoC4/ble.c ****     ***************************************************************************//**
 851:Generated_Source\PSoC4/ble.c ****     * 
 852:Generated_Source\PSoC4/ble.c ****     *   This function can be used to exit from discovery mode. After the execution 
 853:Generated_Source\PSoC4/ble.c ****     *   of this function, there will no longer be any advertisements. On stopping 
 854:Generated_Source\PSoC4/ble.c ****     *   advertising, GAP Peripheral receives CYBLE_EVT_GAPP_ADVERTISEMENT_START_STOP
 855:Generated_Source\PSoC4/ble.c ****     *   event. It is expected that the application layer tracks the function call 
 856:Generated_Source\PSoC4/ble.c ****     *   performed before occurrence of this event as this event can occur on making 
 857:Generated_Source\PSoC4/ble.c ****     *   a call to Cy_BleGappStartAdvertisement(), CyBle_GappEnterDiscoveryMode(), 
 858:Generated_Source\PSoC4/ble.c ****     *   or CyBle_GappStartAdvertisement() functions as well.
 859:Generated_Source\PSoC4/ble.c ****     *   
 860:Generated_Source\PSoC4/ble.c ****     *   The following event occurs on invoking this function:
 861:Generated_Source\PSoC4/ble.c ****     *   * CYBLE_EVT_GAPP_ADVERTISEMENT_START_STOP
 862:Generated_Source\PSoC4/ble.c ****     * 
 863:Generated_Source\PSoC4/ble.c ****     *  \return
 864:Generated_Source\PSoC4/ble.c ****     *   None
 865:Generated_Source\PSoC4/ble.c ****     * 
 866:Generated_Source\PSoC4/ble.c ****     *******************************************************************************/
 867:Generated_Source\PSoC4/ble.c ****     void CyBle_GappStopAdvertisement(void)
 868:Generated_Source\PSoC4/ble.c ****     {
 869:Generated_Source\PSoC4/ble.c ****         CyBle_GappExitDiscoveryMode();
 870:Generated_Source\PSoC4/ble.c ****         cyBle_eventHandlerFlag |= CYBLE_STOP_FLAG;
 871:Generated_Source\PSoC4/ble.c ****     }
 872:Generated_Source\PSoC4/ble.c ****     
 873:Generated_Source\PSoC4/ble.c ****     
 874:Generated_Source\PSoC4/ble.c ****     /******************************************************************************
 875:Generated_Source\PSoC4/ble.c ****     * Function Name: CyBle_ChangeAdDeviceAddress
 876:Generated_Source\PSoC4/ble.c ****     ***************************************************************************//**
 877:Generated_Source\PSoC4/ble.c ****     * 
 878:Generated_Source\PSoC4/ble.c ****     *  This API is used to set the Bluetooth device address into the advertisement 
 879:Generated_Source\PSoC4/ble.c ****     *  or scan response data structure.
 880:Generated_Source\PSoC4/ble.c ****     * 
 881:Generated_Source\PSoC4/ble.c ****     *  \param bdAddr: Bluetooth Device address. The variable is of type CYBLE_GAP_BD_ADDR_T
 882:Generated_Source\PSoC4/ble.c ****     *  \param dest: 0 - selects advertisement structure, not zero value selects scan 
 883:Generated_Source\PSoC4/ble.c ****     *               response structure.
 884:Generated_Source\PSoC4/ble.c ****     * 
 885:Generated_Source\PSoC4/ble.c ****     * \return
 886:Generated_Source\PSoC4/ble.c ****     *  None
 887:Generated_Source\PSoC4/ble.c ****     *  
 888:Generated_Source\PSoC4/ble.c ****     *******************************************************************************/
ARM GAS  C:\Users\Sarah\AppData\Local\Temp\ccLQenA3.s 			page 17


 889:Generated_Source\PSoC4/ble.c ****     void CyBle_ChangeAdDeviceAddress(const CYBLE_GAP_BD_ADDR_T* bdAddr, uint8 dest)
 890:Generated_Source\PSoC4/ble.c ****     {
 891:Generated_Source\PSoC4/ble.c ****         uint8 i;
 892:Generated_Source\PSoC4/ble.c ****         uint8 *destBuffer = NULL;
 893:Generated_Source\PSoC4/ble.c ****         
 894:Generated_Source\PSoC4/ble.c ****         if(dest == 0u)      /* Destination - advertising structure */
 895:Generated_Source\PSoC4/ble.c ****         {
 896:Generated_Source\PSoC4/ble.c ****             #ifdef CYBLE_ADV_PKT_INDEX_BLUETOOTH_DEVICE_ADDRESS
 897:Generated_Source\PSoC4/ble.c ****                 destBuffer = &cyBle_discoveryData.advData[CYBLE_ADV_PKT_INDEX_BLUETOOTH_DEVICE_ADDR
 898:Generated_Source\PSoC4/ble.c ****             #endif /* CYBLE_ADV_PKT_INDEX_BLUETOOTH_DEVICE_ADDRESS */
 899:Generated_Source\PSoC4/ble.c ****         }
 900:Generated_Source\PSoC4/ble.c ****         else                /* Destination - scan response structure */
 901:Generated_Source\PSoC4/ble.c ****         {
 902:Generated_Source\PSoC4/ble.c ****             #ifdef CYBLE_SCN_PKT_INDEX_BLUETOOTH_DEVICE_ADDRESS
 903:Generated_Source\PSoC4/ble.c ****                 destBuffer = &cyBle_scanRspData.scanRspData[CYBLE_SCN_PKT_INDEX_BLUETOOTH_DEVICE_AD
 904:Generated_Source\PSoC4/ble.c ****             #endif /* CYBLE_SCN_PKT_INDEX_BLUETOOTH_DEVICE_ADDRESS */    
 905:Generated_Source\PSoC4/ble.c ****         }
 906:Generated_Source\PSoC4/ble.c ****         
 907:Generated_Source\PSoC4/ble.c ****         if(destBuffer != NULL)
 908:Generated_Source\PSoC4/ble.c ****         {
 909:Generated_Source\PSoC4/ble.c ****             /* Update Device Address type */
 910:Generated_Source\PSoC4/ble.c ****             destBuffer[0u] = bdAddr->type;
 911:Generated_Source\PSoC4/ble.c ****             
 912:Generated_Source\PSoC4/ble.c ****             for(i = 0u; i < CYBLE_GAP_BD_ADDR_SIZE; i++)
 913:Generated_Source\PSoC4/ble.c ****             {
 914:Generated_Source\PSoC4/ble.c ****                 destBuffer[i + 1u] = bdAddr->bdAddr[i];
 915:Generated_Source\PSoC4/ble.c ****             }
 916:Generated_Source\PSoC4/ble.c ****         }
 917:Generated_Source\PSoC4/ble.c ****     }
 918:Generated_Source\PSoC4/ble.c ****   
 919:Generated_Source\PSoC4/ble.c **** #endif /* CYBLE_GAP_ROLE_PERIPHERAL || CYBLE_GAP_ROLE_BROADCASTER */
 920:Generated_Source\PSoC4/ble.c **** 
 921:Generated_Source\PSoC4/ble.c **** 
 922:Generated_Source\PSoC4/ble.c **** #if(CYBLE_GAP_ROLE_CENTRAL || CYBLE_GAP_ROLE_OBSERVER)
 923:Generated_Source\PSoC4/ble.c **** 
 924:Generated_Source\PSoC4/ble.c ****     /******************************************************************************
 925:Generated_Source\PSoC4/ble.c ****     * Function Name: CyBle_GapcStartScan
 926:Generated_Source\PSoC4/ble.c ****     ***************************************************************************//**
 927:Generated_Source\PSoC4/ble.c ****     * 
 928:Generated_Source\PSoC4/ble.c ****     *   This function is used for discovering GAP peripheral devices that are 
 929:Generated_Source\PSoC4/ble.c ****     *   available for connection. It performs the scanning routine using the 
 930:Generated_Source\PSoC4/ble.c ****     *   parameters entered in the component's customizer.
 931:Generated_Source\PSoC4/ble.c ****     *   
 932:Generated_Source\PSoC4/ble.c ****     *   As soon as the discovery operation starts, CYBLE_EVT_GAPC_SCAN_START_STOP 
 933:Generated_Source\PSoC4/ble.c ****     *   event is generated. The CYBLE_EVT_GAPC_SCAN_PROGRESS_RESULT event is 
 934:Generated_Source\PSoC4/ble.c ****     *   generated when a GAP peripheral device is located. There are three discovery
 935:Generated_Source\PSoC4/ble.c ****     *   procedures can be selected in the customizer's GUI:
 936:Generated_Source\PSoC4/ble.c ****     *   
 937:Generated_Source\PSoC4/ble.c ****     *   * Observation procedure: A device performing the observer role receives only
 938:Generated_Source\PSoC4/ble.c ****     *                            advertisement data from devices irrespective of 
 939:Generated_Source\PSoC4/ble.c ****     *                            their discoverable mode settings. Advertisement 
 940:Generated_Source\PSoC4/ble.c ****     *                            data received is provided by the event,      
 941:Generated_Source\PSoC4/ble.c ****     *                            CYBLE_EVT_GAPC_SCAN_PROGRESS_RESULT. This procedure
 942:Generated_Source\PSoC4/ble.c ****     *                            requires the scanType sub parameter to be passive
 943:Generated_Source\PSoC4/ble.c ****     *                            scanning. 
 944:Generated_Source\PSoC4/ble.c ****     *   
 945:Generated_Source\PSoC4/ble.c ****     *   * Limited Discovery procedure: A device performing the limited discovery
ARM GAS  C:\Users\Sarah\AppData\Local\Temp\ccLQenA3.s 			page 18


 946:Generated_Source\PSoC4/ble.c ****     *                                  procedure receives advertisement data and 
 947:Generated_Source\PSoC4/ble.c ****     *                                  scan# response data from devices in the 
 948:Generated_Source\PSoC4/ble.c ****     *                                  limited discoverable mode only. Received data
 949:Generated_Source\PSoC4/ble.c ****     *                                  is provided by the event, 
 950:Generated_Source\PSoC4/ble.c ****     *                                  CYBLE_EVT_GAPC_SCAN_PROGRESS_RESULT. This 
 951:Generated_Source\PSoC4/ble.c ****     *                                  procedure requires the scanType sub-parameter 
 952:Generated_Source\PSoC4/ble.c ****     *                                  to be active scanning.
 953:Generated_Source\PSoC4/ble.c ****     *   
 954:Generated_Source\PSoC4/ble.c ****     *   * General Discovery procedure: A device performing the general discovery 
 955:Generated_Source\PSoC4/ble.c ****     *                                  procedure receives the advertisement data and
 956:Generated_Source\PSoC4/ble.c ****     *                                  scan response data from devices in both 
 957:Generated_Source\PSoC4/ble.c ****     *                                  limited discoverable mode and the general 
 958:Generated_Source\PSoC4/ble.c ****     *                                  discoverable mode. Received data is provided
 959:Generated_Source\PSoC4/ble.c ****     *                                  by the event,
 960:Generated_Source\PSoC4/ble.c ****     *                                  CYBLE_EVT_GAPC_SCAN_PROGRESS_RESULT. This 
 961:Generated_Source\PSoC4/ble.c ****     *                                  procedure requires the scanType sub-parameter
 962:Generated_Source\PSoC4/ble.c ****     *                                  to be active scanning.
 963:Generated_Source\PSoC4/ble.c ****     *   
 964:Generated_Source\PSoC4/ble.c ****     *   Every Advertisement / Scan response packet received results in a new event, 
 965:Generated_Source\PSoC4/ble.c ****     *   CYBLE_EVT_GAPC_SCAN_PROGRESS_RESULT.
 966:Generated_Source\PSoC4/ble.c ****     *   If 'scanTo' sub-parameter is a non-zero value, then upon commencement of 
 967:Generated_Source\PSoC4/ble.c ****     *   discovery procedure and elapsed time = 'scanTo', CYBLE_EVT_TIMEOUT event
 968:Generated_Source\PSoC4/ble.c ****     *   is generated with the event parameter indicating CYBLE_GAP_SCAN_TO.
 969:Generated_Source\PSoC4/ble.c ****     *   Possible generated events are:
 970:Generated_Source\PSoC4/ble.c ****     *   * CYBLE_EVT_GAPC_SCAN_START_STOP: If a device started or stopped scanning. 
 971:Generated_Source\PSoC4/ble.c ****     *                                     Use CyBle_GetState() to determine the 
 972:Generated_Source\PSoC4/ble.c ****     *                                     state. Sequential scanning could be 
 973:Generated_Source\PSoC4/ble.c ****     *                                     started when CYBLE_STATE_DISCONNECTED 
 974:Generated_Source\PSoC4/ble.c ****     *                                     state is returned. 
 975:Generated_Source\PSoC4/ble.c ****     *   * CYBLE_EVT_GAPC_SCAN_PROGRESS_RESULT 
 976:Generated_Source\PSoC4/ble.c ****     *   * CYBLE_EVT_TIMEOUT (CYBLE_GAP_SCAN_TO)
 977:Generated_Source\PSoC4/ble.c ****     * 
 978:Generated_Source\PSoC4/ble.c ****     *   \param scanningIntervalType:  Fast or slow scanning interval with
 979:Generated_Source\PSoC4/ble.c ****     *       timings entered in Scan settings section of the customizer.
 980:Generated_Source\PSoC4/ble.c ****     * 	  * CYBLE_SCANNING_FAST   0x00u
 981:Generated_Source\PSoC4/ble.c ****     * 	  * CYBLE_SCANNING_SLOW   0x01u
 982:Generated_Source\PSoC4/ble.c ****     * 	  * CYBLE_SCANNING_CUSTOM 0x02u
 983:Generated_Source\PSoC4/ble.c ****     * 
 984:Generated_Source\PSoC4/ble.c ****     * \return
 985:Generated_Source\PSoC4/ble.c ****     *  CYBLE_API_RESULT_T : Return value indicates if the function succeeded or
 986:Generated_Source\PSoC4/ble.c ****     *  failed. Following are the possible error codes.
 987:Generated_Source\PSoC4/ble.c ****     *
 988:Generated_Source\PSoC4/ble.c ****     *   Errors codes                       | Description
 989:Generated_Source\PSoC4/ble.c ****     *   ---------------------------------- | -----------------------------------
 990:Generated_Source\PSoC4/ble.c ****     *   CYBLE_ERROR_OK                     | On successful operation.
 991:Generated_Source\PSoC4/ble.c ****     *   CYBLE_ERROR_STACK_INTERNAL         | An error occurred in the BLE stack.
 992:Generated_Source\PSoC4/ble.c ****     *   CYBLE_ERROR_INVALID_PARAMETER      | On passing an invalid parameter.
 993:Generated_Source\PSoC4/ble.c ****     *  
 994:Generated_Source\PSoC4/ble.c ****     *******************************************************************************/
 995:Generated_Source\PSoC4/ble.c ****     CYBLE_API_RESULT_T CyBle_GapcStartScan(uint8 scanningIntervalType)
 996:Generated_Source\PSoC4/ble.c ****     {
 997:Generated_Source\PSoC4/ble.c ****         CYBLE_API_RESULT_T apiResult;
 998:Generated_Source\PSoC4/ble.c **** 
 999:Generated_Source\PSoC4/ble.c ****         if(scanningIntervalType > CYBLE_SCANNING_CUSTOM)
1000:Generated_Source\PSoC4/ble.c ****         {
1001:Generated_Source\PSoC4/ble.c ****             apiResult = CYBLE_ERROR_INVALID_PARAMETER;
1002:Generated_Source\PSoC4/ble.c ****         }
ARM GAS  C:\Users\Sarah\AppData\Local\Temp\ccLQenA3.s 			page 19


1003:Generated_Source\PSoC4/ble.c ****         else
1004:Generated_Source\PSoC4/ble.c ****         {
1005:Generated_Source\PSoC4/ble.c ****             if(scanningIntervalType == CYBLE_SCANNING_FAST)
1006:Generated_Source\PSoC4/ble.c ****             {
1007:Generated_Source\PSoC4/ble.c ****                 cyBle_discoveryInfo.scanTo = CYBLE_FAST_SCAN_TIMEOUT;
1008:Generated_Source\PSoC4/ble.c ****                 cyBle_discoveryInfo.scanIntv = CYBLE_FAST_SCAN_INTERVAL;
1009:Generated_Source\PSoC4/ble.c ****                 cyBle_discoveryInfo.scanWindow = CYBLE_FAST_SCAN_WINDOW;
1010:Generated_Source\PSoC4/ble.c ****             }
1011:Generated_Source\PSoC4/ble.c ****             else if(scanningIntervalType == CYBLE_SCANNING_SLOW)
1012:Generated_Source\PSoC4/ble.c ****             {
1013:Generated_Source\PSoC4/ble.c ****                 cyBle_discoveryInfo.scanTo = CYBLE_SLOW_SCAN_TIMEOUT;
1014:Generated_Source\PSoC4/ble.c ****                 cyBle_discoveryInfo.scanIntv = CYBLE_SLOW_SCAN_INTERVAL;
1015:Generated_Source\PSoC4/ble.c ****                 cyBle_discoveryInfo.scanWindow = CYBLE_SLOW_SCAN_WINDOW;
1016:Generated_Source\PSoC4/ble.c ****             }       
1017:Generated_Source\PSoC4/ble.c ****             else /* Do not update scanning intervals */
1018:Generated_Source\PSoC4/ble.c ****             {
1019:Generated_Source\PSoC4/ble.c ****             }
1020:Generated_Source\PSoC4/ble.c ****             
1021:Generated_Source\PSoC4/ble.c ****             cyBle_scanningIntervalType = scanningIntervalType;
1022:Generated_Source\PSoC4/ble.c ****             apiResult = CyBle_GapcStartDiscovery(&cyBle_discoveryInfo);
1023:Generated_Source\PSoC4/ble.c ****         
1024:Generated_Source\PSoC4/ble.c ****             if(apiResult == CYBLE_ERROR_OK)
1025:Generated_Source\PSoC4/ble.c ****             {
1026:Generated_Source\PSoC4/ble.c ****                 cyBle_eventHandlerFlag |= CYBLE_START_FLAG;
1027:Generated_Source\PSoC4/ble.c ****             }
1028:Generated_Source\PSoC4/ble.c ****         }
1029:Generated_Source\PSoC4/ble.c ****        
1030:Generated_Source\PSoC4/ble.c ****         return (apiResult);
1031:Generated_Source\PSoC4/ble.c ****     }
1032:Generated_Source\PSoC4/ble.c ****     
1033:Generated_Source\PSoC4/ble.c ****     
1034:Generated_Source\PSoC4/ble.c ****     /******************************************************************************
1035:Generated_Source\PSoC4/ble.c ****     * Function Name: CyBle_GapcStopScan
1036:Generated_Source\PSoC4/ble.c ****     ***************************************************************************//**
1037:Generated_Source\PSoC4/ble.c ****     * 
1038:Generated_Source\PSoC4/ble.c ****     *   This function used to stop the discovery of devices. On stopping discovery
1039:Generated_Source\PSoC4/ble.c ****     *   operation, CYBLE_EVT_GAPC_SCAN_START_STOP event is generated. Application
1040:Generated_Source\PSoC4/ble.c ****     *   layer needs to keep track of the function call made before receiving this
1041:Generated_Source\PSoC4/ble.c ****     *   event to associate this event with either the start or stop discovery
1042:Generated_Source\PSoC4/ble.c ****     *   function.
1043:Generated_Source\PSoC4/ble.c ****     * 
1044:Generated_Source\PSoC4/ble.c ****     *   Possible events generated are:
1045:Generated_Source\PSoC4/ble.c ****     *    * CYBLE_EVT_GAPC_SCAN_START_STOP
1046:Generated_Source\PSoC4/ble.c ****     * 
1047:Generated_Source\PSoC4/ble.c ****     *  \return
1048:Generated_Source\PSoC4/ble.c ****     *   None
1049:Generated_Source\PSoC4/ble.c ****     * 
1050:Generated_Source\PSoC4/ble.c ****     *******************************************************************************/
1051:Generated_Source\PSoC4/ble.c ****     void CyBle_GapcStopScan(void)
1052:Generated_Source\PSoC4/ble.c ****     {
1053:Generated_Source\PSoC4/ble.c ****         CyBle_GapcStopDiscovery();
1054:Generated_Source\PSoC4/ble.c ****         
1055:Generated_Source\PSoC4/ble.c ****         cyBle_eventHandlerFlag |= CYBLE_STOP_FLAG;
1056:Generated_Source\PSoC4/ble.c ****     }
1057:Generated_Source\PSoC4/ble.c **** 
1058:Generated_Source\PSoC4/ble.c ****     
1059:Generated_Source\PSoC4/ble.c **** #endif /* CYBLE_GAP_ROLE_CENTRAL || CYBLE_GAP_ROLE_OBSERVER */
ARM GAS  C:\Users\Sarah\AppData\Local\Temp\ccLQenA3.s 			page 20


1060:Generated_Source\PSoC4/ble.c **** 
1061:Generated_Source\PSoC4/ble.c **** 
1062:Generated_Source\PSoC4/ble.c **** #if(CYBLE_GAP_ROLE_CENTRAL)
1063:Generated_Source\PSoC4/ble.c **** 
1064:Generated_Source\PSoC4/ble.c ****     /******************************************************************************
1065:Generated_Source\PSoC4/ble.c ****     * Function Name: CyBle_GapcConnectDevice
1066:Generated_Source\PSoC4/ble.c ****     ***************************************************************************//**
1067:Generated_Source\PSoC4/ble.c ****     * 
1068:Generated_Source\PSoC4/ble.c ****     *  This function is used to send a connection request to the remote device with
1069:Generated_Source\PSoC4/ble.c ****     *  the connection parameters set in the component customizer. This function needs
1070:Generated_Source\PSoC4/ble.c ****     *  to be called only once after the target device is discovered by 
1071:Generated_Source\PSoC4/ble.c ****     *  CyBle_GapcStartScan() and further scanning has stopped. Scanning is 
1072:Generated_Source\PSoC4/ble.c ****     *  successfully stopped on invoking CyBle_GapcStopScan() and then receiving the
1073:Generated_Source\PSoC4/ble.c ****     *  event CYBLE_EVT_GAPC_SCAN_START_STOP with sub-parameter 'success' = 0x01u.
1074:Generated_Source\PSoC4/ble.c ****     *  
1075:Generated_Source\PSoC4/ble.c ****     *  On successful connection, the following events are generated at the GAP 
1076:Generated_Source\PSoC4/ble.c ****     *  Central device (as well as the GAP Peripheral device), in the following order.
1077:Generated_Source\PSoC4/ble.c ****     *  * CYBLE_EVT_GATT_CONNECT_IND
1078:Generated_Source\PSoC4/ble.c ****     *  * CYBLE_EVT_GAP_DEVICE_CONNECTED - If the device connects to a GAP Central and 
1079:Generated_Source\PSoC4/ble.c ****     *    Link Layer Privacy is disabled in component customizer.
1080:Generated_Source\PSoC4/ble.c ****     *  * CYBLE_EVT_GAP_ENHANCE_CONN_COMPLETE - If the device connects to a GAP Central and 
1081:Generated_Source\PSoC4/ble.c ****     *    Link Layer Privacy is enabled in component customizer.
1082:Generated_Source\PSoC4/ble.c ****     *  * CYBLE_EVT_GAP_DEVICE_CONNECTED
1083:Generated_Source\PSoC4/ble.c ****     *  
1084:Generated_Source\PSoC4/ble.c ****     *  A procedure is considered to have timed out if a connection response packet is 
1085:Generated_Source\PSoC4/ble.c ****     *  not received within time set by cyBle_connectingTimeout global variable
1086:Generated_Source\PSoC4/ble.c ****     *  (30 seconds by default). CYBLE_EVT_TIMEOUT event with CYBLE_GENERIC_TO parameter
1087:Generated_Source\PSoC4/ble.c ****     *  will indicate about connection procedure timeout. Connection will automatically
1088:Generated_Source\PSoC4/ble.c ****     *  be canceled and state will be changed to CYBLE_STATE_DISCONNECTED.
1089:Generated_Source\PSoC4/ble.c ****     * 
1090:Generated_Source\PSoC4/ble.c ****     *  \param address: The device address of the remote device to connect to. 
1091:Generated_Source\PSoC4/ble.c ****     *  
1092:Generated_Source\PSoC4/ble.c ****     * \return
1093:Generated_Source\PSoC4/ble.c ****     *  CYBLE_API_RESULT_T : Return value indicates if the function succeeded or 
1094:Generated_Source\PSoC4/ble.c ****     *  failed. Following are the possible error codes.
1095:Generated_Source\PSoC4/ble.c ****     *
1096:Generated_Source\PSoC4/ble.c ****     *   Errors codes                       | Description
1097:Generated_Source\PSoC4/ble.c ****     *   ------------                       | -----------
1098:Generated_Source\PSoC4/ble.c ****     *   CYBLE_ERROR_OK                     | On successful operation.
1099:Generated_Source\PSoC4/ble.c ****     *   CYBLE_ERROR_STACK_INTERNAL         | On error occurred in the BLE stack.
1100:Generated_Source\PSoC4/ble.c ****     *   CYBLE_ERROR_INVALID_PARAMETER      | On passing an invalid parameter.
1101:Generated_Source\PSoC4/ble.c ****     *   CYBLE_ERROR_INVALID_STATE          | On calling this API not in Disconnected state.
1102:Generated_Source\PSoC4/ble.c ****     *  
1103:Generated_Source\PSoC4/ble.c ****     ******************************************************************************/
1104:Generated_Source\PSoC4/ble.c ****     CYBLE_API_RESULT_T CyBle_GapcConnectDevice(const CYBLE_GAP_BD_ADDR_T * address)
1105:Generated_Source\PSoC4/ble.c ****     {
1106:Generated_Source\PSoC4/ble.c ****         CYBLE_API_RESULT_T apiResult;
1107:Generated_Source\PSoC4/ble.c ****         uint8 i;
1108:Generated_Source\PSoC4/ble.c **** 
1109:Generated_Source\PSoC4/ble.c ****         if(CyBle_GetState() != CYBLE_STATE_DISCONNECTED)
1110:Generated_Source\PSoC4/ble.c ****         {
1111:Generated_Source\PSoC4/ble.c ****             apiResult = CYBLE_ERROR_INVALID_STATE;
1112:Generated_Source\PSoC4/ble.c ****         }
1113:Generated_Source\PSoC4/ble.c ****         else if(address == NULL)
1114:Generated_Source\PSoC4/ble.c ****         {
1115:Generated_Source\PSoC4/ble.c ****             apiResult = CYBLE_ERROR_INVALID_PARAMETER;
1116:Generated_Source\PSoC4/ble.c ****         }
ARM GAS  C:\Users\Sarah\AppData\Local\Temp\ccLQenA3.s 			page 21


1117:Generated_Source\PSoC4/ble.c ****         else
1118:Generated_Source\PSoC4/ble.c ****         {
1119:Generated_Source\PSoC4/ble.c ****             for(i = 0u; i < CYBLE_GAP_BD_ADDR_SIZE; i++)
1120:Generated_Source\PSoC4/ble.c ****             {
1121:Generated_Source\PSoC4/ble.c ****                 cyBle_connectionParameters.peerBdAddr[i] = address->bdAddr[i];
1122:Generated_Source\PSoC4/ble.c ****             }
1123:Generated_Source\PSoC4/ble.c ****             cyBle_connectionParameters.peerAddrType = address -> type;
1124:Generated_Source\PSoC4/ble.c ****             apiResult = CyBle_GapcInitConnection(&cyBle_connectionParameters);
1125:Generated_Source\PSoC4/ble.c ****             
1126:Generated_Source\PSoC4/ble.c ****             if(apiResult == CYBLE_ERROR_OK)
1127:Generated_Source\PSoC4/ble.c ****             {
1128:Generated_Source\PSoC4/ble.c ****                 CyBle_SetState(CYBLE_STATE_CONNECTING);
1129:Generated_Source\PSoC4/ble.c ****                 if(cyBle_connectingTimeout != 0u)
1130:Generated_Source\PSoC4/ble.c ****                 {
1131:Generated_Source\PSoC4/ble.c ****                     (void)CyBle_StartTimer(cyBle_connectingTimeout);
1132:Generated_Source\PSoC4/ble.c ****                 }
1133:Generated_Source\PSoC4/ble.c ****             }
1134:Generated_Source\PSoC4/ble.c ****         }
1135:Generated_Source\PSoC4/ble.c ****         return (apiResult);
1136:Generated_Source\PSoC4/ble.c ****     }
1137:Generated_Source\PSoC4/ble.c ****     
1138:Generated_Source\PSoC4/ble.c **** 
1139:Generated_Source\PSoC4/ble.c ****     /******************************************************************************
1140:Generated_Source\PSoC4/ble.c ****     * Function Name: CyBle_GapcCancelDeviceConnection
1141:Generated_Source\PSoC4/ble.c ****     ***************************************************************************//**
1142:Generated_Source\PSoC4/ble.c ****     * 
1143:Generated_Source\PSoC4/ble.c ****     *  This function cancels a previously initiated connection with the remote 
1144:Generated_Source\PSoC4/ble.c ****     *  device. It is a blocking function. No event is generated on calling this 
1145:Generated_Source\PSoC4/ble.c ****     *  function. If the devices are already connected then this function should not
1146:Generated_Source\PSoC4/ble.c ****     *  be used. If you intend to disconnect from an existing connection, the function
1147:Generated_Source\PSoC4/ble.c ****     *  CyBle_GapDisconnect() should be used.
1148:Generated_Source\PSoC4/ble.c ****     * 
1149:Generated_Source\PSoC4/ble.c ****     * \return
1150:Generated_Source\PSoC4/ble.c ****     *  CYBLE_API_RESULT_T : Return value indicates if the function succeeded or 
1151:Generated_Source\PSoC4/ble.c ****     *  failed. Following are the possible error codes.
1152:Generated_Source\PSoC4/ble.c ****     *
1153:Generated_Source\PSoC4/ble.c ****     *   Errors codes                       | Description
1154:Generated_Source\PSoC4/ble.c ****     *   ---------------------------------- | --------------------------------------
1155:Generated_Source\PSoC4/ble.c ****     *   CYBLE_ERROR_OK                     | On successful operation.
1156:Generated_Source\PSoC4/ble.c ****     *   CYBLE_ERROR_STACK_INTERNAL         | An error occurred in the BLE stack.
1157:Generated_Source\PSoC4/ble.c ****     *   CYBLE_ERROR_INVALID_STATE          | On calling this API not in Connecting state.
1158:Generated_Source\PSoC4/ble.c ****     *  
1159:Generated_Source\PSoC4/ble.c ****     *******************************************************************************/
1160:Generated_Source\PSoC4/ble.c ****     CYBLE_API_RESULT_T CyBle_GapcCancelDeviceConnection(void)
1161:Generated_Source\PSoC4/ble.c ****     {
1162:Generated_Source\PSoC4/ble.c ****         CYBLE_API_RESULT_T apiResult;
1163:Generated_Source\PSoC4/ble.c ****         
1164:Generated_Source\PSoC4/ble.c ****         if(CyBle_GetState() != CYBLE_STATE_CONNECTING)
1165:Generated_Source\PSoC4/ble.c ****         {
1166:Generated_Source\PSoC4/ble.c ****             apiResult = CYBLE_ERROR_INVALID_STATE;
1167:Generated_Source\PSoC4/ble.c ****         }
1168:Generated_Source\PSoC4/ble.c ****         else 
1169:Generated_Source\PSoC4/ble.c ****         {
1170:Generated_Source\PSoC4/ble.c ****             apiResult = CyBle_GapcCancelConnection();
1171:Generated_Source\PSoC4/ble.c ****             
1172:Generated_Source\PSoC4/ble.c ****             if(cyBle_connectingTimeout != 0u)
1173:Generated_Source\PSoC4/ble.c ****             {
ARM GAS  C:\Users\Sarah\AppData\Local\Temp\ccLQenA3.s 			page 22


1174:Generated_Source\PSoC4/ble.c ****                 (void)CyBle_StopTimer();
1175:Generated_Source\PSoC4/ble.c ****             }
1176:Generated_Source\PSoC4/ble.c **** 
1177:Generated_Source\PSoC4/ble.c ****             if(apiResult == CYBLE_ERROR_OK)
1178:Generated_Source\PSoC4/ble.c ****             {
1179:Generated_Source\PSoC4/ble.c ****                 CyBle_SetState(CYBLE_STATE_DISCONNECTED);
1180:Generated_Source\PSoC4/ble.c ****             }
1181:Generated_Source\PSoC4/ble.c ****         }
1182:Generated_Source\PSoC4/ble.c ****         return (apiResult);
1183:Generated_Source\PSoC4/ble.c ****     }    
1184:Generated_Source\PSoC4/ble.c **** 
1185:Generated_Source\PSoC4/ble.c ****     
1186:Generated_Source\PSoC4/ble.c **** #endif /* CYBLE_GAP_ROLE_CENTRAL */
1187:Generated_Source\PSoC4/ble.c **** 
1188:Generated_Source\PSoC4/ble.c **** 
1189:Generated_Source\PSoC4/ble.c **** #if(CYBLE_GATT_ROLE_SERVER)
1190:Generated_Source\PSoC4/ble.c **** 
1191:Generated_Source\PSoC4/ble.c **** #if(CYBLE_GAP_ROLE_PERIPHERAL)
1192:Generated_Source\PSoC4/ble.c **** 
1193:Generated_Source\PSoC4/ble.c ****         /******************************************************************************
1194:Generated_Source\PSoC4/ble.c ****         * Function Name: CyBle_ChangeAdLocalName
1195:Generated_Source\PSoC4/ble.c ****         ***************************************************************************//**
1196:Generated_Source\PSoC4/ble.c ****         *  This API is used to set the local device name in the advertisement or scan 
1197:Generated_Source\PSoC4/ble.c ****         *  response data structure.
1198:Generated_Source\PSoC4/ble.c ****         * 
1199:Generated_Source\PSoC4/ble.c ****         *  \param name: The local device name string to be set in advertisement data 
1200:Generated_Source\PSoC4/ble.c ****         *            structure.
1201:Generated_Source\PSoC4/ble.c ****         *  \param dest: 0 - advertisement structure, not zero value selects scan response
1202:Generated_Source\PSoC4/ble.c ****         *              structure.
1203:Generated_Source\PSoC4/ble.c ****         * 
1204:Generated_Source\PSoC4/ble.c ****         * \return
1205:Generated_Source\PSoC4/ble.c ****         *  None
1206:Generated_Source\PSoC4/ble.c ****         *  
1207:Generated_Source\PSoC4/ble.c ****         *******************************************************************************/
1208:Generated_Source\PSoC4/ble.c ****         static void CyBle_ChangeAdLocalName(const char8 name[], uint8 dest)
1209:Generated_Source\PSoC4/ble.c ****         {
  25              		.loc 1 1209 0
  26              		.cfi_startproc
  27              	.LVL0:
  28 0000 70B5     		push	{r4, r5, r6, lr}
  29              		.cfi_def_cfa_offset 16
  30              		.cfi_offset 4, -16
  31              		.cfi_offset 5, -12
  32              		.cfi_offset 6, -8
  33              		.cfi_offset 14, -4
  34              	.LVL1:
1210:Generated_Source\PSoC4/ble.c ****             uint8 i;
1211:Generated_Source\PSoC4/ble.c ****             uint8 flag = 0u;
1212:Generated_Source\PSoC4/ble.c ****             uint8 adLength = 0u;
1213:Generated_Source\PSoC4/ble.c ****             uint8 byteCounter = 0u;
1214:Generated_Source\PSoC4/ble.c ****             uint8 *destBuffer;
1215:Generated_Source\PSoC4/ble.c ****             uint8 maxLength;
1216:Generated_Source\PSoC4/ble.c ****             
1217:Generated_Source\PSoC4/ble.c ****             if(dest == 0u)      /* Destination - advertising structure */
  35              		.loc 1 1217 0
  36 0002 0029     		cmp	r1, #0
  37 0004 05D1     		bne	.L2
ARM GAS  C:\Users\Sarah\AppData\Local\Temp\ccLQenA3.s 			page 23


  38              	.LVL2:
1218:Generated_Source\PSoC4/ble.c ****             {
1219:Generated_Source\PSoC4/ble.c ****                 destBuffer = cyBle_discoveryData.advData;
1220:Generated_Source\PSoC4/ble.c ****                 maxLength = cyBle_discoveryData.advDataLen;
  39              		.loc 1 1220 0
  40 0006 1A4C     		ldr	r4, .L15
  41 0008 E67F     		ldrb	r6, [r4, #31]
  42              	.LVL3:
  43              	.L4:
1221:Generated_Source\PSoC4/ble.c ****             }
1222:Generated_Source\PSoC4/ble.c ****             else                /* Destination - scan response structure */
1223:Generated_Source\PSoC4/ble.c ****             {
1224:Generated_Source\PSoC4/ble.c ****                 destBuffer = cyBle_scanRspData.scanRspData;
1225:Generated_Source\PSoC4/ble.c ****                 maxLength = cyBle_scanRspData.scanRspDataLen;
1226:Generated_Source\PSoC4/ble.c ****             }
1227:Generated_Source\PSoC4/ble.c ****             
1228:Generated_Source\PSoC4/ble.c ****             while((byteCounter < maxLength) && (flag == 0u))
1229:Generated_Source\PSoC4/ble.c ****             {
1230:Generated_Source\PSoC4/ble.c ****                 adLength = destBuffer[byteCounter];
1231:Generated_Source\PSoC4/ble.c ****                 
1232:Generated_Source\PSoC4/ble.c ****                 if(0u != adLength)
1233:Generated_Source\PSoC4/ble.c ****                 {
1234:Generated_Source\PSoC4/ble.c ****                     /* Increment byte counter so it can point to AD type */
1235:Generated_Source\PSoC4/ble.c ****                     byteCounter++;
1236:Generated_Source\PSoC4/ble.c ****                     
1237:Generated_Source\PSoC4/ble.c ****                     if((destBuffer[byteCounter] == CYBLE_SHORT_LOCAL_NAME) || 
1238:Generated_Source\PSoC4/ble.c ****                        (destBuffer[byteCounter] == CYBLE_COMPLETE_LOCAL_NAME))
1239:Generated_Source\PSoC4/ble.c ****                     {
1240:Generated_Source\PSoC4/ble.c ****                         /* Start of the Local Name AD type was fount. Set flag and exit the loop. *
1241:Generated_Source\PSoC4/ble.c ****                         flag = 1u;
  44              		.loc 1 1241 0
  45 000a 0023     		mov	r3, #0
  46 000c 0022     		mov	r2, #0
  47 000e 0025     		mov	r5, #0
  48 0010 0FE0     		b	.L3
  49              	.LVL4:
  50              	.L2:
1225:Generated_Source\PSoC4/ble.c ****             }
  51              		.loc 1 1225 0
  52 0012 184C     		ldr	r4, .L15+4
  53 0014 E67F     		ldrb	r6, [r4, #31]
  54              	.LVL5:
  55 0016 F8E7     		b	.L4
  56              	.LVL6:
  57              	.L7:
1230:Generated_Source\PSoC4/ble.c ****                 
  58              		.loc 1 1230 0
  59 0018 E25C     		ldrb	r2, [r4, r3]
  60              	.LVL7:
1232:Generated_Source\PSoC4/ble.c ****                 {
  61              		.loc 1 1232 0
  62 001a 002A     		cmp	r2, #0
  63 001c 0DD0     		beq	.L5
1235:Generated_Source\PSoC4/ble.c ****                     
  64              		.loc 1 1235 0
  65 001e 0133     		add	r3, r3, #1
  66              	.LVL8:
ARM GAS  C:\Users\Sarah\AppData\Local\Temp\ccLQenA3.s 			page 24


  67 0020 DBB2     		uxtb	r3, r3
  68              	.LVL9:
1237:Generated_Source\PSoC4/ble.c ****                        (destBuffer[byteCounter] == CYBLE_COMPLETE_LOCAL_NAME))
  69              		.loc 1 1237 0
  70 0022 E15C     		ldrb	r1, [r4, r3]
  71 0024 0839     		sub	r1, r1, #8
  72 0026 0129     		cmp	r1, #1
  73 0028 02D9     		bls	.L14
1242:Generated_Source\PSoC4/ble.c ****                     }
1243:Generated_Source\PSoC4/ble.c ****                     else
1244:Generated_Source\PSoC4/ble.c ****                     {
1245:Generated_Source\PSoC4/ble.c ****                         byteCounter += adLength;
  74              		.loc 1 1245 0
  75 002a 9B18     		add	r3, r3, r2
  76              	.LVL10:
  77 002c DBB2     		uxtb	r3, r3
  78              	.LVL11:
  79 002e 00E0     		b	.L3
  80              	.L14:
1241:Generated_Source\PSoC4/ble.c ****                     }
  81              		.loc 1 1241 0
  82 0030 0125     		mov	r5, #1
  83              	.LVL12:
  84              	.L3:
1228:Generated_Source\PSoC4/ble.c ****             {
  85              		.loc 1 1228 0
  86 0032 B342     		cmp	r3, r6
  87 0034 01D2     		bcs	.L5
1228:Generated_Source\PSoC4/ble.c ****             {
  88              		.loc 1 1228 0 is_stmt 0 discriminator 1
  89 0036 002D     		cmp	r5, #0
  90 0038 EED0     		beq	.L7
  91              	.L5:
1246:Generated_Source\PSoC4/ble.c ****                     }
1247:Generated_Source\PSoC4/ble.c ****                 }
1248:Generated_Source\PSoC4/ble.c ****                 else
1249:Generated_Source\PSoC4/ble.c ****                 {
1250:Generated_Source\PSoC4/ble.c ****                     /* The end of advertisement data structure was encountered though exit the loop
1251:Generated_Source\PSoC4/ble.c ****                     break;
1252:Generated_Source\PSoC4/ble.c ****                 }
1253:Generated_Source\PSoC4/ble.c ****             }
1254:Generated_Source\PSoC4/ble.c ****             
1255:Generated_Source\PSoC4/ble.c ****             if(0u != flag)
  92              		.loc 1 1255 0 is_stmt 1
  93 003a 002D     		cmp	r5, #0
  94 003c 16D0     		beq	.L1
1256:Generated_Source\PSoC4/ble.c ****             {
1257:Generated_Source\PSoC4/ble.c ****                 /* Reuse "adLength" to hold location of the last character of local name in 
1258:Generated_Source\PSoC4/ble.c ****                    AD structure. */
1259:Generated_Source\PSoC4/ble.c ****                 adLength += byteCounter;
  95              		.loc 1 1259 0
  96 003e D218     		add	r2, r2, r3
  97              	.LVL13:
  98 0040 D1B2     		uxtb	r1, r2
  99              	.LVL14:
1260:Generated_Source\PSoC4/ble.c ****                 
1261:Generated_Source\PSoC4/ble.c ****                 /* Increment byte counter to point to start of the local Name string */
ARM GAS  C:\Users\Sarah\AppData\Local\Temp\ccLQenA3.s 			page 25


1262:Generated_Source\PSoC4/ble.c ****                 byteCounter++;
 100              		.loc 1 1262 0
 101 0042 0133     		add	r3, r3, #1
 102              	.LVL15:
 103 0044 DBB2     		uxtb	r3, r3
 104              	.LVL16:
1263:Generated_Source\PSoC4/ble.c ****                 
1264:Generated_Source\PSoC4/ble.c ****                 for(i = byteCounter; ((i < (adLength)) && (CYBLE_NULL_CHARCTER != name[i - byteCoun
 105              		.loc 1 1264 0
 106 0046 1A1C     		mov	r2, r3
 107 0048 02E0     		b	.L9
 108              	.LVL17:
 109              	.L11:
1265:Generated_Source\PSoC4/ble.c ****                 {
1266:Generated_Source\PSoC4/ble.c ****                     destBuffer[i] = (uint8)name[i - byteCounter];
 110              		.loc 1 1266 0 discriminator 4
 111 004a A554     		strb	r5, [r4, r2]
1264:Generated_Source\PSoC4/ble.c ****                 {
 112              		.loc 1 1264 0 discriminator 4
 113 004c 0132     		add	r2, r2, #1
 114              	.LVL18:
 115 004e D2B2     		uxtb	r2, r2
 116              	.LVL19:
 117              	.L9:
1264:Generated_Source\PSoC4/ble.c ****                 {
 118              		.loc 1 1264 0 is_stmt 0 discriminator 1
 119 0050 8A42     		cmp	r2, r1
 120 0052 09D2     		bcs	.L12
1264:Generated_Source\PSoC4/ble.c ****                 {
 121              		.loc 1 1264 0 discriminator 3
 122 0054 D51A     		sub	r5, r2, r3
 123 0056 455D     		ldrb	r5, [r0, r5]
 124 0058 002D     		cmp	r5, #0
 125 005a F6D1     		bne	.L11
 126 005c 04E0     		b	.L12
 127              	.LVL20:
 128              	.L13:
1267:Generated_Source\PSoC4/ble.c ****                 }
1268:Generated_Source\PSoC4/ble.c ****                 
1269:Generated_Source\PSoC4/ble.c ****                 /* This loop handles the case when new local name is shorted than old one.
1270:Generated_Source\PSoC4/ble.c ****                    In this case all remaining characters should be null characters. */
1271:Generated_Source\PSoC4/ble.c ****                 while(adLength > i)
1272:Generated_Source\PSoC4/ble.c ****                 {
1273:Generated_Source\PSoC4/ble.c ****                     /* Terminate string */
1274:Generated_Source\PSoC4/ble.c ****                     destBuffer[i] = (uint8)CYBLE_NULL_CHARCTER;
 129              		.loc 1 1274 0 is_stmt 1
 130 005e A318     		add	r3, r4, r2
 131 0060 0020     		mov	r0, #0
 132 0062 1870     		strb	r0, [r3]
1275:Generated_Source\PSoC4/ble.c ****                     i++;
 133              		.loc 1 1275 0
 134 0064 0132     		add	r2, r2, #1
 135              	.LVL21:
 136 0066 D2B2     		uxtb	r2, r2
 137              	.LVL22:
 138              	.L12:
1271:Generated_Source\PSoC4/ble.c ****                 {
ARM GAS  C:\Users\Sarah\AppData\Local\Temp\ccLQenA3.s 			page 26


 139              		.loc 1 1271 0
 140 0068 9142     		cmp	r1, r2
 141 006a F8D8     		bhi	.L13
 142              	.LVL23:
 143              	.L1:
1276:Generated_Source\PSoC4/ble.c ****                 }
1277:Generated_Source\PSoC4/ble.c ****             }
1278:Generated_Source\PSoC4/ble.c ****         }
 144              		.loc 1 1278 0
 145              		@ sp needed
 146              	.LVL24:
 147              	.LVL25:
 148 006c 70BD     		pop	{r4, r5, r6, pc}
 149              	.L16:
 150 006e C046     		.align	2
 151              	.L15:
 152 0070 00000000 		.word	.LANCHOR0
 153 0074 00000000 		.word	.LANCHOR1
 154              		.cfi_endproc
 155              	.LFE15:
 156              		.size	CyBle_ChangeAdLocalName, .-CyBle_ChangeAdLocalName
 157              		.section	.text.CyBle_ServiceInit,"ax",%progbits
 158              		.align	2
 159              		.global	CyBle_ServiceInit
 160              		.code	16
 161              		.thumb_func
 162              		.type	CyBle_ServiceInit, %function
 163              	CyBle_ServiceInit:
 164              	.LFB3:
 218:Generated_Source\PSoC4/ble.c ****     #if(CYBLE_GATT_ROLE_CLIENT)
 165              		.loc 1 218 0
 166              		.cfi_startproc
 167 0000 08B5     		push	{r3, lr}
 168              		.cfi_def_cfa_offset 8
 169              		.cfi_offset 3, -8
 170              		.cfi_offset 14, -4
 276:Generated_Source\PSoC4/ble.c ****     #endif /* CYBLE_CUSTOM */
 171              		.loc 1 276 0
 172 0002 FFF7FEFF 		bl	CyBle_CustomInit
 173              	.LVL26:
 362:Generated_Source\PSoC4/ble.c **** 
 174              		.loc 1 362 0
 175              		@ sp needed
 176 0006 08BD     		pop	{r3, pc}
 177              		.cfi_endproc
 178              	.LFE3:
 179              		.size	CyBle_ServiceInit, .-CyBle_ServiceInit
 180              		.section	.text.CyBle_Init,"ax",%progbits
 181              		.align	2
 182              		.global	CyBle_Init
 183              		.code	16
 184              		.thumb_func
 185              		.type	CyBle_Init, %function
 186              	CyBle_Init:
 187              	.LFB2:
 169:Generated_Source\PSoC4/ble.c ****     cyBle_eventHandlerFlag = 0u;
 188              		.loc 1 169 0
ARM GAS  C:\Users\Sarah\AppData\Local\Temp\ccLQenA3.s 			page 27


 189              		.cfi_startproc
 190 0000 10B5     		push	{r4, lr}
 191              		.cfi_def_cfa_offset 8
 192              		.cfi_offset 4, -8
 193              		.cfi_offset 14, -4
 170:Generated_Source\PSoC4/ble.c ****     cyBle_busyStatus = CYBLE_STACK_STATE_FREE;
 194              		.loc 1 170 0
 195 0002 0022     		mov	r2, #0
 196 0004 144B     		ldr	r3, .L19
 197 0006 1A70     		strb	r2, [r3]
 171:Generated_Source\PSoC4/ble.c **** 
 198              		.loc 1 171 0
 199 0008 144B     		ldr	r3, .L19+4
 200 000a 1A70     		strb	r2, [r3]
 174:Generated_Source\PSoC4/ble.c ****     #endif /* (CYBLE_GAP_ROLE_PERIPHERAL || CYBLE_GAP_ROLE_BROADCASTER)  */
 201              		.loc 1 174 0
 202 000c 144B     		ldr	r3, .L19+8
 203 000e 1A70     		strb	r2, [r3]
 177:Generated_Source\PSoC4/ble.c ****     #endif /* (CYBLE_GAP_ROLE_CENTRAL || CYBLE_GAP_ROLE_OBSERVER) */
 204              		.loc 1 177 0
 205 0010 144B     		ldr	r3, .L19+12
 206 0012 1A70     		strb	r2, [r3]
 183:Generated_Source\PSoC4/ble.c ****         cyBle_connectionParameters.scanWindow = cyBle_discoveryInfo.scanWindow;
 207              		.loc 1 183 0
 208 0014 1449     		ldr	r1, .L19+16
 209 0016 488C     		ldrh	r0, [r1, #34]
 210 0018 144B     		ldr	r3, .L19+20
 211 001a 1880     		strh	r0, [r3]
 184:Generated_Source\PSoC4/ble.c ****         cyBle_connectionParameters.ownAddrType = cyBle_discoveryInfo.ownAddrType;
 212              		.loc 1 184 0
 213 001c 888C     		ldrh	r0, [r1, #36]
 214 001e 5880     		strh	r0, [r3, #2]
 185:Generated_Source\PSoC4/ble.c ****         cyBle_connectionParameters.initiatorFilterPolicy = cyBle_discoveryInfo.scanFilterPolicy;
 215              		.loc 1 185 0
 216 0020 2031     		add	r1, r1, #32
 217 0022 8879     		ldrb	r0, [r1, #6]
 218 0024 1873     		strb	r0, [r3, #12]
 186:Generated_Source\PSoC4/ble.c ****         cyBle_connectionParameters.connIntvMin = CYBLE_GAPC_CONNECTION_INTERVAL_MIN;
 219              		.loc 1 186 0
 220 0026 C979     		ldrb	r1, [r1, #7]
 221 0028 1971     		strb	r1, [r3, #4]
 187:Generated_Source\PSoC4/ble.c ****         cyBle_connectionParameters.connIntvMax = CYBLE_GAPC_CONNECTION_INTERVAL_MAX;
 222              		.loc 1 187 0
 223 002a 0621     		mov	r1, #6
 224 002c D981     		strh	r1, [r3, #14]
 188:Generated_Source\PSoC4/ble.c ****         cyBle_connectionParameters.connLatency = CYBLE_GAPC_CONNECTION_SLAVE_LATENCY;
 225              		.loc 1 188 0
 226 002e 2231     		add	r1, r1, #34
 227 0030 1982     		strh	r1, [r3, #16]
 189:Generated_Source\PSoC4/ble.c ****         cyBle_connectionParameters.supervisionTO = CYBLE_GAPC_CONNECTION_TIME_OUT;
 228              		.loc 1 189 0
 229 0032 0024     		mov	r4, #0
 230 0034 5A82     		strh	r2, [r3, #18]
 190:Generated_Source\PSoC4/ble.c ****         cyBle_connectionParameters.minCeLength = 0x0000u;
 231              		.loc 1 190 0
 232 0036 FA21     		mov	r1, #250
 233 0038 8900     		lsl	r1, r1, #2
ARM GAS  C:\Users\Sarah\AppData\Local\Temp\ccLQenA3.s 			page 28


 234 003a 9982     		strh	r1, [r3, #20]
 191:Generated_Source\PSoC4/ble.c ****         cyBle_connectionParameters.maxCeLength = 0xFFFFu;
 235              		.loc 1 191 0
 236 003c DA82     		strh	r2, [r3, #22]
 192:Generated_Source\PSoC4/ble.c ****         
 237              		.loc 1 192 0
 238 003e 013A     		sub	r2, r2, #1
 239 0040 1A83     		strh	r2, [r3, #24]
 194:Generated_Source\PSoC4/ble.c ****     #endif /* CYBLE_GAP_ROLE_CENTRAL */
 240              		.loc 1 194 0
 241 0042 1F32     		add	r2, r2, #31
 242 0044 0A4B     		ldr	r3, .L19+24
 243 0046 1A80     		strh	r2, [r3]
 197:Generated_Source\PSoC4/ble.c **** 
 244              		.loc 1 197 0
 245 0048 FFF7FEFF 		bl	CyBle_ServiceInit
 246              	.LVL27:
 200:Generated_Source\PSoC4/ble.c ****         cyBle_peerBonding = CYBLE_GAP_BONDING_NONE;
 247              		.loc 1 200 0
 248 004c 094B     		ldr	r3, .L19+28
 249 004e 1C70     		strb	r4, [r3]
 201:Generated_Source\PSoC4/ble.c ****     #endif  /* (CYBLE_BONDING_REQUIREMENT == CYBLE_BONDING_YES) */
 250              		.loc 1 201 0
 251 0050 094B     		ldr	r3, .L19+32
 252 0052 1C70     		strb	r4, [r3]
 204:Generated_Source\PSoC4/ble.c **** 
 253              		.loc 1 204 0
 254              		@ sp needed
 255 0054 10BD     		pop	{r4, pc}
 256              	.L20:
 257 0056 C046     		.align	2
 258              	.L19:
 259 0058 00000000 		.word	cyBle_eventHandlerFlag
 260 005c 00000000 		.word	cyBle_busyStatus
 261 0060 00000000 		.word	cyBle_advertisingIntervalType
 262 0064 00000000 		.word	cyBle_scanningIntervalType
 263 0068 00000000 		.word	.LANCHOR0
 264 006c 00000000 		.word	cyBle_connectionParameters
 265 0070 00000000 		.word	cyBle_connectingTimeout
 266 0074 00000000 		.word	cyBle_pendingFlashWrite
 267 0078 00000000 		.word	cyBle_peerBonding
 268              		.cfi_endproc
 269              	.LFE2:
 270              		.size	CyBle_Init, .-CyBle_Init
 271              		.section	.text.CyBle_Start,"ax",%progbits
 272              		.align	2
 273              		.global	CyBle_Start
 274              		.code	16
 275              		.thumb_func
 276              		.type	CyBle_Start, %function
 277              	CyBle_Start:
 278              	.LFB4:
 424:Generated_Source\PSoC4/ble.c ****     CYBLE_API_RESULT_T apiResult = CYBLE_ERROR_OK;
 279              		.loc 1 424 0
 280              		.cfi_startproc
 281              	.LVL28:
 282 0000 10B5     		push	{r4, lr}
ARM GAS  C:\Users\Sarah\AppData\Local\Temp\ccLQenA3.s 			page 29


 283              		.cfi_def_cfa_offset 8
 284              		.cfi_offset 4, -8
 285              		.cfi_offset 14, -4
 286 0002 90B0     		sub	sp, sp, #64
 287              		.cfi_def_cfa_offset 72
 288 0004 041C     		mov	r4, r0
 289              	.LVL29:
 429:Generated_Source\PSoC4/ble.c ****     {
 290              		.loc 1 429 0
 291 0006 0BA8     		add	r0, sp, #44
 292              	.LVL30:
 293 0008 2049     		ldr	r1, .L25
 294 000a 1422     		mov	r2, #20
 295 000c FFF7FEFF 		bl	memcpy
 296              	.LVL31:
 441:Generated_Source\PSoC4/ble.c ****     {
 297              		.loc 1 441 0
 298 0010 2023     		mov	r3, #32
 299 0012 1F4A     		ldr	r2, .L25+4
 300 0014 D35C     		ldrb	r3, [r2, r3]
 301 0016 002B     		cmp	r3, #0
 302 0018 05D1     		bne	.L22
 443:Generated_Source\PSoC4/ble.c ****         cyBle_initVar = 1u;
 303              		.loc 1 443 0
 304 001a FFF7FEFF 		bl	CyBle_Init
 305              	.LVL32:
 444:Generated_Source\PSoC4/ble.c ****     }
 306              		.loc 1 444 0
 307 001e 0121     		mov	r1, #1
 308 0020 2023     		mov	r3, #32
 309 0022 1B4A     		ldr	r2, .L25+4
 310 0024 D154     		strb	r1, [r2, r3]
 311              	.L22:
 447:Generated_Source\PSoC4/ble.c ****     {
 312              		.loc 1 447 0
 313 0026 002C     		cmp	r4, #0
 314 0028 2DD0     		beq	.L24
 449:Generated_Source\PSoC4/ble.c ****         
 315              		.loc 1 449 0
 316 002a 1A4B     		ldr	r3, .L25+8
 317 002c 1C60     		str	r4, [r3]
 318              	.LBB2:
 468:Generated_Source\PSoC4/ble.c ****             stackConfig.dleConfig = &dleConfigParams;
 319              		.loc 1 468 0
 320 002e 08A8     		add	r0, sp, #32
 321 0030 05AA     		add	r2, sp, #20
 322 0032 4260     		str	r2, [r0, #4]
 469:Generated_Source\PSoC4/ble.c ****             
 323              		.loc 1 469 0
 324 0034 06AB     		add	r3, sp, #24
 325 0036 0893     		str	r3, [sp, #32]
 472:Generated_Source\PSoC4/ble.c ****                                        CYBLE_SECURE_CONN_FEATURE;
 326              		.loc 1 472 0
 327 0038 0021     		mov	r1, #0
 328 003a 0181     		strh	r1, [r0, #8]
 476:Generated_Source\PSoC4/ble.c ****             dleConfigParams.dleMaxRxCapability = CYBLE_LL_MAX_RX_PAYLOAD_SIZE;
 329              		.loc 1 476 0
ARM GAS  C:\Users\Sarah\AppData\Local\Temp\ccLQenA3.s 			page 30


 330 003c 1B31     		add	r1, r1, #27
 331 003e 1980     		strh	r1, [r3]
 477:Generated_Source\PSoC4/ble.c ****             dleConfigParams.dleNumTxBuffer = CYBLE_LL_DEFAULT_NUM_ACL_TX_PACKETS;
 332              		.loc 1 477 0
 333 0040 5980     		strh	r1, [r3, #2]
 478:Generated_Source\PSoC4/ble.c ****         #if(CYBLE_DLE_FEATURE_ENABLED)
 334              		.loc 1 478 0
 335 0042 1739     		sub	r1, r1, #23
 336 0044 1971     		strb	r1, [r3, #4]
 484:Generated_Source\PSoC4/ble.c ****         #if(CYBLE_LL_PRIVACY_FEATURE_ENABLED)
 337              		.loc 1 484 0
 338 0046 0823     		mov	r3, #8
 339 0048 1370     		strb	r3, [r2]
 489:Generated_Source\PSoC4/ble.c ****             }
 340              		.loc 1 489 0
 341 004a 1231     		add	r1, r1, #18
 342 004c 6944     		add	r1, r1, sp
 343 004e FFF7FEFF 		bl	CyBle_StackSetFeatureConfig
 344              	.LVL33:
 345              	.LBE2:
 492:Generated_Source\PSoC4/ble.c ****         {
 346              		.loc 1 492 0
 347 0052 0028     		cmp	r0, #0
 348 0054 18D1     		bne	.L23
 497:Generated_Source\PSoC4/ble.c ****                     CYBLE_STACK_RAM_SIZE - CYBLE_GATT_PREPARE_WRITE_BUFF_LEN, cyBle_stackDataBuff, 
 349              		.loc 1 497 0
 350 0056 0523     		mov	r3, #5
 351 0058 0093     		str	r3, [sp]
 352 005a 0F4B     		ldr	r3, .L25+12
 353 005c 0193     		str	r3, [sp, #4]
 354 005e 0F4B     		ldr	r3, .L25+16
 355 0060 0293     		str	r3, [sp, #8]
 356 0062 0F48     		ldr	r0, .L25+20
 357              	.LVL34:
 358 0064 0F49     		ldr	r1, .L25+24
 359 0066 AE22     		mov	r2, #174
 360 0068 1201     		lsl	r2, r2, #4
 361 006a 0BAB     		add	r3, sp, #44
 362 006c FFF7FEFF 		bl	CyBle_StackInit
 363              	.LVL35:
 521:Generated_Source\PSoC4/ble.c ****             {
 364              		.loc 1 521 0
 365 0070 0028     		cmp	r0, #0
 366 0072 09D1     		bne	.L23
 523:Generated_Source\PSoC4/ble.c ****                 
 367              		.loc 1 523 0
 368 0074 0122     		mov	r2, #1
 369 0076 0C4B     		ldr	r3, .L25+28
 370 0078 1A70     		strb	r2, [r3]
 530:Generated_Source\PSoC4/ble.c ****             #endif /* CYBLE_GATT_ROLE_SERVER */
 371              		.loc 1 530 0
 372 007a 0C48     		ldr	r0, .L25+32
 373              	.LVL36:
 374 007c 1621     		mov	r1, #22
 375 007e 0A32     		add	r2, r2, #10
 376 0080 FFF7FEFF 		bl	CyBle_GattsDbRegister
 377              	.LVL37:
ARM GAS  C:\Users\Sarah\AppData\Local\Temp\ccLQenA3.s 			page 31


 378 0084 00E0     		b	.L23
 379              	.LVL38:
 380              	.L24:
 537:Generated_Source\PSoC4/ble.c ****     }
 381              		.loc 1 537 0
 382 0086 0120     		mov	r0, #1
 383              	.LVL39:
 384              	.L23:
 541:Generated_Source\PSoC4/ble.c **** 
 385              		.loc 1 541 0
 386 0088 10B0     		add	sp, sp, #64
 387              		@ sp needed
 388              	.LVL40:
 389 008a 10BD     		pop	{r4, pc}
 390              	.L26:
 391              		.align	2
 392              	.L25:
 393 008c 00000000 		.word	.LANCHOR2
 394 0090 00000000 		.word	.LANCHOR1
 395 0094 00000000 		.word	CyBle_ApplCallback
 396 0098 00000000 		.word	cyBle_flashStorage
 397 009c 79020000 		.word	633
 398 00a0 00000000 		.word	CyBle_EventHandler
 399 00a4 00000000 		.word	.LANCHOR3
 400 00a8 00000000 		.word	cyBle_state
 401 00ac 00000000 		.word	cyBle_gattDB
 402              		.cfi_endproc
 403              	.LFE4:
 404              		.size	CyBle_Start, .-CyBle_Start
 405              		.section	.text.CyBle_Stop,"ax",%progbits
 406              		.align	2
 407              		.global	CyBle_Stop
 408              		.code	16
 409              		.thumb_func
 410              		.type	CyBle_Stop, %function
 411              	CyBle_Stop:
 412              	.LFB5:
 557:Generated_Source\PSoC4/ble.c ****     CyBle_Shutdown();                         /* Stop all ongoing activities */
 413              		.loc 1 557 0
 414              		.cfi_startproc
 415 0000 08B5     		push	{r3, lr}
 416              		.cfi_def_cfa_offset 8
 417              		.cfi_offset 3, -8
 418              		.cfi_offset 14, -4
 558:Generated_Source\PSoC4/ble.c ****     CyBle_SetState(CYBLE_STATE_STOPPED);
 419              		.loc 1 558 0
 420 0002 FFF7FEFF 		bl	CyBle_Shutdown
 421              	.LVL41:
 559:Generated_Source\PSoC4/ble.c ****     #if(CYBLE_SHARING_MODE_EXPORT)
 422              		.loc 1 559 0
 423 0006 0022     		mov	r2, #0
 424 0008 014B     		ldr	r3, .L28
 425 000a 1A70     		strb	r2, [r3]
 566:Generated_Source\PSoC4/ble.c **** 
 426              		.loc 1 566 0
 427              		@ sp needed
 428 000c 08BD     		pop	{r3, pc}
ARM GAS  C:\Users\Sarah\AppData\Local\Temp\ccLQenA3.s 			page 32


 429              	.L29:
 430 000e C046     		.align	2
 431              	.L28:
 432 0010 00000000 		.word	cyBle_state
 433              		.cfi_endproc
 434              	.LFE5:
 435              		.size	CyBle_Stop, .-CyBle_Stop
 436              		.section	.text.CyBle_StoreBondingData,"ax",%progbits
 437              		.align	2
 438              		.global	CyBle_StoreBondingData
 439              		.code	16
 440              		.thumb_func
 441              		.type	CyBle_StoreBondingData, %function
 442              	CyBle_StoreBondingData:
 443              	.LFB6:
 612:Generated_Source\PSoC4/ble.c ****     CYBLE_API_RESULT_T apiResult = CYBLE_ERROR_OK;
 444              		.loc 1 612 0
 445              		.cfi_startproc
 446              	.LVL42:
 447 0000 10B5     		push	{r4, lr}
 448              		.cfi_def_cfa_offset 8
 449              		.cfi_offset 4, -8
 450              		.cfi_offset 14, -4
 451 0002 86B0     		sub	sp, sp, #24
 452              		.cfi_def_cfa_offset 32
 453 0004 041C     		mov	r4, r0
 454              	.LVL43:
 616:Generated_Source\PSoC4/ble.c ****     {
 455              		.loc 1 616 0
 456 0006 334B     		ldr	r3, .L41
 457 0008 1B78     		ldrb	r3, [r3]
 458 000a DB07     		lsl	r3, r3, #31
 459 000c 0BD5     		bpl	.L39
 618:Generated_Source\PSoC4/ble.c ****         if(apiResult == CYBLE_ERROR_OK)
 460              		.loc 1 618 0
 461 000e FFF7FEFF 		bl	CyBle_StoreStackData
 462              	.LVL44:
 619:Generated_Source\PSoC4/ble.c ****         {
 463              		.loc 1 619 0
 464 0012 0028     		cmp	r0, #0
 465 0014 0AD1     		bne	.L31
 621:Generated_Source\PSoC4/ble.c ****             /* Change apiResult if there are more pending data to store */
 466              		.loc 1 621 0
 467 0016 2F4A     		ldr	r2, .L41
 468 0018 1378     		ldrb	r3, [r2]
 469 001a 0121     		mov	r1, #1
 470 001c 8B43     		bic	r3, r1
 471 001e 1370     		strb	r3, [r2]
 623:Generated_Source\PSoC4/ble.c ****             {
 472              		.loc 1 623 0
 473 0020 9B07     		lsl	r3, r3, #30
 474 0022 02D4     		bmi	.L40
 475 0024 02E0     		b	.L31
 476              	.LVL45:
 477              	.L39:
 613:Generated_Source\PSoC4/ble.c ****     
 478              		.loc 1 613 0
ARM GAS  C:\Users\Sarah\AppData\Local\Temp\ccLQenA3.s 			page 33


 479 0026 0020     		mov	r0, #0
 480              	.LVL46:
 481 0028 00E0     		b	.L31
 482              	.LVL47:
 483              	.L40:
 625:Generated_Source\PSoC4/ble.c ****             }
 484              		.loc 1 625 0
 485 002a 2820     		mov	r0, #40
 486              	.LVL48:
 487              	.L31:
 631:Generated_Source\PSoC4/ble.c ****         ((cyBle_pendingFlashWrite & CYBLE_PENDING_CCCD_FLASH_WRITE_BIT) != 0u) &&
 488              		.loc 1 631 0
 489 002c 0028     		cmp	r0, #0
 490 002e 01D0     		beq	.L32
 631:Generated_Source\PSoC4/ble.c ****         ((cyBle_pendingFlashWrite & CYBLE_PENDING_CCCD_FLASH_WRITE_BIT) != 0u) &&
 491              		.loc 1 631 0 is_stmt 0 discriminator 2
 492 0030 002C     		cmp	r4, #0
 493 0032 18D0     		beq	.L33
 494              	.L32:
 632:Generated_Source\PSoC4/ble.c ****         (cyBle_connHandle.bdHandle <= CYBLE_GAP_MAX_BONDED_DEVICE))
 495              		.loc 1 632 0 is_stmt 1 discriminator 3
 496 0034 274B     		ldr	r3, .L41
 497 0036 1B78     		ldrb	r3, [r3]
 631:Generated_Source\PSoC4/ble.c ****         ((cyBle_pendingFlashWrite & CYBLE_PENDING_CCCD_FLASH_WRITE_BIT) != 0u) &&
 498              		.loc 1 631 0 discriminator 3
 499 0038 9B07     		lsl	r3, r3, #30
 500 003a 14D5     		bpl	.L33
 633:Generated_Source\PSoC4/ble.c ****     {
 501              		.loc 1 633 0
 502 003c 264B     		ldr	r3, .L41+4
 503 003e 1978     		ldrb	r1, [r3]
 632:Generated_Source\PSoC4/ble.c ****         (cyBle_connHandle.bdHandle <= CYBLE_GAP_MAX_BONDED_DEVICE))
 504              		.loc 1 632 0
 505 0040 0429     		cmp	r1, #4
 506 0042 10D8     		bhi	.L33
 635:Generated_Source\PSoC4/ble.c ****                         cyBle_connHandle.bdHandle], CYBLE_GATT_DB_CCCD_COUNT, isForceWrite);
 507              		.loc 1 635 0
 508 0044 9E31     		add	r1, r1, #158
 509 0046 8900     		lsl	r1, r1, #2
 510 0048 244B     		ldr	r3, .L41+8
 511 004a C918     		add	r1, r1, r3
 512 004c 0131     		add	r1, r1, #1
 513 004e 2448     		ldr	r0, .L41+12
 514              	.LVL49:
 515 0050 0422     		mov	r2, #4
 516 0052 231C     		mov	r3, r4
 517 0054 FFF7FEFF 		bl	CyBle_StoreAppData
 518              	.LVL50:
 637:Generated_Source\PSoC4/ble.c ****         {
 519              		.loc 1 637 0
 520 0058 0028     		cmp	r0, #0
 521 005a 04D1     		bne	.L33
 639:Generated_Source\PSoC4/ble.c ****         }
 522              		.loc 1 639 0
 523 005c 1D4A     		ldr	r2, .L41
 524 005e 1378     		ldrb	r3, [r2]
 525 0060 0221     		mov	r1, #2
ARM GAS  C:\Users\Sarah\AppData\Local\Temp\ccLQenA3.s 			page 34


 526 0062 8B43     		bic	r3, r1
 527 0064 1370     		strb	r3, [r2]
 528              	.LVL51:
 529              	.L33:
 643:Generated_Source\PSoC4/ble.c ****         ((cyBle_pendingFlashWrite & CYBLE_PENDING_CCCD_FLASH_CLEAR_MASK) != 0u) )
 530              		.loc 1 643 0
 531 0066 0028     		cmp	r0, #0
 532 0068 01D0     		beq	.L34
 643:Generated_Source\PSoC4/ble.c ****         ((cyBle_pendingFlashWrite & CYBLE_PENDING_CCCD_FLASH_CLEAR_MASK) != 0u) )
 533              		.loc 1 643 0 is_stmt 0 discriminator 2
 534 006a 002C     		cmp	r4, #0
 535 006c 30D0     		beq	.L35
 536              	.L34:
 644:Generated_Source\PSoC4/ble.c ****     {
 537              		.loc 1 644 0 is_stmt 1 discriminator 3
 538 006e 194B     		ldr	r3, .L41
 539 0070 1B78     		ldrb	r3, [r3]
 643:Generated_Source\PSoC4/ble.c ****         ((cyBle_pendingFlashWrite & CYBLE_PENDING_CCCD_FLASH_CLEAR_MASK) != 0u) )
 540              		.loc 1 643 0 discriminator 3
 541 0072 0C22     		mov	r2, #12
 542 0074 1A42     		tst	r2, r3
 543 0076 2BD0     		beq	.L35
 646:Generated_Source\PSoC4/ble.c ****         {
 544              		.loc 1 646 0
 545 0078 1B07     		lsl	r3, r3, #28
 546 007a 13D5     		bpl	.L36
 547              	.LBB3:
 651:Generated_Source\PSoC4/ble.c **** 
 548              		.loc 1 651 0
 549 007c 0023     		mov	r3, #0
 550 007e 0193     		str	r3, [sp, #4]
 551 0080 0293     		str	r3, [sp, #8]
 552 0082 0393     		str	r3, [sp, #12]
 553 0084 0493     		str	r3, [sp, #16]
 554 0086 0593     		str	r3, [sp, #20]
 653:Generated_Source\PSoC4/ble.c ****                 (const uint8 *)cyBle_flashStorage.attValuesCCCDFlashMemory, sizeof(defaultValuesCCC
 555              		.loc 1 653 0
 556 0088 01A8     		add	r0, sp, #4
 557              	.LVL52:
 558 008a 1649     		ldr	r1, .L41+16
 559 008c 0832     		add	r2, r2, #8
 560 008e 231C     		mov	r3, r4
 561 0090 FFF7FEFF 		bl	CyBle_StoreAppData
 562              	.LVL53:
 655:Generated_Source\PSoC4/ble.c ****             {
 563              		.loc 1 655 0
 564 0094 0028     		cmp	r0, #0
 565 0096 1BD1     		bne	.L35
 657:Generated_Source\PSoC4/ble.c ****             }
 566              		.loc 1 657 0
 567 0098 0E4A     		ldr	r2, .L41
 568 009a 1378     		ldrb	r3, [r2]
 569 009c 0821     		mov	r1, #8
 570 009e 8B43     		bic	r3, r1
 571 00a0 1370     		strb	r3, [r2]
 572 00a2 15E0     		b	.L35
 573              	.L36:
ARM GAS  C:\Users\Sarah\AppData\Local\Temp\ccLQenA3.s 			page 35


 574              	.LBE3:
 575              	.LBB4:
 662:Generated_Source\PSoC4/ble.c ****             
 576              		.loc 1 662 0
 577 00a4 0023     		mov	r3, #0
 578 00a6 0193     		str	r3, [sp, #4]
 664:Generated_Source\PSoC4/ble.c ****                                     cyBle_pendingFlashClearCccdHandle], CYBLE_GATT_DB_CCCD_COUNT, i
 579              		.loc 1 664 0
 580 00a8 2133     		add	r3, r3, #33
 581 00aa 0F4A     		ldr	r2, .L41+20
 582 00ac D15C     		ldrb	r1, [r2, r3]
 583 00ae 9E31     		add	r1, r1, #158
 584 00b0 8900     		lsl	r1, r1, #2
 585 00b2 0A4B     		ldr	r3, .L41+8
 586 00b4 C918     		add	r1, r1, r3
 587 00b6 0131     		add	r1, r1, #1
 588 00b8 01A8     		add	r0, sp, #4
 589              	.LVL54:
 590 00ba 0422     		mov	r2, #4
 591 00bc 231C     		mov	r3, r4
 592 00be FFF7FEFF 		bl	CyBle_StoreAppData
 593              	.LVL55:
 666:Generated_Source\PSoC4/ble.c ****             {
 594              		.loc 1 666 0
 595 00c2 0028     		cmp	r0, #0
 596 00c4 04D1     		bne	.L35
 668:Generated_Source\PSoC4/ble.c ****             }
 597              		.loc 1 668 0
 598 00c6 034A     		ldr	r2, .L41
 599 00c8 1378     		ldrb	r3, [r2]
 600 00ca 0421     		mov	r1, #4
 601 00cc 8B43     		bic	r3, r1
 602 00ce 1370     		strb	r3, [r2]
 603              	.LVL56:
 604              	.L35:
 605              	.LBE4:
 674:Generated_Source\PSoC4/ble.c **** 
 606              		.loc 1 674 0
 607 00d0 06B0     		add	sp, sp, #24
 608              		@ sp needed
 609 00d2 10BD     		pop	{r4, pc}
 610              	.L42:
 611              		.align	2
 612              	.L41:
 613 00d4 00000000 		.word	cyBle_pendingFlashWrite
 614 00d8 00000000 		.word	cyBle_connHandle
 615 00dc 00000000 		.word	cyBle_flashStorage
 616 00e0 00000000 		.word	cyBle_attValuesCCCD
 617 00e4 79020000 		.word	cyBle_flashStorage+633
 618 00e8 00000000 		.word	.LANCHOR1
 619              		.cfi_endproc
 620              	.LFE6:
 621              		.size	CyBle_StoreBondingData, .-CyBle_StoreBondingData
 622              		.section	.text.CyBle_GapRemoveBondedDevice,"ax",%progbits
 623              		.align	2
 624              		.global	CyBle_GapRemoveBondedDevice
 625              		.code	16
ARM GAS  C:\Users\Sarah\AppData\Local\Temp\ccLQenA3.s 			page 36


 626              		.thumb_func
 627              		.type	CyBle_GapRemoveBondedDevice, %function
 628              	CyBle_GapRemoveBondedDevice:
 629              	.LFB7:
 710:Generated_Source\PSoC4/ble.c ****     CYBLE_API_RESULT_T apiResult = CYBLE_ERROR_OK;
 630              		.loc 1 710 0
 631              		.cfi_startproc
 632              	.LVL57:
 633 0000 30B5     		push	{r4, r5, lr}
 634              		.cfi_def_cfa_offset 12
 635              		.cfi_offset 4, -12
 636              		.cfi_offset 5, -8
 637              		.cfi_offset 14, -4
 638 0002 85B0     		sub	sp, sp, #20
 639              		.cfi_def_cfa_offset 32
 640              	.LVL58:
 713:Generated_Source\PSoC4/ble.c ****     {
 641              		.loc 1 713 0
 642 0004 184B     		ldr	r3, .L49
 643 0006 1D78     		ldrb	r5, [r3]
 644 0008 002D     		cmp	r5, #0
 645 000a 2AD1     		bne	.L48
 646 000c 041C     		mov	r4, r0
 647              	.LBB5:
 719:Generated_Source\PSoC4/ble.c **** 
 648              		.loc 1 719 0
 649 000e 02A9     		add	r1, sp, #8
 650 0010 0023     		mov	r3, #0
 651 0012 0B70     		strb	r3, [r1]
 652 0014 4B70     		strb	r3, [r1, #1]
 653 0016 8B70     		strb	r3, [r1, #2]
 654 0018 CB70     		strb	r3, [r1, #3]
 655 001a 0B71     		strb	r3, [r1, #4]
 656 001c 4B71     		strb	r3, [r1, #5]
 657 001e 8B71     		strb	r3, [r1, #6]
 721:Generated_Source\PSoC4/ble.c **** 	    {
 658              		.loc 1 721 0
 659 0020 0622     		mov	r2, #6
 660 0022 FFF7FEFF 		bl	memcmp
 661              	.LVL59:
 662 0026 0028     		cmp	r0, #0
 663 0028 04D1     		bne	.L45
 724:Generated_Source\PSoC4/ble.c ****         }
 664              		.loc 1 724 0
 665 002a 0823     		mov	r3, #8
 666 002c 1D43     		orr	r5, r3
 667 002e 0E4B     		ldr	r3, .L49
 668 0030 1D70     		strb	r5, [r3]
 669 0032 10E0     		b	.L46
 670              	.L45:
 729:Generated_Source\PSoC4/ble.c ****             if(apiResult == CYBLE_ERROR_OK)
 671              		.loc 1 729 0
 672 0034 6B46     		mov	r3, sp
 673 0036 D81D     		add	r0, r3, #7
 674 0038 211C     		mov	r1, r4
 675 003a FFF7FEFF 		bl	CyBle_GapGetPeerBdHandle
 676              	.LVL60:
ARM GAS  C:\Users\Sarah\AppData\Local\Temp\ccLQenA3.s 			page 37


 730:Generated_Source\PSoC4/ble.c ****             {
 677              		.loc 1 730 0
 678 003e 0028     		cmp	r0, #0
 679 0040 09D1     		bne	.L46
 733:Generated_Source\PSoC4/ble.c ****                 cyBle_pendingFlashClearCccdHandle = bDevHandle;
 680              		.loc 1 733 0
 681 0042 094A     		ldr	r2, .L49
 682 0044 1178     		ldrb	r1, [r2]
 683 0046 0423     		mov	r3, #4
 684 0048 0B43     		orr	r3, r1
 685 004a 1370     		strb	r3, [r2]
 734:Generated_Source\PSoC4/ble.c ****             }
 686              		.loc 1 734 0
 687 004c 6B46     		mov	r3, sp
 688 004e D979     		ldrb	r1, [r3, #7]
 689 0050 2123     		mov	r3, #33
 690 0052 064A     		ldr	r2, .L49+4
 691 0054 D154     		strb	r1, [r2, r3]
 692              	.LVL61:
 693              	.L46:
 738:Generated_Source\PSoC4/ble.c ****         {
 694              		.loc 1 738 0
 695 0056 0028     		cmp	r0, #0
 696 0058 04D1     		bne	.L44
 740:Generated_Source\PSoC4/ble.c ****         }
 697              		.loc 1 740 0
 698 005a 201C     		mov	r0, r4
 699              	.LVL62:
 700 005c FFF7FEFF 		bl	CyBle_GapRemoveDeviceFromWhiteList
 701              	.LVL63:
 702 0060 00E0     		b	.L44
 703              	.LVL64:
 704              	.L48:
 705              	.LBE5:
 745:Generated_Source\PSoC4/ble.c ****     }
 706              		.loc 1 745 0
 707 0062 0220     		mov	r0, #2
 708              	.LVL65:
 709              	.L44:
 749:Generated_Source\PSoC4/ble.c **** 
 710              		.loc 1 749 0
 711 0064 05B0     		add	sp, sp, #20
 712              		@ sp needed
 713 0066 30BD     		pop	{r4, r5, pc}
 714              	.L50:
 715              		.align	2
 716              	.L49:
 717 0068 00000000 		.word	cyBle_pendingFlashWrite
 718 006c 00000000 		.word	.LANCHOR1
 719              		.cfi_endproc
 720              	.LFE7:
 721              		.size	CyBle_GapRemoveBondedDevice, .-CyBle_GapRemoveBondedDevice
 722              		.section	.text.CyBle_GappStartAdvertisement,"ax",%progbits
 723              		.align	2
 724              		.global	CyBle_GappStartAdvertisement
 725              		.code	16
 726              		.thumb_func
ARM GAS  C:\Users\Sarah\AppData\Local\Temp\ccLQenA3.s 			page 38


 727              		.type	CyBle_GappStartAdvertisement, %function
 728              	CyBle_GappStartAdvertisement:
 729              	.LFB8:
 807:Generated_Source\PSoC4/ble.c ****         CYBLE_API_RESULT_T apiResult;
 730              		.loc 1 807 0
 731              		.cfi_startproc
 732              	.LVL66:
 733 0000 08B5     		push	{r3, lr}
 734              		.cfi_def_cfa_offset 8
 735              		.cfi_offset 3, -8
 736              		.cfi_offset 14, -4
 810:Generated_Source\PSoC4/ble.c ****         {
 737              		.loc 1 810 0
 738 0002 0228     		cmp	r0, #2
 739 0004 2ED8     		bhi	.L55
 814:Generated_Source\PSoC4/ble.c ****         {   
 740              		.loc 1 814 0
 741 0006 1B4B     		ldr	r3, .L58
 742 0008 1B78     		ldrb	r3, [r3]
 743 000a 062B     		cmp	r3, #6
 744 000c 2CD1     		bne	.L56
 814:Generated_Source\PSoC4/ble.c ****         {   
 745              		.loc 1 814 0 is_stmt 0 discriminator 1
 746 000e 1A4B     		ldr	r3, .L58+4
 747 0010 1B78     		ldrb	r3, [r3]
 748 0012 5B07     		lsl	r3, r3, #29
 749 0014 2BD4     		bmi	.L57
 816:Generated_Source\PSoC4/ble.c ****             {
 750              		.loc 1 816 0 is_stmt 1
 751 0016 0028     		cmp	r0, #0
 752 0018 09D1     		bne	.L53
 818:Generated_Source\PSoC4/ble.c ****                 cyBle_discoveryModeInfo.advParam->advIntvMin = CYBLE_FAST_ADV_INT_MIN;
 753              		.loc 1 818 0
 754 001a 184B     		ldr	r3, .L58+8
 755 001c 0022     		mov	r2, #0
 756 001e 9A87     		strh	r2, [r3, #60]
 819:Generated_Source\PSoC4/ble.c ****                 cyBle_discoveryModeInfo.advParam->advIntvMax = CYBLE_FAST_ADV_INT_MAX;
 757              		.loc 1 819 0
 758 0020 2032     		add	r2, r2, #32
 759 0022 196B     		ldr	r1, [r3, #48]
 760 0024 0A80     		strh	r2, [r1]
 820:Generated_Source\PSoC4/ble.c ****             }
 761              		.loc 1 820 0
 762 0026 1B6B     		ldr	r3, [r3, #48]
 763 0028 1032     		add	r2, r2, #16
 764 002a 5A80     		strh	r2, [r3, #2]
 765 002c 0CE0     		b	.L54
 766              	.L53:
 822:Generated_Source\PSoC4/ble.c ****             {
 767              		.loc 1 822 0
 768 002e 0128     		cmp	r0, #1
 769 0030 0AD1     		bne	.L54
 824:Generated_Source\PSoC4/ble.c ****                 cyBle_discoveryModeInfo.advParam->advIntvMin = CYBLE_SLOW_ADV_INT_MIN;
 770              		.loc 1 824 0
 771 0032 124B     		ldr	r3, .L58+8
 772 0034 9622     		mov	r2, #150
 773 0036 9A87     		strh	r2, [r3, #60]
ARM GAS  C:\Users\Sarah\AppData\Local\Temp\ccLQenA3.s 			page 39


 825:Generated_Source\PSoC4/ble.c ****                 cyBle_discoveryModeInfo.advParam->advIntvMax = CYBLE_SLOW_ADV_INT_MAX;
 774              		.loc 1 825 0
 775 0038 C822     		mov	r2, #200
 776 003a D200     		lsl	r2, r2, #3
 777 003c 196B     		ldr	r1, [r3, #48]
 778 003e 0A80     		strh	r2, [r1]
 826:Generated_Source\PSoC4/ble.c ****             }       
 779              		.loc 1 826 0
 780 0040 1B6B     		ldr	r3, [r3, #48]
 781 0042 8022     		mov	r2, #128
 782 0044 D201     		lsl	r2, r2, #7
 783 0046 5A80     		strh	r2, [r3, #2]
 784              	.L54:
 831:Generated_Source\PSoC4/ble.c ****             apiResult = CyBle_GappEnterDiscoveryMode(&cyBle_discoveryModeInfo);
 785              		.loc 1 831 0
 786 0048 0D4B     		ldr	r3, .L58+12
 787 004a 1870     		strb	r0, [r3]
 832:Generated_Source\PSoC4/ble.c ****         
 788              		.loc 1 832 0
 789 004c 0B48     		ldr	r0, .L58+8
 790              	.LVL67:
 791 004e 2C30     		add	r0, r0, #44
 792 0050 FFF7FEFF 		bl	CyBle_GappEnterDiscoveryMode
 793              	.LVL68:
 834:Generated_Source\PSoC4/ble.c ****             {
 794              		.loc 1 834 0
 795 0054 0028     		cmp	r0, #0
 796 0056 0CD1     		bne	.L52
 836:Generated_Source\PSoC4/ble.c ****             }
 797              		.loc 1 836 0
 798 0058 074A     		ldr	r2, .L58+4
 799 005a 1178     		ldrb	r1, [r2]
 800 005c 0423     		mov	r3, #4
 801 005e 0B43     		orr	r3, r1
 802 0060 1370     		strb	r3, [r2]
 803 0062 06E0     		b	.L52
 804              	.LVL69:
 805              	.L55:
 812:Generated_Source\PSoC4/ble.c ****         }
 806              		.loc 1 812 0
 807 0064 0120     		mov	r0, #1
 808              	.LVL70:
 809 0066 04E0     		b	.L52
 810              	.LVL71:
 811              	.L56:
 841:Generated_Source\PSoC4/ble.c ****         }
 812              		.loc 1 841 0
 813 0068 0420     		mov	r0, #4
 814              	.LVL72:
 815 006a FF30     		add	r0, r0, #255
 816 006c 01E0     		b	.L52
 817              	.LVL73:
 818              	.L57:
 819 006e 0420     		mov	r0, #4
 820              	.LVL74:
 821 0070 FF30     		add	r0, r0, #255
 822              	.L52:
ARM GAS  C:\Users\Sarah\AppData\Local\Temp\ccLQenA3.s 			page 40


 823              	.LVL75:
 845:Generated_Source\PSoC4/ble.c **** 
 824              		.loc 1 845 0
 825              		@ sp needed
 826 0072 08BD     		pop	{r3, pc}
 827              	.L59:
 828              		.align	2
 829              	.L58:
 830 0074 00000000 		.word	cyBle_state
 831 0078 00000000 		.word	cyBle_eventHandlerFlag
 832 007c 00000000 		.word	.LANCHOR0
 833 0080 00000000 		.word	cyBle_advertisingIntervalType
 834              		.cfi_endproc
 835              	.LFE8:
 836              		.size	CyBle_GappStartAdvertisement, .-CyBle_GappStartAdvertisement
 837              		.section	.text.CyBle_GappStopAdvertisement,"ax",%progbits
 838              		.align	2
 839              		.global	CyBle_GappStopAdvertisement
 840              		.code	16
 841              		.thumb_func
 842              		.type	CyBle_GappStopAdvertisement, %function
 843              	CyBle_GappStopAdvertisement:
 844              	.LFB9:
 868:Generated_Source\PSoC4/ble.c ****         CyBle_GappExitDiscoveryMode();
 845              		.loc 1 868 0
 846              		.cfi_startproc
 847 0000 08B5     		push	{r3, lr}
 848              		.cfi_def_cfa_offset 8
 849              		.cfi_offset 3, -8
 850              		.cfi_offset 14, -4
 869:Generated_Source\PSoC4/ble.c ****         cyBle_eventHandlerFlag |= CYBLE_STOP_FLAG;
 851              		.loc 1 869 0
 852 0002 FFF7FEFF 		bl	CyBle_GappExitDiscoveryMode
 853              	.LVL76:
 870:Generated_Source\PSoC4/ble.c ****     }
 854              		.loc 1 870 0
 855 0006 034A     		ldr	r2, .L61
 856 0008 1178     		ldrb	r1, [r2]
 857 000a 0823     		mov	r3, #8
 858 000c 0B43     		orr	r3, r1
 859 000e 1370     		strb	r3, [r2]
 871:Generated_Source\PSoC4/ble.c ****     
 860              		.loc 1 871 0
 861              		@ sp needed
 862 0010 08BD     		pop	{r3, pc}
 863              	.L62:
 864 0012 C046     		.align	2
 865              	.L61:
 866 0014 00000000 		.word	cyBle_eventHandlerFlag
 867              		.cfi_endproc
 868              	.LFE9:
 869              		.size	CyBle_GappStopAdvertisement, .-CyBle_GappStopAdvertisement
 870              		.section	.text.CyBle_ChangeAdDeviceAddress,"ax",%progbits
 871              		.align	2
 872              		.global	CyBle_ChangeAdDeviceAddress
 873              		.code	16
 874              		.thumb_func
ARM GAS  C:\Users\Sarah\AppData\Local\Temp\ccLQenA3.s 			page 41


 875              		.type	CyBle_ChangeAdDeviceAddress, %function
 876              	CyBle_ChangeAdDeviceAddress:
 877              	.LFB10:
 890:Generated_Source\PSoC4/ble.c ****         uint8 i;
 878              		.loc 1 890 0
 879              		.cfi_startproc
 880              	.LVL77:
 917:Generated_Source\PSoC4/ble.c ****   
 881              		.loc 1 917 0
 882              		@ sp needed
 883 0000 7047     		bx	lr
 884              		.cfi_endproc
 885              	.LFE10:
 886              		.size	CyBle_ChangeAdDeviceAddress, .-CyBle_ChangeAdDeviceAddress
 887 0002 C046     		.section	.text.CyBle_GapcStartScan,"ax",%progbits
 888              		.align	2
 889              		.global	CyBle_GapcStartScan
 890              		.code	16
 891              		.thumb_func
 892              		.type	CyBle_GapcStartScan, %function
 893              	CyBle_GapcStartScan:
 894              	.LFB11:
 996:Generated_Source\PSoC4/ble.c ****         CYBLE_API_RESULT_T apiResult;
 895              		.loc 1 996 0
 896              		.cfi_startproc
 897              	.LVL78:
 898 0000 08B5     		push	{r3, lr}
 899              		.cfi_def_cfa_offset 8
 900              		.cfi_offset 3, -8
 901              		.cfi_offset 14, -4
 999:Generated_Source\PSoC4/ble.c ****         {
 902              		.loc 1 999 0
 903 0002 0228     		cmp	r0, #2
 904 0004 20D8     		bhi	.L68
1005:Generated_Source\PSoC4/ble.c ****             {
 905              		.loc 1 1005 0
 906 0006 0028     		cmp	r0, #0
 907 0008 06D1     		bne	.L66
1007:Generated_Source\PSoC4/ble.c ****                 cyBle_discoveryInfo.scanIntv = CYBLE_FAST_SCAN_INTERVAL;
 908              		.loc 1 1007 0
 909 000a 104B     		ldr	r3, .L69
 910 000c 1E22     		mov	r2, #30
 911 000e 1A85     		strh	r2, [r3, #40]
1008:Generated_Source\PSoC4/ble.c ****                 cyBle_discoveryInfo.scanWindow = CYBLE_FAST_SCAN_WINDOW;
 912              		.loc 1 1008 0
 913 0010 1232     		add	r2, r2, #18
 914 0012 5A84     		strh	r2, [r3, #34]
1009:Generated_Source\PSoC4/ble.c ****             }
 915              		.loc 1 1009 0
 916 0014 9A84     		strh	r2, [r3, #36]
 917 0016 09E0     		b	.L67
 918              	.L66:
1011:Generated_Source\PSoC4/ble.c ****             {
 919              		.loc 1 1011 0
 920 0018 0128     		cmp	r0, #1
 921 001a 07D1     		bne	.L67
1013:Generated_Source\PSoC4/ble.c ****                 cyBle_discoveryInfo.scanIntv = CYBLE_SLOW_SCAN_INTERVAL;
ARM GAS  C:\Users\Sarah\AppData\Local\Temp\ccLQenA3.s 			page 42


 922              		.loc 1 1013 0
 923 001c 0B4B     		ldr	r3, .L69
 924 001e 9622     		mov	r2, #150
 925 0020 1A85     		strh	r2, [r3, #40]
1014:Generated_Source\PSoC4/ble.c ****                 cyBle_discoveryInfo.scanWindow = CYBLE_SLOW_SCAN_WINDOW;
 926              		.loc 1 1014 0
 927 0022 8022     		mov	r2, #128
 928 0024 1201     		lsl	r2, r2, #4
 929 0026 5A84     		strh	r2, [r3, #34]
1015:Generated_Source\PSoC4/ble.c ****             }       
 930              		.loc 1 1015 0
 931 0028 F83A     		sub	r2, r2, #248
 932 002a 9A84     		strh	r2, [r3, #36]
 933              	.L67:
1021:Generated_Source\PSoC4/ble.c ****             apiResult = CyBle_GapcStartDiscovery(&cyBle_discoveryInfo);
 934              		.loc 1 1021 0
 935 002c 084B     		ldr	r3, .L69+4
 936 002e 1870     		strb	r0, [r3]
1022:Generated_Source\PSoC4/ble.c ****         
 937              		.loc 1 1022 0
 938 0030 0648     		ldr	r0, .L69
 939              	.LVL79:
 940 0032 2030     		add	r0, r0, #32
 941 0034 FFF7FEFF 		bl	CyBle_GapcStartDiscovery
 942              	.LVL80:
1024:Generated_Source\PSoC4/ble.c ****             {
 943              		.loc 1 1024 0
 944 0038 0028     		cmp	r0, #0
 945 003a 06D1     		bne	.L65
1026:Generated_Source\PSoC4/ble.c ****             }
 946              		.loc 1 1026 0
 947 003c 054A     		ldr	r2, .L69+8
 948 003e 1178     		ldrb	r1, [r2]
 949 0040 0423     		mov	r3, #4
 950 0042 0B43     		orr	r3, r1
 951 0044 1370     		strb	r3, [r2]
 952 0046 00E0     		b	.L65
 953              	.LVL81:
 954              	.L68:
1001:Generated_Source\PSoC4/ble.c ****         }
 955              		.loc 1 1001 0
 956 0048 0120     		mov	r0, #1
 957              	.LVL82:
 958              	.L65:
1031:Generated_Source\PSoC4/ble.c ****     
 959              		.loc 1 1031 0
 960              		@ sp needed
 961 004a 08BD     		pop	{r3, pc}
 962              	.L70:
 963              		.align	2
 964              	.L69:
 965 004c 00000000 		.word	.LANCHOR0
 966 0050 00000000 		.word	cyBle_scanningIntervalType
 967 0054 00000000 		.word	cyBle_eventHandlerFlag
 968              		.cfi_endproc
 969              	.LFE11:
 970              		.size	CyBle_GapcStartScan, .-CyBle_GapcStartScan
ARM GAS  C:\Users\Sarah\AppData\Local\Temp\ccLQenA3.s 			page 43


 971              		.section	.text.CyBle_GapcStopScan,"ax",%progbits
 972              		.align	2
 973              		.global	CyBle_GapcStopScan
 974              		.code	16
 975              		.thumb_func
 976              		.type	CyBle_GapcStopScan, %function
 977              	CyBle_GapcStopScan:
 978              	.LFB12:
1052:Generated_Source\PSoC4/ble.c ****         CyBle_GapcStopDiscovery();
 979              		.loc 1 1052 0
 980              		.cfi_startproc
 981 0000 08B5     		push	{r3, lr}
 982              		.cfi_def_cfa_offset 8
 983              		.cfi_offset 3, -8
 984              		.cfi_offset 14, -4
1053:Generated_Source\PSoC4/ble.c ****         
 985              		.loc 1 1053 0
 986 0002 FFF7FEFF 		bl	CyBle_GapcStopDiscovery
 987              	.LVL83:
1055:Generated_Source\PSoC4/ble.c ****     }
 988              		.loc 1 1055 0
 989 0006 034A     		ldr	r2, .L72
 990 0008 1178     		ldrb	r1, [r2]
 991 000a 0823     		mov	r3, #8
 992 000c 0B43     		orr	r3, r1
 993 000e 1370     		strb	r3, [r2]
1056:Generated_Source\PSoC4/ble.c **** 
 994              		.loc 1 1056 0
 995              		@ sp needed
 996 0010 08BD     		pop	{r3, pc}
 997              	.L73:
 998 0012 C046     		.align	2
 999              	.L72:
 1000 0014 00000000 		.word	cyBle_eventHandlerFlag
 1001              		.cfi_endproc
 1002              	.LFE12:
 1003              		.size	CyBle_GapcStopScan, .-CyBle_GapcStopScan
 1004              		.section	.text.CyBle_GapcConnectDevice,"ax",%progbits
 1005              		.align	2
 1006              		.global	CyBle_GapcConnectDevice
 1007              		.code	16
 1008              		.thumb_func
 1009              		.type	CyBle_GapcConnectDevice, %function
 1010              	CyBle_GapcConnectDevice:
 1011              	.LFB13:
1105:Generated_Source\PSoC4/ble.c ****         CYBLE_API_RESULT_T apiResult;
 1012              		.loc 1 1105 0
 1013              		.cfi_startproc
 1014              	.LVL84:
 1015 0000 10B5     		push	{r4, lr}
 1016              		.cfi_def_cfa_offset 8
 1017              		.cfi_offset 4, -8
 1018              		.cfi_offset 14, -4
1109:Generated_Source\PSoC4/ble.c ****         {
 1019              		.loc 1 1109 0
 1020 0002 134B     		ldr	r3, .L80
 1021 0004 1B78     		ldrb	r3, [r3]
ARM GAS  C:\Users\Sarah\AppData\Local\Temp\ccLQenA3.s 			page 44


 1022 0006 062B     		cmp	r3, #6
 1023 0008 1CD1     		bne	.L78
1113:Generated_Source\PSoC4/ble.c ****         {
 1024              		.loc 1 1113 0
 1025 000a 0028     		cmp	r0, #0
 1026 000c 1DD0     		beq	.L79
 1027 000e 0023     		mov	r3, #0
 1028 0010 05E0     		b	.L76
 1029              	.LVL85:
 1030              	.L77:
1121:Generated_Source\PSoC4/ble.c ****             }
 1031              		.loc 1 1121 0 discriminator 3
 1032 0012 C15C     		ldrb	r1, [r0, r3]
 1033 0014 0F4A     		ldr	r2, .L80+4
 1034 0016 D218     		add	r2, r2, r3
 1035 0018 5171     		strb	r1, [r2, #5]
1119:Generated_Source\PSoC4/ble.c ****             {
 1036              		.loc 1 1119 0 discriminator 3
 1037 001a 0133     		add	r3, r3, #1
 1038              	.LVL86:
 1039 001c DBB2     		uxtb	r3, r3
 1040              	.LVL87:
 1041              	.L76:
1119:Generated_Source\PSoC4/ble.c ****             {
 1042              		.loc 1 1119 0 is_stmt 0 discriminator 1
 1043 001e 052B     		cmp	r3, #5
 1044 0020 F7D9     		bls	.L77
1123:Generated_Source\PSoC4/ble.c ****             apiResult = CyBle_GapcInitConnection(&cyBle_connectionParameters);
 1045              		.loc 1 1123 0 is_stmt 1
 1046 0022 8379     		ldrb	r3, [r0, #6]
 1047              	.LVL88:
 1048 0024 0B48     		ldr	r0, .L80+4
 1049              	.LVL89:
 1050 0026 C372     		strb	r3, [r0, #11]
1124:Generated_Source\PSoC4/ble.c ****             
 1051              		.loc 1 1124 0
 1052 0028 FFF7FEFF 		bl	CyBle_GapcInitConnection
 1053              	.LVL90:
 1054 002c 041E     		sub	r4, r0, #0
 1055              	.LVL91:
1126:Generated_Source\PSoC4/ble.c ****             {
 1056              		.loc 1 1126 0
 1057 002e 0DD1     		bne	.L75
1128:Generated_Source\PSoC4/ble.c ****                 if(cyBle_connectingTimeout != 0u)
 1058              		.loc 1 1128 0
 1059 0030 0522     		mov	r2, #5
 1060 0032 074B     		ldr	r3, .L80
 1061 0034 1A70     		strb	r2, [r3]
1129:Generated_Source\PSoC4/ble.c ****                 {
 1062              		.loc 1 1129 0
 1063 0036 084B     		ldr	r3, .L80+8
 1064 0038 1888     		ldrh	r0, [r3]
 1065              	.LVL92:
 1066 003a 0028     		cmp	r0, #0
 1067 003c 06D0     		beq	.L75
1131:Generated_Source\PSoC4/ble.c ****                 }
 1068              		.loc 1 1131 0
ARM GAS  C:\Users\Sarah\AppData\Local\Temp\ccLQenA3.s 			page 45


 1069 003e FFF7FEFF 		bl	CyBle_StartTimer
 1070              	.LVL93:
 1071 0042 03E0     		b	.L75
 1072              	.LVL94:
 1073              	.L78:
1111:Generated_Source\PSoC4/ble.c ****         }
 1074              		.loc 1 1111 0
 1075 0044 0424     		mov	r4, #4
 1076 0046 FF34     		add	r4, r4, #255
 1077 0048 00E0     		b	.L75
 1078              	.L79:
1115:Generated_Source\PSoC4/ble.c ****         }
 1079              		.loc 1 1115 0
 1080 004a 0124     		mov	r4, #1
 1081              	.LVL95:
 1082              	.L75:
1136:Generated_Source\PSoC4/ble.c ****     
 1083              		.loc 1 1136 0
 1084 004c 201C     		mov	r0, r4
 1085              		@ sp needed
 1086              	.LVL96:
 1087 004e 10BD     		pop	{r4, pc}
 1088              	.L81:
 1089              		.align	2
 1090              	.L80:
 1091 0050 00000000 		.word	cyBle_state
 1092 0054 00000000 		.word	cyBle_connectionParameters
 1093 0058 00000000 		.word	cyBle_connectingTimeout
 1094              		.cfi_endproc
 1095              	.LFE13:
 1096              		.size	CyBle_GapcConnectDevice, .-CyBle_GapcConnectDevice
 1097              		.section	.text.CyBle_GapcCancelDeviceConnection,"ax",%progbits
 1098              		.align	2
 1099              		.global	CyBle_GapcCancelDeviceConnection
 1100              		.code	16
 1101              		.thumb_func
 1102              		.type	CyBle_GapcCancelDeviceConnection, %function
 1103              	CyBle_GapcCancelDeviceConnection:
 1104              	.LFB14:
1161:Generated_Source\PSoC4/ble.c ****         CYBLE_API_RESULT_T apiResult;
 1105              		.loc 1 1161 0
 1106              		.cfi_startproc
 1107 0000 10B5     		push	{r4, lr}
 1108              		.cfi_def_cfa_offset 8
 1109              		.cfi_offset 4, -8
 1110              		.cfi_offset 14, -4
1164:Generated_Source\PSoC4/ble.c ****         {
 1111              		.loc 1 1164 0
 1112 0002 0B4B     		ldr	r3, .L86
 1113 0004 1B78     		ldrb	r3, [r3]
 1114 0006 052B     		cmp	r3, #5
 1115 0008 0ED1     		bne	.L85
1170:Generated_Source\PSoC4/ble.c ****             
 1116              		.loc 1 1170 0
 1117 000a FFF7FEFF 		bl	CyBle_GapcCancelConnection
 1118              	.LVL97:
 1119 000e 041C     		mov	r4, r0
ARM GAS  C:\Users\Sarah\AppData\Local\Temp\ccLQenA3.s 			page 46


 1120              	.LVL98:
1172:Generated_Source\PSoC4/ble.c ****             {
 1121              		.loc 1 1172 0
 1122 0010 084B     		ldr	r3, .L86+4
 1123 0012 1B88     		ldrh	r3, [r3]
 1124 0014 002B     		cmp	r3, #0
 1125 0016 01D0     		beq	.L84
1174:Generated_Source\PSoC4/ble.c ****             }
 1126              		.loc 1 1174 0
 1127 0018 FFF7FEFF 		bl	CyBle_StopTimer
 1128              	.LVL99:
 1129              	.L84:
1177:Generated_Source\PSoC4/ble.c ****             {
 1130              		.loc 1 1177 0
 1131 001c 002C     		cmp	r4, #0
 1132 001e 05D1     		bne	.L83
1179:Generated_Source\PSoC4/ble.c ****             }
 1133              		.loc 1 1179 0
 1134 0020 0622     		mov	r2, #6
 1135 0022 034B     		ldr	r3, .L86
 1136 0024 1A70     		strb	r2, [r3]
 1137 0026 01E0     		b	.L83
 1138              	.LVL100:
 1139              	.L85:
1166:Generated_Source\PSoC4/ble.c ****         }
 1140              		.loc 1 1166 0
 1141 0028 0424     		mov	r4, #4
 1142 002a FF34     		add	r4, r4, #255
 1143              	.L83:
 1144              	.LVL101:
1183:Generated_Source\PSoC4/ble.c **** 
 1145              		.loc 1 1183 0
 1146 002c 201C     		mov	r0, r4
 1147              		@ sp needed
 1148              	.LVL102:
 1149 002e 10BD     		pop	{r4, pc}
 1150              	.L87:
 1151              		.align	2
 1152              	.L86:
 1153 0030 00000000 		.word	cyBle_state
 1154 0034 00000000 		.word	cyBle_connectingTimeout
 1155              		.cfi_endproc
 1156              	.LFE14:
 1157              		.size	CyBle_GapcCancelDeviceConnection, .-CyBle_GapcCancelDeviceConnection
 1158              		.section	.text.CyBle_GapSetLocalName,"ax",%progbits
 1159              		.align	2
 1160              		.global	CyBle_GapSetLocalName
 1161              		.code	16
 1162              		.thumb_func
 1163              		.type	CyBle_GapSetLocalName, %function
 1164              	CyBle_GapSetLocalName:
 1165              	.LFB16:
1279:Generated_Source\PSoC4/ble.c ****         
1280:Generated_Source\PSoC4/ble.c **** #endif /* (CYBLE_GAP_ROLE_PERIPHERAL) */  
1281:Generated_Source\PSoC4/ble.c ****     
1282:Generated_Source\PSoC4/ble.c ****     
1283:Generated_Source\PSoC4/ble.c ****     /******************************************************************************
ARM GAS  C:\Users\Sarah\AppData\Local\Temp\ccLQenA3.s 			page 47


1284:Generated_Source\PSoC4/ble.c ****     * Function Name: CyBle_GapSetLocalName
1285:Generated_Source\PSoC4/ble.c ****     ***************************************************************************//**
1286:Generated_Source\PSoC4/ble.c ****     *  This API is used to set the local device name - a Characteristic of the 
1287:Generated_Source\PSoC4/ble.c ****     *  GAP Service. If the characteristic length entered in the component customizer
1288:Generated_Source\PSoC4/ble.c ****     *  is shorter than the string specified by the "name" parameter, the local device
1289:Generated_Source\PSoC4/ble.c ****     *  name will be cut to the length specified in the customizer.
1290:Generated_Source\PSoC4/ble.c ****     * 
1291:Generated_Source\PSoC4/ble.c ****     *  \param name: The local device name string. The name string to be written as
1292:Generated_Source\PSoC4/ble.c ****     *              the local device name. It represents a UTF-8 encoded User
1293:Generated_Source\PSoC4/ble.c ****     *              Friendly Descriptive Name for the device. The length of the local
1294:Generated_Source\PSoC4/ble.c ****     *              device string is entered into the component customizer and it can
1295:Generated_Source\PSoC4/ble.c ****     *              be set to a value from 0 to 248 bytes. If the name contained in
1296:Generated_Source\PSoC4/ble.c ****     *              the parameter is shorter than the length from the customizer, the
1297:Generated_Source\PSoC4/ble.c ****     *              end of the name is indicated by a NULL octet (0x00).
1298:Generated_Source\PSoC4/ble.c ****     * 
1299:Generated_Source\PSoC4/ble.c ****     * \return
1300:Generated_Source\PSoC4/ble.c ****     *  CYBLE_API_RESULT_T : Return value indicates if the function succeeded or 
1301:Generated_Source\PSoC4/ble.c ****     *  failed. Following are the possible error codes.
1302:Generated_Source\PSoC4/ble.c ****     *
1303:Generated_Source\PSoC4/ble.c ****     *   Errors codes                       | Description
1304:Generated_Source\PSoC4/ble.c ****     *   ------------                       | -----------
1305:Generated_Source\PSoC4/ble.c ****     *   CYBLE_ERROR_OK                     | Function completed successfully.
1306:Generated_Source\PSoC4/ble.c ****     *   CYBLE_ERROR_INVALID_PARAMETER      | On specifying NULL as input parameter
1307:Generated_Source\PSoC4/ble.c ****     *  
1308:Generated_Source\PSoC4/ble.c ****     *******************************************************************************/
1309:Generated_Source\PSoC4/ble.c ****     CYBLE_API_RESULT_T CyBle_GapSetLocalName(const char8 name[])
1310:Generated_Source\PSoC4/ble.c ****     {
 1166              		.loc 1 1310 0
 1167              		.cfi_startproc
 1168              	.LVL103:
 1169 0000 38B5     		push	{r3, r4, r5, lr}
 1170              		.cfi_def_cfa_offset 16
 1171              		.cfi_offset 3, -16
 1172              		.cfi_offset 4, -12
 1173              		.cfi_offset 5, -8
 1174              		.cfi_offset 14, -4
 1175              	.LVL104:
1311:Generated_Source\PSoC4/ble.c ****         CYBLE_API_RESULT_T apiResult = CYBLE_ERROR_OK;
1312:Generated_Source\PSoC4/ble.c ****         uint8 i;
1313:Generated_Source\PSoC4/ble.c ****         char8 *ptr;
1314:Generated_Source\PSoC4/ble.c ****         uint8 charLen;
1315:Generated_Source\PSoC4/ble.c **** 
1316:Generated_Source\PSoC4/ble.c ****         if(NULL != name)
 1176              		.loc 1 1316 0
 1177 0002 0028     		cmp	r0, #0
 1178 0004 26D0     		beq	.L94
1317:Generated_Source\PSoC4/ble.c ****         {
1318:Generated_Source\PSoC4/ble.c ****             /* Get the pointer to the Device Name characteristic  */
1319:Generated_Source\PSoC4/ble.c ****             ptr = (char8 *) CYBLE_GATT_DB_ATTR_GET_ATTR_GEN_PTR(cyBle_gaps.deviceNameCharHandle);
 1179              		.loc 1 1319 0
 1180 0006 144B     		ldr	r3, .L95
 1181 0008 5A88     		ldrh	r2, [r3, #2]
 1182 000a 511E     		sub	r1, r2, #1
 1183 000c 134D     		ldr	r5, .L95+4
 1184 000e 8A00     		lsl	r2, r1, #2
 1185 0010 5318     		add	r3, r2, r1
 1186 0012 9B00     		lsl	r3, r3, #2
ARM GAS  C:\Users\Sarah\AppData\Local\Temp\ccLQenA3.s 			page 48


 1187 0014 EB18     		add	r3, r5, r3
 1188 0016 1B69     		ldr	r3, [r3, #16]
 1189 0018 5C68     		ldr	r4, [r3, #4]
 1190              	.LVL105:
1320:Generated_Source\PSoC4/ble.c **** 
1321:Generated_Source\PSoC4/ble.c ****             /* First need to get the maximum length of the characteristic data in the GATT
1322:Generated_Source\PSoC4/ble.c ****                 database to make sure there is enough place for the data. The length
1323:Generated_Source\PSoC4/ble.c ****                 can't be longer than 248, so only the LSB of 16 bit of length is to
1324:Generated_Source\PSoC4/ble.c ****                 be used. */
1325:Generated_Source\PSoC4/ble.c ****             charLen = (uint8)CYBLE_GATT_DB_ATTR_GET_ATTR_GEN_MAX_LEN(cyBle_gaps.deviceNameCharHandl
 1191              		.loc 1 1325 0
 1192 001a 5218     		add	r2, r2, r1
 1193 001c 9200     		lsl	r2, r2, #2
 1194 001e AA18     		add	r2, r5, r2
 1195 0020 117B     		ldrb	r1, [r2, #12]
 1196              	.LVL106:
1326:Generated_Source\PSoC4/ble.c **** 
1327:Generated_Source\PSoC4/ble.c ****             /* Copy name into characteristic */
1328:Generated_Source\PSoC4/ble.c ****             for(i = 0u; ((i < charLen) && (CYBLE_NULL_CHARCTER != name[i])); i++)
 1197              		.loc 1 1328 0
 1198 0022 0023     		mov	r3, #0
 1199 0024 02E0     		b	.L90
 1200              	.LVL107:
 1201              	.L92:
1329:Generated_Source\PSoC4/ble.c ****             {
1330:Generated_Source\PSoC4/ble.c ****                 ptr[i] = name[i];
 1202              		.loc 1 1330 0 discriminator 4
 1203 0026 E254     		strb	r2, [r4, r3]
1328:Generated_Source\PSoC4/ble.c ****             {
 1204              		.loc 1 1328 0 discriminator 4
 1205 0028 0133     		add	r3, r3, #1
 1206              	.LVL108:
 1207 002a DBB2     		uxtb	r3, r3
 1208              	.LVL109:
 1209              	.L90:
1328:Generated_Source\PSoC4/ble.c ****             {
 1210              		.loc 1 1328 0 is_stmt 0 discriminator 1
 1211 002c 8B42     		cmp	r3, r1
 1212 002e 02D2     		bcs	.L91
1328:Generated_Source\PSoC4/ble.c ****             {
 1213              		.loc 1 1328 0 discriminator 3
 1214 0030 C25C     		ldrb	r2, [r0, r3]
 1215 0032 002A     		cmp	r2, #0
 1216 0034 F7D1     		bne	.L92
 1217              	.L91:
1331:Generated_Source\PSoC4/ble.c ****             }
1332:Generated_Source\PSoC4/ble.c **** 
1333:Generated_Source\PSoC4/ble.c ****             if(i < charLen)
 1218              		.loc 1 1333 0 is_stmt 1
 1219 0036 8B42     		cmp	r3, r1
 1220 0038 02D2     		bcs	.L93
1334:Generated_Source\PSoC4/ble.c ****             {
1335:Generated_Source\PSoC4/ble.c ****                 /* Terminate string */
1336:Generated_Source\PSoC4/ble.c ****                 ptr[i] = CYBLE_NULL_CHARCTER;
 1221              		.loc 1 1336 0
 1222 003a E318     		add	r3, r4, r3
 1223              	.LVL110:
ARM GAS  C:\Users\Sarah\AppData\Local\Temp\ccLQenA3.s 			page 49


 1224 003c 0022     		mov	r2, #0
 1225 003e 1A70     		strb	r2, [r3]
 1226              	.L93:
 1227 0040 041C     		mov	r4, r0
 1228              	.LVL111:
1337:Generated_Source\PSoC4/ble.c ****             }
1338:Generated_Source\PSoC4/ble.c ****             
1339:Generated_Source\PSoC4/ble.c ****             /* Set new actual length */
1340:Generated_Source\PSoC4/ble.c ****             
1341:Generated_Source\PSoC4/ble.c ****             /* Update device name in advertising and scan response structure */
1342:Generated_Source\PSoC4/ble.c ****             #if(CYBLE_GAP_ROLE_PERIPHERAL)
1343:Generated_Source\PSoC4/ble.c ****                 CyBle_ChangeAdLocalName(name, 0u);
 1229              		.loc 1 1343 0
 1230 0042 0021     		mov	r1, #0
 1231              	.LVL112:
 1232 0044 FFF7FEFF 		bl	CyBle_ChangeAdLocalName
 1233              	.LVL113:
1344:Generated_Source\PSoC4/ble.c ****                 CyBle_ChangeAdLocalName(name, 1u);
 1234              		.loc 1 1344 0
 1235 0048 201C     		mov	r0, r4
 1236 004a 0121     		mov	r1, #1
 1237 004c FFF7FEFF 		bl	CyBle_ChangeAdLocalName
 1238              	.LVL114:
1311:Generated_Source\PSoC4/ble.c ****         uint8 i;
 1239              		.loc 1 1311 0
 1240 0050 0020     		mov	r0, #0
 1241 0052 00E0     		b	.L89
 1242              	.LVL115:
 1243              	.L94:
1345:Generated_Source\PSoC4/ble.c ****             #endif /* (CYBLE_GAP_ROLE_PERIPHERAL) */
1346:Generated_Source\PSoC4/ble.c ****         }
1347:Generated_Source\PSoC4/ble.c ****         else
1348:Generated_Source\PSoC4/ble.c ****         {
1349:Generated_Source\PSoC4/ble.c ****             apiResult = CYBLE_ERROR_INVALID_PARAMETER;
 1244              		.loc 1 1349 0
 1245 0054 0120     		mov	r0, #1
 1246              	.LVL116:
 1247              	.L89:
1350:Generated_Source\PSoC4/ble.c ****         }
1351:Generated_Source\PSoC4/ble.c ****         
1352:Generated_Source\PSoC4/ble.c ****         return(apiResult);
1353:Generated_Source\PSoC4/ble.c ****     }
 1248              		.loc 1 1353 0
 1249              		@ sp needed
 1250 0056 38BD     		pop	{r3, r4, r5, pc}
 1251              	.L96:
 1252              		.align	2
 1253              	.L95:
 1254 0058 00000000 		.word	cyBle_gaps
 1255 005c 00000000 		.word	cyBle_gattDB
 1256              		.cfi_endproc
 1257              	.LFE16:
 1258              		.size	CyBle_GapSetLocalName, .-CyBle_GapSetLocalName
 1259              		.section	.text.CyBle_GapGetLocalName,"ax",%progbits
 1260              		.align	2
 1261              		.global	CyBle_GapGetLocalName
 1262              		.code	16
ARM GAS  C:\Users\Sarah\AppData\Local\Temp\ccLQenA3.s 			page 50


 1263              		.thumb_func
 1264              		.type	CyBle_GapGetLocalName, %function
 1265              	CyBle_GapGetLocalName:
 1266              	.LFB17:
1354:Generated_Source\PSoC4/ble.c **** 
1355:Generated_Source\PSoC4/ble.c **** 
1356:Generated_Source\PSoC4/ble.c ****     /******************************************************************************
1357:Generated_Source\PSoC4/ble.c ****     * Function Name: CyBle_GapGetLocalName
1358:Generated_Source\PSoC4/ble.c ****     ***************************************************************************//**
1359:Generated_Source\PSoC4/ble.c ****     *  
1360:Generated_Source\PSoC4/ble.c ****     *  This API is used to read the local device name - a Characteristic of the 
1361:Generated_Source\PSoC4/ble.c ****     *  GAP Service.
1362:Generated_Source\PSoC4/ble.c ****     * 
1363:Generated_Source\PSoC4/ble.c ****     * \param name: The local device name string. Used to read the local name to the
1364:Generated_Source\PSoC4/ble.c ****     *             given string array. It represents a UTF-8 encoded User Friendly 
1365:Generated_Source\PSoC4/ble.c ****     *             Descriptive Name for the device. The length of the local device
1366:Generated_Source\PSoC4/ble.c ****     *             string is entered into the component customizer and it can be set
1367:Generated_Source\PSoC4/ble.c ****     *             to a value from 0 to 248 bytes. If the name contained in the
1368:Generated_Source\PSoC4/ble.c ****     *             parameter is shorter than the length from the customizer, the end
1369:Generated_Source\PSoC4/ble.c ****     *             of the name is indicated by a NULL octet (0x00).
1370:Generated_Source\PSoC4/ble.c ****     * 
1371:Generated_Source\PSoC4/ble.c ****     * \return
1372:Generated_Source\PSoC4/ble.c ****     *  CYBLE_API_RESULT_T : Return value indicates if the function succeeded or 
1373:Generated_Source\PSoC4/ble.c ****     *  failed. Following are the possible error codes.
1374:Generated_Source\PSoC4/ble.c ****     *
1375:Generated_Source\PSoC4/ble.c ****     *   Errors codes                       | Description
1376:Generated_Source\PSoC4/ble.c ****     *   ------------                       | -----------
1377:Generated_Source\PSoC4/ble.c ****     *   CYBLE_ERROR_OK                     | Function completed successfully.
1378:Generated_Source\PSoC4/ble.c ****     *   CYBLE_ERROR_INVALID_PARAMETER      | On specifying NULL as input parameter
1379:Generated_Source\PSoC4/ble.c ****     *
1380:Generated_Source\PSoC4/ble.c ****     *******************************************************************************/
1381:Generated_Source\PSoC4/ble.c ****     CYBLE_API_RESULT_T CyBle_GapGetLocalName(char8 name[])
1382:Generated_Source\PSoC4/ble.c ****     {
 1267              		.loc 1 1382 0
 1268              		.cfi_startproc
 1269              	.LVL117:
 1270 0000 10B5     		push	{r4, lr}
 1271              		.cfi_def_cfa_offset 8
 1272              		.cfi_offset 4, -8
 1273              		.cfi_offset 14, -4
 1274              	.LVL118:
1383:Generated_Source\PSoC4/ble.c ****         CYBLE_API_RESULT_T apiResult = CYBLE_ERROR_OK;
1384:Generated_Source\PSoC4/ble.c ****         uint8 charLen;
1385:Generated_Source\PSoC4/ble.c ****         uint8 i;
1386:Generated_Source\PSoC4/ble.c ****         char8 *ptr;
1387:Generated_Source\PSoC4/ble.c **** 
1388:Generated_Source\PSoC4/ble.c ****         if(NULL != name)
 1275              		.loc 1 1388 0
 1276 0002 0028     		cmp	r0, #0
 1277 0004 19D0     		beq	.L102
1389:Generated_Source\PSoC4/ble.c ****         {
1390:Generated_Source\PSoC4/ble.c ****             /* Get the pointer to the Device Name characteristic  */
1391:Generated_Source\PSoC4/ble.c ****             ptr = (char8 *) CYBLE_GATT_DB_ATTR_GET_ATTR_GEN_PTR(cyBle_gaps.deviceNameCharHandle);
 1278              		.loc 1 1391 0
 1279 0006 0E4B     		ldr	r3, .L103
 1280 0008 5B88     		ldrh	r3, [r3, #2]
 1281 000a 013B     		sub	r3, r3, #1
ARM GAS  C:\Users\Sarah\AppData\Local\Temp\ccLQenA3.s 			page 51


 1282 000c 9A00     		lsl	r2, r3, #2
 1283 000e D318     		add	r3, r2, r3
 1284 0010 9B00     		lsl	r3, r3, #2
 1285 0012 0C4A     		ldr	r2, .L103+4
 1286 0014 D318     		add	r3, r2, r3
 1287 0016 1B69     		ldr	r3, [r3, #16]
 1288 0018 5C68     		ldr	r4, [r3, #4]
 1289              	.LVL119:
1392:Generated_Source\PSoC4/ble.c **** 
1393:Generated_Source\PSoC4/ble.c ****             /* First need to get the length of the characteristic data in the GATT
1394:Generated_Source\PSoC4/ble.c ****                 database to make sure there is enough place for the data. The length
1395:Generated_Source\PSoC4/ble.c ****                 can't be longer than 248, so only the LSB of 16 bit of length is to
1396:Generated_Source\PSoC4/ble.c ****                 be used. */
1397:Generated_Source\PSoC4/ble.c ****             charLen = (uint8)CYBLE_GATT_DB_ATTR_GET_ATTR_GEN_LEN(cyBle_gaps.deviceNameCharHandle);
 1290              		.loc 1 1397 0
 1291 001a 1978     		ldrb	r1, [r3]
 1292              	.LVL120:
1398:Generated_Source\PSoC4/ble.c **** 
1399:Generated_Source\PSoC4/ble.c ****             /* Copy name from characteristic */
1400:Generated_Source\PSoC4/ble.c ****             for(i = 0u; ((i < charLen) && (CYBLE_NULL_CHARCTER != ptr[i])); i++)
 1293              		.loc 1 1400 0
 1294 001c 0023     		mov	r3, #0
 1295 001e 02E0     		b	.L99
 1296              	.LVL121:
 1297              	.L101:
1401:Generated_Source\PSoC4/ble.c ****             {
1402:Generated_Source\PSoC4/ble.c ****                 name[i] = ptr[i];
 1298              		.loc 1 1402 0 discriminator 4
 1299 0020 C254     		strb	r2, [r0, r3]
1400:Generated_Source\PSoC4/ble.c ****             {
 1300              		.loc 1 1400 0 discriminator 4
 1301 0022 0133     		add	r3, r3, #1
 1302              	.LVL122:
 1303 0024 DBB2     		uxtb	r3, r3
 1304              	.LVL123:
 1305              	.L99:
1400:Generated_Source\PSoC4/ble.c ****             {
 1306              		.loc 1 1400 0 is_stmt 0 discriminator 1
 1307 0026 8B42     		cmp	r3, r1
 1308 0028 02D2     		bcs	.L100
1400:Generated_Source\PSoC4/ble.c ****             {
 1309              		.loc 1 1400 0 discriminator 3
 1310 002a E25C     		ldrb	r2, [r4, r3]
 1311 002c 002A     		cmp	r2, #0
 1312 002e F7D1     		bne	.L101
 1313              	.L100:
1403:Generated_Source\PSoC4/ble.c ****             }
1404:Generated_Source\PSoC4/ble.c **** 
1405:Generated_Source\PSoC4/ble.c ****             /* Terminate string */
1406:Generated_Source\PSoC4/ble.c ****             name[i] = CYBLE_NULL_CHARCTER;
 1314              		.loc 1 1406 0 is_stmt 1
 1315 0030 C318     		add	r3, r0, r3
 1316              	.LVL124:
 1317 0032 0022     		mov	r2, #0
 1318 0034 1A70     		strb	r2, [r3]
1383:Generated_Source\PSoC4/ble.c ****         uint8 charLen;
 1319              		.loc 1 1383 0
ARM GAS  C:\Users\Sarah\AppData\Local\Temp\ccLQenA3.s 			page 52


 1320 0036 0020     		mov	r0, #0
 1321              	.LVL125:
 1322 0038 00E0     		b	.L98
 1323              	.LVL126:
 1324              	.L102:
1407:Generated_Source\PSoC4/ble.c ****         }
1408:Generated_Source\PSoC4/ble.c ****         else
1409:Generated_Source\PSoC4/ble.c ****         {
1410:Generated_Source\PSoC4/ble.c ****             apiResult = CYBLE_ERROR_INVALID_PARAMETER;
 1325              		.loc 1 1410 0
 1326 003a 0120     		mov	r0, #1
 1327              	.LVL127:
 1328              	.L98:
1411:Generated_Source\PSoC4/ble.c ****         }
1412:Generated_Source\PSoC4/ble.c ****         
1413:Generated_Source\PSoC4/ble.c ****         return(apiResult);
1414:Generated_Source\PSoC4/ble.c ****     }
 1329              		.loc 1 1414 0
 1330              		@ sp needed
 1331 003c 10BD     		pop	{r4, pc}
 1332              	.L104:
 1333 003e C046     		.align	2
 1334              	.L103:
 1335 0040 00000000 		.word	cyBle_gaps
 1336 0044 00000000 		.word	cyBle_gattDB
 1337              		.cfi_endproc
 1338              	.LFE17:
 1339              		.size	CyBle_GapGetLocalName, .-CyBle_GapGetLocalName
 1340              		.section	.text.CyBle_Get16ByPtr,"ax",%progbits
 1341              		.align	2
 1342              		.global	CyBle_Get16ByPtr
 1343              		.code	16
 1344              		.thumb_func
 1345              		.type	CyBle_Get16ByPtr, %function
 1346              	CyBle_Get16ByPtr:
 1347              	.LFB18:
1415:Generated_Source\PSoC4/ble.c **** 
1416:Generated_Source\PSoC4/ble.c **** #endif /* (CYBLE_GATT_ROLE_SERVER) */
1417:Generated_Source\PSoC4/ble.c **** 
1418:Generated_Source\PSoC4/ble.c **** 
1419:Generated_Source\PSoC4/ble.c **** /******************************************************************************
1420:Generated_Source\PSoC4/ble.c **** * Function Name: CyBle_Get16ByPtr
1421:Generated_Source\PSoC4/ble.c **** ***************************************************************************//**
1422:Generated_Source\PSoC4/ble.c **** * 
1423:Generated_Source\PSoC4/ble.c **** *  Returns the two-bytes value by using a pointer to the LSB.
1424:Generated_Source\PSoC4/ble.c **** * 
1425:Generated_Source\PSoC4/ble.c **** *  \param ptr: Pointer to the LSB of two-bytes data (little endian).
1426:Generated_Source\PSoC4/ble.c **** * 
1427:Generated_Source\PSoC4/ble.c **** *  \return
1428:Generated_Source\PSoC4/ble.c **** *  uint16: Two-bytes data.
1429:Generated_Source\PSoC4/ble.c **** * 
1430:Generated_Source\PSoC4/ble.c **** ******************************************************************************/
1431:Generated_Source\PSoC4/ble.c **** uint16 CyBle_Get16ByPtr(const uint8 ptr[])
1432:Generated_Source\PSoC4/ble.c **** {
 1348              		.loc 1 1432 0
 1349              		.cfi_startproc
 1350              	.LVL128:
ARM GAS  C:\Users\Sarah\AppData\Local\Temp\ccLQenA3.s 			page 53


1433:Generated_Source\PSoC4/ble.c ****     return ((uint16) ptr[0u] | ((uint16) (((uint16) ptr[1u]) << 8u)));
 1351              		.loc 1 1433 0
 1352 0000 0378     		ldrb	r3, [r0]
 1353 0002 4078     		ldrb	r0, [r0, #1]
 1354              	.LVL129:
 1355 0004 0002     		lsl	r0, r0, #8
 1356 0006 1843     		orr	r0, r3
1434:Generated_Source\PSoC4/ble.c **** }
 1357              		.loc 1 1434 0
 1358              		@ sp needed
 1359 0008 7047     		bx	lr
 1360              		.cfi_endproc
 1361              	.LFE18:
 1362              		.size	CyBle_Get16ByPtr, .-CyBle_Get16ByPtr
 1363 000a C046     		.section	.text.CyBle_Set16ByPtr,"ax",%progbits
 1364              		.align	2
 1365              		.global	CyBle_Set16ByPtr
 1366              		.code	16
 1367              		.thumb_func
 1368              		.type	CyBle_Set16ByPtr, %function
 1369              	CyBle_Set16ByPtr:
 1370              	.LFB19:
1435:Generated_Source\PSoC4/ble.c **** 
1436:Generated_Source\PSoC4/ble.c **** 
1437:Generated_Source\PSoC4/ble.c **** /******************************************************************************
1438:Generated_Source\PSoC4/ble.c **** * Function Name: CyBle_Set16ByPtr
1439:Generated_Source\PSoC4/ble.c **** ***************************************************************************//**
1440:Generated_Source\PSoC4/ble.c **** * 
1441:Generated_Source\PSoC4/ble.c **** *  Sets the two-bytes value by using a pointer to the LSB.
1442:Generated_Source\PSoC4/ble.c **** * 
1443:Generated_Source\PSoC4/ble.c **** *  \param ptr:    Pointer to the LSB of two-bytes data (little endian).
1444:Generated_Source\PSoC4/ble.c **** *  \param value:  Two-bytes data to be written.
1445:Generated_Source\PSoC4/ble.c **** * 
1446:Generated_Source\PSoC4/ble.c **** *  \return
1447:Generated_Source\PSoC4/ble.c **** *  None
1448:Generated_Source\PSoC4/ble.c **** * 
1449:Generated_Source\PSoC4/ble.c **** ******************************************************************************/
1450:Generated_Source\PSoC4/ble.c **** void CyBle_Set16ByPtr(uint8 ptr[], uint16 value)
1451:Generated_Source\PSoC4/ble.c **** {
 1371              		.loc 1 1451 0
 1372              		.cfi_startproc
 1373              	.LVL130:
1452:Generated_Source\PSoC4/ble.c ****     ptr[0u] = (uint8) value;
 1374              		.loc 1 1452 0
 1375 0000 0170     		strb	r1, [r0]
1453:Generated_Source\PSoC4/ble.c ****     ptr[1u] = (uint8) (value >> 8u);
 1376              		.loc 1 1453 0
 1377 0002 090A     		lsr	r1, r1, #8
 1378              	.LVL131:
 1379 0004 4170     		strb	r1, [r0, #1]
1454:Generated_Source\PSoC4/ble.c **** }
 1380              		.loc 1 1454 0
 1381              		@ sp needed
 1382 0006 7047     		bx	lr
 1383              		.cfi_endproc
 1384              	.LFE19:
 1385              		.size	CyBle_Set16ByPtr, .-CyBle_Set16ByPtr
ARM GAS  C:\Users\Sarah\AppData\Local\Temp\ccLQenA3.s 			page 54


 1386              		.global	cyBle_sflashDeviceAddress
 1387              		.global	cyBle_deviceAddress
 1388              		.comm	CyBle_ApplCallback,4,4
 1389              		.comm	cyBle_pendingFlashWrite,1,1
 1390              		.comm	cyBle_peerBonding,1,1
 1391              		.global	cyBle_discoveryInfo
 1392              		.comm	cyBle_connectingTimeout,2,2
 1393              		.comm	cyBle_connectionParameters,26,4
 1394              		.global	cyBle_discoveryModeInfo
 1395              		.global	cyBle_scanRspData
 1396              		.global	cyBle_discoveryData
 1397              		.global	cyBle_discoveryParam
 1398              		.global	cyBle_stackMemoryRam
 1399              		.global	cyBle_initVar
 1400              		.section	.rodata
 1401              		.align	2
 1402              		.set	.LANCHOR2,. + 0
 1403              	.LC0:
 1404 0000 2400     		.short	36
 1405 0002 03       		.byte	3
 1406 0003 00       		.space	1
 1407 0004 3000     		.short	48
 1408 0006 01       		.byte	1
 1409 0007 00       		.space	1
 1410 0008 2800     		.short	40
 1411 000a 02       		.byte	2
 1412 000b 00       		.space	1
 1413 000c 2400     		.short	36
 1414 000e 01       		.byte	1
 1415 000f 00       		.space	1
 1416 0010 2400     		.short	36
 1417 0012 01       		.byte	1
 1418 0013 00       		.space	1
 1419              		.data
 1420              		.align	2
 1421              		.set	.LANCHOR0,. + 0
 1422              		.type	cyBle_discoveryData, %object
 1423              		.size	cyBle_discoveryData, 32
 1424              	cyBle_discoveryData:
 1425 0000 02       		.byte	2
 1426 0001 01       		.byte	1
 1427 0002 06       		.byte	6
 1428 0003 07       		.byte	7
 1429 0004 09       		.byte	9
 1430 0005 63       		.byte	99
 1431 0006 61       		.byte	97
 1432 0007 70       		.byte	112
 1433 0008 6C       		.byte	108
 1434 0009 65       		.byte	101
 1435 000a 64       		.byte	100
 1436 000b 11       		.byte	17
 1437 000c 07       		.byte	7
 1438 000d F0       		.byte	-16
 1439 000e 34       		.byte	52
 1440 000f 9B       		.byte	-101
 1441 0010 5F       		.byte	95
 1442 0011 80       		.byte	-128
ARM GAS  C:\Users\Sarah\AppData\Local\Temp\ccLQenA3.s 			page 55


 1443 0012 00       		.byte	0
 1444 0013 00       		.byte	0
 1445 0014 80       		.byte	-128
 1446 0015 00       		.byte	0
 1447 0016 10       		.byte	16
 1448 0017 00       		.byte	0
 1449 0018 00       		.byte	0
 1450 0019 00       		.byte	0
 1451 001a 00       		.byte	0
 1452 001b 00       		.byte	0
 1453 001c 00       		.byte	0
 1454 001d 00       		.byte	0
 1455 001e 00       		.byte	0
 1456 001f 1D       		.byte	29
 1457              		.type	cyBle_discoveryInfo, %object
 1458              		.size	cyBle_discoveryInfo, 12
 1459              	cyBle_discoveryInfo:
 1460 0020 02       		.byte	2
 1461 0021 01       		.byte	1
 1462 0022 3000     		.short	48
 1463 0024 3000     		.short	48
 1464 0026 00       		.byte	0
 1465 0027 00       		.byte	0
 1466 0028 1E00     		.short	30
 1467 002a 00       		.byte	0
 1468 002b 00       		.space	1
 1469              		.type	cyBle_discoveryModeInfo, %object
 1470              		.size	cyBle_discoveryModeInfo, 20
 1471              	cyBle_discoveryModeInfo:
 1472 002c 02       		.byte	2
 1473 002d 000000   		.space	3
 1474 0030 00000000 		.word	cyBle_discoveryParam
 1475 0034 00000000 		.word	cyBle_discoveryData
 1476 0038 00000000 		.word	cyBle_scanRspData
 1477 003c 0000     		.short	0
 1478 003e 0000     		.space	2
 1479              		.type	cyBle_sflashDeviceAddress, %object
 1480              		.size	cyBle_sflashDeviceAddress, 4
 1481              	cyBle_sflashDeviceAddress:
 1482 0040 00F4FF0F 		.word	268432384
 1483              		.type	cyBle_deviceAddress, %object
 1484              		.size	cyBle_deviceAddress, 7
 1485              	cyBle_deviceAddress:
 1486 0044 00       		.byte	0
 1487 0045 00       		.byte	0
 1488 0046 00       		.byte	0
 1489 0047 50       		.byte	80
 1490 0048 A0       		.byte	-96
 1491 0049 00       		.byte	0
 1492 004a 00       		.byte	0
 1493 004b 00       		.space	1
 1494              		.type	cyBle_discoveryParam, %object
 1495              		.size	cyBle_discoveryParam, 16
 1496              	cyBle_discoveryParam:
 1497 004c 2000     		.short	32
 1498 004e 3000     		.short	48
 1499 0050 00       		.byte	0
ARM GAS  C:\Users\Sarah\AppData\Local\Temp\ccLQenA3.s 			page 56


 1500 0051 00       		.byte	0
 1501 0052 00       		.byte	0
 1502 0053 00       		.byte	0
 1503 0054 00       		.byte	0
 1504 0055 00       		.byte	0
 1505 0056 50       		.byte	80
 1506 0057 A0       		.byte	-96
 1507 0058 00       		.byte	0
 1508 0059 07       		.byte	7
 1509 005a 00       		.byte	0
 1510 005b 00       		.space	1
 1511              		.section	.noinit,"aw",%progbits
 1512              		.align	3
 1513              		.set	.LANCHOR3,. + 0
 1514              		.type	cyBle_stackMemoryRam, %object
 1515              		.size	cyBle_stackMemoryRam, 2784
 1516              	cyBle_stackMemoryRam:
 1517 0000 00000000 		.space	2784
 1517      00000000 
 1517      00000000 
 1517      00000000 
 1517      00000000 
 1518              		.bss
 1519              		.align	2
 1520              		.set	.LANCHOR1,. + 0
 1521              		.type	cyBle_scanRspData, %object
 1522              		.size	cyBle_scanRspData, 32
 1523              	cyBle_scanRspData:
 1524 0000 00000000 		.space	32
 1524      00000000 
 1524      00000000 
 1524      00000000 
 1524      00000000 
 1525              		.type	cyBle_initVar, %object
 1526              		.size	cyBle_initVar, 1
 1527              	cyBle_initVar:
 1528 0020 00       		.space	1
 1529              		.type	cyBle_pendingFlashClearCccdHandle, %object
 1530              		.size	cyBle_pendingFlashClearCccdHandle, 1
 1531              	cyBle_pendingFlashClearCccdHandle:
 1532 0021 00       		.space	1
 1533 0022 0000     		.text
 1534              	.Letext0:
 1535              		.file 2 "Generated_Source\\PSoC4\\cytypes.h"
 1536              		.file 3 "c:\\program files (x86)\\cypress\\psoc creator\\4.0\\psoc creator\\import\\gnu\\arm\\4.9.
 1537              		.file 4 "Generated_Source\\PSoC4\\ble_Stack.h"
 1538              		.file 5 "Generated_Source\\PSoC4\\ble_StackGap.h"
 1539              		.file 6 "Generated_Source\\PSoC4\\ble_StackGatt.h"
 1540              		.file 7 "Generated_Source\\PSoC4\\ble_StackGattDb.h"
 1541              		.file 8 "Generated_Source\\PSoC4\\ble.h"
 1542              		.file 9 "Generated_Source\\PSoC4\\ble_gatt.h"
 1543              		.file 10 "Generated_Source\\PSoC4\\ble_eventHandler.h"
 1544              		.file 11 "Generated_Source\\PSoC4\\ble_custom.h"
 1545              		.file 12 "Generated_Source\\PSoC4\\ble_StackHostMain.h"
 1546              		.file 13 "c:\\program files (x86)\\cypress\\psoc creator\\4.0\\psoc creator\\import\\gnu\\arm\\4.9