ARM GAS  C:\Users\yunse\AppData\Local\Temp\cc34v5ew.s 			page 1


   1              		.cpu cortex-m0
   2              		.fpu softvfp
   3              		.eabi_attribute 20, 1
   4              		.eabi_attribute 21, 1
   5              		.eabi_attribute 23, 3
   6              		.eabi_attribute 24, 1
   7              		.eabi_attribute 25, 1
   8              		.eabi_attribute 26, 1
   9              		.eabi_attribute 30, 1
  10              		.eabi_attribute 34, 0
  11              		.eabi_attribute 18, 4
  12              		.code	16
  13              		.file	"cyfitter_cfg.c"
  14              		.text
  15              	.Ltext0:
  16              		.cfi_sections	.debug_frame
  17              		.section	.text.cfg_write_bytes32,"ax",%progbits
  18              		.align	2
  19              		.code	16
  20              		.thumb_func
  21              		.type	cfg_write_bytes32, %function
  22              	cfg_write_bytes32:
  23              	.LFB5:
  24              		.file 1 "Generated_Source\\PSoC4\\cyfitter_cfg.c"
   1:Generated_Source\PSoC4/cyfitter_cfg.c **** /*******************************************************************************
   2:Generated_Source\PSoC4/cyfitter_cfg.c **** * File Name: cyfitter_cfg.c
   3:Generated_Source\PSoC4/cyfitter_cfg.c **** * 
   4:Generated_Source\PSoC4/cyfitter_cfg.c **** * PSoC Creator  4.0 Update 1
   5:Generated_Source\PSoC4/cyfitter_cfg.c **** *
   6:Generated_Source\PSoC4/cyfitter_cfg.c **** * Description:
   7:Generated_Source\PSoC4/cyfitter_cfg.c **** * This file contains device initialization code.
   8:Generated_Source\PSoC4/cyfitter_cfg.c **** * Except for the user defined sections in CyClockStartupError(), this file should not be modified.
   9:Generated_Source\PSoC4/cyfitter_cfg.c **** * This file is automatically generated by PSoC Creator.
  10:Generated_Source\PSoC4/cyfitter_cfg.c **** *
  11:Generated_Source\PSoC4/cyfitter_cfg.c **** ********************************************************************************
  12:Generated_Source\PSoC4/cyfitter_cfg.c **** * Copyright (c) 2007-2016 Cypress Semiconductor.  All rights reserved.
  13:Generated_Source\PSoC4/cyfitter_cfg.c **** * You may use this file only in accordance with the license, terms, conditions, 
  14:Generated_Source\PSoC4/cyfitter_cfg.c **** * disclaimers, and limitations in the end user license agreement accompanying 
  15:Generated_Source\PSoC4/cyfitter_cfg.c **** * the software package with which this file was provided.
  16:Generated_Source\PSoC4/cyfitter_cfg.c **** ********************************************************************************/
  17:Generated_Source\PSoC4/cyfitter_cfg.c **** 
  18:Generated_Source\PSoC4/cyfitter_cfg.c **** #include <string.h>
  19:Generated_Source\PSoC4/cyfitter_cfg.c **** #include "cytypes.h"
  20:Generated_Source\PSoC4/cyfitter_cfg.c **** #include "cydevice_trm.h"
  21:Generated_Source\PSoC4/cyfitter_cfg.c **** #include "cyfitter.h"
  22:Generated_Source\PSoC4/cyfitter_cfg.c **** #include "CyLib.h"
  23:Generated_Source\PSoC4/cyfitter_cfg.c **** #include "CyLFClk.h"
  24:Generated_Source\PSoC4/cyfitter_cfg.c **** #include "cyfitter_cfg.h"
  25:Generated_Source\PSoC4/cyfitter_cfg.c **** 
  26:Generated_Source\PSoC4/cyfitter_cfg.c **** 
  27:Generated_Source\PSoC4/cyfitter_cfg.c **** #if defined(__GNUC__) || defined(__ARMCC_VERSION)
  28:Generated_Source\PSoC4/cyfitter_cfg.c ****     #define CYPACKED 
  29:Generated_Source\PSoC4/cyfitter_cfg.c ****     #define CYPACKED_ATTR __attribute__ ((packed))
  30:Generated_Source\PSoC4/cyfitter_cfg.c ****     #define CYALIGNED __attribute__ ((aligned))
  31:Generated_Source\PSoC4/cyfitter_cfg.c ****     #define CY_CFG_UNUSED __attribute__ ((unused))
  32:Generated_Source\PSoC4/cyfitter_cfg.c ****     #ifndef CY_CFG_SECTION
  33:Generated_Source\PSoC4/cyfitter_cfg.c ****         #define CY_CFG_SECTION __attribute__ ((section(".psocinit")))
ARM GAS  C:\Users\yunse\AppData\Local\Temp\cc34v5ew.s 			page 2


  34:Generated_Source\PSoC4/cyfitter_cfg.c ****     #endif
  35:Generated_Source\PSoC4/cyfitter_cfg.c ****     
  36:Generated_Source\PSoC4/cyfitter_cfg.c ****     #if defined(__ARMCC_VERSION)
  37:Generated_Source\PSoC4/cyfitter_cfg.c ****         #define CY_CFG_MEMORY_BARRIER() __memory_changed()
  38:Generated_Source\PSoC4/cyfitter_cfg.c ****     #else
  39:Generated_Source\PSoC4/cyfitter_cfg.c ****         #define CY_CFG_MEMORY_BARRIER() __sync_synchronize()
  40:Generated_Source\PSoC4/cyfitter_cfg.c ****     #endif
  41:Generated_Source\PSoC4/cyfitter_cfg.c ****     
  42:Generated_Source\PSoC4/cyfitter_cfg.c **** #elif defined(__ICCARM__)
  43:Generated_Source\PSoC4/cyfitter_cfg.c ****     #include <intrinsics.h>
  44:Generated_Source\PSoC4/cyfitter_cfg.c **** 
  45:Generated_Source\PSoC4/cyfitter_cfg.c ****     #define CYPACKED __packed
  46:Generated_Source\PSoC4/cyfitter_cfg.c ****     #define CYPACKED_ATTR 
  47:Generated_Source\PSoC4/cyfitter_cfg.c ****     #define CYALIGNED _Pragma("data_alignment=4")
  48:Generated_Source\PSoC4/cyfitter_cfg.c ****     #define CY_CFG_UNUSED _Pragma("diag_suppress=Pe177")
  49:Generated_Source\PSoC4/cyfitter_cfg.c ****     #define CY_CFG_SECTION _Pragma("location=\".psocinit\"")
  50:Generated_Source\PSoC4/cyfitter_cfg.c ****     
  51:Generated_Source\PSoC4/cyfitter_cfg.c ****     #define CY_CFG_MEMORY_BARRIER() __DMB()
  52:Generated_Source\PSoC4/cyfitter_cfg.c ****     
  53:Generated_Source\PSoC4/cyfitter_cfg.c **** #else
  54:Generated_Source\PSoC4/cyfitter_cfg.c ****     #error Unsupported toolchain
  55:Generated_Source\PSoC4/cyfitter_cfg.c **** #endif
  56:Generated_Source\PSoC4/cyfitter_cfg.c **** 
  57:Generated_Source\PSoC4/cyfitter_cfg.c **** 
  58:Generated_Source\PSoC4/cyfitter_cfg.c **** CY_CFG_UNUSED
  59:Generated_Source\PSoC4/cyfitter_cfg.c **** static void CYMEMZERO(void *s, size_t n);
  60:Generated_Source\PSoC4/cyfitter_cfg.c **** CY_CFG_UNUSED
  61:Generated_Source\PSoC4/cyfitter_cfg.c **** static void CYMEMZERO(void *s, size_t n)
  62:Generated_Source\PSoC4/cyfitter_cfg.c **** {
  63:Generated_Source\PSoC4/cyfitter_cfg.c **** 	(void)memset(s, 0, n);
  64:Generated_Source\PSoC4/cyfitter_cfg.c **** }
  65:Generated_Source\PSoC4/cyfitter_cfg.c **** CY_CFG_UNUSED
  66:Generated_Source\PSoC4/cyfitter_cfg.c **** static void CYCONFIGCPY(void *dest, const void *src, size_t n);
  67:Generated_Source\PSoC4/cyfitter_cfg.c **** CY_CFG_UNUSED
  68:Generated_Source\PSoC4/cyfitter_cfg.c **** static void CYCONFIGCPY(void *dest, const void *src, size_t n)
  69:Generated_Source\PSoC4/cyfitter_cfg.c **** {
  70:Generated_Source\PSoC4/cyfitter_cfg.c **** 	(void)memcpy(dest, src, n);
  71:Generated_Source\PSoC4/cyfitter_cfg.c **** }
  72:Generated_Source\PSoC4/cyfitter_cfg.c **** CY_CFG_UNUSED
  73:Generated_Source\PSoC4/cyfitter_cfg.c **** static void CYCONFIGCPYCODE(void *dest, const void *src, size_t n);
  74:Generated_Source\PSoC4/cyfitter_cfg.c **** CY_CFG_UNUSED
  75:Generated_Source\PSoC4/cyfitter_cfg.c **** static void CYCONFIGCPYCODE(void *dest, const void *src, size_t n)
  76:Generated_Source\PSoC4/cyfitter_cfg.c **** {
  77:Generated_Source\PSoC4/cyfitter_cfg.c **** 	(void)memcpy(dest, src, n);
  78:Generated_Source\PSoC4/cyfitter_cfg.c **** }
  79:Generated_Source\PSoC4/cyfitter_cfg.c **** 
  80:Generated_Source\PSoC4/cyfitter_cfg.c **** 
  81:Generated_Source\PSoC4/cyfitter_cfg.c **** 
  82:Generated_Source\PSoC4/cyfitter_cfg.c **** 
  83:Generated_Source\PSoC4/cyfitter_cfg.c **** /* Clock startup error codes                                                   */
  84:Generated_Source\PSoC4/cyfitter_cfg.c **** #define CYCLOCKSTART_NO_ERROR    0u
  85:Generated_Source\PSoC4/cyfitter_cfg.c **** #define CYCLOCKSTART_XTAL_ERROR  1u
  86:Generated_Source\PSoC4/cyfitter_cfg.c **** #define CYCLOCKSTART_32KHZ_ERROR 2u
  87:Generated_Source\PSoC4/cyfitter_cfg.c **** #define CYCLOCKSTART_PLL_ERROR   3u
  88:Generated_Source\PSoC4/cyfitter_cfg.c **** 
  89:Generated_Source\PSoC4/cyfitter_cfg.c **** 
  90:Generated_Source\PSoC4/cyfitter_cfg.c **** #ifdef CY_NEED_CYCLOCKSTARTUPERROR
ARM GAS  C:\Users\yunse\AppData\Local\Temp\cc34v5ew.s 			page 3


  91:Generated_Source\PSoC4/cyfitter_cfg.c **** /*******************************************************************************
  92:Generated_Source\PSoC4/cyfitter_cfg.c **** * Function Name: CyClockStartupError
  93:Generated_Source\PSoC4/cyfitter_cfg.c **** ********************************************************************************
  94:Generated_Source\PSoC4/cyfitter_cfg.c **** * Summary:
  95:Generated_Source\PSoC4/cyfitter_cfg.c **** *  If an error is encountered during clock configuration (crystal startup error,
  96:Generated_Source\PSoC4/cyfitter_cfg.c **** *  PLL lock error, etc.), the system will end up here.  Unless reimplemented by
  97:Generated_Source\PSoC4/cyfitter_cfg.c **** *  the customer, this function will stop in an infinite loop.
  98:Generated_Source\PSoC4/cyfitter_cfg.c **** *
  99:Generated_Source\PSoC4/cyfitter_cfg.c **** * Parameters:
 100:Generated_Source\PSoC4/cyfitter_cfg.c **** *   void
 101:Generated_Source\PSoC4/cyfitter_cfg.c **** *
 102:Generated_Source\PSoC4/cyfitter_cfg.c **** * Return:
 103:Generated_Source\PSoC4/cyfitter_cfg.c **** *   void
 104:Generated_Source\PSoC4/cyfitter_cfg.c **** *
 105:Generated_Source\PSoC4/cyfitter_cfg.c **** *******************************************************************************/
 106:Generated_Source\PSoC4/cyfitter_cfg.c **** CY_CFG_UNUSED
 107:Generated_Source\PSoC4/cyfitter_cfg.c **** static void CyClockStartupError(uint8 errorCode);
 108:Generated_Source\PSoC4/cyfitter_cfg.c **** CY_CFG_UNUSED
 109:Generated_Source\PSoC4/cyfitter_cfg.c **** static void CyClockStartupError(uint8 errorCode)
 110:Generated_Source\PSoC4/cyfitter_cfg.c **** {
 111:Generated_Source\PSoC4/cyfitter_cfg.c ****     /* To remove the compiler warning if errorCode not used.                */
 112:Generated_Source\PSoC4/cyfitter_cfg.c ****     errorCode = errorCode;
 113:Generated_Source\PSoC4/cyfitter_cfg.c **** 
 114:Generated_Source\PSoC4/cyfitter_cfg.c ****     /* If we have a clock startup error (bad MHz crystal, PLL lock, etc.),  */
 115:Generated_Source\PSoC4/cyfitter_cfg.c ****     /* we will end up here to allow the customer to implement something to  */
 116:Generated_Source\PSoC4/cyfitter_cfg.c ****     /* deal with the clock condition.                                       */
 117:Generated_Source\PSoC4/cyfitter_cfg.c **** 
 118:Generated_Source\PSoC4/cyfitter_cfg.c **** #ifdef CY_CFG_CLOCK_STARTUP_ERROR_CALLBACK
 119:Generated_Source\PSoC4/cyfitter_cfg.c **** 	CY_CFG_Clock_Startup_ErrorCallback();
 120:Generated_Source\PSoC4/cyfitter_cfg.c **** #else
 121:Generated_Source\PSoC4/cyfitter_cfg.c **** 	/*  If not using CY_CFG_CLOCK_STARTUP_ERROR_CALLBACK, place your clock startup code here. */
 122:Generated_Source\PSoC4/cyfitter_cfg.c ****     /* `#START CyClockStartupError` */
 123:Generated_Source\PSoC4/cyfitter_cfg.c **** 
 124:Generated_Source\PSoC4/cyfitter_cfg.c ****     /* If we have a clock startup error (bad MHz crystal, PLL lock, etc.),  */
 125:Generated_Source\PSoC4/cyfitter_cfg.c ****     /* we will end up here to allow the customer to implement something to  */
 126:Generated_Source\PSoC4/cyfitter_cfg.c ****     /* deal with the clock condition.                                       */
 127:Generated_Source\PSoC4/cyfitter_cfg.c **** 
 128:Generated_Source\PSoC4/cyfitter_cfg.c ****     /* `#END` */
 129:Generated_Source\PSoC4/cyfitter_cfg.c **** 
 130:Generated_Source\PSoC4/cyfitter_cfg.c ****     /* If nothing else, stop here since the clocks have not started         */
 131:Generated_Source\PSoC4/cyfitter_cfg.c ****     /* correctly.                                                           */
 132:Generated_Source\PSoC4/cyfitter_cfg.c ****     while(1) {}
 133:Generated_Source\PSoC4/cyfitter_cfg.c **** #endif /* CY_CFG_CLOCK_STARTUP_ERROR_CALLBACK */ 
 134:Generated_Source\PSoC4/cyfitter_cfg.c **** }
 135:Generated_Source\PSoC4/cyfitter_cfg.c **** #endif
 136:Generated_Source\PSoC4/cyfitter_cfg.c **** 
 137:Generated_Source\PSoC4/cyfitter_cfg.c **** #define CY_CFG_BASE_ADDR_COUNT 7u
 138:Generated_Source\PSoC4/cyfitter_cfg.c **** CYPACKED typedef struct
 139:Generated_Source\PSoC4/cyfitter_cfg.c **** {
 140:Generated_Source\PSoC4/cyfitter_cfg.c **** 	uint8 offset;
 141:Generated_Source\PSoC4/cyfitter_cfg.c **** 	uint8 value;
 142:Generated_Source\PSoC4/cyfitter_cfg.c **** } CYPACKED_ATTR cy_cfg_addrvalue_t;
 143:Generated_Source\PSoC4/cyfitter_cfg.c **** 
 144:Generated_Source\PSoC4/cyfitter_cfg.c **** 
 145:Generated_Source\PSoC4/cyfitter_cfg.c **** 
 146:Generated_Source\PSoC4/cyfitter_cfg.c **** /*******************************************************************************
 147:Generated_Source\PSoC4/cyfitter_cfg.c **** * Function Name: cfg_write_bytes32
ARM GAS  C:\Users\yunse\AppData\Local\Temp\cc34v5ew.s 			page 4


 148:Generated_Source\PSoC4/cyfitter_cfg.c **** ********************************************************************************
 149:Generated_Source\PSoC4/cyfitter_cfg.c **** * Summary:
 150:Generated_Source\PSoC4/cyfitter_cfg.c **** *  This function is used for setting up the chip configuration areas that
 151:Generated_Source\PSoC4/cyfitter_cfg.c **** *  contain relatively sparse data.
 152:Generated_Source\PSoC4/cyfitter_cfg.c **** *
 153:Generated_Source\PSoC4/cyfitter_cfg.c **** * Parameters:
 154:Generated_Source\PSoC4/cyfitter_cfg.c **** *   void
 155:Generated_Source\PSoC4/cyfitter_cfg.c **** *
 156:Generated_Source\PSoC4/cyfitter_cfg.c **** * Return:
 157:Generated_Source\PSoC4/cyfitter_cfg.c **** *   void
 158:Generated_Source\PSoC4/cyfitter_cfg.c **** *
 159:Generated_Source\PSoC4/cyfitter_cfg.c **** *******************************************************************************/
 160:Generated_Source\PSoC4/cyfitter_cfg.c **** static void cfg_write_bytes32(const uint32 addr_table[], const cy_cfg_addrvalue_t data_table[]);
 161:Generated_Source\PSoC4/cyfitter_cfg.c **** static void cfg_write_bytes32(const uint32 addr_table[], const cy_cfg_addrvalue_t data_table[])
 162:Generated_Source\PSoC4/cyfitter_cfg.c **** {
  25              		.loc 1 162 0
  26              		.cfi_startproc
  27              	.LVL0:
  28 0000 F0B5     		push	{r4, r5, r6, r7, lr}
  29              		.cfi_def_cfa_offset 20
  30              		.cfi_offset 4, -20
  31              		.cfi_offset 5, -16
  32              		.cfi_offset 6, -12
  33              		.cfi_offset 7, -8
  34              		.cfi_offset 14, -4
  35              	.LVL1:
 163:Generated_Source\PSoC4/cyfitter_cfg.c **** 	/* For 32-bit little-endian architectures */
 164:Generated_Source\PSoC4/cyfitter_cfg.c **** 	uint32 i, j = 0u;
  36              		.loc 1 164 0
  37 0002 0025     		mov	r5, #0
 165:Generated_Source\PSoC4/cyfitter_cfg.c **** 	for (i = 0u; i < CY_CFG_BASE_ADDR_COUNT; i++)
  38              		.loc 1 165 0
  39 0004 0027     		mov	r7, #0
  40 0006 11E0     		b	.L2
  41              	.LVL2:
  42              	.L5:
  43              	.LBB2:
 166:Generated_Source\PSoC4/cyfitter_cfg.c **** 	{
 167:Generated_Source\PSoC4/cyfitter_cfg.c **** 		uint32 baseAddr = addr_table[i];
  44              		.loc 1 167 0
  45 0008 BB00     		lsl	r3, r7, #2
  46 000a C658     		ldr	r6, [r0, r3]
  47              	.LVL3:
 168:Generated_Source\PSoC4/cyfitter_cfg.c **** 		uint8 count = (uint8)baseAddr;
  48              		.loc 1 168 0
  49 000c F3B2     		uxtb	r3, r6
  50              	.LVL4:
 169:Generated_Source\PSoC4/cyfitter_cfg.c **** 		baseAddr &= 0xFFFFFF00u;
  51              		.loc 1 169 0
  52 000e FF22     		mov	r2, #255
  53 0010 9643     		bic	r6, r2
  54              	.LVL5:
 170:Generated_Source\PSoC4/cyfitter_cfg.c **** 		while (count != 0u)
  55              		.loc 1 170 0
  56 0012 08E0     		b	.L3
  57              	.L4:
 171:Generated_Source\PSoC4/cyfitter_cfg.c **** 		{
ARM GAS  C:\Users\yunse\AppData\Local\Temp\cc34v5ew.s 			page 5


 172:Generated_Source\PSoC4/cyfitter_cfg.c **** 			CY_SET_XTND_REG8((void CYFAR *)(baseAddr + data_table[j].offset), data_table[j].value);
  58              		.loc 1 172 0
  59 0014 6A00     		lsl	r2, r5, #1
  60 0016 8A18     		add	r2, r1, r2
  61 0018 1478     		ldrb	r4, [r2]
  62 001a A419     		add	r4, r4, r6
  63 001c 5278     		ldrb	r2, [r2, #1]
  64 001e 2270     		strb	r2, [r4]
 173:Generated_Source\PSoC4/cyfitter_cfg.c **** 			j++;
  65              		.loc 1 173 0
  66 0020 0135     		add	r5, r5, #1
  67              	.LVL6:
 174:Generated_Source\PSoC4/cyfitter_cfg.c **** 			count--;
  68              		.loc 1 174 0
  69 0022 013B     		sub	r3, r3, #1
  70              	.LVL7:
  71 0024 DBB2     		uxtb	r3, r3
  72              	.LVL8:
  73              	.L3:
 170:Generated_Source\PSoC4/cyfitter_cfg.c **** 		{
  74              		.loc 1 170 0
  75 0026 002B     		cmp	r3, #0
  76 0028 F4D1     		bne	.L4
  77              	.LBE2:
 165:Generated_Source\PSoC4/cyfitter_cfg.c **** 	{
  78              		.loc 1 165 0 discriminator 2
  79 002a 0137     		add	r7, r7, #1
  80              	.LVL9:
  81              	.L2:
 165:Generated_Source\PSoC4/cyfitter_cfg.c **** 	{
  82              		.loc 1 165 0 is_stmt 0 discriminator 1
  83 002c 062F     		cmp	r7, #6
  84 002e EBD9     		bls	.L5
 175:Generated_Source\PSoC4/cyfitter_cfg.c **** 		}
 176:Generated_Source\PSoC4/cyfitter_cfg.c **** 	}
 177:Generated_Source\PSoC4/cyfitter_cfg.c **** }
  85              		.loc 1 177 0 is_stmt 1
  86              		@ sp needed
  87              	.LVL10:
  88              	.LVL11:
  89 0030 F0BD     		pop	{r4, r5, r6, r7, pc}
  90              		.cfi_endproc
  91              	.LFE5:
  92              		.size	cfg_write_bytes32, .-cfg_write_bytes32
  93 0032 C046     		.section	.text.CYMEMZERO,"ax",%progbits
  94              		.align	2
  95              		.code	16
  96              		.thumb_func
  97              		.type	CYMEMZERO, %function
  98              	CYMEMZERO:
  99              	.LFB2:
  62:Generated_Source\PSoC4/cyfitter_cfg.c **** 	(void)memset(s, 0, n);
 100              		.loc 1 62 0
 101              		.cfi_startproc
 102              	.LVL12:
 103 0000 08B5     		push	{r3, lr}
 104              		.cfi_def_cfa_offset 8
ARM GAS  C:\Users\yunse\AppData\Local\Temp\cc34v5ew.s 			page 6


 105              		.cfi_offset 3, -8
 106              		.cfi_offset 14, -4
 107 0002 0A1C     		mov	r2, r1
  63:Generated_Source\PSoC4/cyfitter_cfg.c **** }
 108              		.loc 1 63 0
 109 0004 0021     		mov	r1, #0
 110              	.LVL13:
 111 0006 FFF7FEFF 		bl	memset
 112              	.LVL14:
  64:Generated_Source\PSoC4/cyfitter_cfg.c **** CY_CFG_UNUSED
 113              		.loc 1 64 0
 114              		@ sp needed
 115 000a 08BD     		pop	{r3, pc}
 116              		.cfi_endproc
 117              	.LFE2:
 118              		.size	CYMEMZERO, .-CYMEMZERO
 119              		.section	.psocinit,"ax",%progbits
 120              		.align	2
 121              		.code	16
 122              		.thumb_func
 123              		.type	ClockSetup, %function
 124              	ClockSetup:
 125              	.LFB6:
 178:Generated_Source\PSoC4/cyfitter_cfg.c **** 
 179:Generated_Source\PSoC4/cyfitter_cfg.c **** 
 180:Generated_Source\PSoC4/cyfitter_cfg.c **** /*******************************************************************************
 181:Generated_Source\PSoC4/cyfitter_cfg.c **** * Function Name: ClockSetup
 182:Generated_Source\PSoC4/cyfitter_cfg.c **** ********************************************************************************
 183:Generated_Source\PSoC4/cyfitter_cfg.c **** *
 184:Generated_Source\PSoC4/cyfitter_cfg.c **** * Summary:
 185:Generated_Source\PSoC4/cyfitter_cfg.c **** *   Performs the initialization of all of the clocks in the device based on the
 186:Generated_Source\PSoC4/cyfitter_cfg.c **** *   settings in the Clock tab of the DWR.  This includes enabling the requested
 187:Generated_Source\PSoC4/cyfitter_cfg.c **** *   clocks and setting the necessary dividers to produce the desired frequency. 
 188:Generated_Source\PSoC4/cyfitter_cfg.c **** *
 189:Generated_Source\PSoC4/cyfitter_cfg.c **** * Parameters:
 190:Generated_Source\PSoC4/cyfitter_cfg.c **** *   void
 191:Generated_Source\PSoC4/cyfitter_cfg.c **** *
 192:Generated_Source\PSoC4/cyfitter_cfg.c **** * Return:
 193:Generated_Source\PSoC4/cyfitter_cfg.c **** *   void
 194:Generated_Source\PSoC4/cyfitter_cfg.c **** *
 195:Generated_Source\PSoC4/cyfitter_cfg.c **** *******************************************************************************/
 196:Generated_Source\PSoC4/cyfitter_cfg.c **** static void ClockSetup(void);
 197:Generated_Source\PSoC4/cyfitter_cfg.c **** CY_CFG_SECTION
 198:Generated_Source\PSoC4/cyfitter_cfg.c **** static void ClockSetup(void)
 199:Generated_Source\PSoC4/cyfitter_cfg.c **** {
 126              		.loc 1 199 0
 127              		.cfi_startproc
 128 0000 38B5     		push	{r3, r4, r5, lr}
 129              		.cfi_def_cfa_offset 16
 130              		.cfi_offset 3, -16
 131              		.cfi_offset 4, -12
 132              		.cfi_offset 5, -8
 133              		.cfi_offset 14, -4
 200:Generated_Source\PSoC4/cyfitter_cfg.c **** 
 201:Generated_Source\PSoC4/cyfitter_cfg.c **** 	/* Set Flash Cycles based on max possible frequency in case a glitch occurs during ClockSetup(). *
 202:Generated_Source\PSoC4/cyfitter_cfg.c **** 	CY_SET_REG32((void CYXDATA *)(CYREG_CPUSS_FLASH_CTL), (0x0012u));
 134              		.loc 1 202 0
ARM GAS  C:\Users\yunse\AppData\Local\Temp\cc34v5ew.s 			page 7


 135 0002 1222     		mov	r2, #18
 136 0004 324B     		ldr	r3, .L8
 137 0006 1A60     		str	r2, [r3]
 203:Generated_Source\PSoC4/cyfitter_cfg.c **** 
 204:Generated_Source\PSoC4/cyfitter_cfg.c **** 	/* Start the WCO */
 205:Generated_Source\PSoC4/cyfitter_cfg.c **** 	CySysClkWcoStart();
 138              		.loc 1 205 0
 139 0008 FFF7FEFF 		bl	CySysClkWcoStart
 140              	.LVL15:
 206:Generated_Source\PSoC4/cyfitter_cfg.c **** 	CyDelayCycles(12000000u); /* WCO may take up to 500ms to start */
 141              		.loc 1 206 0
 142 000c 3148     		ldr	r0, .L8+4
 143 000e FFF7FEFF 		bl	CyDelayCycles
 144              	.LVL16:
 207:Generated_Source\PSoC4/cyfitter_cfg.c **** 	(void)CySysClkWcoSetPowerMode(CY_SYS_CLK_WCO_LPM);    /* Switch to the low power mode */
 145              		.loc 1 207 0
 146 0012 0120     		mov	r0, #1
 147 0014 FFF7FEFF 		bl	CySysClkWcoSetPowerMode
 148              	.LVL17:
 208:Generated_Source\PSoC4/cyfitter_cfg.c **** 
 209:Generated_Source\PSoC4/cyfitter_cfg.c **** 	/* Setup and trim IMO based on desired frequency. */
 210:Generated_Source\PSoC4/cyfitter_cfg.c **** 	CySysClkWriteImoFreq(48u);
 149              		.loc 1 210 0
 150 0018 3020     		mov	r0, #48
 151 001a FFF7FEFF 		bl	CySysClkWriteImoFreq
 152              	.LVL18:
 211:Generated_Source\PSoC4/cyfitter_cfg.c **** 	/* CYDEV_CLK_ILO_CONFIG Starting address: CYDEV_CLK_ILO_CONFIG */
 212:Generated_Source\PSoC4/cyfitter_cfg.c **** 	CY_SET_XTND_REG32((void CYFAR *)(CYREG_CLK_ILO_CONFIG), 0x80000006u);
 153              		.loc 1 212 0
 154 001e 2E4A     		ldr	r2, .L8+8
 155 0020 2E4B     		ldr	r3, .L8+12
 156 0022 1A60     		str	r2, [r3]
 213:Generated_Source\PSoC4/cyfitter_cfg.c **** 
 214:Generated_Source\PSoC4/cyfitter_cfg.c **** 	/* CYDEV_WDT_CONFIG Starting address: CYDEV_WDT_CONFIG */
 215:Generated_Source\PSoC4/cyfitter_cfg.c **** 	CY_SET_XTND_REG32((void CYFAR *)(CYREG_WDT_CONFIG), 0x40000000u);
 157              		.loc 1 215 0
 158 0024 2E4C     		ldr	r4, .L8+16
 159 0026 8025     		mov	r5, #128
 160 0028 ED05     		lsl	r5, r5, #23
 161 002a 2560     		str	r5, [r4]
 216:Generated_Source\PSoC4/cyfitter_cfg.c **** 
 217:Generated_Source\PSoC4/cyfitter_cfg.c **** 
 218:Generated_Source\PSoC4/cyfitter_cfg.c **** 	/* Enable fast start mode for XO */
 219:Generated_Source\PSoC4/cyfitter_cfg.c **** 	CY_SET_REG32((void*)CYREG_BLE_BLERD_BB_XO, CY_GET_REG32((void*)CYREG_BLE_BLERD_BB_XO) | (uint32)0x
 162              		.loc 1 219 0
 163 002c 2D4A     		ldr	r2, .L8+20
 164 002e 1168     		ldr	r1, [r2]
 165 0030 0223     		mov	r3, #2
 166 0032 0B43     		orr	r3, r1
 167 0034 1360     		str	r3, [r2]
 220:Generated_Source\PSoC4/cyfitter_cfg.c **** 	CY_SET_XTND_REG32((void CYFAR *)(CYREG_BLE_BLERD_BB_XO_CAPTRIM), 0x00003E2Du);
 168              		.loc 1 220 0
 169 0036 2C4A     		ldr	r2, .L8+24
 170 0038 2C4B     		ldr	r3, .L8+28
 171 003a 1A60     		str	r2, [r3]
 221:Generated_Source\PSoC4/cyfitter_cfg.c **** 	/*Set XTAL(ECO) divider*/
 222:Generated_Source\PSoC4/cyfitter_cfg.c **** 	CY_SET_XTND_REG32((void CYFAR *)(CYREG_BLE_BLESS_XTAL_CLK_DIV_CONFIG), 0x00000000u);
ARM GAS  C:\Users\yunse\AppData\Local\Temp\cc34v5ew.s 			page 8


 172              		.loc 1 222 0
 173 003c 0022     		mov	r2, #0
 174 003e 2C4B     		ldr	r3, .L8+32
 175 0040 1A60     		str	r2, [r3]
 223:Generated_Source\PSoC4/cyfitter_cfg.c **** 	/* Disable Crystal Stable Interrupt before enabling ECO */
 224:Generated_Source\PSoC4/cyfitter_cfg.c **** 	CY_SET_REG32((void*)CYREG_BLE_BLESS_LL_DSM_CTRL, CY_GET_REG32((void*)CYREG_BLE_BLESS_LL_DSM_CTRL) 
 176              		.loc 1 224 0
 177 0042 2C4A     		ldr	r2, .L8+36
 178 0044 1368     		ldr	r3, [r2]
 179 0046 0821     		mov	r1, #8
 180 0048 8B43     		bic	r3, r1
 181 004a 1360     		str	r3, [r2]
 225:Generated_Source\PSoC4/cyfitter_cfg.c **** 	/* Start the ECO and do not check status since it is not needed for HFCLK */
 226:Generated_Source\PSoC4/cyfitter_cfg.c **** 	(void)CySysClkEcoStart(2000u);
 182              		.loc 1 226 0
 183 004c FA20     		mov	r0, #250
 184 004e C000     		lsl	r0, r0, #3
 185 0050 FFF7FEFF 		bl	CySysClkEcoStart
 186              	.LVL19:
 227:Generated_Source\PSoC4/cyfitter_cfg.c **** 	CyDelayUs(1500u); /* Wait to stabalize */
 187              		.loc 1 227 0
 188 0054 2848     		ldr	r0, .L8+40
 189 0056 FFF7FEFF 		bl	CyDelayUs
 190              	.LVL20:
 228:Generated_Source\PSoC4/cyfitter_cfg.c **** 
 229:Generated_Source\PSoC4/cyfitter_cfg.c **** 	/* Setup phase aligned clocks */
 230:Generated_Source\PSoC4/cyfitter_cfg.c **** 	CY_SET_REG32((void *)CYREG_PERI_DIV_16_CTL4, 0x00BB7F00u);
 191              		.loc 1 230 0
 192 005a 284A     		ldr	r2, .L8+44
 193 005c 284B     		ldr	r3, .L8+48
 194 005e 1A60     		str	r2, [r3]
 231:Generated_Source\PSoC4/cyfitter_cfg.c **** 	CY_SET_REG32((void *)CYREG_PERI_DIV_CMD, 0x8000FF44u);
 195              		.loc 1 231 0
 196 0060 284B     		ldr	r3, .L8+52
 197 0062 2949     		ldr	r1, .L8+56
 198 0064 1960     		str	r1, [r3]
 232:Generated_Source\PSoC4/cyfitter_cfg.c **** 	CY_SET_REG32((void *)CYREG_PERI_DIV_16_CTL3, 0x00BB7F00u);
 199              		.loc 1 232 0
 200 0066 2949     		ldr	r1, .L8+60
 201 0068 0A60     		str	r2, [r1]
 233:Generated_Source\PSoC4/cyfitter_cfg.c **** 	CY_SET_REG32((void *)CYREG_PERI_DIV_CMD, 0x8000FF43u);
 202              		.loc 1 233 0
 203 006a 294A     		ldr	r2, .L8+64
 204 006c 1A60     		str	r2, [r3]
 234:Generated_Source\PSoC4/cyfitter_cfg.c **** 	CY_SET_REG32((void *)CYREG_PERI_DIV_16_CTL2, 0x00006300u);
 205              		.loc 1 234 0
 206 006e C621     		mov	r1, #198
 207 0070 C901     		lsl	r1, r1, #7
 208 0072 284A     		ldr	r2, .L8+68
 209 0074 1160     		str	r1, [r2]
 235:Generated_Source\PSoC4/cyfitter_cfg.c **** 	CY_SET_REG32((void *)CYREG_PERI_DIV_CMD, 0x8000FF42u);
 210              		.loc 1 235 0
 211 0076 284A     		ldr	r2, .L8+72
 212 0078 1A60     		str	r2, [r3]
 236:Generated_Source\PSoC4/cyfitter_cfg.c **** 	CY_SET_REG32((void *)CYREG_PERI_DIV_16_CTL0, 0x0000FE00u);
 213              		.loc 1 236 0
 214 007a FE22     		mov	r2, #254
ARM GAS  C:\Users\yunse\AppData\Local\Temp\cc34v5ew.s 			page 9


 215 007c 1202     		lsl	r2, r2, #8
 216 007e 2749     		ldr	r1, .L8+76
 217 0080 0A60     		str	r2, [r1]
 237:Generated_Source\PSoC4/cyfitter_cfg.c **** 	CY_SET_REG32((void *)CYREG_PERI_DIV_CMD, 0x8000FF40u);
 218              		.loc 1 237 0
 219 0082 2749     		ldr	r1, .L8+80
 220 0084 1960     		str	r1, [r3]
 238:Generated_Source\PSoC4/cyfitter_cfg.c **** 	CY_SET_REG32((void *)CYREG_PERI_DIV_16_CTL1, 0x0000FE00u);
 221              		.loc 1 238 0
 222 0086 2749     		ldr	r1, .L8+84
 223 0088 0A60     		str	r2, [r1]
 239:Generated_Source\PSoC4/cyfitter_cfg.c **** 	CY_SET_REG32((void *)CYREG_PERI_DIV_CMD, 0x8000FF41u);
 224              		.loc 1 239 0
 225 008a 274A     		ldr	r2, .L8+88
 226 008c 1A60     		str	r2, [r3]
 240:Generated_Source\PSoC4/cyfitter_cfg.c **** 
 241:Generated_Source\PSoC4/cyfitter_cfg.c **** 	/* CYDEV_CLK_IMO_CONFIG Starting address: CYDEV_CLK_IMO_CONFIG */
 242:Generated_Source\PSoC4/cyfitter_cfg.c **** 	CY_SET_XTND_REG32((void CYFAR *)(CYREG_CLK_IMO_CONFIG), 0x80000000u);
 227              		.loc 1 242 0
 228 008e 8022     		mov	r2, #128
 229 0090 1206     		lsl	r2, r2, #24
 230 0092 264B     		ldr	r3, .L8+92
 231 0094 1A60     		str	r2, [r3]
 243:Generated_Source\PSoC4/cyfitter_cfg.c **** 
 244:Generated_Source\PSoC4/cyfitter_cfg.c **** 	/* CYDEV_CLK_SELECT Starting address: CYDEV_CLK_SELECT */
 245:Generated_Source\PSoC4/cyfitter_cfg.c **** 	CY_SET_XTND_REG32((void CYFAR *)(CYREG_CLK_SELECT), 0x00040000u);
 232              		.loc 1 245 0
 233 0096 8022     		mov	r2, #128
 234 0098 D202     		lsl	r2, r2, #11
 235 009a 254B     		ldr	r3, .L8+96
 236 009c 1A60     		str	r2, [r3]
 246:Generated_Source\PSoC4/cyfitter_cfg.c **** 
 247:Generated_Source\PSoC4/cyfitter_cfg.c **** 	/* CYDEV_PERI_PCLK_CTL11 Starting address: CYDEV_PERI_PCLK_CTL11 */
 248:Generated_Source\PSoC4/cyfitter_cfg.c **** 	CY_SET_XTND_REG32((void CYFAR *)(CYREG_PERI_PCLK_CTL11), 0x00000044u);
 237              		.loc 1 248 0
 238 009e 4422     		mov	r2, #68
 239 00a0 244B     		ldr	r3, .L8+100
 240 00a2 1A60     		str	r2, [r3]
 249:Generated_Source\PSoC4/cyfitter_cfg.c **** 
 250:Generated_Source\PSoC4/cyfitter_cfg.c **** 	/* CYDEV_PERI_PCLK_CTL8 Starting address: CYDEV_PERI_PCLK_CTL8 */
 251:Generated_Source\PSoC4/cyfitter_cfg.c **** 	CY_SET_XTND_REG32((void CYFAR *)(CYREG_PERI_PCLK_CTL8), 0x00000043u);
 241              		.loc 1 251 0
 242 00a4 013A     		sub	r2, r2, #1
 243 00a6 244B     		ldr	r3, .L8+104
 244 00a8 1A60     		str	r2, [r3]
 252:Generated_Source\PSoC4/cyfitter_cfg.c **** 
 253:Generated_Source\PSoC4/cyfitter_cfg.c **** 	/* CYDEV_PERI_PCLK_CTL7 Starting address: CYDEV_PERI_PCLK_CTL7 */
 254:Generated_Source\PSoC4/cyfitter_cfg.c **** 	CY_SET_XTND_REG32((void CYFAR *)(CYREG_PERI_PCLK_CTL7), 0x00000042u);
 245              		.loc 1 254 0
 246 00aa 013A     		sub	r2, r2, #1
 247 00ac 234B     		ldr	r3, .L8+108
 248 00ae 1A60     		str	r2, [r3]
 255:Generated_Source\PSoC4/cyfitter_cfg.c **** 
 256:Generated_Source\PSoC4/cyfitter_cfg.c **** 	/* CYDEV_PERI_PCLK_CTL5 Starting address: CYDEV_PERI_PCLK_CTL5 */
 257:Generated_Source\PSoC4/cyfitter_cfg.c **** 	CY_SET_XTND_REG32((void CYFAR *)(CYREG_PERI_PCLK_CTL5), 0x00000040u);
 249              		.loc 1 257 0
 250 00b0 023A     		sub	r2, r2, #2
ARM GAS  C:\Users\yunse\AppData\Local\Temp\cc34v5ew.s 			page 10


 251 00b2 234B     		ldr	r3, .L8+112
 252 00b4 1A60     		str	r2, [r3]
 258:Generated_Source\PSoC4/cyfitter_cfg.c **** 
 259:Generated_Source\PSoC4/cyfitter_cfg.c **** 	/* CYDEV_PERI_PCLK_CTL4 Starting address: CYDEV_PERI_PCLK_CTL4 */
 260:Generated_Source\PSoC4/cyfitter_cfg.c **** 	CY_SET_XTND_REG32((void CYFAR *)(CYREG_PERI_PCLK_CTL4), 0x00000041u);
 253              		.loc 1 260 0
 254 00b6 0132     		add	r2, r2, #1
 255 00b8 224B     		ldr	r3, .L8+116
 256 00ba 1A60     		str	r2, [r3]
 261:Generated_Source\PSoC4/cyfitter_cfg.c **** 
 262:Generated_Source\PSoC4/cyfitter_cfg.c **** 	(void)CyIntSetVector(8u, &CySysWdtIsr);
 257              		.loc 1 262 0
 258 00bc 0820     		mov	r0, #8
 259 00be 2249     		ldr	r1, .L8+120
 260 00c0 FFF7FEFF 		bl	CyIntSetVector
 261              	.LVL21:
 263:Generated_Source\PSoC4/cyfitter_cfg.c **** 	CyIntEnable(8u);
 262              		.loc 1 263 0
 263 00c4 0820     		mov	r0, #8
 264 00c6 FFF7FEFF 		bl	CyIntEnable
 265              	.LVL22:
 264:Generated_Source\PSoC4/cyfitter_cfg.c **** 	CY_SET_XTND_REG32((void CYFAR *)(CYREG_WDT_CONFIG), 0x40000000u);
 266              		.loc 1 264 0
 267 00ca 2560     		str	r5, [r4]
 265:Generated_Source\PSoC4/cyfitter_cfg.c **** }
 268              		.loc 1 265 0
 269              		@ sp needed
 270 00cc 38BD     		pop	{r3, r4, r5, pc}
 271              	.L9:
 272 00ce C046     		.align	2
 273              	.L8:
 274 00d0 30001040 		.word	1074790448
 275 00d4 001BB700 		.word	12000000
 276 00d8 06000080 		.word	-2147483642
 277 00dc 04010B40 		.word	1074462980
 278 00e0 0C020B40 		.word	1074463244
 279 00e4 78002E40 		.word	1076756600
 280 00e8 2D3E0000 		.word	15917
 281 00ec 7C002E40 		.word	1076756604
 282 00f0 64F02E40 		.word	1076818020
 283 00f4 6CF02E40 		.word	1076818028
 284 00f8 DC050000 		.word	1500
 285 00fc 007FBB00 		.word	12287744
 286 0100 10030140 		.word	1073808144
 287 0104 00000140 		.word	1073807360
 288 0108 44FF0080 		.word	-2147418300
 289 010c 0C030140 		.word	1073808140
 290 0110 43FF0080 		.word	-2147418301
 291 0114 08030140 		.word	1073808136
 292 0118 42FF0080 		.word	-2147418302
 293 011c 00030140 		.word	1073808128
 294 0120 40FF0080 		.word	-2147418304
 295 0124 04030140 		.word	1073808132
 296 0128 41FF0080 		.word	-2147418303
 297 012c 08010B40 		.word	1074462984
 298 0130 00010B40 		.word	1074462976
 299 0134 2C010140 		.word	1073807660
ARM GAS  C:\Users\yunse\AppData\Local\Temp\cc34v5ew.s 			page 11


 300 0138 20010140 		.word	1073807648
 301 013c 1C010140 		.word	1073807644
 302 0140 14010140 		.word	1073807636
 303 0144 10010140 		.word	1073807632
 304 0148 00000000 		.word	CySysWdtIsr
 305              		.cfi_endproc
 306              	.LFE6:
 307              		.size	ClockSetup, .-ClockSetup
 308              		.section	.text.SetAnalogRoutingPumps,"ax",%progbits
 309              		.align	2
 310              		.global	SetAnalogRoutingPumps
 311              		.code	16
 312              		.thumb_func
 313              		.type	SetAnalogRoutingPumps, %function
 314              	SetAnalogRoutingPumps:
 315              	.LFB8:
 266:Generated_Source\PSoC4/cyfitter_cfg.c **** 
 267:Generated_Source\PSoC4/cyfitter_cfg.c **** 
 268:Generated_Source\PSoC4/cyfitter_cfg.c **** /* Analog API Functions */
 269:Generated_Source\PSoC4/cyfitter_cfg.c **** 
 270:Generated_Source\PSoC4/cyfitter_cfg.c **** 
 271:Generated_Source\PSoC4/cyfitter_cfg.c **** /*******************************************************************************
 272:Generated_Source\PSoC4/cyfitter_cfg.c **** * Function Name: AnalogSetDefault
 273:Generated_Source\PSoC4/cyfitter_cfg.c **** ********************************************************************************
 274:Generated_Source\PSoC4/cyfitter_cfg.c **** *
 275:Generated_Source\PSoC4/cyfitter_cfg.c **** * Summary:
 276:Generated_Source\PSoC4/cyfitter_cfg.c **** *  Sets up the analog portions of the chip to default values based on chip
 277:Generated_Source\PSoC4/cyfitter_cfg.c **** *  configuration options from the project.
 278:Generated_Source\PSoC4/cyfitter_cfg.c **** *
 279:Generated_Source\PSoC4/cyfitter_cfg.c **** * Parameters:
 280:Generated_Source\PSoC4/cyfitter_cfg.c **** *  void
 281:Generated_Source\PSoC4/cyfitter_cfg.c **** *
 282:Generated_Source\PSoC4/cyfitter_cfg.c **** * Return:
 283:Generated_Source\PSoC4/cyfitter_cfg.c **** *  void
 284:Generated_Source\PSoC4/cyfitter_cfg.c **** *
 285:Generated_Source\PSoC4/cyfitter_cfg.c **** *******************************************************************************/
 286:Generated_Source\PSoC4/cyfitter_cfg.c **** static void AnalogSetDefault(void);
 287:Generated_Source\PSoC4/cyfitter_cfg.c **** static void AnalogSetDefault(void)
 288:Generated_Source\PSoC4/cyfitter_cfg.c **** {
 289:Generated_Source\PSoC4/cyfitter_cfg.c **** 	CY_SET_XTND_REG32((void CYFAR *)CYREG_CTBM0_DFT_CTRL, 0x00000003u);
 290:Generated_Source\PSoC4/cyfitter_cfg.c **** 	CY_SET_XTND_REG32((void CYFAR *)CYREG_CTBM1_DFT_CTRL, 0x00000003u);
 291:Generated_Source\PSoC4/cyfitter_cfg.c **** 	CY_SET_XTND_REG32((void CYFAR *)CYREG_PASS_DSAB_DSAB_CTRL, 0x00000000u);
 292:Generated_Source\PSoC4/cyfitter_cfg.c **** 	SetAnalogRoutingPumps(1);
 293:Generated_Source\PSoC4/cyfitter_cfg.c **** }
 294:Generated_Source\PSoC4/cyfitter_cfg.c **** 
 295:Generated_Source\PSoC4/cyfitter_cfg.c **** 
 296:Generated_Source\PSoC4/cyfitter_cfg.c **** /*******************************************************************************
 297:Generated_Source\PSoC4/cyfitter_cfg.c **** * Function Name: SetAnalogRoutingPumps
 298:Generated_Source\PSoC4/cyfitter_cfg.c **** ********************************************************************************
 299:Generated_Source\PSoC4/cyfitter_cfg.c **** *
 300:Generated_Source\PSoC4/cyfitter_cfg.c **** * Summary:
 301:Generated_Source\PSoC4/cyfitter_cfg.c **** * Enables or disables the analog pumps feeding analog routing switches.
 302:Generated_Source\PSoC4/cyfitter_cfg.c **** * Intended to be called at startup, based on the Vdda system configuration;
 303:Generated_Source\PSoC4/cyfitter_cfg.c **** * may be called during operation when the user informs us that the Vdda voltage crossed the pump th
 304:Generated_Source\PSoC4/cyfitter_cfg.c **** *
 305:Generated_Source\PSoC4/cyfitter_cfg.c **** * Parameters:
 306:Generated_Source\PSoC4/cyfitter_cfg.c **** *  enabled - 1 to enable the pumps, 0 to disable the pumps
ARM GAS  C:\Users\yunse\AppData\Local\Temp\cc34v5ew.s 			page 12


 307:Generated_Source\PSoC4/cyfitter_cfg.c **** *
 308:Generated_Source\PSoC4/cyfitter_cfg.c **** * Return:
 309:Generated_Source\PSoC4/cyfitter_cfg.c **** *  void
 310:Generated_Source\PSoC4/cyfitter_cfg.c **** *
 311:Generated_Source\PSoC4/cyfitter_cfg.c **** *******************************************************************************/
 312:Generated_Source\PSoC4/cyfitter_cfg.c **** void SetAnalogRoutingPumps(uint8 enabled)
 313:Generated_Source\PSoC4/cyfitter_cfg.c **** {
 316              		.loc 1 313 0
 317              		.cfi_startproc
 318              	.LVL23:
 314:Generated_Source\PSoC4/cyfitter_cfg.c **** 	uint32 regValue = CY_GET_XTND_REG32((void *)(CYREG_SAR_PUMP_CTRL));
 319              		.loc 1 314 0
 320 0000 0C4B     		ldr	r3, .L15
 321 0002 1B68     		ldr	r3, [r3]
 322              	.LVL24:
 315:Generated_Source\PSoC4/cyfitter_cfg.c **** 	if (enabled != 0u)
 323              		.loc 1 315 0
 324 0004 0028     		cmp	r0, #0
 325 0006 03D0     		beq	.L11
 316:Generated_Source\PSoC4/cyfitter_cfg.c **** 	{
 317:Generated_Source\PSoC4/cyfitter_cfg.c **** 		regValue |= 0x80000000u;
 326              		.loc 1 317 0
 327 0008 8022     		mov	r2, #128
 328 000a 1206     		lsl	r2, r2, #24
 329 000c 1343     		orr	r3, r2
 330              	.LVL25:
 331 000e 01E0     		b	.L12
 332              	.L11:
 318:Generated_Source\PSoC4/cyfitter_cfg.c **** 	}
 319:Generated_Source\PSoC4/cyfitter_cfg.c **** 	else
 320:Generated_Source\PSoC4/cyfitter_cfg.c **** 	{
 321:Generated_Source\PSoC4/cyfitter_cfg.c **** 		regValue &= ~0x80000000u;
 333              		.loc 1 321 0
 334 0010 5B00     		lsl	r3, r3, #1
 335              	.LVL26:
 336 0012 5B08     		lsr	r3, r3, #1
 337              	.LVL27:
 338              	.L12:
 322:Generated_Source\PSoC4/cyfitter_cfg.c **** 	}
 323:Generated_Source\PSoC4/cyfitter_cfg.c **** 	CY_SET_XTND_REG32((void *)(CYREG_SAR_PUMP_CTRL), regValue);
 339              		.loc 1 323 0
 340 0014 074A     		ldr	r2, .L15
 341 0016 1360     		str	r3, [r2]
 324:Generated_Source\PSoC4/cyfitter_cfg.c **** 	regValue = CY_GET_XTND_REG32((void *)(CYREG_CLK_IMO_CONFIG));
 342              		.loc 1 324 0
 343 0018 074B     		ldr	r3, .L15+4
 344              	.LVL28:
 345 001a 1B68     		ldr	r3, [r3]
 346              	.LVL29:
 325:Generated_Source\PSoC4/cyfitter_cfg.c **** 	if (enabled != 0u)
 347              		.loc 1 325 0
 348 001c 0028     		cmp	r0, #0
 349 001e 03D0     		beq	.L13
 326:Generated_Source\PSoC4/cyfitter_cfg.c **** 	{
 327:Generated_Source\PSoC4/cyfitter_cfg.c **** 		regValue |= 0x02000000u;
 350              		.loc 1 327 0
 351 0020 8022     		mov	r2, #128
ARM GAS  C:\Users\yunse\AppData\Local\Temp\cc34v5ew.s 			page 13


 352 0022 9204     		lsl	r2, r2, #18
 353 0024 1343     		orr	r3, r2
 354              	.LVL30:
 355 0026 01E0     		b	.L14
 356              	.L13:
 328:Generated_Source\PSoC4/cyfitter_cfg.c **** 	}
 329:Generated_Source\PSoC4/cyfitter_cfg.c **** 	else
 330:Generated_Source\PSoC4/cyfitter_cfg.c **** 	{
 331:Generated_Source\PSoC4/cyfitter_cfg.c **** 		regValue &= ~0x02000000u;
 357              		.loc 1 331 0
 358 0028 044A     		ldr	r2, .L15+8
 359 002a 1340     		and	r3, r2
 360              	.LVL31:
 361              	.L14:
 332:Generated_Source\PSoC4/cyfitter_cfg.c **** 	}
 333:Generated_Source\PSoC4/cyfitter_cfg.c **** 	CY_SET_XTND_REG32((void *)(CYREG_CLK_IMO_CONFIG), regValue);
 362              		.loc 1 333 0
 363 002c 024A     		ldr	r2, .L15+4
 364 002e 1360     		str	r3, [r2]
 334:Generated_Source\PSoC4/cyfitter_cfg.c **** }
 365              		.loc 1 334 0
 366              		@ sp needed
 367 0030 7047     		bx	lr
 368              	.L16:
 369 0032 C046     		.align	2
 370              	.L15:
 371 0034 80033A40 		.word	1077543808
 372 0038 08010B40 		.word	1074462984
 373 003c FFFFFFFD 		.word	-33554433
 374              		.cfi_endproc
 375              	.LFE8:
 376              		.size	SetAnalogRoutingPumps, .-SetAnalogRoutingPumps
 377              		.section	.text.AnalogSetDefault,"ax",%progbits
 378              		.align	2
 379              		.code	16
 380              		.thumb_func
 381              		.type	AnalogSetDefault, %function
 382              	AnalogSetDefault:
 383              	.LFB7:
 288:Generated_Source\PSoC4/cyfitter_cfg.c **** 	CY_SET_XTND_REG32((void CYFAR *)CYREG_CTBM0_DFT_CTRL, 0x00000003u);
 384              		.loc 1 288 0
 385              		.cfi_startproc
 386 0000 08B5     		push	{r3, lr}
 387              		.cfi_def_cfa_offset 8
 388              		.cfi_offset 3, -8
 389              		.cfi_offset 14, -4
 289:Generated_Source\PSoC4/cyfitter_cfg.c **** 	CY_SET_XTND_REG32((void CYFAR *)CYREG_CTBM1_DFT_CTRL, 0x00000003u);
 390              		.loc 1 289 0
 391 0002 0323     		mov	r3, #3
 392 0004 054A     		ldr	r2, .L18
 393 0006 1360     		str	r3, [r2]
 290:Generated_Source\PSoC4/cyfitter_cfg.c **** 	CY_SET_XTND_REG32((void CYFAR *)CYREG_PASS_DSAB_DSAB_CTRL, 0x00000000u);
 394              		.loc 1 290 0
 395 0008 054A     		ldr	r2, .L18+4
 396 000a 1360     		str	r3, [r2]
 291:Generated_Source\PSoC4/cyfitter_cfg.c **** 	SetAnalogRoutingPumps(1);
 397              		.loc 1 291 0
ARM GAS  C:\Users\yunse\AppData\Local\Temp\cc34v5ew.s 			page 14


 398 000c 0022     		mov	r2, #0
 399 000e 054B     		ldr	r3, .L18+8
 400 0010 1A60     		str	r2, [r3]
 292:Generated_Source\PSoC4/cyfitter_cfg.c **** }
 401              		.loc 1 292 0
 402 0012 0120     		mov	r0, #1
 403 0014 FFF7FEFF 		bl	SetAnalogRoutingPumps
 404              	.LVL32:
 293:Generated_Source\PSoC4/cyfitter_cfg.c **** 
 405              		.loc 1 293 0
 406              		@ sp needed
 407 0018 08BD     		pop	{r3, pc}
 408              	.L19:
 409 001a C046     		.align	2
 410              	.L18:
 411 001c 30003040 		.word	1076887600
 412 0020 30003140 		.word	1076953136
 413 0024 000E3F40 		.word	1077874176
 414              		.cfi_endproc
 415              	.LFE7:
 416              		.size	AnalogSetDefault, .-AnalogSetDefault
 417              		.section	.psocinit
 418              		.align	2
 419              		.global	cyfitter_cfg
 420              		.code	16
 421              		.thumb_func
 422              		.type	cyfitter_cfg, %function
 423              	cyfitter_cfg:
 424              	.LFB9:
 335:Generated_Source\PSoC4/cyfitter_cfg.c **** 
 336:Generated_Source\PSoC4/cyfitter_cfg.c **** #define CY_AMUX_UNUSED CYREG_CM0_ROM_DWT
 337:Generated_Source\PSoC4/cyfitter_cfg.c **** 
 338:Generated_Source\PSoC4/cyfitter_cfg.c **** 
 339:Generated_Source\PSoC4/cyfitter_cfg.c **** /*******************************************************************************
 340:Generated_Source\PSoC4/cyfitter_cfg.c **** * Function Name: cyfitter_cfg
 341:Generated_Source\PSoC4/cyfitter_cfg.c **** ********************************************************************************
 342:Generated_Source\PSoC4/cyfitter_cfg.c **** * Summary:
 343:Generated_Source\PSoC4/cyfitter_cfg.c **** *  This function is called by the start-up code for the selected device. It
 344:Generated_Source\PSoC4/cyfitter_cfg.c **** *  performs all of the necessary device configuration based on the design
 345:Generated_Source\PSoC4/cyfitter_cfg.c **** *  settings.  This includes settings from the Design Wide Resources (DWR) such
 346:Generated_Source\PSoC4/cyfitter_cfg.c **** *  as Clocks and Pins as well as any component configuration that is necessary.
 347:Generated_Source\PSoC4/cyfitter_cfg.c **** *
 348:Generated_Source\PSoC4/cyfitter_cfg.c **** * Parameters:  
 349:Generated_Source\PSoC4/cyfitter_cfg.c **** *   void
 350:Generated_Source\PSoC4/cyfitter_cfg.c **** *
 351:Generated_Source\PSoC4/cyfitter_cfg.c **** * Return:
 352:Generated_Source\PSoC4/cyfitter_cfg.c **** *   void
 353:Generated_Source\PSoC4/cyfitter_cfg.c **** *
 354:Generated_Source\PSoC4/cyfitter_cfg.c **** *******************************************************************************/
 355:Generated_Source\PSoC4/cyfitter_cfg.c **** CY_CFG_SECTION
 356:Generated_Source\PSoC4/cyfitter_cfg.c **** void cyfitter_cfg(void)
 357:Generated_Source\PSoC4/cyfitter_cfg.c **** {
 425              		.loc 1 357 0
 426              		.cfi_startproc
 427 014c 10B5     		push	{r4, lr}
 428              		.cfi_def_cfa_offset 8
 429              		.cfi_offset 4, -8
ARM GAS  C:\Users\yunse\AppData\Local\Temp\cc34v5ew.s 			page 15


 430              		.cfi_offset 14, -4
 358:Generated_Source\PSoC4/cyfitter_cfg.c **** 	/* Disable interrupts by default. Let user enable if/when they want. */
 359:Generated_Source\PSoC4/cyfitter_cfg.c **** 	CyGlobalIntDisable;
 431              		.loc 1 359 0
 432              	@ 359 "Generated_Source\PSoC4\cyfitter_cfg.c" 1
 433 014e 72B6     		CPSID   i
 434              	@ 0 "" 2
 360:Generated_Source\PSoC4/cyfitter_cfg.c **** 
 361:Generated_Source\PSoC4/cyfitter_cfg.c **** 	CY_SET_XTND_REG32((void CYFAR *)(CYREG_BLE_BLESS_LL_DSM_CTRL), 0x00000000u);
 435              		.loc 1 361 0
 436              		.code	16
 437 0150 0022     		mov	r2, #0
 438 0152 354B     		ldr	r3, .L23
 439 0154 1A60     		str	r2, [r3]
 440              	.LVL33:
 441              	.LBB3:
 362:Generated_Source\PSoC4/cyfitter_cfg.c **** 
 363:Generated_Source\PSoC4/cyfitter_cfg.c **** 	{
 364:Generated_Source\PSoC4/cyfitter_cfg.c **** 		static const uint32 CYCODE cy_cfg_addr_table[] = {
 365:Generated_Source\PSoC4/cyfitter_cfg.c **** 			0x400F0001u, /* Base address: 0x400F0000 Count: 1 */
 366:Generated_Source\PSoC4/cyfitter_cfg.c **** 			0x400F322Eu, /* Base address: 0x400F3200 Count: 46 */
 367:Generated_Source\PSoC4/cyfitter_cfg.c **** 			0x400F331Du, /* Base address: 0x400F3300 Count: 29 */
 368:Generated_Source\PSoC4/cyfitter_cfg.c **** 			0x400F4105u, /* Base address: 0x400F4100 Count: 5 */
 369:Generated_Source\PSoC4/cyfitter_cfg.c **** 			0x400F4204u, /* Base address: 0x400F4200 Count: 4 */
 370:Generated_Source\PSoC4/cyfitter_cfg.c **** 			0x400F4304u, /* Base address: 0x400F4300 Count: 4 */
 371:Generated_Source\PSoC4/cyfitter_cfg.c **** 			0x400F6002u, /* Base address: 0x400F6000 Count: 2 */
 372:Generated_Source\PSoC4/cyfitter_cfg.c **** 		};
 373:Generated_Source\PSoC4/cyfitter_cfg.c **** 
 374:Generated_Source\PSoC4/cyfitter_cfg.c **** 		static const cy_cfg_addrvalue_t CYCODE cy_cfg_data_table[] = {
 375:Generated_Source\PSoC4/cyfitter_cfg.c **** 			{0x82u, 0x0Du},
 376:Generated_Source\PSoC4/cyfitter_cfg.c **** 			{0x00u, 0x08u},
 377:Generated_Source\PSoC4/cyfitter_cfg.c **** 			{0x03u, 0x01u},
 378:Generated_Source\PSoC4/cyfitter_cfg.c **** 			{0x0Fu, 0x02u},
 379:Generated_Source\PSoC4/cyfitter_cfg.c **** 			{0x13u, 0x02u},
 380:Generated_Source\PSoC4/cyfitter_cfg.c **** 			{0x14u, 0x01u},
 381:Generated_Source\PSoC4/cyfitter_cfg.c **** 			{0x1Au, 0x07u},
 382:Generated_Source\PSoC4/cyfitter_cfg.c **** 			{0x2Eu, 0x04u},
 383:Generated_Source\PSoC4/cyfitter_cfg.c **** 			{0x30u, 0x04u},
 384:Generated_Source\PSoC4/cyfitter_cfg.c **** 			{0x31u, 0x01u},
 385:Generated_Source\PSoC4/cyfitter_cfg.c **** 			{0x32u, 0x02u},
 386:Generated_Source\PSoC4/cyfitter_cfg.c **** 			{0x34u, 0x08u},
 387:Generated_Source\PSoC4/cyfitter_cfg.c **** 			{0x35u, 0x02u},
 388:Generated_Source\PSoC4/cyfitter_cfg.c **** 			{0x36u, 0x01u},
 389:Generated_Source\PSoC4/cyfitter_cfg.c **** 			{0x3Eu, 0x10u},
 390:Generated_Source\PSoC4/cyfitter_cfg.c **** 			{0x3Fu, 0x10u},
 391:Generated_Source\PSoC4/cyfitter_cfg.c **** 			{0x40u, 0x10u},
 392:Generated_Source\PSoC4/cyfitter_cfg.c **** 			{0x41u, 0x05u},
 393:Generated_Source\PSoC4/cyfitter_cfg.c **** 			{0x45u, 0xD1u},
 394:Generated_Source\PSoC4/cyfitter_cfg.c **** 			{0x46u, 0x02u},
 395:Generated_Source\PSoC4/cyfitter_cfg.c **** 			{0x48u, 0x07u},
 396:Generated_Source\PSoC4/cyfitter_cfg.c **** 			{0x49u, 0xFFu},
 397:Generated_Source\PSoC4/cyfitter_cfg.c **** 			{0x4Au, 0xFFu},
 398:Generated_Source\PSoC4/cyfitter_cfg.c **** 			{0x4Bu, 0xFFu},
 399:Generated_Source\PSoC4/cyfitter_cfg.c **** 			{0x4Du, 0xA0u},
 400:Generated_Source\PSoC4/cyfitter_cfg.c **** 			{0x4Fu, 0x04u},
 401:Generated_Source\PSoC4/cyfitter_cfg.c **** 			{0x50u, 0x18u},
 402:Generated_Source\PSoC4/cyfitter_cfg.c **** 			{0x52u, 0x80u},
ARM GAS  C:\Users\yunse\AppData\Local\Temp\cc34v5ew.s 			page 16


 403:Generated_Source\PSoC4/cyfitter_cfg.c **** 			{0x54u, 0x05u},
 404:Generated_Source\PSoC4/cyfitter_cfg.c **** 			{0x58u, 0x04u},
 405:Generated_Source\PSoC4/cyfitter_cfg.c **** 			{0x59u, 0x04u},
 406:Generated_Source\PSoC4/cyfitter_cfg.c **** 			{0x5Au, 0x04u},
 407:Generated_Source\PSoC4/cyfitter_cfg.c **** 			{0x5Bu, 0x04u},
 408:Generated_Source\PSoC4/cyfitter_cfg.c **** 			{0x5Fu, 0x01u},
 409:Generated_Source\PSoC4/cyfitter_cfg.c **** 			{0x60u, 0x40u},
 410:Generated_Source\PSoC4/cyfitter_cfg.c **** 			{0x62u, 0xC0u},
 411:Generated_Source\PSoC4/cyfitter_cfg.c **** 			{0x64u, 0x40u},
 412:Generated_Source\PSoC4/cyfitter_cfg.c **** 			{0x65u, 0x40u},
 413:Generated_Source\PSoC4/cyfitter_cfg.c **** 			{0x66u, 0xC0u},
 414:Generated_Source\PSoC4/cyfitter_cfg.c **** 			{0x68u, 0xC0u},
 415:Generated_Source\PSoC4/cyfitter_cfg.c **** 			{0x6Au, 0xC0u},
 416:Generated_Source\PSoC4/cyfitter_cfg.c **** 			{0x6Cu, 0xC0u},
 417:Generated_Source\PSoC4/cyfitter_cfg.c **** 			{0x6Eu, 0xC0u},
 418:Generated_Source\PSoC4/cyfitter_cfg.c **** 			{0xB8u, 0x20u},
 419:Generated_Source\PSoC4/cyfitter_cfg.c **** 			{0xBEu, 0x10u},
 420:Generated_Source\PSoC4/cyfitter_cfg.c **** 			{0xD8u, 0x04u},
 421:Generated_Source\PSoC4/cyfitter_cfg.c **** 			{0xDFu, 0x01u},
 422:Generated_Source\PSoC4/cyfitter_cfg.c **** 			{0x05u, 0x01u},
 423:Generated_Source\PSoC4/cyfitter_cfg.c **** 			{0x0Eu, 0x20u},
 424:Generated_Source\PSoC4/cyfitter_cfg.c **** 			{0x0Fu, 0x08u},
 425:Generated_Source\PSoC4/cyfitter_cfg.c **** 			{0x17u, 0x40u},
 426:Generated_Source\PSoC4/cyfitter_cfg.c **** 			{0x1Au, 0x04u},
 427:Generated_Source\PSoC4/cyfitter_cfg.c **** 			{0x1Du, 0x11u},
 428:Generated_Source\PSoC4/cyfitter_cfg.c **** 			{0x1Eu, 0x20u},
 429:Generated_Source\PSoC4/cyfitter_cfg.c **** 			{0x1Fu, 0x40u},
 430:Generated_Source\PSoC4/cyfitter_cfg.c **** 			{0x26u, 0x02u},
 431:Generated_Source\PSoC4/cyfitter_cfg.c **** 			{0x27u, 0x48u},
 432:Generated_Source\PSoC4/cyfitter_cfg.c **** 			{0x36u, 0x02u},
 433:Generated_Source\PSoC4/cyfitter_cfg.c **** 			{0x3Cu, 0x02u},
 434:Generated_Source\PSoC4/cyfitter_cfg.c **** 			{0x3Fu, 0x80u},
 435:Generated_Source\PSoC4/cyfitter_cfg.c **** 			{0x47u, 0x40u},
 436:Generated_Source\PSoC4/cyfitter_cfg.c **** 			{0x4Bu, 0xC0u},
 437:Generated_Source\PSoC4/cyfitter_cfg.c **** 			{0x4Fu, 0x89u},
 438:Generated_Source\PSoC4/cyfitter_cfg.c **** 			{0x57u, 0x40u},
 439:Generated_Source\PSoC4/cyfitter_cfg.c **** 			{0x5Fu, 0x49u},
 440:Generated_Source\PSoC4/cyfitter_cfg.c **** 			{0x74u, 0x01u},
 441:Generated_Source\PSoC4/cyfitter_cfg.c **** 			{0x86u, 0x04u},
 442:Generated_Source\PSoC4/cyfitter_cfg.c **** 			{0x8Du, 0x10u},
 443:Generated_Source\PSoC4/cyfitter_cfg.c **** 			{0xC0u, 0x10u},
 444:Generated_Source\PSoC4/cyfitter_cfg.c **** 			{0xC2u, 0x60u},
 445:Generated_Source\PSoC4/cyfitter_cfg.c **** 			{0xC4u, 0x80u},
 446:Generated_Source\PSoC4/cyfitter_cfg.c **** 			{0xCCu, 0x80u},
 447:Generated_Source\PSoC4/cyfitter_cfg.c **** 			{0xCEu, 0x90u},
 448:Generated_Source\PSoC4/cyfitter_cfg.c **** 			{0xD0u, 0x10u},
 449:Generated_Source\PSoC4/cyfitter_cfg.c **** 			{0xD2u, 0x10u},
 450:Generated_Source\PSoC4/cyfitter_cfg.c **** 			{0xD6u, 0xD0u},
 451:Generated_Source\PSoC4/cyfitter_cfg.c **** 			{0x3Bu, 0x04u},
 452:Generated_Source\PSoC4/cyfitter_cfg.c **** 			{0x3Fu, 0x04u},
 453:Generated_Source\PSoC4/cyfitter_cfg.c **** 			{0x87u, 0x04u},
 454:Generated_Source\PSoC4/cyfitter_cfg.c **** 			{0xCEu, 0xC0u},
 455:Generated_Source\PSoC4/cyfitter_cfg.c **** 			{0xE2u, 0x40u},
 456:Generated_Source\PSoC4/cyfitter_cfg.c **** 			{0x10u, 0x20u},
 457:Generated_Source\PSoC4/cyfitter_cfg.c **** 			{0x54u, 0x20u},
 458:Generated_Source\PSoC4/cyfitter_cfg.c **** 			{0xC4u, 0x08u},
 459:Generated_Source\PSoC4/cyfitter_cfg.c **** 			{0xD4u, 0x02u},
ARM GAS  C:\Users\yunse\AppData\Local\Temp\cc34v5ew.s 			page 17


 460:Generated_Source\PSoC4/cyfitter_cfg.c **** 			{0x60u, 0x20u},
 461:Generated_Source\PSoC4/cyfitter_cfg.c **** 			{0x8Cu, 0x20u},
 462:Generated_Source\PSoC4/cyfitter_cfg.c **** 			{0xD8u, 0x02u},
 463:Generated_Source\PSoC4/cyfitter_cfg.c **** 			{0xE0u, 0x02u},
 464:Generated_Source\PSoC4/cyfitter_cfg.c **** 			{0x01u, 0x01u},
 465:Generated_Source\PSoC4/cyfitter_cfg.c **** 			{0x10u, 0x01u},
 466:Generated_Source\PSoC4/cyfitter_cfg.c **** 		};
 467:Generated_Source\PSoC4/cyfitter_cfg.c **** 
 468:Generated_Source\PSoC4/cyfitter_cfg.c **** 
 469:Generated_Source\PSoC4/cyfitter_cfg.c **** 
 470:Generated_Source\PSoC4/cyfitter_cfg.c **** 		CYPACKED typedef struct {
 471:Generated_Source\PSoC4/cyfitter_cfg.c **** 			void CYFAR *address;
 472:Generated_Source\PSoC4/cyfitter_cfg.c **** 			uint16 size;
 473:Generated_Source\PSoC4/cyfitter_cfg.c **** 		} CYPACKED_ATTR cfg_memset_t;
 474:Generated_Source\PSoC4/cyfitter_cfg.c **** 
 475:Generated_Source\PSoC4/cyfitter_cfg.c **** 		static const cfg_memset_t CYCODE cfg_memset_list [] = {
 476:Generated_Source\PSoC4/cyfitter_cfg.c **** 			/* address, size */
 477:Generated_Source\PSoC4/cyfitter_cfg.c **** 			{(void CYFAR *)(CYDEV_UDB_P0_U0_BASE), 1024u},
 478:Generated_Source\PSoC4/cyfitter_cfg.c **** 			{(void CYFAR *)(CYDEV_UDB_DSI0_BASE), 1024u},
 479:Generated_Source\PSoC4/cyfitter_cfg.c **** 		};
 480:Generated_Source\PSoC4/cyfitter_cfg.c **** 
 481:Generated_Source\PSoC4/cyfitter_cfg.c **** 		uint8 CYDATA i;
 482:Generated_Source\PSoC4/cyfitter_cfg.c **** 
 483:Generated_Source\PSoC4/cyfitter_cfg.c **** 		/* Zero out critical memory blocks before beginning configuration */
 484:Generated_Source\PSoC4/cyfitter_cfg.c **** 		for (i = 0u; i < (sizeof(cfg_memset_list)/sizeof(cfg_memset_list[0])); i++)
 442              		.loc 1 484 0
 443 0156 0024     		mov	r4, #0
 444 0158 10E0     		b	.L21
 445              	.LVL34:
 446              	.L22:
 447              	.LBB4:
 485:Generated_Source\PSoC4/cyfitter_cfg.c **** 		{
 486:Generated_Source\PSoC4/cyfitter_cfg.c **** 			const cfg_memset_t CYCODE * CYDATA ms = &cfg_memset_list[i];
 487:Generated_Source\PSoC4/cyfitter_cfg.c **** 			CYMEMZERO(ms->address, (size_t)(uint32)(ms->size));
 448              		.loc 1 487 0 discriminator 3
 449 015a 3448     		ldr	r0, .L23+4
 450 015c 6300     		lsl	r3, r4, #1
 451 015e 1A19     		add	r2, r3, r4
 452 0160 5200     		lsl	r2, r2, #1
 453 0162 8218     		add	r2, r0, r2
 454 0164 9188     		ldrh	r1, [r2, #4]
 455 0166 1B19     		add	r3, r3, r4
 456 0168 5B00     		lsl	r3, r3, #1
 457 016a 1A5A     		ldrh	r2, [r3, r0]
 458 016c C318     		add	r3, r0, r3
 459 016e 5888     		ldrh	r0, [r3, #2]
 460 0170 0004     		lsl	r0, r0, #16
 461 0172 1043     		orr	r0, r2
 462 0174 FFF7FEFF 		bl	CYMEMZERO
 463              	.LVL35:
 464              	.LBE4:
 484:Generated_Source\PSoC4/cyfitter_cfg.c **** 		{
 465              		.loc 1 484 0 discriminator 3
 466 0178 0134     		add	r4, r4, #1
 467              	.LVL36:
 468 017a E4B2     		uxtb	r4, r4
 469              	.LVL37:
ARM GAS  C:\Users\yunse\AppData\Local\Temp\cc34v5ew.s 			page 18


 470              	.L21:
 484:Generated_Source\PSoC4/cyfitter_cfg.c **** 		{
 471              		.loc 1 484 0 is_stmt 0 discriminator 1
 472 017c 012C     		cmp	r4, #1
 473 017e ECD9     		bls	.L22
 488:Generated_Source\PSoC4/cyfitter_cfg.c **** 		}
 489:Generated_Source\PSoC4/cyfitter_cfg.c **** 
 490:Generated_Source\PSoC4/cyfitter_cfg.c **** 		cfg_write_bytes32(cy_cfg_addr_table, cy_cfg_data_table);
 474              		.loc 1 490 0 is_stmt 1
 475 0180 2A49     		ldr	r1, .L23+4
 476 0182 081C     		mov	r0, r1
 477 0184 0C30     		add	r0, r0, #12
 478 0186 2831     		add	r1, r1, #40
 479 0188 FFF7FEFF 		bl	cfg_write_bytes32
 480              	.LVL38:
 491:Generated_Source\PSoC4/cyfitter_cfg.c **** 
 492:Generated_Source\PSoC4/cyfitter_cfg.c **** 		/* PWR_BG_CONFIG Starting address: CYDEV_PWR_BG_CONFIG */
 493:Generated_Source\PSoC4/cyfitter_cfg.c **** 		CY_SET_XTND_REG32((void CYFAR *)(CYREG_PWR_BG_CONFIG), 0x00040000u);
 481              		.loc 1 493 0
 482 018c 8022     		mov	r2, #128
 483 018e D202     		lsl	r2, r2, #11
 484 0190 274B     		ldr	r3, .L23+8
 485 0192 1A60     		str	r2, [r3]
 494:Generated_Source\PSoC4/cyfitter_cfg.c **** 
 495:Generated_Source\PSoC4/cyfitter_cfg.c **** 		/* HSIOM Starting address: CYDEV_HSIOM_BASE */
 496:Generated_Source\PSoC4/cyfitter_cfg.c **** 		CY_SET_XTND_REG32((void CYFAR *)(CYDEV_HSIOM_BASE), 0xEE000000u);
 486              		.loc 1 496 0
 487 0194 EE22     		mov	r2, #238
 488 0196 1206     		lsl	r2, r2, #24
 489 0198 264B     		ldr	r3, .L23+12
 490 019a 1A60     		str	r2, [r3]
 497:Generated_Source\PSoC4/cyfitter_cfg.c **** 		CY_SET_XTND_REG32((void CYFAR *)(CYREG_HSIOM_PORT_SEL2), 0x00000003u);
 491              		.loc 1 497 0
 492 019c 0322     		mov	r2, #3
 493 019e 264B     		ldr	r3, .L23+16
 494 01a0 1A60     		str	r2, [r3]
 498:Generated_Source\PSoC4/cyfitter_cfg.c **** 		CY_SET_XTND_REG32((void CYFAR *)(CYREG_HSIOM_PORT_SEL3), 0x30000000u);
 495              		.loc 1 498 0
 496 01a2 C022     		mov	r2, #192
 497 01a4 9205     		lsl	r2, r2, #22
 498 01a6 254B     		ldr	r3, .L23+20
 499 01a8 1A60     		str	r2, [r3]
 499:Generated_Source\PSoC4/cyfitter_cfg.c **** 
 500:Generated_Source\PSoC4/cyfitter_cfg.c **** 		/* UDB_PA_0 Starting address: CYDEV_UDB_PA0_BASE */
 501:Generated_Source\PSoC4/cyfitter_cfg.c **** 		CY_SET_XTND_REG32((void CYFAR *)(CYDEV_UDB_PA0_BASE), 0x00990000u);
 500              		.loc 1 501 0
 501 01aa 9923     		mov	r3, #153
 502 01ac 1B04     		lsl	r3, r3, #16
 503 01ae 244A     		ldr	r2, .L23+24
 504 01b0 1360     		str	r3, [r2]
 502:Generated_Source\PSoC4/cyfitter_cfg.c **** 
 503:Generated_Source\PSoC4/cyfitter_cfg.c **** 		/* UDB_PA_2 Starting address: CYDEV_UDB_PA2_BASE */
 504:Generated_Source\PSoC4/cyfitter_cfg.c **** 		CY_SET_XTND_REG32((void CYFAR *)(CYDEV_UDB_PA2_BASE), 0x00990000u);
 505              		.loc 1 504 0
 506 01b2 244A     		ldr	r2, .L23+28
 507 01b4 1360     		str	r3, [r2]
 505:Generated_Source\PSoC4/cyfitter_cfg.c **** 		CY_SET_XTND_REG32((void CYFAR *)(CYREG_UDB_PA2_CFG8), 0x00010000u);
ARM GAS  C:\Users\yunse\AppData\Local\Temp\cc34v5ew.s 			page 19


 508              		.loc 1 505 0
 509 01b6 8021     		mov	r1, #128
 510 01b8 4902     		lsl	r1, r1, #9
 511 01ba 234A     		ldr	r2, .L23+32
 512 01bc 1160     		str	r1, [r2]
 506:Generated_Source\PSoC4/cyfitter_cfg.c **** 
 507:Generated_Source\PSoC4/cyfitter_cfg.c **** 		/* UDB_PA_3 Starting address: CYDEV_UDB_PA3_BASE */
 508:Generated_Source\PSoC4/cyfitter_cfg.c **** 		CY_SET_XTND_REG32((void CYFAR *)(CYDEV_UDB_PA3_BASE), 0x00990000u);
 513              		.loc 1 508 0
 514 01be 234A     		ldr	r2, .L23+36
 515 01c0 1360     		str	r3, [r2]
 509:Generated_Source\PSoC4/cyfitter_cfg.c **** 		CY_SET_XTND_REG32((void CYFAR *)(CYREG_UDB_PA3_CFG8), 0x80000000u);
 516              		.loc 1 509 0
 517 01c2 8022     		mov	r2, #128
 518 01c4 1206     		lsl	r2, r2, #24
 519 01c6 224B     		ldr	r3, .L23+40
 520 01c8 1A60     		str	r2, [r3]
 510:Generated_Source\PSoC4/cyfitter_cfg.c **** 
 511:Generated_Source\PSoC4/cyfitter_cfg.c **** 		/* Enable digital routing */
 512:Generated_Source\PSoC4/cyfitter_cfg.c **** 		CY_SET_XTND_REG8((void *)CYREG_UDB_UDBIF_BANK_CTL, CY_GET_XTND_REG8((void *)CYREG_UDB_UDBIF_BANK_
 521              		.loc 1 512 0
 522 01ca 224B     		ldr	r3, .L23+44
 523 01cc 1978     		ldrb	r1, [r3]
 524 01ce 0222     		mov	r2, #2
 525 01d0 0A43     		orr	r2, r1
 526 01d2 1A70     		strb	r2, [r3]
 513:Generated_Source\PSoC4/cyfitter_cfg.c **** 
 514:Generated_Source\PSoC4/cyfitter_cfg.c **** 		/* Enable UDB array */
 515:Generated_Source\PSoC4/cyfitter_cfg.c **** 		CY_SET_XTND_REG8((void *)CYREG_UDB_UDBIF_WAIT_CFG, (uint8)((CY_GET_XTND_REG8((void *)CYREG_UDB_UD
 527              		.loc 1 515 0
 528 01d4 2048     		ldr	r0, .L23+48
 529 01d6 0278     		ldrb	r2, [r0]
 530 01d8 3C21     		mov	r1, #60
 531 01da 8A43     		bic	r2, r1
 532 01dc 2839     		sub	r1, r1, #40
 533 01de 0A43     		orr	r2, r1
 534 01e0 0270     		strb	r2, [r0]
 516:Generated_Source\PSoC4/cyfitter_cfg.c **** 		CY_SET_XTND_REG8((void *)CYREG_UDB_UDBIF_BANK_CTL, (uint8)(CY_GET_XTND_REG8((void *)CYREG_UDB_UDB
 535              		.loc 1 516 0
 536 01e2 1978     		ldrb	r1, [r3]
 537 01e4 1622     		mov	r2, #22
 538 01e6 0A43     		orr	r2, r1
 539 01e8 1A70     		strb	r2, [r3]
 540              	.LBE3:
 517:Generated_Source\PSoC4/cyfitter_cfg.c **** 	}
 518:Generated_Source\PSoC4/cyfitter_cfg.c **** 
 519:Generated_Source\PSoC4/cyfitter_cfg.c **** 	/* Perform second pass device configuration. These items must be configured in specific order afte
 520:Generated_Source\PSoC4/cyfitter_cfg.c **** 	/* IOPINS0_0 Starting address: CYDEV_GPIO_PRT0_BASE */
 521:Generated_Source\PSoC4/cyfitter_cfg.c **** 	CY_SET_XTND_REG32((void CYFAR *)(CYREG_GPIO_PRT0_PC), 0x00D80000u);
 541              		.loc 1 521 0
 542 01ea D822     		mov	r2, #216
 543 01ec 1204     		lsl	r2, r2, #16
 544 01ee 1B4B     		ldr	r3, .L23+52
 545 01f0 1A60     		str	r2, [r3]
 522:Generated_Source\PSoC4/cyfitter_cfg.c **** 
 523:Generated_Source\PSoC4/cyfitter_cfg.c **** 	/* IOPINS0_2 Starting address: CYDEV_GPIO_PRT2_BASE */
 524:Generated_Source\PSoC4/cyfitter_cfg.c **** 	CY_SET_XTND_REG32((void CYFAR *)(CYDEV_GPIO_PRT2_BASE), 0x0000007Fu);
ARM GAS  C:\Users\yunse\AppData\Local\Temp\cc34v5ew.s 			page 20


 546              		.loc 1 524 0
 547 01f2 7F22     		mov	r2, #127
 548 01f4 1A4B     		ldr	r3, .L23+56
 549 01f6 1A60     		str	r2, [r3]
 525:Generated_Source\PSoC4/cyfitter_cfg.c **** 	CY_SET_XTND_REG32((void CYFAR *)(CYREG_GPIO_PRT2_PC), 0x00180006u);
 550              		.loc 1 525 0
 551 01f8 1A4A     		ldr	r2, .L23+60
 552 01fa 1B4B     		ldr	r3, .L23+64
 553 01fc 1A60     		str	r2, [r3]
 526:Generated_Source\PSoC4/cyfitter_cfg.c **** 	CY_SET_XTND_REG32((void CYFAR *)(CYREG_GPIO_PRT2_PC2), 0x0000003Eu);
 554              		.loc 1 526 0
 555 01fe 3E22     		mov	r2, #62
 556 0200 1A4B     		ldr	r3, .L23+68
 557 0202 1A60     		str	r2, [r3]
 527:Generated_Source\PSoC4/cyfitter_cfg.c **** 
 528:Generated_Source\PSoC4/cyfitter_cfg.c **** 	/* IOPINS0_3 Starting address: CYDEV_GPIO_PRT3_BASE */
 529:Generated_Source\PSoC4/cyfitter_cfg.c **** 	CY_SET_XTND_REG32((void CYFAR *)(CYDEV_GPIO_PRT3_BASE), 0x00000080u);
 558              		.loc 1 529 0
 559 0204 4232     		add	r2, r2, #66
 560 0206 1A4B     		ldr	r3, .L23+72
 561 0208 1A60     		str	r2, [r3]
 530:Generated_Source\PSoC4/cyfitter_cfg.c **** 	CY_SET_XTND_REG32((void CYFAR *)(CYREG_GPIO_PRT3_PC), 0x00C00000u);
 562              		.loc 1 530 0
 563 020a C022     		mov	r2, #192
 564 020c 1204     		lsl	r2, r2, #16
 565 020e 194B     		ldr	r3, .L23+76
 566 0210 1A60     		str	r2, [r3]
 531:Generated_Source\PSoC4/cyfitter_cfg.c **** 
 532:Generated_Source\PSoC4/cyfitter_cfg.c **** 	/* IOPINS0_4 Starting address: CYDEV_GPIO_PRT4_BASE */
 533:Generated_Source\PSoC4/cyfitter_cfg.c **** 	CY_SET_XTND_REG32((void CYFAR *)(CYDEV_GPIO_PRT4_BASE), 0x00000001u);
 567              		.loc 1 533 0
 568 0212 0123     		mov	r3, #1
 569 0214 184A     		ldr	r2, .L23+80
 570 0216 1360     		str	r3, [r2]
 534:Generated_Source\PSoC4/cyfitter_cfg.c **** 	CY_SET_XTND_REG32((void CYFAR *)(CYREG_GPIO_PRT4_PC2), 0x00000001u);
 571              		.loc 1 534 0
 572 0218 184A     		ldr	r2, .L23+84
 573 021a 1360     		str	r3, [r2]
 535:Generated_Source\PSoC4/cyfitter_cfg.c **** 
 536:Generated_Source\PSoC4/cyfitter_cfg.c **** 
 537:Generated_Source\PSoC4/cyfitter_cfg.c **** 	/* Setup clocks based on selections from Clock DWR */
 538:Generated_Source\PSoC4/cyfitter_cfg.c **** 	ClockSetup();
 574              		.loc 1 538 0
 575 021c FFF7F0FE 		bl	ClockSetup
 576              	.LVL39:
 539:Generated_Source\PSoC4/cyfitter_cfg.c **** 
 540:Generated_Source\PSoC4/cyfitter_cfg.c **** 	/* Perform basic analog initialization to defaults */
 541:Generated_Source\PSoC4/cyfitter_cfg.c **** 	AnalogSetDefault();
 577              		.loc 1 541 0
 578 0220 FFF7FEFF 		bl	AnalogSetDefault
 579              	.LVL40:
 542:Generated_Source\PSoC4/cyfitter_cfg.c **** 
 543:Generated_Source\PSoC4/cyfitter_cfg.c **** }
 580              		.loc 1 543 0
 581              		@ sp needed
 582              	.LVL41:
 583 0224 10BD     		pop	{r4, pc}
ARM GAS  C:\Users\yunse\AppData\Local\Temp\cc34v5ew.s 			page 21


 584              	.L24:
 585 0226 C046     		.align	2
 586              	.L23:
 587 0228 6CF02E40 		.word	1076818028
 588 022c 00000000 		.word	.LANCHOR0
 589 0230 14000B40 		.word	1074462740
 590 0234 00000240 		.word	1073872896
 591 0238 00020240 		.word	1073873408
 592 023c 00030240 		.word	1073873664
 593 0240 00500F40 		.word	1074745344
 594 0244 20500F40 		.word	1074745376
 595 0248 28500F40 		.word	1074745384
 596 024c 30500F40 		.word	1074745392
 597 0250 38500F40 		.word	1074745400
 598 0254 00700F40 		.word	1074753536
 599 0258 01700F40 		.word	1074753537
 600 025c 08000440 		.word	1074003976
 601 0260 00020440 		.word	1074004480
 602 0264 06001800 		.word	1572870
 603 0268 08020440 		.word	1074004488
 604 026c 18020440 		.word	1074004504
 605 0270 00030440 		.word	1074004736
 606 0274 08030440 		.word	1074004744
 607 0278 00040440 		.word	1074004992
 608 027c 18040440 		.word	1074005016
 609              		.cfi_endproc
 610              	.LFE9:
 611              		.size	cyfitter_cfg, .-cyfitter_cfg
 612              		.section	.rodata
 613              		.align	2
 614              		.set	.LANCHOR0,. + 0
 615              		.type	cfg_memset_list.4800, %object
 616              		.size	cfg_memset_list.4800, 12
 617              	cfg_memset_list.4800:
 618 0000 00300F40 		.word	1074737152
 619 0004 0004     		.short	1024
 620 0006 00400F40 		.4byte	1074741248
 621 000a 0004     		.short	1024
 622              		.type	cy_cfg_addr_table.4794, %object
 623              		.size	cy_cfg_addr_table.4794, 28
 624              	cy_cfg_addr_table.4794:
 625 000c 01000F40 		.word	1074724865
 626 0010 2E320F40 		.word	1074737710
 627 0014 1D330F40 		.word	1074737949
 628 0018 05410F40 		.word	1074741509
 629 001c 04420F40 		.word	1074741764
 630 0020 04430F40 		.word	1074742020
 631 0024 02600F40 		.word	1074749442
 632              		.type	cy_cfg_data_table.4795, %object
 633              		.size	cy_cfg_data_table.4795, 182
 634              	cy_cfg_data_table.4795:
 635 0028 82       		.byte	-126
 636 0029 0D       		.byte	13
 637 002a 00       		.byte	0
 638 002b 08       		.byte	8
 639 002c 03       		.byte	3
 640 002d 01       		.byte	1
ARM GAS  C:\Users\yunse\AppData\Local\Temp\cc34v5ew.s 			page 22


 641 002e 0F       		.byte	15
 642 002f 02       		.byte	2
 643 0030 13       		.byte	19
 644 0031 02       		.byte	2
 645 0032 14       		.byte	20
 646 0033 01       		.byte	1
 647 0034 1A       		.byte	26
 648 0035 07       		.byte	7
 649 0036 2E       		.byte	46
 650 0037 04       		.byte	4
 651 0038 30       		.byte	48
 652 0039 04       		.byte	4
 653 003a 31       		.byte	49
 654 003b 01       		.byte	1
 655 003c 32       		.byte	50
 656 003d 02       		.byte	2
 657 003e 34       		.byte	52
 658 003f 08       		.byte	8
 659 0040 35       		.byte	53
 660 0041 02       		.byte	2
 661 0042 36       		.byte	54
 662 0043 01       		.byte	1
 663 0044 3E       		.byte	62
 664 0045 10       		.byte	16
 665 0046 3F       		.byte	63
 666 0047 10       		.byte	16
 667 0048 40       		.byte	64
 668 0049 10       		.byte	16
 669 004a 41       		.byte	65
 670 004b 05       		.byte	5
 671 004c 45       		.byte	69
 672 004d D1       		.byte	-47
 673 004e 46       		.byte	70
 674 004f 02       		.byte	2
 675 0050 48       		.byte	72
 676 0051 07       		.byte	7
 677 0052 49       		.byte	73
 678 0053 FF       		.byte	-1
 679 0054 4A       		.byte	74
 680 0055 FF       		.byte	-1
 681 0056 4B       		.byte	75
 682 0057 FF       		.byte	-1
 683 0058 4D       		.byte	77
 684 0059 A0       		.byte	-96
 685 005a 4F       		.byte	79
 686 005b 04       		.byte	4
 687 005c 50       		.byte	80
 688 005d 18       		.byte	24
 689 005e 52       		.byte	82
 690 005f 80       		.byte	-128
 691 0060 54       		.byte	84
 692 0061 05       		.byte	5
 693 0062 58       		.byte	88
 694 0063 04       		.byte	4
 695 0064 59       		.byte	89
 696 0065 04       		.byte	4
 697 0066 5A       		.byte	90
ARM GAS  C:\Users\yunse\AppData\Local\Temp\cc34v5ew.s 			page 23


 698 0067 04       		.byte	4
 699 0068 5B       		.byte	91
 700 0069 04       		.byte	4
 701 006a 5F       		.byte	95
 702 006b 01       		.byte	1
 703 006c 60       		.byte	96
 704 006d 40       		.byte	64
 705 006e 62       		.byte	98
 706 006f C0       		.byte	-64
 707 0070 64       		.byte	100
 708 0071 40       		.byte	64
 709 0072 65       		.byte	101
 710 0073 40       		.byte	64
 711 0074 66       		.byte	102
 712 0075 C0       		.byte	-64
 713 0076 68       		.byte	104
 714 0077 C0       		.byte	-64
 715 0078 6A       		.byte	106
 716 0079 C0       		.byte	-64
 717 007a 6C       		.byte	108
 718 007b C0       		.byte	-64
 719 007c 6E       		.byte	110
 720 007d C0       		.byte	-64
 721 007e B8       		.byte	-72
 722 007f 20       		.byte	32
 723 0080 BE       		.byte	-66
 724 0081 10       		.byte	16
 725 0082 D8       		.byte	-40
 726 0083 04       		.byte	4
 727 0084 DF       		.byte	-33
 728 0085 01       		.byte	1
 729 0086 05       		.byte	5
 730 0087 01       		.byte	1
 731 0088 0E       		.byte	14
 732 0089 20       		.byte	32
 733 008a 0F       		.byte	15
 734 008b 08       		.byte	8
 735 008c 17       		.byte	23
 736 008d 40       		.byte	64
 737 008e 1A       		.byte	26
 738 008f 04       		.byte	4
 739 0090 1D       		.byte	29
 740 0091 11       		.byte	17
 741 0092 1E       		.byte	30
 742 0093 20       		.byte	32
 743 0094 1F       		.byte	31
 744 0095 40       		.byte	64
 745 0096 26       		.byte	38
 746 0097 02       		.byte	2
 747 0098 27       		.byte	39
 748 0099 48       		.byte	72
 749 009a 36       		.byte	54
 750 009b 02       		.byte	2
 751 009c 3C       		.byte	60
 752 009d 02       		.byte	2
 753 009e 3F       		.byte	63
 754 009f 80       		.byte	-128
ARM GAS  C:\Users\yunse\AppData\Local\Temp\cc34v5ew.s 			page 24


 755 00a0 47       		.byte	71
 756 00a1 40       		.byte	64
 757 00a2 4B       		.byte	75
 758 00a3 C0       		.byte	-64
 759 00a4 4F       		.byte	79
 760 00a5 89       		.byte	-119
 761 00a6 57       		.byte	87
 762 00a7 40       		.byte	64
 763 00a8 5F       		.byte	95
 764 00a9 49       		.byte	73
 765 00aa 74       		.byte	116
 766 00ab 01       		.byte	1
 767 00ac 86       		.byte	-122
 768 00ad 04       		.byte	4
 769 00ae 8D       		.byte	-115
 770 00af 10       		.byte	16
 771 00b0 C0       		.byte	-64
 772 00b1 10       		.byte	16
 773 00b2 C2       		.byte	-62
 774 00b3 60       		.byte	96
 775 00b4 C4       		.byte	-60
 776 00b5 80       		.byte	-128
 777 00b6 CC       		.byte	-52
 778 00b7 80       		.byte	-128
 779 00b8 CE       		.byte	-50
 780 00b9 90       		.byte	-112
 781 00ba D0       		.byte	-48
 782 00bb 10       		.byte	16
 783 00bc D2       		.byte	-46
 784 00bd 10       		.byte	16
 785 00be D6       		.byte	-42
 786 00bf D0       		.byte	-48
 787 00c0 3B       		.byte	59
 788 00c1 04       		.byte	4
 789 00c2 3F       		.byte	63
 790 00c3 04       		.byte	4
 791 00c4 87       		.byte	-121
 792 00c5 04       		.byte	4
 793 00c6 CE       		.byte	-50
 794 00c7 C0       		.byte	-64
 795 00c8 E2       		.byte	-30
 796 00c9 40       		.byte	64
 797 00ca 10       		.byte	16
 798 00cb 20       		.byte	32
 799 00cc 54       		.byte	84
 800 00cd 20       		.byte	32
 801 00ce C4       		.byte	-60
 802 00cf 08       		.byte	8
 803 00d0 D4       		.byte	-44
 804 00d1 02       		.byte	2
 805 00d2 60       		.byte	96
 806 00d3 20       		.byte	32
 807 00d4 8C       		.byte	-116
 808 00d5 20       		.byte	32
 809 00d6 D8       		.byte	-40
 810 00d7 02       		.byte	2
 811 00d8 E0       		.byte	-32
ARM GAS  C:\Users\yunse\AppData\Local\Temp\cc34v5ew.s 			page 25


 812 00d9 02       		.byte	2
 813 00da 01       		.byte	1
 814 00db 01       		.byte	1
 815 00dc 10       		.byte	16
 816 00dd 01       		.byte	1
 817 00de 0000     		.text
 818              	.Letext0:
 819              		.file 2 "c:\\program files (x86)\\cypress\\psoc creator\\4.0\\psoc creator\\import\\gnu\\arm\\4.9.
 820              		.file 3 "Generated_Source\\PSoC4\\cytypes.h"
 821              		.file 4 "Generated_Source\\PSoC4\\CyLib.h"
 822              		.file 5 "Generated_Source\\PSoC4\\CyLFClk.h"