ARM GAS  C:\Users\yunse\AppData\Local\Temp\cck30uOT.s 			page 1


   1              		.cpu cortex-m0
   2              		.fpu softvfp
   3              		.eabi_attribute 20, 1
   4              		.eabi_attribute 21, 1
   5              		.eabi_attribute 23, 3
   6              		.eabi_attribute 24, 1
   7              		.eabi_attribute 25, 1
   8              		.eabi_attribute 26, 1
   9              		.eabi_attribute 30, 1
  10              		.eabi_attribute 34, 0
  11              		.eabi_attribute 18, 4
  12              		.code	16
  13              		.file	"main.c"
  14              		.text
  15              	.Ltext0:
  16              		.cfi_sections	.debug_frame
  17              		.section	.text.Timer_Int_Handler,"ax",%progbits
  18              		.align	2
  19              		.global	Timer_Int_Handler
  20              		.code	16
  21              		.thumb_func
  22              		.type	Timer_Int_Handler, %function
  23              	Timer_Int_Handler:
  24              	.LFB41:
  25              		.file 1 "main.c"
   1:main.c        **** #include <project.h>
   2:main.c        **** 
   3:main.c        **** uint16 fingerPos    = 0xFFFF;
   4:main.c        **** uint16 fingerPosOld = 0xFFFF;
   5:main.c        **** 
   6:main.c        **** int capsenseNotify;
   7:main.c        **** 
   8:main.c        **** 
   9:main.c        **** /***************************************************************
  10:main.c        ****  * Function to update the LED state in the GATT database
  11:main.c        ****  **************************************************************/
  12:main.c        **** void updateServo()
  13:main.c        **** {
  14:main.c        ****     CYBLE_GATTS_HANDLE_VALUE_NTF_T 	tempHandle;
  15:main.c        ****    
  16:main.c        ****     //uint8 red_State = !red_Read();
  17:main.c        ****     
  18:main.c        ****     if(CyBle_GetState() != CYBLE_STATE_CONNECTED)
  19:main.c        ****         return;
  20:main.c        ****     
  21:main.c        ****     tempHandle.attrHandle = CYBLE_LEDCAPSENSE_LED_CHAR_HANDLE;
  22:main.c        ****   	//tempHandle.value.val = (uint8 *) &red_State;
  23:main.c        ****     tempHandle.value.len = 1;
  24:main.c        ****     CyBle_GattsWriteAttributeValue(&tempHandle,0,&cyBle_connHandle,CYBLE_GATT_DB_LOCALLY_INITIATED)
  25:main.c        **** }
  26:main.c        **** 
  27:main.c        **** /***************************************************************
  28:main.c        ****  * Function to update the LED state in the GATT database
  29:main.c        ****  **************************************************************/
  30:main.c        **** void updateLed()
  31:main.c        **** {
  32:main.c        ****     CYBLE_GATTS_HANDLE_VALUE_NTF_T 	tempHandle;
ARM GAS  C:\Users\yunse\AppData\Local\Temp\cck30uOT.s 			page 2


  33:main.c        ****    
  34:main.c        ****     uint8 red_State = !red_Read();
  35:main.c        ****     
  36:main.c        ****     if(CyBle_GetState() != CYBLE_STATE_CONNECTED)
  37:main.c        ****         return;
  38:main.c        ****     
  39:main.c        ****     tempHandle.attrHandle = CYBLE_LEDCAPSENSE_LED_CHAR_HANDLE;
  40:main.c        ****   	tempHandle.value.val = (uint8 *) &red_State;
  41:main.c        ****     tempHandle.value.len = 1;
  42:main.c        ****     CyBle_GattsWriteAttributeValue(&tempHandle,0,&cyBle_connHandle,CYBLE_GATT_DB_LOCALLY_INITIATED)
  43:main.c        **** }
  44:main.c        **** 
  45:main.c        **** /***************************************************************
  46:main.c        ****  * Function to update the CapSesnse state in the GATT database
  47:main.c        ****  **************************************************************/
  48:main.c        **** void updateCapsense()
  49:main.c        **** {
  50:main.c        ****     if(CyBle_GetState() != CYBLE_STATE_CONNECTED)
  51:main.c        ****         return;
  52:main.c        ****     
  53:main.c        **** 	CYBLE_GATTS_HANDLE_VALUE_NTF_T 	tempHandle;
  54:main.c        ****     
  55:main.c        ****     tempHandle.attrHandle = CYBLE_LEDCAPSENSE_CAPSENSE_CHAR_HANDLE;
  56:main.c        ****   	tempHandle.value.val = (uint8 *)&fingerPos;
  57:main.c        ****     tempHandle.value.len = 2; 
  58:main.c        ****     CyBle_GattsWriteAttributeValue(&tempHandle,0,&cyBle_connHandle,CYBLE_GATT_DB_LOCALLY_INITIATED 
  59:main.c        ****     
  60:main.c        ****     /* send notification to client if notifications are enabled and finger location has changed */
  61:main.c        ****     if (capsenseNotify && (fingerPos != fingerPosOld) )
  62:main.c        ****         CyBle_GattsNotification(cyBle_connHandle,&tempHandle);
  63:main.c        ****         fingerPosOld = fingerPos;
  64:main.c        **** }
  65:main.c        **** 
  66:main.c        **** /***************************************************************
  67:main.c        ****  * Function to handle the BLE stack
  68:main.c        ****  **************************************************************/
  69:main.c        **** void BleCallBack(uint32 event, void* eventParam)
  70:main.c        **** {
  71:main.c        ****     CYBLE_GATTS_WRITE_REQ_PARAM_T *wrReqParam;
  72:main.c        **** 
  73:main.c        ****     switch(event)
  74:main.c        ****     {
  75:main.c        ****         /* if there is a disconnect or the stack just turned on from a reset then start the adverti
  76:main.c        ****         case CYBLE_EVT_STACK_ON:
  77:main.c        ****         case CYBLE_EVT_GAP_DEVICE_DISCONNECTED:
  78:main.c        ****             capsenseNotify = 0;
  79:main.c        ****             CyBle_GappStartAdvertisement(CYBLE_ADVERTISING_FAST);
  80:main.c        ****             pwm_Start();
  81:main.c        ****         break;
  82:main.c        ****         
  83:main.c        ****         /* when a connection is made, update the LED and Capsense states in the GATT database and s
  84:main.c        ****         case CYBLE_EVT_GATT_CONNECT_IND:
  85:main.c        ****             updateServo();
  86:main.c        ****             updateLed();
  87:main.c        ****             updateCapsense();  
  88:main.c        ****             pwm_Stop();
  89:main.c        **** 		break;
ARM GAS  C:\Users\yunse\AppData\Local\Temp\cck30uOT.s 			page 3


  90:main.c        **** 
  91:main.c        ****         /* handle a write request */
  92:main.c        ****         case CYBLE_EVT_GATTS_WRITE_REQ:
  93:main.c        ****             wrReqParam = (CYBLE_GATTS_WRITE_REQ_PARAM_T *) eventParam;
  94:main.c        **** 			
  95:main.c        ****             /* request write the Servo value */
  96:main.c        ****             if(wrReqParam->handleValPair.attrHandle == CYBLE_LEDCAPSENSE_SERVO_CHAR_HANDLE)
  97:main.c        ****             {
  98:main.c        ****                 /* only update the value and write the response if the requested write is allowed *
  99:main.c        ****                 if(CYBLE_GATT_ERR_NONE == CyBle_GattsWriteAttributeValue(&wrReqParam->handleValPair
 100:main.c        ****                 {
 101:main.c        ****                     switch (wrReqParam->handleValPair.value.val[0]) {
 102:main.c        ****                         case (0):
 103:main.c        ****                             PWM_Servo_WriteCompare(4700);
 104:main.c        ****                             Timer_WritePeriod(1205);
 105:main.c        ****                             Timer_Start();
 106:main.c        ****                         break;
 107:main.c        ****                         case (1):
 108:main.c        ****                             PWM_Servo_WriteCompare(4700);
 109:main.c        ****                             Timer_WritePeriod(540);
 110:main.c        ****                             Timer_Start();
 111:main.c        ****                         break;
 112:main.c        ****                         case (2):
 113:main.c        ****                             PWM_Servo_WriteCompare(4700);
 114:main.c        ****                             Timer_WritePeriod(225);
 115:main.c        ****                             Timer_Start();
 116:main.c        ****                         break;
 117:main.c        ****                     default:
 118:main.c        ****                         break;
 119:main.c        ****                     }
 120:main.c        ****                     red_Write(!wrReqParam->handleValPair.value.val[0]);
 121:main.c        ****                     CyBle_GattsWriteRsp(cyBle_connHandle);
 122:main.c        ****                 }
 123:main.c        ****             }
 124:main.c        ****             
 125:main.c        ****             /* request write the LED value */
 126:main.c        ****             if(wrReqParam->handleValPair.attrHandle == CYBLE_LEDCAPSENSE_LED_CHAR_HANDLE)
 127:main.c        ****             {
 128:main.c        ****                 /* only update the value and write the response if the requested write is allowed *
 129:main.c        ****                 if(CYBLE_GATT_ERR_NONE == CyBle_GattsWriteAttributeValue(&wrReqParam->handleValPair
 130:main.c        ****                 {
 131:main.c        ****                     red_Write(!wrReqParam->handleValPair.value.val[0]);
 132:main.c        ****                     CyBle_GattsWriteRsp(cyBle_connHandle);
 133:main.c        ****                 }
 134:main.c        ****             }
 135:main.c        ****             
 136:main.c        ****             /* request to update the CapSense notification */
 137:main.c        ****             if(wrReqParam->handleValPair.attrHandle == CYBLE_LEDCAPSENSE_CAPSENSE_CAPSENSECCCD_DESC
 138:main.c        ****             {
 139:main.c        ****                 CyBle_GattsWriteAttributeValue(&wrReqParam->handleValPair, 0, &cyBle_connHandle, CY
 140:main.c        ****                 capsenseNotify = wrReqParam->handleValPair.value.val[0] & 0x01;
 141:main.c        ****                 CyBle_GattsWriteRsp(cyBle_connHandle);
 142:main.c        ****             }		
 143:main.c        **** 			break;  
 144:main.c        ****         
 145:main.c        ****         default:
 146:main.c        ****             break;
ARM GAS  C:\Users\yunse\AppData\Local\Temp\cck30uOT.s 			page 4


 147:main.c        ****     }
 148:main.c        **** } 
 149:main.c        **** 
 150:main.c        **** CY_ISR(Timer_Int_Handler) {
  26              		.loc 1 150 0
  27              		.cfi_startproc
  28 0000 08B5     		push	{r3, lr}
  29              		.cfi_def_cfa_offset 8
  30              		.cfi_offset 3, -8
  31              		.cfi_offset 14, -4
 151:main.c        ****     PWM_Servo_WriteCompare(0);
  32              		.loc 1 151 0
  33 0002 0020     		mov	r0, #0
  34 0004 FFF7FEFF 		bl	PWM_Servo_WriteCompare
  35              	.LVL0:
 152:main.c        ****     Timer_ClearInterrupt(Timer_INTR_MASK_TC);
  36              		.loc 1 152 0
  37 0008 0120     		mov	r0, #1
  38 000a FFF7FEFF 		bl	Timer_ClearInterrupt
  39              	.LVL1:
 153:main.c        **** }
  40              		.loc 1 153 0
  41              		@ sp needed
  42 000e 08BD     		pop	{r3, pc}
  43              		.cfi_endproc
  44              	.LFE41:
  45              		.size	Timer_Int_Handler, .-Timer_Int_Handler
  46              		.section	.text.updateServo,"ax",%progbits
  47              		.align	2
  48              		.global	updateServo
  49              		.code	16
  50              		.thumb_func
  51              		.type	updateServo, %function
  52              	updateServo:
  53              	.LFB37:
  13:main.c        ****     CYBLE_GATTS_HANDLE_VALUE_NTF_T 	tempHandle;
  54              		.loc 1 13 0
  55              		.cfi_startproc
  56 0000 00B5     		push	{lr}
  57              		.cfi_def_cfa_offset 4
  58              		.cfi_offset 14, -4
  59 0002 85B0     		sub	sp, sp, #20
  60              		.cfi_def_cfa_offset 24
  18:main.c        ****         return;
  61              		.loc 1 18 0
  62 0004 074B     		ldr	r3, .L5
  63 0006 1B78     		ldrb	r3, [r3]
  64 0008 022B     		cmp	r3, #2
  65 000a 09D1     		bne	.L2
  21:main.c        ****   	//tempHandle.value.val = (uint8 *) &red_State;
  66              		.loc 1 21 0
  67 000c 01A8     		add	r0, sp, #4
  68 000e 0C33     		add	r3, r3, #12
  69 0010 0381     		strh	r3, [r0, #8]
  23:main.c        ****     CyBle_GattsWriteAttributeValue(&tempHandle,0,&cyBle_connHandle,CYBLE_GATT_DB_LOCALLY_INITIATED)
  70              		.loc 1 23 0
  71 0012 0D3B     		sub	r3, r3, #13
ARM GAS  C:\Users\yunse\AppData\Local\Temp\cck30uOT.s 			page 5


  72 0014 8380     		strh	r3, [r0, #4]
  24:main.c        **** }
  73              		.loc 1 24 0
  74 0016 0021     		mov	r1, #0
  75 0018 034A     		ldr	r2, .L5+4
  76 001a 0023     		mov	r3, #0
  77 001c FFF7FEFF 		bl	CyBle_GattsWriteAttributeValue
  78              	.LVL2:
  79              	.L2:
  25:main.c        **** 
  80              		.loc 1 25 0
  81 0020 05B0     		add	sp, sp, #20
  82              		@ sp needed
  83 0022 00BD     		pop	{pc}
  84              	.L6:
  85              		.align	2
  86              	.L5:
  87 0024 00000000 		.word	cyBle_state
  88 0028 00000000 		.word	cyBle_connHandle
  89              		.cfi_endproc
  90              	.LFE37:
  91              		.size	updateServo, .-updateServo
  92              		.section	.text.updateLed,"ax",%progbits
  93              		.align	2
  94              		.global	updateLed
  95              		.code	16
  96              		.thumb_func
  97              		.type	updateLed, %function
  98              	updateLed:
  99              	.LFB38:
  31:main.c        ****     CYBLE_GATTS_HANDLE_VALUE_NTF_T 	tempHandle;
 100              		.loc 1 31 0
 101              		.cfi_startproc
 102 0000 00B5     		push	{lr}
 103              		.cfi_def_cfa_offset 4
 104              		.cfi_offset 14, -4
 105 0002 85B0     		sub	sp, sp, #20
 106              		.cfi_def_cfa_offset 24
  34:main.c        ****     
 107              		.loc 1 34 0
 108 0004 FFF7FEFF 		bl	red_Read
 109              	.LVL3:
 110 0008 4342     		neg	r3, r0
 111 000a 4341     		adc	r3, r3, r0
 112 000c 6A46     		mov	r2, sp
 113 000e D370     		strb	r3, [r2, #3]
 114 0010 0332     		add	r2, r2, #3
  36:main.c        ****         return;
 115              		.loc 1 36 0
 116 0012 084B     		ldr	r3, .L10
 117 0014 1B78     		ldrb	r3, [r3]
 118 0016 022B     		cmp	r3, #2
 119 0018 0AD1     		bne	.L7
  39:main.c        ****   	tempHandle.value.val = (uint8 *) &red_State;
 120              		.loc 1 39 0
 121 001a 01A8     		add	r0, sp, #4
 122 001c 0C33     		add	r3, r3, #12
ARM GAS  C:\Users\yunse\AppData\Local\Temp\cck30uOT.s 			page 6


 123 001e 0381     		strh	r3, [r0, #8]
  40:main.c        ****     tempHandle.value.len = 1;
 124              		.loc 1 40 0
 125 0020 0192     		str	r2, [sp, #4]
  41:main.c        ****     CyBle_GattsWriteAttributeValue(&tempHandle,0,&cyBle_connHandle,CYBLE_GATT_DB_LOCALLY_INITIATED)
 126              		.loc 1 41 0
 127 0022 0123     		mov	r3, #1
 128 0024 8380     		strh	r3, [r0, #4]
  42:main.c        **** }
 129              		.loc 1 42 0
 130 0026 0021     		mov	r1, #0
 131 0028 034A     		ldr	r2, .L10+4
 132 002a 0023     		mov	r3, #0
 133 002c FFF7FEFF 		bl	CyBle_GattsWriteAttributeValue
 134              	.LVL4:
 135              	.L7:
  43:main.c        **** 
 136              		.loc 1 43 0
 137 0030 05B0     		add	sp, sp, #20
 138              		@ sp needed
 139 0032 00BD     		pop	{pc}
 140              	.L11:
 141              		.align	2
 142              	.L10:
 143 0034 00000000 		.word	cyBle_state
 144 0038 00000000 		.word	cyBle_connHandle
 145              		.cfi_endproc
 146              	.LFE38:
 147              		.size	updateLed, .-updateLed
 148              		.section	.text.updateCapsense,"ax",%progbits
 149              		.align	2
 150              		.global	updateCapsense
 151              		.code	16
 152              		.thumb_func
 153              		.type	updateCapsense, %function
 154              	updateCapsense:
 155              	.LFB39:
  49:main.c        ****     if(CyBle_GetState() != CYBLE_STATE_CONNECTED)
 156              		.loc 1 49 0
 157              		.cfi_startproc
 158 0000 00B5     		push	{lr}
 159              		.cfi_def_cfa_offset 4
 160              		.cfi_offset 14, -4
 161 0002 85B0     		sub	sp, sp, #20
 162              		.cfi_def_cfa_offset 24
  50:main.c        ****         return;
 163              		.loc 1 50 0
 164 0004 124B     		ldr	r3, .L16
 165 0006 1B78     		ldrb	r3, [r3]
 166 0008 022B     		cmp	r3, #2
 167 000a 1FD1     		bne	.L12
  55:main.c        ****   	tempHandle.value.val = (uint8 *)&fingerPos;
 168              		.loc 1 55 0
 169 000c 01A8     		add	r0, sp, #4
 170 000e 0F33     		add	r3, r3, #15
 171 0010 0381     		strh	r3, [r0, #8]
  56:main.c        ****     tempHandle.value.len = 2; 
ARM GAS  C:\Users\yunse\AppData\Local\Temp\cck30uOT.s 			page 7


 172              		.loc 1 56 0
 173 0012 104B     		ldr	r3, .L16+4
 174 0014 0193     		str	r3, [sp, #4]
  57:main.c        ****     CyBle_GattsWriteAttributeValue(&tempHandle,0,&cyBle_connHandle,CYBLE_GATT_DB_LOCALLY_INITIATED 
 175              		.loc 1 57 0
 176 0016 0223     		mov	r3, #2
 177 0018 8380     		strh	r3, [r0, #4]
  58:main.c        ****     
 178              		.loc 1 58 0
 179 001a 0021     		mov	r1, #0
 180 001c 0E4A     		ldr	r2, .L16+8
 181 001e 0023     		mov	r3, #0
 182 0020 FFF7FEFF 		bl	CyBle_GattsWriteAttributeValue
 183              	.LVL5:
  61:main.c        ****         CyBle_GattsNotification(cyBle_connHandle,&tempHandle);
 184              		.loc 1 61 0
 185 0024 0D4B     		ldr	r3, .L16+12
 186 0026 1B68     		ldr	r3, [r3]
 187 0028 002B     		cmp	r3, #0
 188 002a 0CD0     		beq	.L14
  61:main.c        ****         CyBle_GattsNotification(cyBle_connHandle,&tempHandle);
 189              		.loc 1 61 0 is_stmt 0 discriminator 1
 190 002c 094B     		ldr	r3, .L16+4
 191 002e 1A88     		ldrh	r2, [r3]
 192 0030 5B88     		ldrh	r3, [r3, #2]
 193 0032 9A42     		cmp	r2, r3
 194 0034 07D0     		beq	.L14
  62:main.c        ****         fingerPosOld = fingerPos;
 195              		.loc 1 62 0 is_stmt 1
 196 0036 084A     		ldr	r2, .L16+8
 197 0038 1378     		ldrb	r3, [r2]
 198 003a 5078     		ldrb	r0, [r2, #1]
 199 003c 0002     		lsl	r0, r0, #8
 200 003e 1843     		orr	r0, r3
 201 0040 01A9     		add	r1, sp, #4
 202 0042 FFF7FEFF 		bl	CyBle_GattsNotification
 203              	.LVL6:
 204              	.L14:
  63:main.c        **** }
 205              		.loc 1 63 0
 206 0046 034B     		ldr	r3, .L16+4
 207 0048 1A88     		ldrh	r2, [r3]
 208 004a 5A80     		strh	r2, [r3, #2]
 209              	.L12:
  64:main.c        **** 
 210              		.loc 1 64 0
 211 004c 05B0     		add	sp, sp, #20
 212              		@ sp needed
 213 004e 00BD     		pop	{pc}
 214              	.L17:
 215              		.align	2
 216              	.L16:
 217 0050 00000000 		.word	cyBle_state
 218 0054 00000000 		.word	.LANCHOR0
 219 0058 00000000 		.word	cyBle_connHandle
 220 005c 00000000 		.word	capsenseNotify
 221              		.cfi_endproc
ARM GAS  C:\Users\yunse\AppData\Local\Temp\cck30uOT.s 			page 8


 222              	.LFE39:
 223              		.size	updateCapsense, .-updateCapsense
 224              		.section	.text.BleCallBack,"ax",%progbits
 225              		.align	2
 226              		.global	BleCallBack
 227              		.code	16
 228              		.thumb_func
 229              		.type	BleCallBack, %function
 230              	BleCallBack:
 231              	.LFB40:
  70:main.c        ****     CYBLE_GATTS_WRITE_REQ_PARAM_T *wrReqParam;
 232              		.loc 1 70 0
 233              		.cfi_startproc
 234              	.LVL7:
 235 0000 38B5     		push	{r3, r4, r5, lr}
 236              		.cfi_def_cfa_offset 16
 237              		.cfi_offset 3, -16
 238              		.cfi_offset 4, -12
 239              		.cfi_offset 5, -8
 240              		.cfi_offset 14, -4
 241 0002 0C1C     		mov	r4, r1
  73:main.c        ****     {
 242              		.loc 1 73 0
 243 0004 2828     		cmp	r0, #40
 244 0006 08D0     		beq	.L20
 245 0008 02D8     		bhi	.L21
 246 000a 0128     		cmp	r0, #1
 247 000c 05D0     		beq	.L20
 248 000e 82E0     		b	.L18
 249              	.L21:
 250 0010 4128     		cmp	r0, #65
 251 0012 0BD0     		beq	.L22
 252 0014 4C28     		cmp	r0, #76
 253 0016 12D0     		beq	.L23
 254 0018 7DE0     		b	.L18
 255              	.L20:
  78:main.c        ****             CyBle_GappStartAdvertisement(CYBLE_ADVERTISING_FAST);
 256              		.loc 1 78 0
 257 001a 0022     		mov	r2, #0
 258 001c 3E4B     		ldr	r3, .L30
 259 001e 1A60     		str	r2, [r3]
  79:main.c        ****             pwm_Start();
 260              		.loc 1 79 0
 261 0020 0020     		mov	r0, #0
 262              	.LVL8:
 263 0022 FFF7FEFF 		bl	CyBle_GappStartAdvertisement
 264              	.LVL9:
  80:main.c        ****         break;
 265              		.loc 1 80 0
 266 0026 FFF7FEFF 		bl	pwm_Start
 267              	.LVL10:
  81:main.c        ****         
 268              		.loc 1 81 0
 269 002a 74E0     		b	.L18
 270              	.LVL11:
 271              	.L22:
  85:main.c        ****             updateLed();
ARM GAS  C:\Users\yunse\AppData\Local\Temp\cck30uOT.s 			page 9


 272              		.loc 1 85 0
 273 002c FFF7FEFF 		bl	updateServo
 274              	.LVL12:
  86:main.c        ****             updateCapsense();  
 275              		.loc 1 86 0
 276 0030 FFF7FEFF 		bl	updateLed
 277              	.LVL13:
  87:main.c        ****             pwm_Stop();
 278              		.loc 1 87 0
 279 0034 FFF7FEFF 		bl	updateCapsense
 280              	.LVL14:
  88:main.c        **** 		break;
 281              		.loc 1 88 0
 282 0038 FFF7FEFF 		bl	pwm_Stop
 283              	.LVL15:
  89:main.c        **** 
 284              		.loc 1 89 0
 285 003c 6BE0     		b	.L18
 286              	.LVL16:
 287              	.L23:
  96:main.c        ****             {
 288              		.loc 1 96 0
 289 003e 8B89     		ldrh	r3, [r1, #12]
 290 0040 152B     		cmp	r3, #21
 291 0042 39D1     		bne	.L24
  99:main.c        ****                 {
 292              		.loc 1 99 0
 293 0044 081D     		add	r0, r1, #4
 294              	.LVL17:
 295 0046 0021     		mov	r1, #0
 296              	.LVL18:
 297 0048 344A     		ldr	r2, .L30+4
 298 004a 2B33     		add	r3, r3, #43
 299 004c FFF7FEFF 		bl	CyBle_GattsWriteAttributeValue
 300              	.LVL19:
 301 0050 0028     		cmp	r0, #0
 302 0052 31D1     		bne	.L24
 101:main.c        ****                         case (0):
 303              		.loc 1 101 0
 304 0054 6368     		ldr	r3, [r4, #4]
 305 0056 1B78     		ldrb	r3, [r3]
 306 0058 012B     		cmp	r3, #1
 307 005a 0DD0     		beq	.L26
 308 005c 002B     		cmp	r3, #0
 309 005e 02D0     		beq	.L27
 310 0060 022B     		cmp	r3, #2
 311 0062 13D0     		beq	.L28
 312 0064 1AE0     		b	.L25
 313              	.L27:
 103:main.c        ****                             Timer_WritePeriod(1205);
 314              		.loc 1 103 0
 315 0066 2E48     		ldr	r0, .L30+8
 316 0068 FFF7FEFF 		bl	PWM_Servo_WriteCompare
 317              	.LVL20:
 104:main.c        ****                             Timer_Start();
 318              		.loc 1 104 0
 319 006c 2D48     		ldr	r0, .L30+12
ARM GAS  C:\Users\yunse\AppData\Local\Temp\cck30uOT.s 			page 10


 320 006e FFF7FEFF 		bl	Timer_WritePeriod
 321              	.LVL21:
 105:main.c        ****                         break;
 322              		.loc 1 105 0
 323 0072 FFF7FEFF 		bl	Timer_Start
 324              	.LVL22:
 106:main.c        ****                         case (1):
 325              		.loc 1 106 0
 326 0076 11E0     		b	.L25
 327              	.L26:
 108:main.c        ****                             Timer_WritePeriod(540);
 328              		.loc 1 108 0
 329 0078 2948     		ldr	r0, .L30+8
 330 007a FFF7FEFF 		bl	PWM_Servo_WriteCompare
 331              	.LVL23:
 109:main.c        ****                             Timer_Start();
 332              		.loc 1 109 0
 333 007e 8720     		mov	r0, #135
 334 0080 8000     		lsl	r0, r0, #2
 335 0082 FFF7FEFF 		bl	Timer_WritePeriod
 336              	.LVL24:
 110:main.c        ****                         break;
 337              		.loc 1 110 0
 338 0086 FFF7FEFF 		bl	Timer_Start
 339              	.LVL25:
 111:main.c        ****                         case (2):
 340              		.loc 1 111 0
 341 008a 07E0     		b	.L25
 342              	.L28:
 113:main.c        ****                             Timer_WritePeriod(225);
 343              		.loc 1 113 0
 344 008c 2448     		ldr	r0, .L30+8
 345 008e FFF7FEFF 		bl	PWM_Servo_WriteCompare
 346              	.LVL26:
 114:main.c        ****                             Timer_Start();
 347              		.loc 1 114 0
 348 0092 E120     		mov	r0, #225
 349 0094 FFF7FEFF 		bl	Timer_WritePeriod
 350              	.LVL27:
 115:main.c        ****                         break;
 351              		.loc 1 115 0
 352 0098 FFF7FEFF 		bl	Timer_Start
 353              	.LVL28:
 354              	.L25:
 120:main.c        ****                     CyBle_GattsWriteRsp(cyBle_connHandle);
 355              		.loc 1 120 0
 356 009c 6368     		ldr	r3, [r4, #4]
 357 009e 1B78     		ldrb	r3, [r3]
 358 00a0 5842     		neg	r0, r3
 359 00a2 5841     		adc	r0, r0, r3
 360 00a4 C0B2     		uxtb	r0, r0
 361 00a6 FFF7FEFF 		bl	red_Write
 362              	.LVL29:
 121:main.c        ****                 }
 363              		.loc 1 121 0
 364 00aa 1C4A     		ldr	r2, .L30+4
 365 00ac 1378     		ldrb	r3, [r2]
ARM GAS  C:\Users\yunse\AppData\Local\Temp\cck30uOT.s 			page 11


 366 00ae 5078     		ldrb	r0, [r2, #1]
 367 00b0 0002     		lsl	r0, r0, #8
 368 00b2 1843     		orr	r0, r3
 369 00b4 FFF7FEFF 		bl	CyBle_GattsWriteRsp
 370              	.LVL30:
 371              	.L24:
 126:main.c        ****             {
 372              		.loc 1 126 0
 373 00b8 A389     		ldrh	r3, [r4, #12]
 374 00ba 0E2B     		cmp	r3, #14
 375 00bc 15D1     		bne	.L29
 129:main.c        ****                 {
 376              		.loc 1 129 0
 377 00be 201D     		add	r0, r4, #4
 378 00c0 0021     		mov	r1, #0
 379 00c2 164A     		ldr	r2, .L30+4
 380 00c4 3233     		add	r3, r3, #50
 381 00c6 FFF7FEFF 		bl	CyBle_GattsWriteAttributeValue
 382              	.LVL31:
 383 00ca 0028     		cmp	r0, #0
 384 00cc 0DD1     		bne	.L29
 131:main.c        ****                     CyBle_GattsWriteRsp(cyBle_connHandle);
 385              		.loc 1 131 0
 386 00ce 6368     		ldr	r3, [r4, #4]
 387 00d0 1B78     		ldrb	r3, [r3]
 388 00d2 5842     		neg	r0, r3
 389 00d4 5841     		adc	r0, r0, r3
 390 00d6 C0B2     		uxtb	r0, r0
 391 00d8 FFF7FEFF 		bl	red_Write
 392              	.LVL32:
 132:main.c        ****                 }
 393              		.loc 1 132 0
 394 00dc 0F4A     		ldr	r2, .L30+4
 395 00de 1378     		ldrb	r3, [r2]
 396 00e0 5078     		ldrb	r0, [r2, #1]
 397 00e2 0002     		lsl	r0, r0, #8
 398 00e4 1843     		orr	r0, r3
 399 00e6 FFF7FEFF 		bl	CyBle_GattsWriteRsp
 400              	.LVL33:
 401              	.L29:
 137:main.c        ****             {
 402              		.loc 1 137 0
 403 00ea A389     		ldrh	r3, [r4, #12]
 404 00ec 122B     		cmp	r3, #18
 405 00ee 12D1     		bne	.L18
 139:main.c        ****                 capsenseNotify = wrReqParam->handleValPair.value.val[0] & 0x01;
 406              		.loc 1 139 0
 407 00f0 201D     		add	r0, r4, #4
 408 00f2 0A4D     		ldr	r5, .L30+4
 409 00f4 0021     		mov	r1, #0
 410 00f6 2A1C     		mov	r2, r5
 411 00f8 2E33     		add	r3, r3, #46
 412 00fa FFF7FEFF 		bl	CyBle_GattsWriteAttributeValue
 413              	.LVL34:
 140:main.c        ****                 CyBle_GattsWriteRsp(cyBle_connHandle);
 414              		.loc 1 140 0
 415 00fe 6368     		ldr	r3, [r4, #4]
ARM GAS  C:\Users\yunse\AppData\Local\Temp\cck30uOT.s 			page 12


 416 0100 1B78     		ldrb	r3, [r3]
 417 0102 0122     		mov	r2, #1
 418 0104 1340     		and	r3, r2
 419 0106 044A     		ldr	r2, .L30
 420 0108 1360     		str	r3, [r2]
 141:main.c        ****             }		
 421              		.loc 1 141 0
 422 010a 2B78     		ldrb	r3, [r5]
 423 010c 6878     		ldrb	r0, [r5, #1]
 424 010e 0002     		lsl	r0, r0, #8
 425 0110 1843     		orr	r0, r3
 426 0112 FFF7FEFF 		bl	CyBle_GattsWriteRsp
 427              	.LVL35:
 428              	.L18:
 148:main.c        **** 
 429              		.loc 1 148 0
 430              		@ sp needed
 431              	.LVL36:
 432 0116 38BD     		pop	{r3, r4, r5, pc}
 433              	.L31:
 434              		.align	2
 435              	.L30:
 436 0118 00000000 		.word	capsenseNotify
 437 011c 00000000 		.word	cyBle_connHandle
 438 0120 5C120000 		.word	4700
 439 0124 B5040000 		.word	1205
 440              		.cfi_endproc
 441              	.LFE40:
 442              		.size	BleCallBack, .-BleCallBack
 443              		.section	.text.main,"ax",%progbits
 444              		.align	2
 445              		.global	main
 446              		.code	16
 447              		.thumb_func
 448              		.type	main, %function
 449              	main:
 450              	.LFB42:
 154:main.c        **** 
 155:main.c        **** /***************************************************************
 156:main.c        ****  * Main
 157:main.c        ****  **************************************************************/
 158:main.c        **** int main()
 159:main.c        **** {
 451              		.loc 1 159 0
 452              		.cfi_startproc
 453 0000 08B5     		push	{r3, lr}
 454              		.cfi_def_cfa_offset 8
 455              		.cfi_offset 3, -8
 456              		.cfi_offset 14, -4
 160:main.c        ****     CyGlobalIntEnable; 
 457              		.loc 1 160 0
 458              	@ 160 "main.c" 1
 459 0002 62B6     		CPSIE   i
 460              	@ 0 "" 2
 161:main.c        ****     
 162:main.c        ****     capsense_Start();
 461              		.loc 1 162 0
ARM GAS  C:\Users\yunse\AppData\Local\Temp\cck30uOT.s 			page 13


 462              		.code	16
 463 0004 FFF7FEFF 		bl	capsense_Start
 464              	.LVL37:
 163:main.c        ****     capsense_InitializeEnabledBaselines();
 465              		.loc 1 163 0
 466 0008 FFF7FEFF 		bl	capsense_InitializeEnabledBaselines
 467              	.LVL38:
 164:main.c        ****     
 165:main.c        ****     timer_int_StartEx(Timer_Int_Handler);
 468              		.loc 1 165 0
 469 000c 0F48     		ldr	r0, .L35
 470 000e FFF7FEFF 		bl	timer_int_StartEx
 471              	.LVL39:
 166:main.c        ****     PWM_Servo_Start();
 472              		.loc 1 166 0
 473 0012 FFF7FEFF 		bl	PWM_Servo_Start
 474              	.LVL40:
 167:main.c        ****     
 168:main.c        ****     /* Start BLE stack and register the callback function */
 169:main.c        ****     CyBle_Start(BleCallBack);
 475              		.loc 1 169 0
 476 0016 0E48     		ldr	r0, .L35+4
 477 0018 FFF7FEFF 		bl	CyBle_Start
 478              	.LVL41:
 170:main.c        ****     
 171:main.c        ****     // Turn off PWM
 172:main.c        ****     PWM_Servo_WriteCompare(0);
 479              		.loc 1 172 0
 480 001c 0020     		mov	r0, #0
 481 001e FFF7FEFF 		bl	PWM_Servo_WriteCompare
 482              	.LVL42:
 483              	.L34:
 173:main.c        ****     
 174:main.c        ****     for(;;)
 175:main.c        ****     {        
 176:main.c        ****         /* if Capsense scan is done, read the value and start another scan */
 177:main.c        ****         if(!capsense_IsBusy())
 484              		.loc 1 177 0
 485 0022 FFF7FEFF 		bl	capsense_IsBusy
 486              	.LVL43:
 487 0026 0028     		cmp	r0, #0
 488 0028 09D1     		bne	.L33
 178:main.c        ****         {
 179:main.c        ****             fingerPos=capsense_GetCentroidPos(capsense_LINEARSLIDER0__LS);
 489              		.loc 1 179 0
 490 002a FFF7FEFF 		bl	capsense_GetCentroidPos
 491              	.LVL44:
 492 002e 094B     		ldr	r3, .L35+8
 493 0030 1880     		strh	r0, [r3]
 180:main.c        ****             capsense_UpdateEnabledBaselines();
 494              		.loc 1 180 0
 495 0032 FFF7FEFF 		bl	capsense_UpdateEnabledBaselines
 496              	.LVL45:
 181:main.c        ****             capsense_ScanEnabledWidgets();
 497              		.loc 1 181 0
 498 0036 FFF7FEFF 		bl	capsense_ScanEnabledWidgets
 499              	.LVL46:
ARM GAS  C:\Users\yunse\AppData\Local\Temp\cck30uOT.s 			page 14


 182:main.c        ****             updateCapsense();
 500              		.loc 1 182 0
 501 003a FFF7FEFF 		bl	updateCapsense
 502              	.LVL47:
 503              	.L33:
 183:main.c        ****         }
 184:main.c        ****    
 185:main.c        ****         CyBle_ProcessEvents();
 504              		.loc 1 185 0
 505 003e FFF7FEFF 		bl	CyBle_ProcessEvents
 506              	.LVL48:
 186:main.c        ****         CyBle_EnterLPM(CYBLE_BLESS_DEEPSLEEP);    
 507              		.loc 1 186 0
 508 0042 0320     		mov	r0, #3
 509 0044 FFF7FEFF 		bl	CyBle_EnterLPM
 510              	.LVL49:
 187:main.c        ****     }
 511              		.loc 1 187 0
 512 0048 EBE7     		b	.L34
 513              	.L36:
 514 004a C046     		.align	2
 515              	.L35:
 516 004c 00000000 		.word	Timer_Int_Handler
 517 0050 00000000 		.word	BleCallBack
 518 0054 00000000 		.word	.LANCHOR0
 519              		.cfi_endproc
 520              	.LFE42:
 521              		.size	main, .-main
 522              		.comm	capsenseNotify,4,4
 523              		.global	fingerPosOld
 524              		.global	fingerPos
 525              		.data
 526              		.align	1
 527              		.set	.LANCHOR0,. + 0
 528              		.type	fingerPos, %object
 529              		.size	fingerPos, 2
 530              	fingerPos:
 531 0000 FFFF     		.short	-1
 532              		.type	fingerPosOld, %object
 533              		.size	fingerPosOld, 2
 534              	fingerPosOld:
 535 0002 FFFF     		.short	-1
 536              		.text
 537              	.Letext0:
 538              		.file 2 "Generated_Source\\PSoC4/cytypes.h"
 539              		.file 3 "Generated_Source\\PSoC4/ble_Stack.h"
 540              		.file 4 "Generated_Source\\PSoC4/ble_StackGatt.h"
 541              		.file 5 "Generated_Source\\PSoC4/ble_StackGattServer.h"
 542              		.file 6 "Generated_Source\\PSoC4/ble.h"
 543              		.file 7 "Generated_Source\\PSoC4/ble_eventHandler.h"
 544              		.file 8 "Generated_Source\\PSoC4/PWM_Servo.h"
 545              		.file 9 "Generated_Source\\PSoC4/Timer.h"
 546              		.file 10 "Generated_Source\\PSoC4/ble_StackGattDb.h"
 547              		.file 11 "Generated_Source\\PSoC4/pwm.h"
 548              		.file 12 "Generated_Source\\PSoC4/red.h"
 549              		.file 13 "Generated_Source\\PSoC4/capsense.h"
 550              		.file 14 "Generated_Source\\PSoC4/capsense_CSHL.h"
ARM GAS  C:\Users\yunse\AppData\Local\Temp\cck30uOT.s 			page 15


 551              		.file 15 "Generated_Source\\PSoC4/timer_int.h"