ARM GAS  C:\Users\Sarah\AppData\Local\Temp\ccqSJLdk.s 			page 1


   1              		.cpu cortex-m0
   2              		.fpu softvfp
   3              		.eabi_attribute 20, 1
   4              		.eabi_attribute 21, 1
   5              		.eabi_attribute 23, 3
   6              		.eabi_attribute 24, 1
   7              		.eabi_attribute 25, 1
   8              		.eabi_attribute 26, 1
   9              		.eabi_attribute 30, 6
  10              		.eabi_attribute 34, 0
  11              		.eabi_attribute 18, 4
  12              		.code	16
  13              		.file	"BLE_1_eventHandler.c"
  14              		.text
  15              	.Ltext0:
  16              		.cfi_sections	.debug_frame
  17              		.comm	cyBle_connHandle,2,4
  18              		.comm	cyBle_eventHandlerFlag,1,1
  19              		.comm	cyBle_busyStatus,1,1
  20              		.comm	cyBle_scanningIntervalType,1,1
  21              		.comm	cyBle_disCount,1,1
  22              		.bss
  23              		.align	2
  24              	cyBle_discInclInfo:
  25 0000 00000000 		.space	24
  25      00000000 
  25      00000000 
  25      00000000 
  25      00000000 
  26              		.global	cyBle_serverInfo
  27              		.data
  28              		.align	2
  29              		.type	cyBle_serverInfo, %object
  30              		.size	cyBle_serverInfo, 18
  31              	cyBle_serverInfo:
  32 0000 0000     		.short	0
  33 0002 0000     		.short	0
  34 0004 0018     		.short	6144
  35 0006 0000     		.short	0
  36 0008 0000     		.short	0
  37 000a 0118     		.short	6145
  38 000c 0000     		.short	0
  39 000e 0000     		.short	0
  40 0010 0000     		.short	0
  41              		.comm	cyBle_gapc,12,4
  42              		.global	cyBle_authInfo
  43 0012 0000     		.align	2
  44              		.type	cyBle_authInfo, %object
  45              		.size	cyBle_authInfo, 5
  46              	cyBle_authInfo:
  47 0014 10       		.byte	16
  48 0015 01       		.byte	1
  49 0016 10       		.byte	16
  50 0017 00       		.byte	0
  51 0018 01       		.byte	1
  52 0019 000000   		.section	.text.CyBle_WriteReqHandler,"ax",%progbits
  53              		.align	2
ARM GAS  C:\Users\Sarah\AppData\Local\Temp\ccqSJLdk.s 			page 2


  54              		.code	16
  55              		.thumb_func
  56              		.type	CyBle_WriteReqHandler, %function
  57              	CyBle_WriteReqHandler:
  58              	.LFB2:
  59              		.file 1 "Generated_Source\\PSoC4\\BLE_1_eventHandler.c"
   1:Generated_Source\PSoC4/BLE_1_eventHandler.c **** /***************************************************************************//**
   2:Generated_Source\PSoC4/BLE_1_eventHandler.c **** * \file CYBLE_eventHandler.c
   3:Generated_Source\PSoC4/BLE_1_eventHandler.c **** * \version 3.20
   4:Generated_Source\PSoC4/BLE_1_eventHandler.c **** * 
   5:Generated_Source\PSoC4/BLE_1_eventHandler.c **** * \brief
   6:Generated_Source\PSoC4/BLE_1_eventHandler.c **** *  This file contains the source code for the Event Handler State Machine
   7:Generated_Source\PSoC4/BLE_1_eventHandler.c **** *  of the BLE Component.
   8:Generated_Source\PSoC4/BLE_1_eventHandler.c **** * 
   9:Generated_Source\PSoC4/BLE_1_eventHandler.c **** ********************************************************************************
  10:Generated_Source\PSoC4/BLE_1_eventHandler.c **** * \copyright
  11:Generated_Source\PSoC4/BLE_1_eventHandler.c **** * Copyright 2014-2016, Cypress Semiconductor Corporation.  All rights reserved.
  12:Generated_Source\PSoC4/BLE_1_eventHandler.c **** * You may use this file only in accordance with the license, terms, conditions,
  13:Generated_Source\PSoC4/BLE_1_eventHandler.c **** * disclaimers, and limitations in the end user license agreement accompanying
  14:Generated_Source\PSoC4/BLE_1_eventHandler.c **** * the software package with which this file was provided.
  15:Generated_Source\PSoC4/BLE_1_eventHandler.c **** *******************************************************************************/
  16:Generated_Source\PSoC4/BLE_1_eventHandler.c **** 
  17:Generated_Source\PSoC4/BLE_1_eventHandler.c **** #include "BLE_1_eventHandler.h"
  18:Generated_Source\PSoC4/BLE_1_eventHandler.c **** 
  19:Generated_Source\PSoC4/BLE_1_eventHandler.c **** 
  20:Generated_Source\PSoC4/BLE_1_eventHandler.c **** /***************************************
  21:Generated_Source\PSoC4/BLE_1_eventHandler.c **** * Private Function Prototypes
  22:Generated_Source\PSoC4/BLE_1_eventHandler.c **** ***************************************/
  23:Generated_Source\PSoC4/BLE_1_eventHandler.c **** 
  24:Generated_Source\PSoC4/BLE_1_eventHandler.c **** static void CyBle_GattDisconnectEventHandler(void);
  25:Generated_Source\PSoC4/BLE_1_eventHandler.c **** static void CyBle_TimeOutEventHandler(const CYBLE_TO_REASON_CODE_T *eventParam);
  26:Generated_Source\PSoC4/BLE_1_eventHandler.c **** static void CyBle_GattConnectReqHandler(void);
  27:Generated_Source\PSoC4/BLE_1_eventHandler.c **** static void CyBle_L2Cap_ConnParamUpdateRspEventHandler(uint16 response);
  28:Generated_Source\PSoC4/BLE_1_eventHandler.c **** static void CyBle_GapConnUpdateCompleteEventHandler(const CYBLE_GAP_CONN_PARAM_UPDATED_IN_CONTROLLE
  29:Generated_Source\PSoC4/BLE_1_eventHandler.c **** 
  30:Generated_Source\PSoC4/BLE_1_eventHandler.c **** 
  31:Generated_Source\PSoC4/BLE_1_eventHandler.c **** #if (CYBLE_GATT_ROLE_SERVER)
  32:Generated_Source\PSoC4/BLE_1_eventHandler.c **** 
  33:Generated_Source\PSoC4/BLE_1_eventHandler.c **** static void CyBle_WriteReqHandler(CYBLE_GATTS_WRITE_REQ_PARAM_T *eventParam);
  34:Generated_Source\PSoC4/BLE_1_eventHandler.c **** static void CyBle_ValueConfirmation(const CYBLE_CONN_HANDLE_T *eventParam);
  35:Generated_Source\PSoC4/BLE_1_eventHandler.c **** 
  36:Generated_Source\PSoC4/BLE_1_eventHandler.c **** #endif /* CYBLE_GATT_ROLE_SERVER */
  37:Generated_Source\PSoC4/BLE_1_eventHandler.c **** 
  38:Generated_Source\PSoC4/BLE_1_eventHandler.c **** #if (CYBLE_GATT_ROLE_CLIENT)
  39:Generated_Source\PSoC4/BLE_1_eventHandler.c **** 
  40:Generated_Source\PSoC4/BLE_1_eventHandler.c **** static void CyBle_GapcDiscoverCharacteristicsEventHandler(CYBLE_DISC_CHAR_INFO_T *discCharInfo);
  41:Generated_Source\PSoC4/BLE_1_eventHandler.c **** static CYBLE_GATT_ATTR_HANDLE_RANGE_T CyBle_GetCharRange(void);
  42:Generated_Source\PSoC4/BLE_1_eventHandler.c **** static void CyBle_GattcWriteResponseEventHandler(const CYBLE_CONN_HANDLE_T *eventParam);
  43:Generated_Source\PSoC4/BLE_1_eventHandler.c **** static void CyBle_NotificationEventHandler(CYBLE_GATTC_HANDLE_VALUE_NTF_PARAM_T *eventParam);
  44:Generated_Source\PSoC4/BLE_1_eventHandler.c **** static void CyBle_IndicationEventHandler(CYBLE_GATTC_HANDLE_VALUE_IND_PARAM_T *eventParam);
  45:Generated_Source\PSoC4/BLE_1_eventHandler.c **** static void CyBle_ReadResponseEventHandler(CYBLE_GATTC_READ_RSP_PARAM_T *eventParam);
  46:Generated_Source\PSoC4/BLE_1_eventHandler.c **** static void CyBle_ReadMultipleResponseEventHandler(CYBLE_GATTC_READ_RSP_PARAM_T *eventParam);
  47:Generated_Source\PSoC4/BLE_1_eventHandler.c **** 
  48:Generated_Source\PSoC4/BLE_1_eventHandler.c **** #endif /* CYBLE_GATT_ROLE_CLIENT */
  49:Generated_Source\PSoC4/BLE_1_eventHandler.c **** 
  50:Generated_Source\PSoC4/BLE_1_eventHandler.c **** 
  51:Generated_Source\PSoC4/BLE_1_eventHandler.c **** /***************************************
ARM GAS  C:\Users\Sarah\AppData\Local\Temp\ccqSJLdk.s 			page 3


  52:Generated_Source\PSoC4/BLE_1_eventHandler.c **** * Global Variables
  53:Generated_Source\PSoC4/BLE_1_eventHandler.c **** ***************************************/
  54:Generated_Source\PSoC4/BLE_1_eventHandler.c **** 
  55:Generated_Source\PSoC4/BLE_1_eventHandler.c **** /* This global variable is initialized after connection with peer device, 
  56:Generated_Source\PSoC4/BLE_1_eventHandler.c ****    after CYBLE_EVT_GATT_CONNECT_IND event, and could be used by application code
  57:Generated_Source\PSoC4/BLE_1_eventHandler.c ****    to send data to peer device. 
  58:Generated_Source\PSoC4/BLE_1_eventHandler.c **** */
  59:Generated_Source\PSoC4/BLE_1_eventHandler.c **** CYBLE_CONN_HANDLE_T cyBle_connHandle;
  60:Generated_Source\PSoC4/BLE_1_eventHandler.c **** 
  61:Generated_Source\PSoC4/BLE_1_eventHandler.c **** volatile uint8 cyBle_eventHandlerFlag;
  62:Generated_Source\PSoC4/BLE_1_eventHandler.c **** volatile uint8 cyBle_busyStatus;
  63:Generated_Source\PSoC4/BLE_1_eventHandler.c **** 
  64:Generated_Source\PSoC4/BLE_1_eventHandler.c **** #if(CYBLE_GAP_ROLE_PERIPHERAL || CYBLE_GAP_ROLE_BROADCASTER) 
  65:Generated_Source\PSoC4/BLE_1_eventHandler.c ****     uint8 cyBle_advertisingIntervalType;
  66:Generated_Source\PSoC4/BLE_1_eventHandler.c **** #endif /* CYBLE_GAP_ROLE_PERIPHERAL || CYBLE_GAP_ROLE_BROADCASTER) */
  67:Generated_Source\PSoC4/BLE_1_eventHandler.c **** 
  68:Generated_Source\PSoC4/BLE_1_eventHandler.c **** #if(CYBLE_GAP_ROLE_CENTRAL || CYBLE_GAP_ROLE_OBSERVER) 
  69:Generated_Source\PSoC4/BLE_1_eventHandler.c ****     uint8 cyBle_scanningIntervalType;
  70:Generated_Source\PSoC4/BLE_1_eventHandler.c **** #endif /* CYBLE_GAP_ROLE_CENTRAL || CYBLE_GAP_ROLE_OBSERVER */
  71:Generated_Source\PSoC4/BLE_1_eventHandler.c **** 
  72:Generated_Source\PSoC4/BLE_1_eventHandler.c **** #if(CYBLE_GATT_ROLE_SERVER)
  73:Generated_Source\PSoC4/BLE_1_eventHandler.c **** #if defined CYBLE_CTS_SERVER || defined CYBLE_ESS_SERVER
  74:Generated_Source\PSoC4/BLE_1_eventHandler.c **** CYBLE_GATT_ERR_CODE_T cyBle_gattError;
  75:Generated_Source\PSoC4/BLE_1_eventHandler.c **** #endif /* defined CYBLE_CTS_SERVER || defined CYBLE_ESS_SERVER */
  76:Generated_Source\PSoC4/BLE_1_eventHandler.c **** #endif /* CYBLE_GATT_ROLE_SERVER */
  77:Generated_Source\PSoC4/BLE_1_eventHandler.c **** 
  78:Generated_Source\PSoC4/BLE_1_eventHandler.c **** #if(CYBLE_GATT_ROLE_CLIENT)
  79:Generated_Source\PSoC4/BLE_1_eventHandler.c **** uint8 cyBle_disCount; /* Counter for discovery procedures */
  80:Generated_Source\PSoC4/BLE_1_eventHandler.c **** 
  81:Generated_Source\PSoC4/BLE_1_eventHandler.c **** #ifdef CYBLE_CUSTOM_CLIENT
  82:Generated_Source\PSoC4/BLE_1_eventHandler.c **** /* Discovery included service information, used for 128-bit UUID read response handle 
  83:Generated_Source\PSoC4/BLE_1_eventHandler.c ****    and for continue discovery. 
  84:Generated_Source\PSoC4/BLE_1_eventHandler.c **** */
  85:Generated_Source\PSoC4/BLE_1_eventHandler.c **** static CYBLE_DISC_INCL_INFO_T cyBle_discInclInfo;
  86:Generated_Source\PSoC4/BLE_1_eventHandler.c **** #endif /* CYBLE_CUSTOM_CLIENT */
  87:Generated_Source\PSoC4/BLE_1_eventHandler.c **** 
  88:Generated_Source\PSoC4/BLE_1_eventHandler.c **** #ifdef CYBLE_HIDS_CLIENT
  89:Generated_Source\PSoC4/BLE_1_eventHandler.c ****     static uint8 disServiceIndex;      /* To discovery descriptors for multiple HID service instanc
  90:Generated_Source\PSoC4/BLE_1_eventHandler.c **** #endif /* CYBLE_HIDS_CLIENT */
  91:Generated_Source\PSoC4/BLE_1_eventHandler.c **** 
  92:Generated_Source\PSoC4/BLE_1_eventHandler.c **** CYBLE_DISC_SRVC_INFO_T cyBle_serverInfo[CYBLE_SRVI_COUNT] = /*5*/
  93:Generated_Source\PSoC4/BLE_1_eventHandler.c **** {
  94:Generated_Source\PSoC4/BLE_1_eventHandler.c ****     {{CYBLE_GATT_INVALID_ATTR_HANDLE_VALUE, CYBLE_GATT_INVALID_ATTR_HANDLE_VALUE}, CYBLE_UUID_GAP_S
  95:Generated_Source\PSoC4/BLE_1_eventHandler.c ****     {{CYBLE_GATT_INVALID_ATTR_HANDLE_VALUE, CYBLE_GATT_INVALID_ATTR_HANDLE_VALUE}, CYBLE_UUID_GATT_
  96:Generated_Source\PSoC4/BLE_1_eventHandler.c **** #ifdef CYBLE_ANCS_CLIENT
  97:Generated_Source\PSoC4/BLE_1_eventHandler.c ****     {{CYBLE_GATT_INVALID_ATTR_HANDLE_VALUE, CYBLE_GATT_INVALID_ATTR_HANDLE_VALUE}, 0x0000u},
  98:Generated_Source\PSoC4/BLE_1_eventHandler.c **** #endif /* CYBLE_ANCS_CLIENT */
  99:Generated_Source\PSoC4/BLE_1_eventHandler.c **** #ifdef CYBLE_ANS_CLIENT
 100:Generated_Source\PSoC4/BLE_1_eventHandler.c ****     {{CYBLE_GATT_INVALID_ATTR_HANDLE_VALUE, CYBLE_GATT_INVALID_ATTR_HANDLE_VALUE}, 
 101:Generated_Source\PSoC4/BLE_1_eventHandler.c ****         CYBLE_UUID_ALERT_NOTIFICATION_SERVICE},
 102:Generated_Source\PSoC4/BLE_1_eventHandler.c **** #endif /* CYBLE_ANS_CLIENT */
 103:Generated_Source\PSoC4/BLE_1_eventHandler.c **** #ifdef CYBLE_BAS_CLIENT
 104:Generated_Source\PSoC4/BLE_1_eventHandler.c ****     {{CYBLE_GATT_INVALID_ATTR_HANDLE_VALUE, CYBLE_GATT_INVALID_ATTR_HANDLE_VALUE}, CYBLE_UUID_BAS_S
 105:Generated_Source\PSoC4/BLE_1_eventHandler.c ****     #if(CYBLE_BASC_SERVICE_COUNT > 1u) /* Generate it by GUI */
 106:Generated_Source\PSoC4/BLE_1_eventHandler.c ****         
 107:Generated_Source\PSoC4/BLE_1_eventHandler.c ****     #endif /* CYBLE_BASC_SERVICE_COUNT > 1u */
 108:Generated_Source\PSoC4/BLE_1_eventHandler.c **** #endif /* CYBLE_BAS_CLIENT */
ARM GAS  C:\Users\Sarah\AppData\Local\Temp\ccqSJLdk.s 			page 4


 109:Generated_Source\PSoC4/BLE_1_eventHandler.c **** #ifdef CYBLE_BCS_CLIENT
 110:Generated_Source\PSoC4/BLE_1_eventHandler.c ****     {{CYBLE_GATT_INVALID_ATTR_HANDLE_VALUE, CYBLE_GATT_INVALID_ATTR_HANDLE_VALUE}, CYBLE_UUID_BODY_
 111:Generated_Source\PSoC4/BLE_1_eventHandler.c **** #endif /* CYBLE_BCS_CLIENT */
 112:Generated_Source\PSoC4/BLE_1_eventHandler.c **** #ifdef CYBLE_BLS_CLIENT
 113:Generated_Source\PSoC4/BLE_1_eventHandler.c ****     {{CYBLE_GATT_INVALID_ATTR_HANDLE_VALUE, CYBLE_GATT_INVALID_ATTR_HANDLE_VALUE}, CYBLE_UUID_BLOOD
 114:Generated_Source\PSoC4/BLE_1_eventHandler.c **** #endif /* CYBLE_BLS_CLIENT */
 115:Generated_Source\PSoC4/BLE_1_eventHandler.c **** #ifdef CYBLE_BMS_CLIENT
 116:Generated_Source\PSoC4/BLE_1_eventHandler.c ****     {{CYBLE_GATT_INVALID_ATTR_HANDLE_VALUE, CYBLE_GATT_INVALID_ATTR_HANDLE_VALUE}, CYBLE_UUID_BOND_
 117:Generated_Source\PSoC4/BLE_1_eventHandler.c **** #endif /* CYBLE_BMS_CLIENT */
 118:Generated_Source\PSoC4/BLE_1_eventHandler.c **** #ifdef CYBLE_CGMS_CLIENT
 119:Generated_Source\PSoC4/BLE_1_eventHandler.c ****     {{CYBLE_GATT_INVALID_ATTR_HANDLE_VALUE, CYBLE_GATT_INVALID_ATTR_HANDLE_VALUE}, CYBLE_UUID_CGM_S
 120:Generated_Source\PSoC4/BLE_1_eventHandler.c **** #endif /* CYBLE_CGMS_CLIENT */
 121:Generated_Source\PSoC4/BLE_1_eventHandler.c **** #ifdef CYBLE_CPS_CLIENT
 122:Generated_Source\PSoC4/BLE_1_eventHandler.c ****     {{CYBLE_GATT_INVALID_ATTR_HANDLE_VALUE, CYBLE_GATT_INVALID_ATTR_HANDLE_VALUE}, CYBLE_UUID_CPS_S
 123:Generated_Source\PSoC4/BLE_1_eventHandler.c **** #endif /* CYBLE_CPS_CLIENT */
 124:Generated_Source\PSoC4/BLE_1_eventHandler.c **** #ifdef CYBLE_CSCS_CLIENT
 125:Generated_Source\PSoC4/BLE_1_eventHandler.c ****     {{CYBLE_GATT_INVALID_ATTR_HANDLE_VALUE, CYBLE_GATT_INVALID_ATTR_HANDLE_VALUE}, 
 126:Generated_Source\PSoC4/BLE_1_eventHandler.c ****         CYBLE_UUID_CYCLING_SPEED_AND_CADENCE_SERVICE},
 127:Generated_Source\PSoC4/BLE_1_eventHandler.c **** #endif /* CYBLE_CSCS_CLIENT */
 128:Generated_Source\PSoC4/BLE_1_eventHandler.c **** #ifdef CYBLE_CTS_CLIENT
 129:Generated_Source\PSoC4/BLE_1_eventHandler.c ****     {{CYBLE_GATT_INVALID_ATTR_HANDLE_VALUE, CYBLE_GATT_INVALID_ATTR_HANDLE_VALUE}, CYBLE_UUID_CURRE
 130:Generated_Source\PSoC4/BLE_1_eventHandler.c **** #endif /* CYBLE_CTS_CLIENT */
 131:Generated_Source\PSoC4/BLE_1_eventHandler.c **** #ifdef CYBLE_CUSTOM_CLIENT
 132:Generated_Source\PSoC4/BLE_1_eventHandler.c ****             {{CYBLE_GATT_INVALID_ATTR_HANDLE_VALUE, CYBLE_GATT_INVALID_ATTR_HANDLE_VALUE}, 0x0000u}
 133:Generated_Source\PSoC4/BLE_1_eventHandler.c **** 
 134:Generated_Source\PSoC4/BLE_1_eventHandler.c **** #endif /* CYBLE_CUSTOM_CLIENT */
 135:Generated_Source\PSoC4/BLE_1_eventHandler.c **** #ifdef CYBLE_DIS_CLIENT
 136:Generated_Source\PSoC4/BLE_1_eventHandler.c ****     {{CYBLE_GATT_INVALID_ATTR_HANDLE_VALUE, CYBLE_GATT_INVALID_ATTR_HANDLE_VALUE}, CYBLE_UUID_DEVIC
 137:Generated_Source\PSoC4/BLE_1_eventHandler.c **** #endif /* CYBLE_DIS_CLIENT */
 138:Generated_Source\PSoC4/BLE_1_eventHandler.c **** #ifdef CYBLE_ESS_CLIENT
 139:Generated_Source\PSoC4/BLE_1_eventHandler.c ****     {{CYBLE_GATT_INVALID_ATTR_HANDLE_VALUE, CYBLE_GATT_INVALID_ATTR_HANDLE_VALUE}, 
 140:Generated_Source\PSoC4/BLE_1_eventHandler.c ****         CYBLE_UUID_ENVIRONMENTAL_SENSING_SERVICE},
 141:Generated_Source\PSoC4/BLE_1_eventHandler.c **** #endif /* CYBLE_ESS_CLIENT */
 142:Generated_Source\PSoC4/BLE_1_eventHandler.c **** #ifdef CYBLE_GLS_CLIENT
 143:Generated_Source\PSoC4/BLE_1_eventHandler.c ****     {{CYBLE_GATT_INVALID_ATTR_HANDLE_VALUE, CYBLE_GATT_INVALID_ATTR_HANDLE_VALUE}, CYBLE_UUID_GLUCO
 144:Generated_Source\PSoC4/BLE_1_eventHandler.c **** #endif /* CYBLE_GLS_CLIENT */
 145:Generated_Source\PSoC4/BLE_1_eventHandler.c **** #ifdef CYBLE_HIDS_CLIENT
 146:Generated_Source\PSoC4/BLE_1_eventHandler.c ****     {{CYBLE_GATT_INVALID_ATTR_HANDLE_VALUE, CYBLE_GATT_INVALID_ATTR_HANDLE_VALUE}, CYBLE_UUID_HIDS_
 147:Generated_Source\PSoC4/BLE_1_eventHandler.c ****     #if(CYBLE_HIDSC_SERVICE_COUNT > 1u) /* Generate it by GUI */
 148:Generated_Source\PSoC4/BLE_1_eventHandler.c ****         
 149:Generated_Source\PSoC4/BLE_1_eventHandler.c ****     #endif /* CYBLE_HIDSC_SERVICE_COUNT > 1u */
 150:Generated_Source\PSoC4/BLE_1_eventHandler.c **** #endif /* CYBLE_HIDS_CLIENT */
 151:Generated_Source\PSoC4/BLE_1_eventHandler.c **** #ifdef CYBLE_HPS_CLIENT
 152:Generated_Source\PSoC4/BLE_1_eventHandler.c ****     {{CYBLE_GATT_INVALID_ATTR_HANDLE_VALUE, CYBLE_GATT_INVALID_ATTR_HANDLE_VALUE}, CYBLE_UUID_HTTP_
 153:Generated_Source\PSoC4/BLE_1_eventHandler.c **** #endif /* CYBLE_HPS_CLIENT */
 154:Generated_Source\PSoC4/BLE_1_eventHandler.c **** #ifdef CYBLE_HRS_CLIENT
 155:Generated_Source\PSoC4/BLE_1_eventHandler.c ****     {{CYBLE_GATT_INVALID_ATTR_HANDLE_VALUE, CYBLE_GATT_INVALID_ATTR_HANDLE_VALUE}, CYBLE_UUID_HEART
 156:Generated_Source\PSoC4/BLE_1_eventHandler.c **** #endif /* CYBLE_HRS_CLIENT */
 157:Generated_Source\PSoC4/BLE_1_eventHandler.c **** #ifdef CYBLE_HTS_CLIENT
 158:Generated_Source\PSoC4/BLE_1_eventHandler.c ****     {{CYBLE_GATT_INVALID_ATTR_HANDLE_VALUE, CYBLE_GATT_INVALID_ATTR_HANDLE_VALUE}, CYBLE_UUID_HEALT
 159:Generated_Source\PSoC4/BLE_1_eventHandler.c **** #endif /* CYBLE_HTS_CLIENT */
 160:Generated_Source\PSoC4/BLE_1_eventHandler.c **** #ifdef CYBLE_IAS_CLIENT
 161:Generated_Source\PSoC4/BLE_1_eventHandler.c ****     {{CYBLE_GATT_INVALID_ATTR_HANDLE_VALUE, CYBLE_GATT_INVALID_ATTR_HANDLE_VALUE}, CYBLE_UUID_IMMED
 162:Generated_Source\PSoC4/BLE_1_eventHandler.c **** #endif /* CYBLE_IAS_CLIENT */
 163:Generated_Source\PSoC4/BLE_1_eventHandler.c **** #ifdef CYBLE_IPS_CLIENT
 164:Generated_Source\PSoC4/BLE_1_eventHandler.c ****     {{CYBLE_GATT_INVALID_ATTR_HANDLE_VALUE, CYBLE_GATT_INVALID_ATTR_HANDLE_VALUE}, CYBLE_UUID_IPS_S
 165:Generated_Source\PSoC4/BLE_1_eventHandler.c **** #endif /* CYBLE_IPS_CLIENT */
ARM GAS  C:\Users\Sarah\AppData\Local\Temp\ccqSJLdk.s 			page 5


 166:Generated_Source\PSoC4/BLE_1_eventHandler.c **** #ifdef CYBLE_LLS_CLIENT
 167:Generated_Source\PSoC4/BLE_1_eventHandler.c ****     {{CYBLE_GATT_INVALID_ATTR_HANDLE_VALUE, CYBLE_GATT_INVALID_ATTR_HANDLE_VALUE}, CYBLE_UUID_LINK_
 168:Generated_Source\PSoC4/BLE_1_eventHandler.c **** #endif /* CYBLE_LLS_CLIENT */
 169:Generated_Source\PSoC4/BLE_1_eventHandler.c **** #ifdef CYBLE_LNS_CLIENT
 170:Generated_Source\PSoC4/BLE_1_eventHandler.c ****     {{CYBLE_GATT_INVALID_ATTR_HANDLE_VALUE, CYBLE_GATT_INVALID_ATTR_HANDLE_VALUE}, CYBLE_UUID_LOCAT
 171:Generated_Source\PSoC4/BLE_1_eventHandler.c **** #endif /* CYBLE_LNS_CLIENT */
 172:Generated_Source\PSoC4/BLE_1_eventHandler.c **** #ifdef CYBLE_NDCS_CLIENT
 173:Generated_Source\PSoC4/BLE_1_eventHandler.c ****     {{CYBLE_GATT_INVALID_ATTR_HANDLE_VALUE, CYBLE_GATT_INVALID_ATTR_HANDLE_VALUE}, CYBLE_UUID_NEXT_
 174:Generated_Source\PSoC4/BLE_1_eventHandler.c **** #endif /* CYBLE_NDCS_CLIENT */
 175:Generated_Source\PSoC4/BLE_1_eventHandler.c **** #ifdef CYBLE_IPSS_CLIENT
 176:Generated_Source\PSoC4/BLE_1_eventHandler.c ****     {{CYBLE_GATT_INVALID_ATTR_HANDLE_VALUE, CYBLE_GATT_INVALID_ATTR_HANDLE_VALUE}, CYBLE_UUID_INTER
 177:Generated_Source\PSoC4/BLE_1_eventHandler.c **** #endif /* CYBLE_IPSS_CLIENT */
 178:Generated_Source\PSoC4/BLE_1_eventHandler.c **** #ifdef CYBLE_PASS_CLIENT
 179:Generated_Source\PSoC4/BLE_1_eventHandler.c ****     {{CYBLE_GATT_INVALID_ATTR_HANDLE_VALUE, CYBLE_GATT_INVALID_ATTR_HANDLE_VALUE}, CYBLE_UUID_PHONE
 180:Generated_Source\PSoC4/BLE_1_eventHandler.c **** #endif /* CYBLE_PASS_CLIENT */
 181:Generated_Source\PSoC4/BLE_1_eventHandler.c **** #ifdef CYBLE_PLXS_CLIENT
 182:Generated_Source\PSoC4/BLE_1_eventHandler.c ****     {{CYBLE_GATT_INVALID_ATTR_HANDLE_VALUE, CYBLE_GATT_INVALID_ATTR_HANDLE_VALUE}, CYBLE_UUID_PLXS_
 183:Generated_Source\PSoC4/BLE_1_eventHandler.c **** #endif /* CYBLE_PLXS_CLIENT */
 184:Generated_Source\PSoC4/BLE_1_eventHandler.c **** #ifdef CYBLE_RSCS_CLIENT
 185:Generated_Source\PSoC4/BLE_1_eventHandler.c ****     {{CYBLE_GATT_INVALID_ATTR_HANDLE_VALUE, CYBLE_GATT_INVALID_ATTR_HANDLE_VALUE}, CYBLE_UUID_RUNNI
 186:Generated_Source\PSoC4/BLE_1_eventHandler.c **** #endif /* CYBLE_RSCS_CLIENT */
 187:Generated_Source\PSoC4/BLE_1_eventHandler.c **** #ifdef CYBLE_RTUS_CLIENT
 188:Generated_Source\PSoC4/BLE_1_eventHandler.c ****     {{CYBLE_GATT_INVALID_ATTR_HANDLE_VALUE, CYBLE_GATT_INVALID_ATTR_HANDLE_VALUE}, CYBLE_UUID_REF_T
 189:Generated_Source\PSoC4/BLE_1_eventHandler.c **** #endif /* CYBLE_RTUS_CLIENT */
 190:Generated_Source\PSoC4/BLE_1_eventHandler.c **** #ifdef CYBLE_SCPS_CLIENT
 191:Generated_Source\PSoC4/BLE_1_eventHandler.c ****     {{CYBLE_GATT_INVALID_ATTR_HANDLE_VALUE, CYBLE_GATT_INVALID_ATTR_HANDLE_VALUE}, CYBLE_UUID_SCAN_
 192:Generated_Source\PSoC4/BLE_1_eventHandler.c **** #endif /* CYBLE_SCPS_CLIENT */
 193:Generated_Source\PSoC4/BLE_1_eventHandler.c **** #ifdef CYBLE_TPS_CLIENT
 194:Generated_Source\PSoC4/BLE_1_eventHandler.c ****     {{CYBLE_GATT_INVALID_ATTR_HANDLE_VALUE, CYBLE_GATT_INVALID_ATTR_HANDLE_VALUE}, CYBLE_UUID_TX_PO
 195:Generated_Source\PSoC4/BLE_1_eventHandler.c **** #endif /* CYBLE_TPS_CLIENT */
 196:Generated_Source\PSoC4/BLE_1_eventHandler.c **** #ifdef CYBLE_UDS_CLIENT
 197:Generated_Source\PSoC4/BLE_1_eventHandler.c ****     {{CYBLE_GATT_INVALID_ATTR_HANDLE_VALUE, CYBLE_GATT_INVALID_ATTR_HANDLE_VALUE}, CYBLE_UUID_USER_
 198:Generated_Source\PSoC4/BLE_1_eventHandler.c **** #endif /* CYBLE_UDS_CLIENT */
 199:Generated_Source\PSoC4/BLE_1_eventHandler.c **** #ifdef CYBLE_WSS_CLIENT
 200:Generated_Source\PSoC4/BLE_1_eventHandler.c ****     {{CYBLE_GATT_INVALID_ATTR_HANDLE_VALUE, CYBLE_GATT_INVALID_ATTR_HANDLE_VALUE}, CYBLE_UUID_WEIGH
 201:Generated_Source\PSoC4/BLE_1_eventHandler.c **** #endif /* CYBLE_WSS_CLIENT */
 202:Generated_Source\PSoC4/BLE_1_eventHandler.c **** #ifdef CYBLE_WPTS_CLIENT
 203:Generated_Source\PSoC4/BLE_1_eventHandler.c ****     {{CYBLE_GATT_INVALID_ATTR_HANDLE_VALUE, CYBLE_GATT_INVALID_ATTR_HANDLE_VALUE}, CYBLE_UUID_WIREL
 204:Generated_Source\PSoC4/BLE_1_eventHandler.c **** #endif /* CYBLE_WPTS_CLIENT */
 205:Generated_Source\PSoC4/BLE_1_eventHandler.c **** };
 206:Generated_Source\PSoC4/BLE_1_eventHandler.c **** 
 207:Generated_Source\PSoC4/BLE_1_eventHandler.c **** CYBLE_GAPC_T cyBle_gapc;
 208:Generated_Source\PSoC4/BLE_1_eventHandler.c **** 
 209:Generated_Source\PSoC4/BLE_1_eventHandler.c **** #endif /* CYBLE_GATT_ROLE_CLIENT */
 210:Generated_Source\PSoC4/BLE_1_eventHandler.c **** 
 211:Generated_Source\PSoC4/BLE_1_eventHandler.c **** /* Default device security */
 212:Generated_Source\PSoC4/BLE_1_eventHandler.c **** CYBLE_GAP_AUTH_INFO_T cyBle_authInfo =
 213:Generated_Source\PSoC4/BLE_1_eventHandler.c **** {
 214:Generated_Source\PSoC4/BLE_1_eventHandler.c ****     (CYBLE_GAP_SEC_MODE_1 | CYBLE_GAP_SEC_LEVEL_1 ), /* uint8 security */
 215:Generated_Source\PSoC4/BLE_1_eventHandler.c ****     CYBLE_GAP_BONDING, /* uint8 bonding */
 216:Generated_Source\PSoC4/BLE_1_eventHandler.c ****     0x10u,      /* uint8 ekeySize */
 217:Generated_Source\PSoC4/BLE_1_eventHandler.c ****     CYBLE_GAP_AUTH_ERROR_NONE, /* CYBLE_AUTH_FAILED_REASON_T authErr */
 218:Generated_Source\PSoC4/BLE_1_eventHandler.c ****     0x01u,      /* uint8 pairingProperties */
 219:Generated_Source\PSoC4/BLE_1_eventHandler.c **** };
 220:Generated_Source\PSoC4/BLE_1_eventHandler.c **** 
 221:Generated_Source\PSoC4/BLE_1_eventHandler.c **** #if(CYBLE_GATT_ROLE_SERVER)
 222:Generated_Source\PSoC4/BLE_1_eventHandler.c **** 
ARM GAS  C:\Users\Sarah\AppData\Local\Temp\ccqSJLdk.s 			page 6


 223:Generated_Source\PSoC4/BLE_1_eventHandler.c **** 
 224:Generated_Source\PSoC4/BLE_1_eventHandler.c **** /******************************************************************************    
 225:Generated_Source\PSoC4/BLE_1_eventHandler.c **** * Function Name: CyBle_WriteReqHandler
 226:Generated_Source\PSoC4/BLE_1_eventHandler.c **** ***************************************************************************//**
 227:Generated_Source\PSoC4/BLE_1_eventHandler.c **** * 
 228:Generated_Source\PSoC4/BLE_1_eventHandler.c **** *  Handles the Write Request event from BLE stack.
 229:Generated_Source\PSoC4/BLE_1_eventHandler.c **** * 
 230:Generated_Source\PSoC4/BLE_1_eventHandler.c **** *  CYBLE_GATTS_WRITE_REQ_PARAM_T * eventParam - event parameter
 231:Generated_Source\PSoC4/BLE_1_eventHandler.c **** * 
 232:Generated_Source\PSoC4/BLE_1_eventHandler.c **** * \return
 233:Generated_Source\PSoC4/BLE_1_eventHandler.c **** *  None
 234:Generated_Source\PSoC4/BLE_1_eventHandler.c **** * 
 235:Generated_Source\PSoC4/BLE_1_eventHandler.c **** ******************************************************************************/
 236:Generated_Source\PSoC4/BLE_1_eventHandler.c **** static void CyBle_WriteReqHandler(CYBLE_GATTS_WRITE_REQ_PARAM_T *eventParam)
 237:Generated_Source\PSoC4/BLE_1_eventHandler.c **** {
  60              		.loc 1 237 0
  61              		.cfi_startproc
  62 0000 90B5     		push	{r4, r7, lr}
  63              		.cfi_def_cfa_offset 12
  64              		.cfi_offset 4, -12
  65              		.cfi_offset 7, -8
  66              		.cfi_offset 14, -4
  67 0002 85B0     		sub	sp, sp, #20
  68              		.cfi_def_cfa_offset 32
  69 0004 00AF     		add	r7, sp, #0
  70              		.cfi_def_cfa_register 7
  71 0006 7860     		str	r0, [r7, #4]
 238:Generated_Source\PSoC4/BLE_1_eventHandler.c ****     CYBLE_GATT_ERR_CODE_T gattErr;
 239:Generated_Source\PSoC4/BLE_1_eventHandler.c **** #if defined CYBLE_CTS_SERVER || defined CYBLE_ESS_SERVER
 240:Generated_Source\PSoC4/BLE_1_eventHandler.c ****     cyBle_gattError = CYBLE_GATT_ERR_NONE;
 241:Generated_Source\PSoC4/BLE_1_eventHandler.c **** #endif /* defined CYBLE_CTS_SERVER || defined CYBLE_ESS_SERVER */
 242:Generated_Source\PSoC4/BLE_1_eventHandler.c ****     
 243:Generated_Source\PSoC4/BLE_1_eventHandler.c ****     gattErr = CyBle_GattsWriteEventHandler(eventParam);
  72              		.loc 1 243 0
  73 0008 0F23     		mov	r3, #15
  74 000a FC18     		add	r4, r7, r3
  75 000c 7B68     		ldr	r3, [r7, #4]
  76 000e 181C     		mov	r0, r3
  77 0010 FFF7FEFF 		bl	CyBle_GattsWriteEventHandler
  78 0014 031C     		mov	r3, r0
  79 0016 2370     		strb	r3, [r4]
 244:Generated_Source\PSoC4/BLE_1_eventHandler.c **** #ifdef CYBLE_ANCS_SERVER
 245:Generated_Source\PSoC4/BLE_1_eventHandler.c ****     if(((cyBle_eventHandlerFlag & CYBLE_CALLBACK) != 0u) && (gattErr == CYBLE_GATT_ERR_NONE))
 246:Generated_Source\PSoC4/BLE_1_eventHandler.c ****     {
 247:Generated_Source\PSoC4/BLE_1_eventHandler.c ****         gattErr = CyBle_AncssWriteEventHandler(eventParam);
 248:Generated_Source\PSoC4/BLE_1_eventHandler.c ****     }
 249:Generated_Source\PSoC4/BLE_1_eventHandler.c **** #endif /* CYBLE_ANCS_SERVER */
 250:Generated_Source\PSoC4/BLE_1_eventHandler.c **** #ifdef CYBLE_ANS_SERVER
 251:Generated_Source\PSoC4/BLE_1_eventHandler.c ****     if(((cyBle_eventHandlerFlag & CYBLE_CALLBACK) != 0u) && (gattErr == CYBLE_GATT_ERR_NONE))
 252:Generated_Source\PSoC4/BLE_1_eventHandler.c ****     {
 253:Generated_Source\PSoC4/BLE_1_eventHandler.c ****         gattErr = CyBle_AnssWriteEventHandler(eventParam);
 254:Generated_Source\PSoC4/BLE_1_eventHandler.c ****     }
 255:Generated_Source\PSoC4/BLE_1_eventHandler.c **** #endif /* CYBLE_ANS_SERVER */
 256:Generated_Source\PSoC4/BLE_1_eventHandler.c **** #ifdef CYBLE_BAS_SERVER
 257:Generated_Source\PSoC4/BLE_1_eventHandler.c ****     if(((cyBle_eventHandlerFlag & CYBLE_CALLBACK) != 0u) && (gattErr == CYBLE_GATT_ERR_NONE))
 258:Generated_Source\PSoC4/BLE_1_eventHandler.c ****     {
 259:Generated_Source\PSoC4/BLE_1_eventHandler.c ****         gattErr = CyBle_BassWriteEventHandler(eventParam);
ARM GAS  C:\Users\Sarah\AppData\Local\Temp\ccqSJLdk.s 			page 7


 260:Generated_Source\PSoC4/BLE_1_eventHandler.c ****     }
 261:Generated_Source\PSoC4/BLE_1_eventHandler.c **** #endif /* CYBLE_BAS_SERVER */
 262:Generated_Source\PSoC4/BLE_1_eventHandler.c **** #ifdef CYBLE_BCS_SERVER
 263:Generated_Source\PSoC4/BLE_1_eventHandler.c ****     if(((cyBle_eventHandlerFlag & CYBLE_CALLBACK) != 0u) && (gattErr == CYBLE_GATT_ERR_NONE))
 264:Generated_Source\PSoC4/BLE_1_eventHandler.c ****     {
 265:Generated_Source\PSoC4/BLE_1_eventHandler.c ****         gattErr = CyBle_BcssWriteEventHandler(eventParam);
 266:Generated_Source\PSoC4/BLE_1_eventHandler.c ****     }
 267:Generated_Source\PSoC4/BLE_1_eventHandler.c **** #endif /* CYBLE_BCS_SERVER */
 268:Generated_Source\PSoC4/BLE_1_eventHandler.c **** #ifdef CYBLE_BLS_SERVER
 269:Generated_Source\PSoC4/BLE_1_eventHandler.c ****     if(((cyBle_eventHandlerFlag & CYBLE_CALLBACK) != 0u) && (gattErr == CYBLE_GATT_ERR_NONE))
 270:Generated_Source\PSoC4/BLE_1_eventHandler.c ****     {
 271:Generated_Source\PSoC4/BLE_1_eventHandler.c ****         gattErr = CyBle_BlssWriteEventHandler(eventParam);
 272:Generated_Source\PSoC4/BLE_1_eventHandler.c ****     }
 273:Generated_Source\PSoC4/BLE_1_eventHandler.c **** #endif /* CYBLE_BLS_SERVER */
 274:Generated_Source\PSoC4/BLE_1_eventHandler.c **** #ifdef CYBLE_BMS_SERVER
 275:Generated_Source\PSoC4/BLE_1_eventHandler.c ****     if(((cyBle_eventHandlerFlag & CYBLE_CALLBACK) != 0u) && (gattErr == CYBLE_GATT_ERR_NONE))
 276:Generated_Source\PSoC4/BLE_1_eventHandler.c ****     {
 277:Generated_Source\PSoC4/BLE_1_eventHandler.c ****         gattErr = CyBle_BmssWriteEventHandler(eventParam);
 278:Generated_Source\PSoC4/BLE_1_eventHandler.c ****     }
 279:Generated_Source\PSoC4/BLE_1_eventHandler.c **** #endif /* CYBLE_BMS_SERVER */
 280:Generated_Source\PSoC4/BLE_1_eventHandler.c **** #ifdef CYBLE_BTS_SERVER
 281:Generated_Source\PSoC4/BLE_1_eventHandler.c ****     if((cyBle_eventHandlerFlag & CYBLE_CALLBACK) != 0u)
 282:Generated_Source\PSoC4/BLE_1_eventHandler.c ****     {
 283:Generated_Source\PSoC4/BLE_1_eventHandler.c ****         gattErr = CyBle_BtsWriteEventHandler(eventParam);
 284:Generated_Source\PSoC4/BLE_1_eventHandler.c ****     }
 285:Generated_Source\PSoC4/BLE_1_eventHandler.c **** #endif /* CYBLE_BTS_SERVER */
 286:Generated_Source\PSoC4/BLE_1_eventHandler.c **** #ifdef CYBLE_CGMS_SERVER
 287:Generated_Source\PSoC4/BLE_1_eventHandler.c ****     if(((cyBle_eventHandlerFlag & CYBLE_CALLBACK) != 0u) && (gattErr == CYBLE_GATT_ERR_NONE))
 288:Generated_Source\PSoC4/BLE_1_eventHandler.c ****     {
 289:Generated_Source\PSoC4/BLE_1_eventHandler.c ****         gattErr = CyBle_CgmssWriteEventHandler(eventParam);
 290:Generated_Source\PSoC4/BLE_1_eventHandler.c ****     }
 291:Generated_Source\PSoC4/BLE_1_eventHandler.c **** #endif /* CYBLE_CGMS_SERVER */
 292:Generated_Source\PSoC4/BLE_1_eventHandler.c **** #ifdef CYBLE_CPS_SERVER
 293:Generated_Source\PSoC4/BLE_1_eventHandler.c ****     if(((cyBle_eventHandlerFlag & CYBLE_CALLBACK) != 0u) && (gattErr == CYBLE_GATT_ERR_NONE))
 294:Generated_Source\PSoC4/BLE_1_eventHandler.c ****     {
 295:Generated_Source\PSoC4/BLE_1_eventHandler.c ****         gattErr = CyBle_CpssWriteEventHandler(eventParam);
 296:Generated_Source\PSoC4/BLE_1_eventHandler.c ****     }
 297:Generated_Source\PSoC4/BLE_1_eventHandler.c **** #endif /* CYBLE_CPS_SERVER */
 298:Generated_Source\PSoC4/BLE_1_eventHandler.c **** #ifdef CYBLE_CSCS_SERVER
 299:Generated_Source\PSoC4/BLE_1_eventHandler.c ****     if(((cyBle_eventHandlerFlag & CYBLE_CALLBACK) != 0u) && (gattErr == CYBLE_GATT_ERR_NONE))
 300:Generated_Source\PSoC4/BLE_1_eventHandler.c ****     {
 301:Generated_Source\PSoC4/BLE_1_eventHandler.c ****         gattErr = CyBle_CscssWriteEventHandler(eventParam);
 302:Generated_Source\PSoC4/BLE_1_eventHandler.c ****     }
 303:Generated_Source\PSoC4/BLE_1_eventHandler.c **** #endif /* CYBLE_CSCS_SERVER */
 304:Generated_Source\PSoC4/BLE_1_eventHandler.c **** #ifdef CYBLE_CTS_SERVER
 305:Generated_Source\PSoC4/BLE_1_eventHandler.c ****     if(((cyBle_eventHandlerFlag & CYBLE_CALLBACK) != 0u) && (gattErr == CYBLE_GATT_ERR_NONE))
 306:Generated_Source\PSoC4/BLE_1_eventHandler.c ****     {
 307:Generated_Source\PSoC4/BLE_1_eventHandler.c ****         gattErr = CyBle_CtssWriteEventHandler(eventParam);
 308:Generated_Source\PSoC4/BLE_1_eventHandler.c ****     }
 309:Generated_Source\PSoC4/BLE_1_eventHandler.c **** #endif /* CYBLE_CTS_SERVER */
 310:Generated_Source\PSoC4/BLE_1_eventHandler.c **** #ifdef CYBLE_ESS_SERVER
 311:Generated_Source\PSoC4/BLE_1_eventHandler.c ****     if(((cyBle_eventHandlerFlag & CYBLE_CALLBACK) != 0u) && (gattErr == CYBLE_GATT_ERR_NONE))
 312:Generated_Source\PSoC4/BLE_1_eventHandler.c ****     {
 313:Generated_Source\PSoC4/BLE_1_eventHandler.c ****         gattErr = CyBle_EsssWriteEventHandler(eventParam);
 314:Generated_Source\PSoC4/BLE_1_eventHandler.c ****     }
 315:Generated_Source\PSoC4/BLE_1_eventHandler.c **** #endif /* CYBLE_ESS_SERVER */
 316:Generated_Source\PSoC4/BLE_1_eventHandler.c **** #ifdef CYBLE_GLS_SERVER
ARM GAS  C:\Users\Sarah\AppData\Local\Temp\ccqSJLdk.s 			page 8


 317:Generated_Source\PSoC4/BLE_1_eventHandler.c ****     if(((cyBle_eventHandlerFlag & CYBLE_CALLBACK) != 0u) && (gattErr == CYBLE_GATT_ERR_NONE))
 318:Generated_Source\PSoC4/BLE_1_eventHandler.c ****     {
 319:Generated_Source\PSoC4/BLE_1_eventHandler.c ****         gattErr = CyBle_GlssWriteEventHandler(eventParam);
 320:Generated_Source\PSoC4/BLE_1_eventHandler.c ****     }
 321:Generated_Source\PSoC4/BLE_1_eventHandler.c **** #endif /* CYBLE_GLS_SERVER */
 322:Generated_Source\PSoC4/BLE_1_eventHandler.c **** #ifdef CYBLE_HIDS_SERVER
 323:Generated_Source\PSoC4/BLE_1_eventHandler.c ****     if(((cyBle_eventHandlerFlag & CYBLE_CALLBACK) != 0u) && (gattErr == CYBLE_GATT_ERR_NONE))
 324:Generated_Source\PSoC4/BLE_1_eventHandler.c ****     {
 325:Generated_Source\PSoC4/BLE_1_eventHandler.c ****         gattErr = CyBle_HidssWriteEventHandler(eventParam);
 326:Generated_Source\PSoC4/BLE_1_eventHandler.c ****     }
 327:Generated_Source\PSoC4/BLE_1_eventHandler.c **** #endif /* CYBLE_HIDS_SERVER */
 328:Generated_Source\PSoC4/BLE_1_eventHandler.c **** #ifdef CYBLE_HPS_SERVER
 329:Generated_Source\PSoC4/BLE_1_eventHandler.c ****     if(((cyBle_eventHandlerFlag & CYBLE_CALLBACK) != 0u) && (gattErr == CYBLE_GATT_ERR_NONE))
 330:Generated_Source\PSoC4/BLE_1_eventHandler.c ****     {
 331:Generated_Source\PSoC4/BLE_1_eventHandler.c ****         gattErr = CyBle_HpssWriteEventHandler(eventParam);
 332:Generated_Source\PSoC4/BLE_1_eventHandler.c ****     }
 333:Generated_Source\PSoC4/BLE_1_eventHandler.c **** #endif /* CYBLE_HPS_SERVER */
 334:Generated_Source\PSoC4/BLE_1_eventHandler.c **** #ifdef CYBLE_HRS_SERVER
 335:Generated_Source\PSoC4/BLE_1_eventHandler.c ****     if(((cyBle_eventHandlerFlag & CYBLE_CALLBACK) != 0u) && (gattErr == CYBLE_GATT_ERR_NONE))
 336:Generated_Source\PSoC4/BLE_1_eventHandler.c ****     {
 337:Generated_Source\PSoC4/BLE_1_eventHandler.c ****         gattErr = CyBle_HrssWriteEventHandler(eventParam);
 338:Generated_Source\PSoC4/BLE_1_eventHandler.c ****     }
 339:Generated_Source\PSoC4/BLE_1_eventHandler.c **** #endif /* CYBLE_HRS_SERVER */
 340:Generated_Source\PSoC4/BLE_1_eventHandler.c **** #ifdef CYBLE_HTS_SERVER
 341:Generated_Source\PSoC4/BLE_1_eventHandler.c ****     if(((cyBle_eventHandlerFlag & CYBLE_CALLBACK) != 0u) && (gattErr == CYBLE_GATT_ERR_NONE))
 342:Generated_Source\PSoC4/BLE_1_eventHandler.c ****     {
 343:Generated_Source\PSoC4/BLE_1_eventHandler.c ****         gattErr = CyBle_HtssWriteEventHandler(eventParam);
 344:Generated_Source\PSoC4/BLE_1_eventHandler.c ****     }
 345:Generated_Source\PSoC4/BLE_1_eventHandler.c **** #endif /* CYBLE_HTS_SERVER */
 346:Generated_Source\PSoC4/BLE_1_eventHandler.c **** #ifdef CYBLE_IPS_SERVER
 347:Generated_Source\PSoC4/BLE_1_eventHandler.c ****     if(((cyBle_eventHandlerFlag & CYBLE_CALLBACK) != 0u) && (gattErr == CYBLE_GATT_ERR_NONE))
 348:Generated_Source\PSoC4/BLE_1_eventHandler.c ****     {
 349:Generated_Source\PSoC4/BLE_1_eventHandler.c ****         gattErr = CyBle_IpssWriteEventHandler(eventParam);
 350:Generated_Source\PSoC4/BLE_1_eventHandler.c ****     }
 351:Generated_Source\PSoC4/BLE_1_eventHandler.c **** #endif /* CYBLE_IPS_SERVER */
 352:Generated_Source\PSoC4/BLE_1_eventHandler.c **** #ifdef CYBLE_LLS_SERVER
 353:Generated_Source\PSoC4/BLE_1_eventHandler.c ****     if(((cyBle_eventHandlerFlag & CYBLE_CALLBACK) != 0u) && (gattErr == CYBLE_GATT_ERR_NONE))
 354:Generated_Source\PSoC4/BLE_1_eventHandler.c ****     {
 355:Generated_Source\PSoC4/BLE_1_eventHandler.c ****         gattErr = CyBle_LlssWriteEventHandler(eventParam);
 356:Generated_Source\PSoC4/BLE_1_eventHandler.c ****     }
 357:Generated_Source\PSoC4/BLE_1_eventHandler.c **** #endif /* CYBLE_LLS_SERVER */
 358:Generated_Source\PSoC4/BLE_1_eventHandler.c **** #ifdef CYBLE_LNS_SERVER
 359:Generated_Source\PSoC4/BLE_1_eventHandler.c ****     if(((cyBle_eventHandlerFlag & CYBLE_CALLBACK) != 0u) && (gattErr == CYBLE_GATT_ERR_NONE))
 360:Generated_Source\PSoC4/BLE_1_eventHandler.c ****     {
 361:Generated_Source\PSoC4/BLE_1_eventHandler.c ****         gattErr = CyBle_LnssWriteEventHandler(eventParam);
 362:Generated_Source\PSoC4/BLE_1_eventHandler.c ****     }
 363:Generated_Source\PSoC4/BLE_1_eventHandler.c **** #endif /* CYBLE_LNS_SERVER */
 364:Generated_Source\PSoC4/BLE_1_eventHandler.c **** #ifdef CYBLE_PASS_SERVER
 365:Generated_Source\PSoC4/BLE_1_eventHandler.c ****     if(((cyBle_eventHandlerFlag & CYBLE_CALLBACK) != 0u) && (gattErr == CYBLE_GATT_ERR_NONE))
 366:Generated_Source\PSoC4/BLE_1_eventHandler.c ****     {
 367:Generated_Source\PSoC4/BLE_1_eventHandler.c ****         gattErr = CyBle_PasssWriteEventHandler(eventParam);
 368:Generated_Source\PSoC4/BLE_1_eventHandler.c ****     }
 369:Generated_Source\PSoC4/BLE_1_eventHandler.c **** #endif /* CYBLE_PASS_SERVER */
 370:Generated_Source\PSoC4/BLE_1_eventHandler.c **** #ifdef CYBLE_PLXS_SERVER
 371:Generated_Source\PSoC4/BLE_1_eventHandler.c ****     if(((cyBle_eventHandlerFlag & CYBLE_CALLBACK) != 0u) && (gattErr == CYBLE_GATT_ERR_NONE))
 372:Generated_Source\PSoC4/BLE_1_eventHandler.c ****     {
 373:Generated_Source\PSoC4/BLE_1_eventHandler.c ****         gattErr = CyBle_PlxssWriteEventHandler(eventParam);
ARM GAS  C:\Users\Sarah\AppData\Local\Temp\ccqSJLdk.s 			page 9


 374:Generated_Source\PSoC4/BLE_1_eventHandler.c ****     }
 375:Generated_Source\PSoC4/BLE_1_eventHandler.c **** #endif /* CYBLE_PLXS_SERVER */    
 376:Generated_Source\PSoC4/BLE_1_eventHandler.c **** #ifdef CYBLE_RSCS_SERVER
 377:Generated_Source\PSoC4/BLE_1_eventHandler.c ****     if(((cyBle_eventHandlerFlag & CYBLE_CALLBACK) != 0u) && (gattErr == CYBLE_GATT_ERR_NONE))
 378:Generated_Source\PSoC4/BLE_1_eventHandler.c ****     {
 379:Generated_Source\PSoC4/BLE_1_eventHandler.c ****         gattErr = CyBle_RscssWriteEventHandler(eventParam);
 380:Generated_Source\PSoC4/BLE_1_eventHandler.c ****     }
 381:Generated_Source\PSoC4/BLE_1_eventHandler.c **** #endif /* CYBLE_RSCS_SERVER */
 382:Generated_Source\PSoC4/BLE_1_eventHandler.c **** #ifdef CYBLE_SCPS_SERVER
 383:Generated_Source\PSoC4/BLE_1_eventHandler.c ****     if(((cyBle_eventHandlerFlag & CYBLE_CALLBACK) != 0u) && (gattErr == CYBLE_GATT_ERR_NONE))
 384:Generated_Source\PSoC4/BLE_1_eventHandler.c ****     {
 385:Generated_Source\PSoC4/BLE_1_eventHandler.c ****         gattErr = CyBle_ScpssWriteEventHandler(eventParam);
 386:Generated_Source\PSoC4/BLE_1_eventHandler.c ****     }
 387:Generated_Source\PSoC4/BLE_1_eventHandler.c **** #endif /* CYBLE_SCPS_SERVER */
 388:Generated_Source\PSoC4/BLE_1_eventHandler.c **** #ifdef CYBLE_TPS_SERVER
 389:Generated_Source\PSoC4/BLE_1_eventHandler.c ****     if(((cyBle_eventHandlerFlag & CYBLE_CALLBACK) != 0u) && (gattErr == CYBLE_GATT_ERR_NONE))
 390:Generated_Source\PSoC4/BLE_1_eventHandler.c ****     {
 391:Generated_Source\PSoC4/BLE_1_eventHandler.c ****         gattErr = CyBle_TpssWriteEventHandler(eventParam);
 392:Generated_Source\PSoC4/BLE_1_eventHandler.c ****     }
 393:Generated_Source\PSoC4/BLE_1_eventHandler.c **** #endif /* CYBLE_TPS_SERVER */
 394:Generated_Source\PSoC4/BLE_1_eventHandler.c **** #ifdef CYBLE_UDS_SERVER
 395:Generated_Source\PSoC4/BLE_1_eventHandler.c ****     if(((cyBle_eventHandlerFlag & CYBLE_CALLBACK) != 0u) && (gattErr == CYBLE_GATT_ERR_NONE))
 396:Generated_Source\PSoC4/BLE_1_eventHandler.c ****     {
 397:Generated_Source\PSoC4/BLE_1_eventHandler.c ****         gattErr = CyBle_UdssWriteEventHandler(eventParam);
 398:Generated_Source\PSoC4/BLE_1_eventHandler.c ****     }
 399:Generated_Source\PSoC4/BLE_1_eventHandler.c **** #endif /* CYBLE_UDS_SERVER */
 400:Generated_Source\PSoC4/BLE_1_eventHandler.c **** #ifdef CYBLE_WPTS_SERVER
 401:Generated_Source\PSoC4/BLE_1_eventHandler.c ****     if(((cyBle_eventHandlerFlag & CYBLE_CALLBACK) != 0u) && (gattErr == CYBLE_GATT_ERR_NONE))
 402:Generated_Source\PSoC4/BLE_1_eventHandler.c ****     {
 403:Generated_Source\PSoC4/BLE_1_eventHandler.c ****         gattErr = CyBle_WptssWriteEventHandler(eventParam);
 404:Generated_Source\PSoC4/BLE_1_eventHandler.c ****     }
 405:Generated_Source\PSoC4/BLE_1_eventHandler.c **** #endif /* CYBLE_WPTS_SERVER */
 406:Generated_Source\PSoC4/BLE_1_eventHandler.c **** #ifdef CYBLE_WSS_SERVER
 407:Generated_Source\PSoC4/BLE_1_eventHandler.c ****     if(((cyBle_eventHandlerFlag & CYBLE_CALLBACK) != 0u) && (gattErr == CYBLE_GATT_ERR_NONE))
 408:Generated_Source\PSoC4/BLE_1_eventHandler.c ****     {
 409:Generated_Source\PSoC4/BLE_1_eventHandler.c ****         gattErr = CyBle_WsssWriteEventHandler(eventParam);
 410:Generated_Source\PSoC4/BLE_1_eventHandler.c ****     }
 411:Generated_Source\PSoC4/BLE_1_eventHandler.c **** #endif /* CYBLE_WSS_SERVER */
 412:Generated_Source\PSoC4/BLE_1_eventHandler.c **** 
 413:Generated_Source\PSoC4/BLE_1_eventHandler.c ****     /* Send response when event was handled by service */
 414:Generated_Source\PSoC4/BLE_1_eventHandler.c ****     if((cyBle_eventHandlerFlag & CYBLE_CALLBACK) == 0u)
  80              		.loc 1 414 0
  81 0018 144B     		ldr	r3, .L4
  82 001a 1B78     		ldrb	r3, [r3]
  83 001c DBB2     		uxtb	r3, r3
  84 001e 1A1C     		mov	r2, r3
  85 0020 0123     		mov	r3, #1
  86 0022 1340     		and	r3, r2
  87 0024 1FD1     		bne	.L1
 415:Generated_Source\PSoC4/BLE_1_eventHandler.c ****     {
 416:Generated_Source\PSoC4/BLE_1_eventHandler.c ****         if(gattErr != CYBLE_GATT_ERR_NONE)
  88              		.loc 1 416 0
  89 0026 0F23     		mov	r3, #15
  90 0028 FB18     		add	r3, r7, r3
  91 002a 1B78     		ldrb	r3, [r3]
  92 002c 002B     		cmp	r3, #0
  93 002e 16D0     		beq	.L3
ARM GAS  C:\Users\Sarah\AppData\Local\Temp\ccqSJLdk.s 			page 10


  94              	.LBB2:
 417:Generated_Source\PSoC4/BLE_1_eventHandler.c ****         {
 418:Generated_Source\PSoC4/BLE_1_eventHandler.c ****             CYBLE_GATTS_ERR_PARAM_T err_param;
 419:Generated_Source\PSoC4/BLE_1_eventHandler.c ****             
 420:Generated_Source\PSoC4/BLE_1_eventHandler.c ****             err_param.opcode = (uint8) CYBLE_GATT_WRITE_REQ;
  95              		.loc 1 420 0
  96 0030 0823     		mov	r3, #8
  97 0032 FB18     		add	r3, r7, r3
  98 0034 1222     		mov	r2, #18
  99 0036 9A70     		strb	r2, [r3, #2]
 421:Generated_Source\PSoC4/BLE_1_eventHandler.c ****             err_param.attrHandle = eventParam->handleValPair.attrHandle;
 100              		.loc 1 421 0
 101 0038 7B68     		ldr	r3, [r7, #4]
 102 003a 9A89     		ldrh	r2, [r3, #12]
 103 003c 0823     		mov	r3, #8
 104 003e FB18     		add	r3, r7, r3
 105 0040 1A80     		strh	r2, [r3]
 422:Generated_Source\PSoC4/BLE_1_eventHandler.c ****             err_param.errorCode = gattErr;
 106              		.loc 1 422 0
 107 0042 0823     		mov	r3, #8
 108 0044 FB18     		add	r3, r7, r3
 109 0046 0F22     		mov	r2, #15
 110 0048 BA18     		add	r2, r7, r2
 111 004a 1278     		ldrb	r2, [r2]
 112 004c DA70     		strb	r2, [r3, #3]
 423:Generated_Source\PSoC4/BLE_1_eventHandler.c **** 
 424:Generated_Source\PSoC4/BLE_1_eventHandler.c ****             /* Send Error Response */
 425:Generated_Source\PSoC4/BLE_1_eventHandler.c ****             (void)CyBle_GattsErrorRsp(eventParam->connHandle, &err_param);
 113              		.loc 1 425 0
 114 004e 7B68     		ldr	r3, [r7, #4]
 115 0050 0822     		mov	r2, #8
 116 0052 BA18     		add	r2, r7, r2
 117 0054 1868     		ldr	r0, [r3]
 118 0056 111C     		mov	r1, r2
 119 0058 FFF7FEFF 		bl	CyBle_GattsErrorRsp
 120              	.LBE2:
 121 005c 03E0     		b	.L1
 122              	.L3:
 426:Generated_Source\PSoC4/BLE_1_eventHandler.c ****         }
 427:Generated_Source\PSoC4/BLE_1_eventHandler.c ****         else
 428:Generated_Source\PSoC4/BLE_1_eventHandler.c ****         {
 429:Generated_Source\PSoC4/BLE_1_eventHandler.c ****             (void)CyBle_GattsWriteRsp(eventParam->connHandle);
 123              		.loc 1 429 0
 124 005e 7B68     		ldr	r3, [r7, #4]
 125 0060 1868     		ldr	r0, [r3]
 126 0062 FFF7FEFF 		bl	CyBle_GattsWriteRsp
 127              	.L1:
 430:Generated_Source\PSoC4/BLE_1_eventHandler.c ****         }
 431:Generated_Source\PSoC4/BLE_1_eventHandler.c ****     }
 432:Generated_Source\PSoC4/BLE_1_eventHandler.c **** }
 128              		.loc 1 432 0
 129 0066 BD46     		mov	sp, r7
 130 0068 05B0     		add	sp, sp, #20
 131              		@ sp needed
 132 006a 90BD     		pop	{r4, r7, pc}
 133              	.L5:
 134              		.align	2
ARM GAS  C:\Users\Sarah\AppData\Local\Temp\ccqSJLdk.s 			page 11


 135              	.L4:
 136 006c 00000000 		.word	cyBle_eventHandlerFlag
 137              		.cfi_endproc
 138              	.LFE2:
 139              		.size	CyBle_WriteReqHandler, .-CyBle_WriteReqHandler
 140              		.section	.text.CyBle_ValueConfirmation,"ax",%progbits
 141              		.align	2
 142              		.code	16
 143              		.thumb_func
 144              		.type	CyBle_ValueConfirmation, %function
 145              	CyBle_ValueConfirmation:
 146              	.LFB3:
 433:Generated_Source\PSoC4/BLE_1_eventHandler.c **** 
 434:Generated_Source\PSoC4/BLE_1_eventHandler.c **** 
 435:Generated_Source\PSoC4/BLE_1_eventHandler.c **** /****************************************************************************** 
 436:Generated_Source\PSoC4/BLE_1_eventHandler.c **** * Function Name: CyBle_ValueConfirmation
 437:Generated_Source\PSoC4/BLE_1_eventHandler.c **** ***************************************************************************//**
 438:Generated_Source\PSoC4/BLE_1_eventHandler.c **** * 
 439:Generated_Source\PSoC4/BLE_1_eventHandler.c **** *  Handles the Value Confirmation request event from the BLE stack.
 440:Generated_Source\PSoC4/BLE_1_eventHandler.c **** * 
 441:Generated_Source\PSoC4/BLE_1_eventHandler.c **** *  \param eventParam: Pointer to a structure of type 'CYBLE_CONN_HANDLE_T'
 442:Generated_Source\PSoC4/BLE_1_eventHandler.c **** * 
 443:Generated_Source\PSoC4/BLE_1_eventHandler.c **** * \return
 444:Generated_Source\PSoC4/BLE_1_eventHandler.c **** *  None
 445:Generated_Source\PSoC4/BLE_1_eventHandler.c **** * 
 446:Generated_Source\PSoC4/BLE_1_eventHandler.c **** ******************************************************************************/
 447:Generated_Source\PSoC4/BLE_1_eventHandler.c **** static void CyBle_ValueConfirmation(const CYBLE_CONN_HANDLE_T *eventParam)
 448:Generated_Source\PSoC4/BLE_1_eventHandler.c **** {
 147              		.loc 1 448 0
 148              		.cfi_startproc
 149 0000 80B5     		push	{r7, lr}
 150              		.cfi_def_cfa_offset 8
 151              		.cfi_offset 7, -8
 152              		.cfi_offset 14, -4
 153 0002 82B0     		sub	sp, sp, #8
 154              		.cfi_def_cfa_offset 16
 155 0004 00AF     		add	r7, sp, #0
 156              		.cfi_def_cfa_register 7
 157 0006 7860     		str	r0, [r7, #4]
 449:Generated_Source\PSoC4/BLE_1_eventHandler.c ****     if(eventParam != NULL)
 450:Generated_Source\PSoC4/BLE_1_eventHandler.c ****     {
 451:Generated_Source\PSoC4/BLE_1_eventHandler.c ****     #ifdef CYBLE_BCS_SERVER
 452:Generated_Source\PSoC4/BLE_1_eventHandler.c ****         CyBle_BcssConfirmationEventHandler(eventParam);
 453:Generated_Source\PSoC4/BLE_1_eventHandler.c ****     #endif /* CYBLE_BCS_SERVER */
 454:Generated_Source\PSoC4/BLE_1_eventHandler.c ****     #ifdef CYBLE_BLS_SERVER
 455:Generated_Source\PSoC4/BLE_1_eventHandler.c ****         if((cyBle_eventHandlerFlag & CYBLE_CALLBACK) != 0u)
 456:Generated_Source\PSoC4/BLE_1_eventHandler.c ****         {
 457:Generated_Source\PSoC4/BLE_1_eventHandler.c ****             CyBle_BlssConfirmationEventHandler(eventParam);
 458:Generated_Source\PSoC4/BLE_1_eventHandler.c ****         }
 459:Generated_Source\PSoC4/BLE_1_eventHandler.c ****     #endif /* CYBLE_BLS_SERVER */
 460:Generated_Source\PSoC4/BLE_1_eventHandler.c ****     
 461:Generated_Source\PSoC4/BLE_1_eventHandler.c ****     #ifdef CYBLE_CGMS_SERVER
 462:Generated_Source\PSoC4/BLE_1_eventHandler.c ****         if((cyBle_eventHandlerFlag & CYBLE_CALLBACK) != 0u)
 463:Generated_Source\PSoC4/BLE_1_eventHandler.c ****         {
 464:Generated_Source\PSoC4/BLE_1_eventHandler.c ****             CyBle_CgmssConfirmationEventHandler(eventParam);
 465:Generated_Source\PSoC4/BLE_1_eventHandler.c ****         }
 466:Generated_Source\PSoC4/BLE_1_eventHandler.c ****     #endif /* CYBLE_CGMS_SERVER */
ARM GAS  C:\Users\Sarah\AppData\Local\Temp\ccqSJLdk.s 			page 12


 467:Generated_Source\PSoC4/BLE_1_eventHandler.c ****     
 468:Generated_Source\PSoC4/BLE_1_eventHandler.c ****     #ifdef CYBLE_CPS_SERVER
 469:Generated_Source\PSoC4/BLE_1_eventHandler.c ****         if((cyBle_eventHandlerFlag & CYBLE_CALLBACK) != 0u)
 470:Generated_Source\PSoC4/BLE_1_eventHandler.c ****         {
 471:Generated_Source\PSoC4/BLE_1_eventHandler.c ****             CyBle_CpssConfirmationEventHandler(eventParam);
 472:Generated_Source\PSoC4/BLE_1_eventHandler.c ****         }
 473:Generated_Source\PSoC4/BLE_1_eventHandler.c ****     #endif /* CYBLE_CPS_SERVER */
 474:Generated_Source\PSoC4/BLE_1_eventHandler.c ****     
 475:Generated_Source\PSoC4/BLE_1_eventHandler.c ****     #ifdef CYBLE_CSCS_SERVER
 476:Generated_Source\PSoC4/BLE_1_eventHandler.c ****         if((cyBle_eventHandlerFlag & CYBLE_CALLBACK) != 0u)
 477:Generated_Source\PSoC4/BLE_1_eventHandler.c ****         {
 478:Generated_Source\PSoC4/BLE_1_eventHandler.c ****             CyBle_CscssConfirmationEventHandler(eventParam);
 479:Generated_Source\PSoC4/BLE_1_eventHandler.c ****         }
 480:Generated_Source\PSoC4/BLE_1_eventHandler.c ****     #endif /* CYBLE_CSCS_SERVER */
 481:Generated_Source\PSoC4/BLE_1_eventHandler.c ****     
 482:Generated_Source\PSoC4/BLE_1_eventHandler.c ****     #ifdef CYBLE_ESS_SERVER
 483:Generated_Source\PSoC4/BLE_1_eventHandler.c ****         if((cyBle_eventHandlerFlag & CYBLE_CALLBACK) != 0u)
 484:Generated_Source\PSoC4/BLE_1_eventHandler.c ****         {
 485:Generated_Source\PSoC4/BLE_1_eventHandler.c ****             CyBle_EsssConfirmationEventHandler(eventParam);
 486:Generated_Source\PSoC4/BLE_1_eventHandler.c ****         }
 487:Generated_Source\PSoC4/BLE_1_eventHandler.c ****     #endif /* CYBLE_ESS_SERVER */
 488:Generated_Source\PSoC4/BLE_1_eventHandler.c ****     
 489:Generated_Source\PSoC4/BLE_1_eventHandler.c ****     #ifdef CYBLE_GLS_SERVER
 490:Generated_Source\PSoC4/BLE_1_eventHandler.c ****         if((cyBle_eventHandlerFlag & CYBLE_CALLBACK) != 0u)
 491:Generated_Source\PSoC4/BLE_1_eventHandler.c ****         {
 492:Generated_Source\PSoC4/BLE_1_eventHandler.c ****             CyBle_GlssConfirmationEventHandler(eventParam);
 493:Generated_Source\PSoC4/BLE_1_eventHandler.c ****         }
 494:Generated_Source\PSoC4/BLE_1_eventHandler.c ****     #endif /* CYBLE_GLS_SERVER */
 495:Generated_Source\PSoC4/BLE_1_eventHandler.c ****     
 496:Generated_Source\PSoC4/BLE_1_eventHandler.c ****     #ifdef CYBLE_HTS_SERVER
 497:Generated_Source\PSoC4/BLE_1_eventHandler.c ****         if((cyBle_eventHandlerFlag & CYBLE_CALLBACK) != 0u)
 498:Generated_Source\PSoC4/BLE_1_eventHandler.c ****         {
 499:Generated_Source\PSoC4/BLE_1_eventHandler.c ****             CyBle_HtssConfirmationEventHandler(eventParam);
 500:Generated_Source\PSoC4/BLE_1_eventHandler.c ****         }
 501:Generated_Source\PSoC4/BLE_1_eventHandler.c ****     #endif /* CYBLE_HTS_SERVER */
 502:Generated_Source\PSoC4/BLE_1_eventHandler.c **** 
 503:Generated_Source\PSoC4/BLE_1_eventHandler.c ****     #ifdef CYBLE_LNS_SERVER
 504:Generated_Source\PSoC4/BLE_1_eventHandler.c ****         if((cyBle_eventHandlerFlag & CYBLE_CALLBACK) != 0u)
 505:Generated_Source\PSoC4/BLE_1_eventHandler.c ****         {
 506:Generated_Source\PSoC4/BLE_1_eventHandler.c ****             CyBle_LnssConfirmationEventHandler(eventParam);
 507:Generated_Source\PSoC4/BLE_1_eventHandler.c ****         }
 508:Generated_Source\PSoC4/BLE_1_eventHandler.c ****     #endif /* CYBLE_LNS_SERVER */
 509:Generated_Source\PSoC4/BLE_1_eventHandler.c ****     
 510:Generated_Source\PSoC4/BLE_1_eventHandler.c ****     #ifdef CYBLE_RSCS_SERVER
 511:Generated_Source\PSoC4/BLE_1_eventHandler.c ****         if((cyBle_eventHandlerFlag & CYBLE_CALLBACK) != 0u)
 512:Generated_Source\PSoC4/BLE_1_eventHandler.c ****         {
 513:Generated_Source\PSoC4/BLE_1_eventHandler.c ****             CyBle_RscssConfirmationEventHandler(eventParam);
 514:Generated_Source\PSoC4/BLE_1_eventHandler.c ****         }
 515:Generated_Source\PSoC4/BLE_1_eventHandler.c ****     #endif /* CYBLE_RSCS_SERVER */
 516:Generated_Source\PSoC4/BLE_1_eventHandler.c ****     
 517:Generated_Source\PSoC4/BLE_1_eventHandler.c ****     #ifdef CYBLE_UDS_SERVER
 518:Generated_Source\PSoC4/BLE_1_eventHandler.c ****         if((cyBle_eventHandlerFlag & CYBLE_CALLBACK) != 0u)
 519:Generated_Source\PSoC4/BLE_1_eventHandler.c ****         {
 520:Generated_Source\PSoC4/BLE_1_eventHandler.c ****             CyBle_UdssConfirmationEventHandler(eventParam);
 521:Generated_Source\PSoC4/BLE_1_eventHandler.c ****         }
 522:Generated_Source\PSoC4/BLE_1_eventHandler.c ****     #endif /* CYBLE_UDS_SERVER */
 523:Generated_Source\PSoC4/BLE_1_eventHandler.c ****     
ARM GAS  C:\Users\Sarah\AppData\Local\Temp\ccqSJLdk.s 			page 13


 524:Generated_Source\PSoC4/BLE_1_eventHandler.c ****     #ifdef CYBLE_WPTS_SERVER
 525:Generated_Source\PSoC4/BLE_1_eventHandler.c ****         if((cyBle_eventHandlerFlag & CYBLE_CALLBACK) != 0u)
 526:Generated_Source\PSoC4/BLE_1_eventHandler.c ****         {
 527:Generated_Source\PSoC4/BLE_1_eventHandler.c ****             CyBle_WptssConfirmationEventHandler(eventParam);
 528:Generated_Source\PSoC4/BLE_1_eventHandler.c ****         }
 529:Generated_Source\PSoC4/BLE_1_eventHandler.c ****     #endif /* CYBLE_WPTS_SERVER */
 530:Generated_Source\PSoC4/BLE_1_eventHandler.c ****     
 531:Generated_Source\PSoC4/BLE_1_eventHandler.c ****     #ifdef CYBLE_WSS_SERVER
 532:Generated_Source\PSoC4/BLE_1_eventHandler.c ****         if((cyBle_eventHandlerFlag & CYBLE_CALLBACK) != 0u)
 533:Generated_Source\PSoC4/BLE_1_eventHandler.c ****         {
 534:Generated_Source\PSoC4/BLE_1_eventHandler.c ****             CyBle_WsssConfirmationEventHandler(eventParam);
 535:Generated_Source\PSoC4/BLE_1_eventHandler.c ****         }
 536:Generated_Source\PSoC4/BLE_1_eventHandler.c ****     #endif /* CYBLE_WSS_SERVER */
 537:Generated_Source\PSoC4/BLE_1_eventHandler.c ****     }
 538:Generated_Source\PSoC4/BLE_1_eventHandler.c **** }
 158              		.loc 1 538 0
 159 0008 BD46     		mov	sp, r7
 160 000a 02B0     		add	sp, sp, #8
 161              		@ sp needed
 162 000c 80BD     		pop	{r7, pc}
 163              		.cfi_endproc
 164              	.LFE3:
 165              		.size	CyBle_ValueConfirmation, .-CyBle_ValueConfirmation
 166              		.section	.text.CyBle_GattcWriteResponseEventHandler,"ax",%progbits
 167              		.align	2
 168              		.code	16
 169              		.thumb_func
 170              		.type	CyBle_GattcWriteResponseEventHandler, %function
 171              	CyBle_GattcWriteResponseEventHandler:
 172              	.LFB4:
 539:Generated_Source\PSoC4/BLE_1_eventHandler.c **** 
 540:Generated_Source\PSoC4/BLE_1_eventHandler.c **** #endif /* CYBLE_GATT_ROLE_SERVER */
 541:Generated_Source\PSoC4/BLE_1_eventHandler.c **** 
 542:Generated_Source\PSoC4/BLE_1_eventHandler.c **** 
 543:Generated_Source\PSoC4/BLE_1_eventHandler.c **** #if (CYBLE_GATT_ROLE_CLIENT)
 544:Generated_Source\PSoC4/BLE_1_eventHandler.c **** 
 545:Generated_Source\PSoC4/BLE_1_eventHandler.c **** /****************************************************************************** 
 546:Generated_Source\PSoC4/BLE_1_eventHandler.c **** * Function Name: CyBle_GattcWriteResponseEventHandler
 547:Generated_Source\PSoC4/BLE_1_eventHandler.c **** ***************************************************************************//**
 548:Generated_Source\PSoC4/BLE_1_eventHandler.c **** * 
 549:Generated_Source\PSoC4/BLE_1_eventHandler.c **** *  Handles the Write response event from the BLE stack.
 550:Generated_Source\PSoC4/BLE_1_eventHandler.c **** * 
 551:Generated_Source\PSoC4/BLE_1_eventHandler.c **** *  \param eventParam: Pointer to a structure of type 'CYBLE_CONN_HANDLE_T'
 552:Generated_Source\PSoC4/BLE_1_eventHandler.c **** * 
 553:Generated_Source\PSoC4/BLE_1_eventHandler.c **** * \return
 554:Generated_Source\PSoC4/BLE_1_eventHandler.c **** *  None
 555:Generated_Source\PSoC4/BLE_1_eventHandler.c **** * 
 556:Generated_Source\PSoC4/BLE_1_eventHandler.c **** ******************************************************************************/
 557:Generated_Source\PSoC4/BLE_1_eventHandler.c **** static void CyBle_GattcWriteResponseEventHandler(const CYBLE_CONN_HANDLE_T *eventParam)
 558:Generated_Source\PSoC4/BLE_1_eventHandler.c **** {
 173              		.loc 1 558 0
 174              		.cfi_startproc
 175 0000 80B5     		push	{r7, lr}
 176              		.cfi_def_cfa_offset 8
 177              		.cfi_offset 7, -8
 178              		.cfi_offset 14, -4
 179 0002 82B0     		sub	sp, sp, #8
ARM GAS  C:\Users\Sarah\AppData\Local\Temp\ccqSJLdk.s 			page 14


 180              		.cfi_def_cfa_offset 16
 181 0004 00AF     		add	r7, sp, #0
 182              		.cfi_def_cfa_register 7
 183 0006 7860     		str	r0, [r7, #4]
 559:Generated_Source\PSoC4/BLE_1_eventHandler.c **** #ifdef CYBLE_ANCS_CLIENT
 560:Generated_Source\PSoC4/BLE_1_eventHandler.c ****     CyBle_AncscWriteResponseEventHandler(eventParam);
 561:Generated_Source\PSoC4/BLE_1_eventHandler.c **** #endif /* CYBLE_ANCS_CLIENT */
 562:Generated_Source\PSoC4/BLE_1_eventHandler.c **** 
 563:Generated_Source\PSoC4/BLE_1_eventHandler.c **** #ifdef CYBLE_ANS_CLIENT
 564:Generated_Source\PSoC4/BLE_1_eventHandler.c ****     if((cyBle_eventHandlerFlag & CYBLE_CALLBACK) != 0u)
 565:Generated_Source\PSoC4/BLE_1_eventHandler.c ****     {
 566:Generated_Source\PSoC4/BLE_1_eventHandler.c ****         CyBle_AnscWriteResponseEventHandler(eventParam);
 567:Generated_Source\PSoC4/BLE_1_eventHandler.c ****     }
 568:Generated_Source\PSoC4/BLE_1_eventHandler.c **** #endif /* CYBLE_ANS_CLIENT */
 569:Generated_Source\PSoC4/BLE_1_eventHandler.c **** 
 570:Generated_Source\PSoC4/BLE_1_eventHandler.c **** #ifdef CYBLE_BAS_CLIENT
 571:Generated_Source\PSoC4/BLE_1_eventHandler.c ****     if((cyBle_eventHandlerFlag & CYBLE_CALLBACK) != 0u)
 572:Generated_Source\PSoC4/BLE_1_eventHandler.c ****     {
 573:Generated_Source\PSoC4/BLE_1_eventHandler.c ****         CyBle_BascWriteResponseEventHandler(eventParam);
 574:Generated_Source\PSoC4/BLE_1_eventHandler.c ****     }
 575:Generated_Source\PSoC4/BLE_1_eventHandler.c **** #endif /* CYBLE_BAS_CLIENT */
 576:Generated_Source\PSoC4/BLE_1_eventHandler.c **** 
 577:Generated_Source\PSoC4/BLE_1_eventHandler.c **** #ifdef CYBLE_BCS_CLIENT
 578:Generated_Source\PSoC4/BLE_1_eventHandler.c ****     if((cyBle_eventHandlerFlag & CYBLE_CALLBACK) != 0u)
 579:Generated_Source\PSoC4/BLE_1_eventHandler.c ****     {
 580:Generated_Source\PSoC4/BLE_1_eventHandler.c ****         CyBle_BcscWriteResponseEventHandler(eventParam);
 581:Generated_Source\PSoC4/BLE_1_eventHandler.c ****     }
 582:Generated_Source\PSoC4/BLE_1_eventHandler.c **** #endif /* CYBLE_BCS_CLIENT */
 583:Generated_Source\PSoC4/BLE_1_eventHandler.c **** 
 584:Generated_Source\PSoC4/BLE_1_eventHandler.c **** #ifdef CYBLE_BLS_CLIENT
 585:Generated_Source\PSoC4/BLE_1_eventHandler.c ****     if((cyBle_eventHandlerFlag & CYBLE_CALLBACK) != 0u)
 586:Generated_Source\PSoC4/BLE_1_eventHandler.c ****     {
 587:Generated_Source\PSoC4/BLE_1_eventHandler.c ****         CyBle_BlscWriteResponseEventHandler(eventParam);
 588:Generated_Source\PSoC4/BLE_1_eventHandler.c ****     }
 589:Generated_Source\PSoC4/BLE_1_eventHandler.c **** #endif /* CYBLE_BLS_CLIENT */
 590:Generated_Source\PSoC4/BLE_1_eventHandler.c **** 
 591:Generated_Source\PSoC4/BLE_1_eventHandler.c **** #ifdef CYBLE_BMS_CLIENT
 592:Generated_Source\PSoC4/BLE_1_eventHandler.c ****     if((cyBle_eventHandlerFlag & CYBLE_CALLBACK) != 0u)
 593:Generated_Source\PSoC4/BLE_1_eventHandler.c ****     {
 594:Generated_Source\PSoC4/BLE_1_eventHandler.c ****         CyBle_BmscWriteResponseEventHandler(eventParam);
 595:Generated_Source\PSoC4/BLE_1_eventHandler.c ****     }
 596:Generated_Source\PSoC4/BLE_1_eventHandler.c **** #endif /* CYBLE_BMS_CLIENT */
 597:Generated_Source\PSoC4/BLE_1_eventHandler.c **** 
 598:Generated_Source\PSoC4/BLE_1_eventHandler.c **** #ifdef CYBLE_CGMS_CLIENT
 599:Generated_Source\PSoC4/BLE_1_eventHandler.c ****     if((cyBle_eventHandlerFlag & CYBLE_CALLBACK) != 0u)
 600:Generated_Source\PSoC4/BLE_1_eventHandler.c ****     {
 601:Generated_Source\PSoC4/BLE_1_eventHandler.c ****         CyBle_CgmscWriteResponseEventHandler(eventParam);
 602:Generated_Source\PSoC4/BLE_1_eventHandler.c ****     }
 603:Generated_Source\PSoC4/BLE_1_eventHandler.c **** #endif /* CYBLE_CGMS_CLIENT */
 604:Generated_Source\PSoC4/BLE_1_eventHandler.c **** 
 605:Generated_Source\PSoC4/BLE_1_eventHandler.c **** #ifdef CYBLE_CPS_CLIENT
 606:Generated_Source\PSoC4/BLE_1_eventHandler.c ****     if((cyBle_eventHandlerFlag & CYBLE_CALLBACK) != 0u)
 607:Generated_Source\PSoC4/BLE_1_eventHandler.c ****     {
 608:Generated_Source\PSoC4/BLE_1_eventHandler.c ****         CyBle_CpscWriteResponseEventHandler(eventParam);
 609:Generated_Source\PSoC4/BLE_1_eventHandler.c ****     }
 610:Generated_Source\PSoC4/BLE_1_eventHandler.c **** #endif /* CYBLE_CPS_CLIENT */
 611:Generated_Source\PSoC4/BLE_1_eventHandler.c **** 
ARM GAS  C:\Users\Sarah\AppData\Local\Temp\ccqSJLdk.s 			page 15


 612:Generated_Source\PSoC4/BLE_1_eventHandler.c **** #ifdef CYBLE_CSCS_CLIENT
 613:Generated_Source\PSoC4/BLE_1_eventHandler.c ****     if((cyBle_eventHandlerFlag & CYBLE_CALLBACK) != 0u)
 614:Generated_Source\PSoC4/BLE_1_eventHandler.c ****     {
 615:Generated_Source\PSoC4/BLE_1_eventHandler.c ****         CyBle_CscscWriteResponseEventHandler(eventParam);
 616:Generated_Source\PSoC4/BLE_1_eventHandler.c ****     }
 617:Generated_Source\PSoC4/BLE_1_eventHandler.c **** #endif /* CYBLE_CSCS_CLIENT */
 618:Generated_Source\PSoC4/BLE_1_eventHandler.c **** 
 619:Generated_Source\PSoC4/BLE_1_eventHandler.c **** #ifdef CYBLE_CTS_CLIENT
 620:Generated_Source\PSoC4/BLE_1_eventHandler.c ****     if((cyBle_eventHandlerFlag & CYBLE_CALLBACK) != 0u)
 621:Generated_Source\PSoC4/BLE_1_eventHandler.c ****     {
 622:Generated_Source\PSoC4/BLE_1_eventHandler.c ****         CyBle_CtscWriteResponseEventHandler(eventParam);
 623:Generated_Source\PSoC4/BLE_1_eventHandler.c ****     }
 624:Generated_Source\PSoC4/BLE_1_eventHandler.c **** #endif /* CYBLE_CTS_CLIENT */
 625:Generated_Source\PSoC4/BLE_1_eventHandler.c **** 
 626:Generated_Source\PSoC4/BLE_1_eventHandler.c **** #ifdef CYBLE_ESS_CLIENT
 627:Generated_Source\PSoC4/BLE_1_eventHandler.c ****     if((cyBle_eventHandlerFlag & CYBLE_CALLBACK) != 0u)
 628:Generated_Source\PSoC4/BLE_1_eventHandler.c ****     {
 629:Generated_Source\PSoC4/BLE_1_eventHandler.c ****         CyBle_EsscWriteResponseEventHandler(eventParam);
 630:Generated_Source\PSoC4/BLE_1_eventHandler.c ****     }
 631:Generated_Source\PSoC4/BLE_1_eventHandler.c **** #endif /* CYBLE_ESS_CLIENT */
 632:Generated_Source\PSoC4/BLE_1_eventHandler.c **** 
 633:Generated_Source\PSoC4/BLE_1_eventHandler.c **** #ifdef CYBLE_GLS_CLIENT
 634:Generated_Source\PSoC4/BLE_1_eventHandler.c ****     if((cyBle_eventHandlerFlag & CYBLE_CALLBACK) != 0u)
 635:Generated_Source\PSoC4/BLE_1_eventHandler.c ****     {
 636:Generated_Source\PSoC4/BLE_1_eventHandler.c ****         CyBle_GlscWriteResponseEventHandler(eventParam);
 637:Generated_Source\PSoC4/BLE_1_eventHandler.c ****     }
 638:Generated_Source\PSoC4/BLE_1_eventHandler.c **** #endif /* CYBLE_GLS_CLIENT */
 639:Generated_Source\PSoC4/BLE_1_eventHandler.c **** 
 640:Generated_Source\PSoC4/BLE_1_eventHandler.c **** #ifdef CYBLE_HIDS_CLIENT
 641:Generated_Source\PSoC4/BLE_1_eventHandler.c ****     if((cyBle_eventHandlerFlag & CYBLE_CALLBACK) != 0u)
 642:Generated_Source\PSoC4/BLE_1_eventHandler.c ****     {
 643:Generated_Source\PSoC4/BLE_1_eventHandler.c ****         CyBle_HidscWriteResponseEventHandler(eventParam);
 644:Generated_Source\PSoC4/BLE_1_eventHandler.c ****     }
 645:Generated_Source\PSoC4/BLE_1_eventHandler.c **** #endif /* CYBLE_HIDS_CLIENT */
 646:Generated_Source\PSoC4/BLE_1_eventHandler.c **** 
 647:Generated_Source\PSoC4/BLE_1_eventHandler.c **** #ifdef CYBLE_HPS_CLIENT
 648:Generated_Source\PSoC4/BLE_1_eventHandler.c ****     if((cyBle_eventHandlerFlag & CYBLE_CALLBACK) != 0u)
 649:Generated_Source\PSoC4/BLE_1_eventHandler.c ****     {
 650:Generated_Source\PSoC4/BLE_1_eventHandler.c ****         CyBle_HpscWriteResponseEventHandler(eventParam);
 651:Generated_Source\PSoC4/BLE_1_eventHandler.c ****     }
 652:Generated_Source\PSoC4/BLE_1_eventHandler.c **** #endif /* CYBLE_HPS_CLIENT */
 653:Generated_Source\PSoC4/BLE_1_eventHandler.c **** 
 654:Generated_Source\PSoC4/BLE_1_eventHandler.c **** #ifdef CYBLE_HRS_CLIENT
 655:Generated_Source\PSoC4/BLE_1_eventHandler.c ****     if((cyBle_eventHandlerFlag & CYBLE_CALLBACK) != 0u)
 656:Generated_Source\PSoC4/BLE_1_eventHandler.c ****     {
 657:Generated_Source\PSoC4/BLE_1_eventHandler.c ****         CyBle_HrscWriteResponseEventHandler(eventParam);
 658:Generated_Source\PSoC4/BLE_1_eventHandler.c ****     }
 659:Generated_Source\PSoC4/BLE_1_eventHandler.c **** #endif /* CYBLE_HRS_CLIENT */
 660:Generated_Source\PSoC4/BLE_1_eventHandler.c **** 
 661:Generated_Source\PSoC4/BLE_1_eventHandler.c **** #ifdef CYBLE_HTS_CLIENT
 662:Generated_Source\PSoC4/BLE_1_eventHandler.c ****     if((cyBle_eventHandlerFlag & CYBLE_CALLBACK) != 0u)
 663:Generated_Source\PSoC4/BLE_1_eventHandler.c ****     {
 664:Generated_Source\PSoC4/BLE_1_eventHandler.c ****         CyBle_HtscWriteResponseEventHandler(eventParam);
 665:Generated_Source\PSoC4/BLE_1_eventHandler.c ****     }
 666:Generated_Source\PSoC4/BLE_1_eventHandler.c **** #endif /* CYBLE_HTS_CLIENT */
 667:Generated_Source\PSoC4/BLE_1_eventHandler.c **** 
 668:Generated_Source\PSoC4/BLE_1_eventHandler.c **** #ifdef CYBLE_IPS_CLIENT
ARM GAS  C:\Users\Sarah\AppData\Local\Temp\ccqSJLdk.s 			page 16


 669:Generated_Source\PSoC4/BLE_1_eventHandler.c ****     if((cyBle_eventHandlerFlag & CYBLE_CALLBACK) != 0u)
 670:Generated_Source\PSoC4/BLE_1_eventHandler.c ****     {
 671:Generated_Source\PSoC4/BLE_1_eventHandler.c ****         CyBle_IpscWriteResponseEventHandler(eventParam);
 672:Generated_Source\PSoC4/BLE_1_eventHandler.c ****     }
 673:Generated_Source\PSoC4/BLE_1_eventHandler.c **** #endif /* CYBLE_IPS_CLIENT */
 674:Generated_Source\PSoC4/BLE_1_eventHandler.c **** 
 675:Generated_Source\PSoC4/BLE_1_eventHandler.c **** #ifdef CYBLE_LLS_CLIENT
 676:Generated_Source\PSoC4/BLE_1_eventHandler.c ****     if((cyBle_eventHandlerFlag & CYBLE_CALLBACK) != 0u)
 677:Generated_Source\PSoC4/BLE_1_eventHandler.c ****     {
 678:Generated_Source\PSoC4/BLE_1_eventHandler.c ****         CyBle_LlscWriteResponseEventHandler(eventParam);
 679:Generated_Source\PSoC4/BLE_1_eventHandler.c ****     }
 680:Generated_Source\PSoC4/BLE_1_eventHandler.c **** #endif /* CYBLE_LLS_CLIENT */
 681:Generated_Source\PSoC4/BLE_1_eventHandler.c **** 
 682:Generated_Source\PSoC4/BLE_1_eventHandler.c **** #ifdef CYBLE_LNS_CLIENT
 683:Generated_Source\PSoC4/BLE_1_eventHandler.c ****     if((cyBle_eventHandlerFlag & CYBLE_CALLBACK) != 0u)
 684:Generated_Source\PSoC4/BLE_1_eventHandler.c ****     {
 685:Generated_Source\PSoC4/BLE_1_eventHandler.c ****         CyBle_LnscWriteResponseEventHandler(eventParam);
 686:Generated_Source\PSoC4/BLE_1_eventHandler.c ****     }
 687:Generated_Source\PSoC4/BLE_1_eventHandler.c **** #endif /* CYBLE_LNS_CLIENT */
 688:Generated_Source\PSoC4/BLE_1_eventHandler.c **** 
 689:Generated_Source\PSoC4/BLE_1_eventHandler.c **** #ifdef CYBLE_PASS_CLIENT
 690:Generated_Source\PSoC4/BLE_1_eventHandler.c ****     if((cyBle_eventHandlerFlag & CYBLE_CALLBACK) != 0u)
 691:Generated_Source\PSoC4/BLE_1_eventHandler.c ****     {
 692:Generated_Source\PSoC4/BLE_1_eventHandler.c ****         CyBle_PasscWriteResponseEventHandler(eventParam);
 693:Generated_Source\PSoC4/BLE_1_eventHandler.c ****     }
 694:Generated_Source\PSoC4/BLE_1_eventHandler.c **** #endif /* CYBLE_PASS_CLIENT */
 695:Generated_Source\PSoC4/BLE_1_eventHandler.c **** 
 696:Generated_Source\PSoC4/BLE_1_eventHandler.c **** #ifdef CYBLE_PLXS_CLIENT
 697:Generated_Source\PSoC4/BLE_1_eventHandler.c ****     if((cyBle_eventHandlerFlag & CYBLE_CALLBACK) != 0u)
 698:Generated_Source\PSoC4/BLE_1_eventHandler.c ****     {
 699:Generated_Source\PSoC4/BLE_1_eventHandler.c ****         CyBle_PlxscWriteResponseEventHandler(eventParam);
 700:Generated_Source\PSoC4/BLE_1_eventHandler.c ****     }
 701:Generated_Source\PSoC4/BLE_1_eventHandler.c **** #endif /* CYBLE_PASS_CLIENT */
 702:Generated_Source\PSoC4/BLE_1_eventHandler.c **** 
 703:Generated_Source\PSoC4/BLE_1_eventHandler.c **** #ifdef CYBLE_RSCS_CLIENT
 704:Generated_Source\PSoC4/BLE_1_eventHandler.c ****     if((cyBle_eventHandlerFlag & CYBLE_CALLBACK) != 0u)
 705:Generated_Source\PSoC4/BLE_1_eventHandler.c ****     {
 706:Generated_Source\PSoC4/BLE_1_eventHandler.c ****         CyBle_RscscWriteResponseEventHandler(eventParam);
 707:Generated_Source\PSoC4/BLE_1_eventHandler.c ****     }
 708:Generated_Source\PSoC4/BLE_1_eventHandler.c **** #endif /* CYBLE_RSCS_CLIENT */
 709:Generated_Source\PSoC4/BLE_1_eventHandler.c **** 
 710:Generated_Source\PSoC4/BLE_1_eventHandler.c **** #ifdef CYBLE_SCPS_CLIENT
 711:Generated_Source\PSoC4/BLE_1_eventHandler.c ****     if((cyBle_eventHandlerFlag & CYBLE_CALLBACK) != 0u)
 712:Generated_Source\PSoC4/BLE_1_eventHandler.c ****     {
 713:Generated_Source\PSoC4/BLE_1_eventHandler.c ****         CyBle_ScpscWriteResponseEventHandler(eventParam);
 714:Generated_Source\PSoC4/BLE_1_eventHandler.c ****     }
 715:Generated_Source\PSoC4/BLE_1_eventHandler.c **** #endif /* CYBLE_SCPS_CLIENT */
 716:Generated_Source\PSoC4/BLE_1_eventHandler.c **** 
 717:Generated_Source\PSoC4/BLE_1_eventHandler.c **** #ifdef CYBLE_TPS_CLIENT
 718:Generated_Source\PSoC4/BLE_1_eventHandler.c ****     if((cyBle_eventHandlerFlag & CYBLE_CALLBACK) != 0u)
 719:Generated_Source\PSoC4/BLE_1_eventHandler.c ****     {
 720:Generated_Source\PSoC4/BLE_1_eventHandler.c ****         CyBle_TpscWriteResponseEventHandler(eventParam);
 721:Generated_Source\PSoC4/BLE_1_eventHandler.c ****     }
 722:Generated_Source\PSoC4/BLE_1_eventHandler.c **** #endif /* CYBLE_TPS_CLIENT */
 723:Generated_Source\PSoC4/BLE_1_eventHandler.c **** 
 724:Generated_Source\PSoC4/BLE_1_eventHandler.c **** #ifdef CYBLE_UDS_CLIENT
 725:Generated_Source\PSoC4/BLE_1_eventHandler.c ****     if((cyBle_eventHandlerFlag & CYBLE_CALLBACK) != 0u)
ARM GAS  C:\Users\Sarah\AppData\Local\Temp\ccqSJLdk.s 			page 17


 726:Generated_Source\PSoC4/BLE_1_eventHandler.c ****     {
 727:Generated_Source\PSoC4/BLE_1_eventHandler.c ****         CyBle_UdscWriteResponseEventHandler(eventParam);
 728:Generated_Source\PSoC4/BLE_1_eventHandler.c ****     }
 729:Generated_Source\PSoC4/BLE_1_eventHandler.c **** #endif /* CYBLE_UDS_CLIENT */
 730:Generated_Source\PSoC4/BLE_1_eventHandler.c **** #ifdef CYBLE_WPTS_CLIENT
 731:Generated_Source\PSoC4/BLE_1_eventHandler.c ****     if((cyBle_eventHandlerFlag & CYBLE_CALLBACK) != 0u)
 732:Generated_Source\PSoC4/BLE_1_eventHandler.c ****     {
 733:Generated_Source\PSoC4/BLE_1_eventHandler.c ****         CyBle_WptscWriteResponseEventHandler(eventParam);
 734:Generated_Source\PSoC4/BLE_1_eventHandler.c ****     }
 735:Generated_Source\PSoC4/BLE_1_eventHandler.c **** #endif /* CYBLE_WPTS_CLIENT */
 736:Generated_Source\PSoC4/BLE_1_eventHandler.c **** #ifdef CYBLE_WSS_CLIENT
 737:Generated_Source\PSoC4/BLE_1_eventHandler.c ****     if((cyBle_eventHandlerFlag & CYBLE_CALLBACK) != 0u)
 738:Generated_Source\PSoC4/BLE_1_eventHandler.c ****     {
 739:Generated_Source\PSoC4/BLE_1_eventHandler.c ****         CyBle_WsscWriteResponseEventHandler(eventParam);
 740:Generated_Source\PSoC4/BLE_1_eventHandler.c ****     }
 741:Generated_Source\PSoC4/BLE_1_eventHandler.c **** #endif /* CYBLE_WSS_CLIENT */
 742:Generated_Source\PSoC4/BLE_1_eventHandler.c **** }
 184              		.loc 1 742 0
 185 0008 BD46     		mov	sp, r7
 186 000a 02B0     		add	sp, sp, #8
 187              		@ sp needed
 188 000c 80BD     		pop	{r7, pc}
 189              		.cfi_endproc
 190              	.LFE4:
 191              		.size	CyBle_GattcWriteResponseEventHandler, .-CyBle_GattcWriteResponseEventHandler
 192              		.section	.text.CyBle_NotificationEventHandler,"ax",%progbits
 193              		.align	2
 194              		.code	16
 195              		.thumb_func
 196              		.type	CyBle_NotificationEventHandler, %function
 197              	CyBle_NotificationEventHandler:
 198              	.LFB5:
 743:Generated_Source\PSoC4/BLE_1_eventHandler.c **** 
 744:Generated_Source\PSoC4/BLE_1_eventHandler.c **** 
 745:Generated_Source\PSoC4/BLE_1_eventHandler.c **** /******************************************************************************    
 746:Generated_Source\PSoC4/BLE_1_eventHandler.c **** * Function Name: CyBle_NotificationEventHandler
 747:Generated_Source\PSoC4/BLE_1_eventHandler.c **** ***************************************************************************//**
 748:Generated_Source\PSoC4/BLE_1_eventHandler.c **** * 
 749:Generated_Source\PSoC4/BLE_1_eventHandler.c **** *  Handles the Notification event from BLE stack.
 750:Generated_Source\PSoC4/BLE_1_eventHandler.c **** * 
 751:Generated_Source\PSoC4/BLE_1_eventHandler.c **** *  \param eventParam: event parameter
 752:Generated_Source\PSoC4/BLE_1_eventHandler.c **** * 
 753:Generated_Source\PSoC4/BLE_1_eventHandler.c **** * \return
 754:Generated_Source\PSoC4/BLE_1_eventHandler.c **** *  None
 755:Generated_Source\PSoC4/BLE_1_eventHandler.c **** * 
 756:Generated_Source\PSoC4/BLE_1_eventHandler.c **** ******************************************************************************/
 757:Generated_Source\PSoC4/BLE_1_eventHandler.c **** static void CyBle_NotificationEventHandler(CYBLE_GATTC_HANDLE_VALUE_NTF_PARAM_T *eventParam)
 758:Generated_Source\PSoC4/BLE_1_eventHandler.c **** {
 199              		.loc 1 758 0
 200              		.cfi_startproc
 201 0000 80B5     		push	{r7, lr}
 202              		.cfi_def_cfa_offset 8
 203              		.cfi_offset 7, -8
 204              		.cfi_offset 14, -4
 205 0002 82B0     		sub	sp, sp, #8
 206              		.cfi_def_cfa_offset 16
 207 0004 00AF     		add	r7, sp, #0
ARM GAS  C:\Users\Sarah\AppData\Local\Temp\ccqSJLdk.s 			page 18


 208              		.cfi_def_cfa_register 7
 209 0006 7860     		str	r0, [r7, #4]
 759:Generated_Source\PSoC4/BLE_1_eventHandler.c **** #ifdef CYBLE_ANCS_CLIENT
 760:Generated_Source\PSoC4/BLE_1_eventHandler.c ****     CyBle_AncscNotificationEventHandler(eventParam);
 761:Generated_Source\PSoC4/BLE_1_eventHandler.c **** #endif /* CYBLE_ANCS_CLIENT */
 762:Generated_Source\PSoC4/BLE_1_eventHandler.c **** #ifdef CYBLE_ANS_CLIENT
 763:Generated_Source\PSoC4/BLE_1_eventHandler.c ****     if((cyBle_eventHandlerFlag & CYBLE_CALLBACK) != 0u)
 764:Generated_Source\PSoC4/BLE_1_eventHandler.c ****     {
 765:Generated_Source\PSoC4/BLE_1_eventHandler.c ****         CyBle_AnscNotificationEventHandler(eventParam);
 766:Generated_Source\PSoC4/BLE_1_eventHandler.c ****     }
 767:Generated_Source\PSoC4/BLE_1_eventHandler.c **** #endif /* CYBLE_ANS_CLIENT */
 768:Generated_Source\PSoC4/BLE_1_eventHandler.c **** #ifdef CYBLE_BAS_CLIENT
 769:Generated_Source\PSoC4/BLE_1_eventHandler.c ****     if((cyBle_eventHandlerFlag & CYBLE_CALLBACK) != 0u)
 770:Generated_Source\PSoC4/BLE_1_eventHandler.c ****     {
 771:Generated_Source\PSoC4/BLE_1_eventHandler.c ****         CyBle_BascNotificationEventHandler(eventParam);
 772:Generated_Source\PSoC4/BLE_1_eventHandler.c ****     }
 773:Generated_Source\PSoC4/BLE_1_eventHandler.c **** #endif /* CYBLE_BAS_CLIENT */
 774:Generated_Source\PSoC4/BLE_1_eventHandler.c **** #ifdef CYBLE_BLS_CLIENT
 775:Generated_Source\PSoC4/BLE_1_eventHandler.c ****     if((cyBle_eventHandlerFlag & CYBLE_CALLBACK) != 0u)
 776:Generated_Source\PSoC4/BLE_1_eventHandler.c ****     {
 777:Generated_Source\PSoC4/BLE_1_eventHandler.c ****         CyBle_BlscNotificationEventHandler(eventParam);
 778:Generated_Source\PSoC4/BLE_1_eventHandler.c ****     }
 779:Generated_Source\PSoC4/BLE_1_eventHandler.c **** #endif /* CYBLE_BLS_CLIENT */
 780:Generated_Source\PSoC4/BLE_1_eventHandler.c **** #ifdef CYBLE_CGMS_CLIENT
 781:Generated_Source\PSoC4/BLE_1_eventHandler.c ****     if((cyBle_eventHandlerFlag & CYBLE_CALLBACK) != 0u)
 782:Generated_Source\PSoC4/BLE_1_eventHandler.c ****     {
 783:Generated_Source\PSoC4/BLE_1_eventHandler.c ****         CyBle_CgmscNotificationEventHandler(eventParam);
 784:Generated_Source\PSoC4/BLE_1_eventHandler.c ****     }
 785:Generated_Source\PSoC4/BLE_1_eventHandler.c **** #endif /* CYBLE_CGMS_CLIENT */
 786:Generated_Source\PSoC4/BLE_1_eventHandler.c **** #ifdef CYBLE_CPS_CLIENT
 787:Generated_Source\PSoC4/BLE_1_eventHandler.c ****     if((cyBle_eventHandlerFlag & CYBLE_CALLBACK) != 0u)
 788:Generated_Source\PSoC4/BLE_1_eventHandler.c ****     {
 789:Generated_Source\PSoC4/BLE_1_eventHandler.c ****         CyBle_CpscNotificationEventHandler(eventParam);
 790:Generated_Source\PSoC4/BLE_1_eventHandler.c ****     }
 791:Generated_Source\PSoC4/BLE_1_eventHandler.c **** #endif /* CYBLE_CPS_CLIENT */
 792:Generated_Source\PSoC4/BLE_1_eventHandler.c **** #ifdef CYBLE_CSCS_CLIENT
 793:Generated_Source\PSoC4/BLE_1_eventHandler.c ****     if((cyBle_eventHandlerFlag & CYBLE_CALLBACK) != 0u)
 794:Generated_Source\PSoC4/BLE_1_eventHandler.c ****     {
 795:Generated_Source\PSoC4/BLE_1_eventHandler.c ****         CyBle_CscscNotificationEventHandler(eventParam);
 796:Generated_Source\PSoC4/BLE_1_eventHandler.c ****     }
 797:Generated_Source\PSoC4/BLE_1_eventHandler.c **** #endif /* CYBLE_CSCS_CLIENT */
 798:Generated_Source\PSoC4/BLE_1_eventHandler.c **** #ifdef CYBLE_CTS_CLIENT
 799:Generated_Source\PSoC4/BLE_1_eventHandler.c ****     if((cyBle_eventHandlerFlag & CYBLE_CALLBACK) != 0u)
 800:Generated_Source\PSoC4/BLE_1_eventHandler.c ****     {
 801:Generated_Source\PSoC4/BLE_1_eventHandler.c ****         CyBle_CtscNotificationEventHandler(eventParam);
 802:Generated_Source\PSoC4/BLE_1_eventHandler.c ****     }
 803:Generated_Source\PSoC4/BLE_1_eventHandler.c **** #endif /* CYBLE_CTS_CLIENT */
 804:Generated_Source\PSoC4/BLE_1_eventHandler.c **** #ifdef CYBLE_ESS_CLIENT
 805:Generated_Source\PSoC4/BLE_1_eventHandler.c ****     if((cyBle_eventHandlerFlag & CYBLE_CALLBACK) != 0u)
 806:Generated_Source\PSoC4/BLE_1_eventHandler.c ****     {
 807:Generated_Source\PSoC4/BLE_1_eventHandler.c ****         CyBle_EsscNotificationEventHandler(eventParam);
 808:Generated_Source\PSoC4/BLE_1_eventHandler.c ****     }
 809:Generated_Source\PSoC4/BLE_1_eventHandler.c **** #endif /* CYBLE_ESS_CLIENT */
 810:Generated_Source\PSoC4/BLE_1_eventHandler.c **** #ifdef CYBLE_GLS_CLIENT
 811:Generated_Source\PSoC4/BLE_1_eventHandler.c ****     if((cyBle_eventHandlerFlag & CYBLE_CALLBACK) != 0u)
 812:Generated_Source\PSoC4/BLE_1_eventHandler.c ****     {
 813:Generated_Source\PSoC4/BLE_1_eventHandler.c ****         CyBle_GlscNotificationEventHandler(eventParam);
ARM GAS  C:\Users\Sarah\AppData\Local\Temp\ccqSJLdk.s 			page 19


 814:Generated_Source\PSoC4/BLE_1_eventHandler.c ****     }
 815:Generated_Source\PSoC4/BLE_1_eventHandler.c **** #endif /* CYBLE_GLS_CLIENT */
 816:Generated_Source\PSoC4/BLE_1_eventHandler.c **** #ifdef CYBLE_HIDS_CLIENT
 817:Generated_Source\PSoC4/BLE_1_eventHandler.c ****     if((cyBle_eventHandlerFlag & CYBLE_CALLBACK) != 0u)
 818:Generated_Source\PSoC4/BLE_1_eventHandler.c ****     {
 819:Generated_Source\PSoC4/BLE_1_eventHandler.c ****         CyBle_HidscNotificationEventHandler(eventParam);
 820:Generated_Source\PSoC4/BLE_1_eventHandler.c ****     }
 821:Generated_Source\PSoC4/BLE_1_eventHandler.c **** #endif /* CYBLE_HIDS_CLIENT */
 822:Generated_Source\PSoC4/BLE_1_eventHandler.c **** #ifdef CYBLE_HPS_CLIENT
 823:Generated_Source\PSoC4/BLE_1_eventHandler.c ****     if((cyBle_eventHandlerFlag & CYBLE_CALLBACK) != 0u)
 824:Generated_Source\PSoC4/BLE_1_eventHandler.c ****     {
 825:Generated_Source\PSoC4/BLE_1_eventHandler.c ****         CyBle_HpscNotificationEventHandler(eventParam);
 826:Generated_Source\PSoC4/BLE_1_eventHandler.c ****     }
 827:Generated_Source\PSoC4/BLE_1_eventHandler.c **** #endif /* CYBLE_HPS_CLIENT */
 828:Generated_Source\PSoC4/BLE_1_eventHandler.c **** #ifdef CYBLE_HRS_CLIENT
 829:Generated_Source\PSoC4/BLE_1_eventHandler.c ****     if((cyBle_eventHandlerFlag & CYBLE_CALLBACK) != 0u)
 830:Generated_Source\PSoC4/BLE_1_eventHandler.c ****     {
 831:Generated_Source\PSoC4/BLE_1_eventHandler.c ****         CyBle_HrscNotificationEventHandler(eventParam);
 832:Generated_Source\PSoC4/BLE_1_eventHandler.c ****     }
 833:Generated_Source\PSoC4/BLE_1_eventHandler.c **** #endif /* CYBLE_HRS_CLIENT */
 834:Generated_Source\PSoC4/BLE_1_eventHandler.c **** #ifdef CYBLE_HTS_CLIENT
 835:Generated_Source\PSoC4/BLE_1_eventHandler.c ****     if((cyBle_eventHandlerFlag & CYBLE_CALLBACK) != 0u)
 836:Generated_Source\PSoC4/BLE_1_eventHandler.c ****     {
 837:Generated_Source\PSoC4/BLE_1_eventHandler.c ****         CyBle_HtscNotificationEventHandler(eventParam);
 838:Generated_Source\PSoC4/BLE_1_eventHandler.c ****     }
 839:Generated_Source\PSoC4/BLE_1_eventHandler.c **** #endif /* CYBLE_HTS_CLIENT */
 840:Generated_Source\PSoC4/BLE_1_eventHandler.c **** #ifdef CYBLE_LNS_CLIENT
 841:Generated_Source\PSoC4/BLE_1_eventHandler.c ****     if((cyBle_eventHandlerFlag & CYBLE_CALLBACK) != 0u)
 842:Generated_Source\PSoC4/BLE_1_eventHandler.c ****     {
 843:Generated_Source\PSoC4/BLE_1_eventHandler.c ****         CyBle_LnscNotificationEventHandler(eventParam);
 844:Generated_Source\PSoC4/BLE_1_eventHandler.c ****     }
 845:Generated_Source\PSoC4/BLE_1_eventHandler.c **** #endif /* CYBLE_LNS_CLIENT */
 846:Generated_Source\PSoC4/BLE_1_eventHandler.c **** #ifdef CYBLE_PASS_CLIENT
 847:Generated_Source\PSoC4/BLE_1_eventHandler.c ****     if((cyBle_eventHandlerFlag & CYBLE_CALLBACK) != 0u)
 848:Generated_Source\PSoC4/BLE_1_eventHandler.c ****     {
 849:Generated_Source\PSoC4/BLE_1_eventHandler.c ****         CyBle_PasscNotificationEventHandler(eventParam);
 850:Generated_Source\PSoC4/BLE_1_eventHandler.c ****     }
 851:Generated_Source\PSoC4/BLE_1_eventHandler.c **** #endif /* CYBLE_PASS_CLIENT */
 852:Generated_Source\PSoC4/BLE_1_eventHandler.c **** #ifdef CYBLE_RSCS_CLIENT
 853:Generated_Source\PSoC4/BLE_1_eventHandler.c ****     if((cyBle_eventHandlerFlag & CYBLE_CALLBACK) != 0u)
 854:Generated_Source\PSoC4/BLE_1_eventHandler.c ****     {
 855:Generated_Source\PSoC4/BLE_1_eventHandler.c ****         CyBle_RscscNotificationEventHandler(eventParam);
 856:Generated_Source\PSoC4/BLE_1_eventHandler.c ****     }
 857:Generated_Source\PSoC4/BLE_1_eventHandler.c **** #endif /* CYBLE_RSCS_CLIENT */
 858:Generated_Source\PSoC4/BLE_1_eventHandler.c **** #ifdef CYBLE_SCPS_CLIENT
 859:Generated_Source\PSoC4/BLE_1_eventHandler.c ****     if((cyBle_eventHandlerFlag & CYBLE_CALLBACK) != 0u)
 860:Generated_Source\PSoC4/BLE_1_eventHandler.c ****     {
 861:Generated_Source\PSoC4/BLE_1_eventHandler.c ****         CyBle_ScpscNotificationEventHandler(eventParam);
 862:Generated_Source\PSoC4/BLE_1_eventHandler.c ****     }
 863:Generated_Source\PSoC4/BLE_1_eventHandler.c **** #endif /* CYBLE_SCPS_CLIENT */
 864:Generated_Source\PSoC4/BLE_1_eventHandler.c **** #ifdef CYBLE_TPS_CLIENT
 865:Generated_Source\PSoC4/BLE_1_eventHandler.c ****     if((cyBle_eventHandlerFlag & CYBLE_CALLBACK) != 0u)
 866:Generated_Source\PSoC4/BLE_1_eventHandler.c ****     {
 867:Generated_Source\PSoC4/BLE_1_eventHandler.c ****         CyBle_TpscNotificationEventHandler(eventParam);
 868:Generated_Source\PSoC4/BLE_1_eventHandler.c ****     }
 869:Generated_Source\PSoC4/BLE_1_eventHandler.c **** #endif /* CYBLE_TPS_CLIENT */
 870:Generated_Source\PSoC4/BLE_1_eventHandler.c **** #ifdef CYBLE_UDS_CLIENT
ARM GAS  C:\Users\Sarah\AppData\Local\Temp\ccqSJLdk.s 			page 20


 871:Generated_Source\PSoC4/BLE_1_eventHandler.c ****     if((cyBle_eventHandlerFlag & CYBLE_CALLBACK) != 0u)
 872:Generated_Source\PSoC4/BLE_1_eventHandler.c ****     {
 873:Generated_Source\PSoC4/BLE_1_eventHandler.c ****         CyBle_UdscNotificationEventHandler(eventParam);
 874:Generated_Source\PSoC4/BLE_1_eventHandler.c ****     }
 875:Generated_Source\PSoC4/BLE_1_eventHandler.c **** #endif /* CYBLE_UDS_CLIENT */
 876:Generated_Source\PSoC4/BLE_1_eventHandler.c **** #ifdef CYBLE_WPTS_CLIENT
 877:Generated_Source\PSoC4/BLE_1_eventHandler.c ****     if((cyBle_eventHandlerFlag & CYBLE_CALLBACK) != 0u)
 878:Generated_Source\PSoC4/BLE_1_eventHandler.c ****     {
 879:Generated_Source\PSoC4/BLE_1_eventHandler.c ****         CyBle_WptscNotificationEventHandler(eventParam);
 880:Generated_Source\PSoC4/BLE_1_eventHandler.c ****     }
 881:Generated_Source\PSoC4/BLE_1_eventHandler.c **** #endif /* CYBLE_WPTS_CLIENT */
 882:Generated_Source\PSoC4/BLE_1_eventHandler.c **** }
 210              		.loc 1 882 0
 211 0008 BD46     		mov	sp, r7
 212 000a 02B0     		add	sp, sp, #8
 213              		@ sp needed
 214 000c 80BD     		pop	{r7, pc}
 215              		.cfi_endproc
 216              	.LFE5:
 217              		.size	CyBle_NotificationEventHandler, .-CyBle_NotificationEventHandler
 218              		.section	.text.CyBle_IndicationEventHandler,"ax",%progbits
 219              		.align	2
 220              		.code	16
 221              		.thumb_func
 222              		.type	CyBle_IndicationEventHandler, %function
 223              	CyBle_IndicationEventHandler:
 224              	.LFB6:
 883:Generated_Source\PSoC4/BLE_1_eventHandler.c **** 
 884:Generated_Source\PSoC4/BLE_1_eventHandler.c **** 
 885:Generated_Source\PSoC4/BLE_1_eventHandler.c **** /******************************************************************************    
 886:Generated_Source\PSoC4/BLE_1_eventHandler.c **** * Function Name: CyBle_IndicationEventHandler
 887:Generated_Source\PSoC4/BLE_1_eventHandler.c **** ***************************************************************************//**
 888:Generated_Source\PSoC4/BLE_1_eventHandler.c **** * 
 889:Generated_Source\PSoC4/BLE_1_eventHandler.c **** *  Handles the Indication event from BLE stack.
 890:Generated_Source\PSoC4/BLE_1_eventHandler.c **** * 
 891:Generated_Source\PSoC4/BLE_1_eventHandler.c **** *  \param eventParam: event parameter
 892:Generated_Source\PSoC4/BLE_1_eventHandler.c **** * 
 893:Generated_Source\PSoC4/BLE_1_eventHandler.c **** * \return
 894:Generated_Source\PSoC4/BLE_1_eventHandler.c **** *  None
 895:Generated_Source\PSoC4/BLE_1_eventHandler.c **** * 
 896:Generated_Source\PSoC4/BLE_1_eventHandler.c **** ******************************************************************************/
 897:Generated_Source\PSoC4/BLE_1_eventHandler.c **** static void CyBle_IndicationEventHandler(CYBLE_GATTC_HANDLE_VALUE_IND_PARAM_T *eventParam)
 898:Generated_Source\PSoC4/BLE_1_eventHandler.c **** {
 225              		.loc 1 898 0
 226              		.cfi_startproc
 227 0000 80B5     		push	{r7, lr}
 228              		.cfi_def_cfa_offset 8
 229              		.cfi_offset 7, -8
 230              		.cfi_offset 14, -4
 231 0002 82B0     		sub	sp, sp, #8
 232              		.cfi_def_cfa_offset 16
 233 0004 00AF     		add	r7, sp, #0
 234              		.cfi_def_cfa_register 7
 235 0006 7860     		str	r0, [r7, #4]
 899:Generated_Source\PSoC4/BLE_1_eventHandler.c **** #ifdef CYBLE_BCS_CLIENT
 900:Generated_Source\PSoC4/BLE_1_eventHandler.c ****     if((cyBle_eventHandlerFlag & CYBLE_CALLBACK) != 0u)
 901:Generated_Source\PSoC4/BLE_1_eventHandler.c ****     {
ARM GAS  C:\Users\Sarah\AppData\Local\Temp\ccqSJLdk.s 			page 21


 902:Generated_Source\PSoC4/BLE_1_eventHandler.c ****         CyBle_BcscIndicationEventHandler(eventParam);
 903:Generated_Source\PSoC4/BLE_1_eventHandler.c ****     }
 904:Generated_Source\PSoC4/BLE_1_eventHandler.c **** #endif /* CYBLE_BCS_CLIENT */
 905:Generated_Source\PSoC4/BLE_1_eventHandler.c **** #ifdef CYBLE_BLS_CLIENT
 906:Generated_Source\PSoC4/BLE_1_eventHandler.c ****     if((cyBle_eventHandlerFlag & CYBLE_CALLBACK) != 0u)
 907:Generated_Source\PSoC4/BLE_1_eventHandler.c ****     {
 908:Generated_Source\PSoC4/BLE_1_eventHandler.c ****         CyBle_BlscIndicationEventHandler(eventParam);
 909:Generated_Source\PSoC4/BLE_1_eventHandler.c ****     }
 910:Generated_Source\PSoC4/BLE_1_eventHandler.c **** #endif /* CYBLE_BLS_CLIENT */
 911:Generated_Source\PSoC4/BLE_1_eventHandler.c **** #ifdef CYBLE_CGMS_CLIENT
 912:Generated_Source\PSoC4/BLE_1_eventHandler.c ****     if((cyBle_eventHandlerFlag & CYBLE_CALLBACK) != 0u)
 913:Generated_Source\PSoC4/BLE_1_eventHandler.c ****     {
 914:Generated_Source\PSoC4/BLE_1_eventHandler.c ****         CyBle_CgmscIndicationEventHandler(eventParam);
 915:Generated_Source\PSoC4/BLE_1_eventHandler.c ****     }
 916:Generated_Source\PSoC4/BLE_1_eventHandler.c **** #endif /* CYBLE_CGMS_CLIENT */
 917:Generated_Source\PSoC4/BLE_1_eventHandler.c **** #ifdef CYBLE_CPS_CLIENT
 918:Generated_Source\PSoC4/BLE_1_eventHandler.c ****     if((cyBle_eventHandlerFlag & CYBLE_CALLBACK) != 0u)
 919:Generated_Source\PSoC4/BLE_1_eventHandler.c ****     {
 920:Generated_Source\PSoC4/BLE_1_eventHandler.c ****         CyBle_CpscIndicationEventHandler(eventParam);
 921:Generated_Source\PSoC4/BLE_1_eventHandler.c ****     }
 922:Generated_Source\PSoC4/BLE_1_eventHandler.c **** #endif /* CYBLE_CPS_CLIENT */
 923:Generated_Source\PSoC4/BLE_1_eventHandler.c **** #ifdef CYBLE_CSCS_CLIENT
 924:Generated_Source\PSoC4/BLE_1_eventHandler.c ****     if((cyBle_eventHandlerFlag & CYBLE_CALLBACK) != 0u)
 925:Generated_Source\PSoC4/BLE_1_eventHandler.c ****     {
 926:Generated_Source\PSoC4/BLE_1_eventHandler.c ****         CyBle_CscscIndicationEventHandler(eventParam);
 927:Generated_Source\PSoC4/BLE_1_eventHandler.c ****     }
 928:Generated_Source\PSoC4/BLE_1_eventHandler.c **** #endif /* CYBLE_CSCS_CLIENT */
 929:Generated_Source\PSoC4/BLE_1_eventHandler.c **** #ifdef CYBLE_ESS_CLIENT
 930:Generated_Source\PSoC4/BLE_1_eventHandler.c ****     if((cyBle_eventHandlerFlag & CYBLE_CALLBACK) != 0u)
 931:Generated_Source\PSoC4/BLE_1_eventHandler.c ****     {
 932:Generated_Source\PSoC4/BLE_1_eventHandler.c ****         CyBle_EsscIndicationEventHandler(eventParam);
 933:Generated_Source\PSoC4/BLE_1_eventHandler.c ****     }
 934:Generated_Source\PSoC4/BLE_1_eventHandler.c **** #endif /* CYBLE_ESS_CLIENT */
 935:Generated_Source\PSoC4/BLE_1_eventHandler.c **** #ifdef CYBLE_GLS_CLIENT
 936:Generated_Source\PSoC4/BLE_1_eventHandler.c ****     if((cyBle_eventHandlerFlag & CYBLE_CALLBACK) != 0u)
 937:Generated_Source\PSoC4/BLE_1_eventHandler.c ****     {
 938:Generated_Source\PSoC4/BLE_1_eventHandler.c ****         CyBle_GlscIndicationEventHandler(eventParam);
 939:Generated_Source\PSoC4/BLE_1_eventHandler.c ****     }
 940:Generated_Source\PSoC4/BLE_1_eventHandler.c **** #endif /* CYBLE_GLS_CLIENT */
 941:Generated_Source\PSoC4/BLE_1_eventHandler.c **** #ifdef CYBLE_HTS_CLIENT
 942:Generated_Source\PSoC4/BLE_1_eventHandler.c ****     if((cyBle_eventHandlerFlag & CYBLE_CALLBACK) != 0u)
 943:Generated_Source\PSoC4/BLE_1_eventHandler.c ****     {
 944:Generated_Source\PSoC4/BLE_1_eventHandler.c ****         CyBle_HtscIndicationEventHandler(eventParam);
 945:Generated_Source\PSoC4/BLE_1_eventHandler.c ****     }
 946:Generated_Source\PSoC4/BLE_1_eventHandler.c **** #endif /* CYBLE_HTS_CLIENT */
 947:Generated_Source\PSoC4/BLE_1_eventHandler.c **** #ifdef CYBLE_LNS_CLIENT
 948:Generated_Source\PSoC4/BLE_1_eventHandler.c ****     if((cyBle_eventHandlerFlag & CYBLE_CALLBACK) != 0u)
 949:Generated_Source\PSoC4/BLE_1_eventHandler.c ****     {
 950:Generated_Source\PSoC4/BLE_1_eventHandler.c ****         CyBle_LnscIndicationEventHandler(eventParam);
 951:Generated_Source\PSoC4/BLE_1_eventHandler.c ****     }
 952:Generated_Source\PSoC4/BLE_1_eventHandler.c **** #endif /* CYBLE_LNS_CLIENT */
 953:Generated_Source\PSoC4/BLE_1_eventHandler.c **** #ifdef CYBLE_RSCS_CLIENT
 954:Generated_Source\PSoC4/BLE_1_eventHandler.c ****     if((cyBle_eventHandlerFlag & CYBLE_CALLBACK) != 0u)
 955:Generated_Source\PSoC4/BLE_1_eventHandler.c ****     {
 956:Generated_Source\PSoC4/BLE_1_eventHandler.c ****         CyBle_RscscIndicationEventHandler(eventParam);
 957:Generated_Source\PSoC4/BLE_1_eventHandler.c ****     }
 958:Generated_Source\PSoC4/BLE_1_eventHandler.c **** #endif /* CYBLE_RSCS_CLIENT */
ARM GAS  C:\Users\Sarah\AppData\Local\Temp\ccqSJLdk.s 			page 22


 959:Generated_Source\PSoC4/BLE_1_eventHandler.c **** #ifdef CYBLE_UDS_CLIENT
 960:Generated_Source\PSoC4/BLE_1_eventHandler.c ****     if((cyBle_eventHandlerFlag & CYBLE_CALLBACK) != 0u)
 961:Generated_Source\PSoC4/BLE_1_eventHandler.c ****     {
 962:Generated_Source\PSoC4/BLE_1_eventHandler.c ****         CyBle_UdscIndicationEventHandler(eventParam);
 963:Generated_Source\PSoC4/BLE_1_eventHandler.c ****     }
 964:Generated_Source\PSoC4/BLE_1_eventHandler.c **** #endif /* CYBLE_UDS_CLIENT */
 965:Generated_Source\PSoC4/BLE_1_eventHandler.c **** #ifdef CYBLE_WPTS_CLIENT
 966:Generated_Source\PSoC4/BLE_1_eventHandler.c ****     if((cyBle_eventHandlerFlag & CYBLE_CALLBACK) != 0u)
 967:Generated_Source\PSoC4/BLE_1_eventHandler.c ****     {
 968:Generated_Source\PSoC4/BLE_1_eventHandler.c ****         CyBle_WptscIndicationEventHandler(eventParam);
 969:Generated_Source\PSoC4/BLE_1_eventHandler.c ****     }
 970:Generated_Source\PSoC4/BLE_1_eventHandler.c **** #endif /* CYBLE_WPTS_CLIENT */
 971:Generated_Source\PSoC4/BLE_1_eventHandler.c **** #ifdef CYBLE_WSS_CLIENT
 972:Generated_Source\PSoC4/BLE_1_eventHandler.c ****     if((cyBle_eventHandlerFlag & CYBLE_CALLBACK) != 0u)
 973:Generated_Source\PSoC4/BLE_1_eventHandler.c ****     {
 974:Generated_Source\PSoC4/BLE_1_eventHandler.c ****         CyBle_WsscIndicationEventHandler(eventParam);
 975:Generated_Source\PSoC4/BLE_1_eventHandler.c ****     }
 976:Generated_Source\PSoC4/BLE_1_eventHandler.c **** #endif /* CYBLE_WSS_CLIENT */
 977:Generated_Source\PSoC4/BLE_1_eventHandler.c **** }
 236              		.loc 1 977 0
 237 0008 BD46     		mov	sp, r7
 238 000a 02B0     		add	sp, sp, #8
 239              		@ sp needed
 240 000c 80BD     		pop	{r7, pc}
 241              		.cfi_endproc
 242              	.LFE6:
 243              		.size	CyBle_IndicationEventHandler, .-CyBle_IndicationEventHandler
 244              		.section	.text.CyBle_ReadResponseEventHandler,"ax",%progbits
 245              		.align	2
 246              		.code	16
 247              		.thumb_func
 248              		.type	CyBle_ReadResponseEventHandler, %function
 249              	CyBle_ReadResponseEventHandler:
 250              	.LFB7:
 978:Generated_Source\PSoC4/BLE_1_eventHandler.c **** 
 979:Generated_Source\PSoC4/BLE_1_eventHandler.c **** 
 980:Generated_Source\PSoC4/BLE_1_eventHandler.c **** 
 981:Generated_Source\PSoC4/BLE_1_eventHandler.c **** /******************************************************************************    
 982:Generated_Source\PSoC4/BLE_1_eventHandler.c **** * Function Name: CyBle_ReadResponseEventHandler
 983:Generated_Source\PSoC4/BLE_1_eventHandler.c **** ***************************************************************************//**
 984:Generated_Source\PSoC4/BLE_1_eventHandler.c **** * 
 985:Generated_Source\PSoC4/BLE_1_eventHandler.c **** *  Handles the Read Response event from BLE stack.
 986:Generated_Source\PSoC4/BLE_1_eventHandler.c **** * 
 987:Generated_Source\PSoC4/BLE_1_eventHandler.c **** *  \param eventParam: event parameter
 988:Generated_Source\PSoC4/BLE_1_eventHandler.c **** * 
 989:Generated_Source\PSoC4/BLE_1_eventHandler.c **** * \return
 990:Generated_Source\PSoC4/BLE_1_eventHandler.c **** *  None
 991:Generated_Source\PSoC4/BLE_1_eventHandler.c **** * 
 992:Generated_Source\PSoC4/BLE_1_eventHandler.c **** ******************************************************************************/
 993:Generated_Source\PSoC4/BLE_1_eventHandler.c **** static void CyBle_ReadResponseEventHandler(CYBLE_GATTC_READ_RSP_PARAM_T *eventParam)
 994:Generated_Source\PSoC4/BLE_1_eventHandler.c **** {
 251              		.loc 1 994 0
 252              		.cfi_startproc
 253 0000 90B5     		push	{r4, r7, lr}
 254              		.cfi_def_cfa_offset 12
 255              		.cfi_offset 4, -12
 256              		.cfi_offset 7, -8
ARM GAS  C:\Users\Sarah\AppData\Local\Temp\ccqSJLdk.s 			page 23


 257              		.cfi_offset 14, -4
 258 0002 89B0     		sub	sp, sp, #36
 259              		.cfi_def_cfa_offset 48
 260 0004 00AF     		add	r7, sp, #0
 261              		.cfi_def_cfa_register 7
 262 0006 7860     		str	r0, [r7, #4]
 995:Generated_Source\PSoC4/BLE_1_eventHandler.c **** #ifdef CYBLE_CUSTOM_CLIENT
 996:Generated_Source\PSoC4/BLE_1_eventHandler.c ****     /* Read response with 128-bit included service uuid */
 997:Generated_Source\PSoC4/BLE_1_eventHandler.c ****     if((CyBle_GetClientState() == CYBLE_CLIENT_STATE_INCL_DISCOVERING) &&
 263              		.loc 1 997 0
 264 0008 394B     		ldr	r3, .L15
 265 000a 1B78     		ldrb	r3, [r3]
 266 000c 022B     		cmp	r3, #2
 267 000e 6BD1     		bne	.L10
 998:Generated_Source\PSoC4/BLE_1_eventHandler.c ****        (cyBle_discInclInfo.inclDefHandle != 0u))
 268              		.loc 1 998 0 discriminator 1
 269 0010 384B     		ldr	r3, .L15+4
 270 0012 1B88     		ldrh	r3, [r3]
 997:Generated_Source\PSoC4/BLE_1_eventHandler.c ****        (cyBle_discInclInfo.inclDefHandle != 0u))
 271              		.loc 1 997 0 discriminator 1
 272 0014 002B     		cmp	r3, #0
 273 0016 67D0     		beq	.L10
 274              	.LBB3:
 999:Generated_Source\PSoC4/BLE_1_eventHandler.c ****     {
1000:Generated_Source\PSoC4/BLE_1_eventHandler.c ****         CYBLE_DISC_SRVC128_INFO_T discServInfo;
1001:Generated_Source\PSoC4/BLE_1_eventHandler.c **** 
1002:Generated_Source\PSoC4/BLE_1_eventHandler.c ****         /* Store service range */
1003:Generated_Source\PSoC4/BLE_1_eventHandler.c ****         discServInfo.range = cyBle_discInclInfo.inclHandleRange;
 275              		.loc 1 1003 0
 276 0018 0C23     		mov	r3, #12
 277 001a F918     		add	r1, r7, r3
 278 001c 354B     		ldr	r3, .L15+4
 279 001e 0222     		mov	r2, #2
 280 0020 9B18     		add	r3, r3, r2
 281 0022 0422     		mov	r2, #4
 282 0024 081C     		mov	r0, r1
 283 0026 191C     		mov	r1, r3
 284 0028 FFF7FEFF 		bl	memcpy
1004:Generated_Source\PSoC4/BLE_1_eventHandler.c ****         (void)memcpy((void *) discServInfo.uuid.uuid128.value, (void *)eventParam->value.val, event
 285              		.loc 1 1004 0
 286 002c 7B68     		ldr	r3, [r7, #4]
 287 002e 5A68     		ldr	r2, [r3, #4]
 288 0030 7B68     		ldr	r3, [r7, #4]
 289 0032 1B89     		ldrh	r3, [r3, #8]
 290 0034 1C1C     		mov	r4, r3
 291 0036 0C23     		mov	r3, #12
 292 0038 FB18     		add	r3, r7, r3
 293 003a 0433     		add	r3, r3, #4
 294 003c 181C     		mov	r0, r3
 295 003e 111C     		mov	r1, r2
 296 0040 221C     		mov	r2, r4
 297 0042 FFF7FEFF 		bl	memcpy
1005:Generated_Source\PSoC4/BLE_1_eventHandler.c ****         CyBle_CustomcDiscoverServiceEventHandler(&discServInfo);
 298              		.loc 1 1005 0
 299 0046 0C23     		mov	r3, #12
 300 0048 FB18     		add	r3, r7, r3
 301 004a 181C     		mov	r0, r3
ARM GAS  C:\Users\Sarah\AppData\Local\Temp\ccqSJLdk.s 			page 24


 302 004c FFF7FEFF 		bl	CyBle_CustomcDiscoverServiceEventHandler
1006:Generated_Source\PSoC4/BLE_1_eventHandler.c ****         
1007:Generated_Source\PSoC4/BLE_1_eventHandler.c ****         /* Re-initiate CyBle_GattcFindIncludedServices function, setting the start
1008:Generated_Source\PSoC4/BLE_1_eventHandler.c ****            handle to the attribute handle which is placed next to the one used in
1009:Generated_Source\PSoC4/BLE_1_eventHandler.c ****            the above step.
1010:Generated_Source\PSoC4/BLE_1_eventHandler.c ****         */
1011:Generated_Source\PSoC4/BLE_1_eventHandler.c ****         discServInfo.range.startHandle = cyBle_discInclInfo.inclDefHandle + 1u;
 303              		.loc 1 1011 0
 304 0050 284B     		ldr	r3, .L15+4
 305 0052 1B88     		ldrh	r3, [r3]
 306 0054 0133     		add	r3, r3, #1
 307 0056 9AB2     		uxth	r2, r3
 308 0058 0C23     		mov	r3, #12
 309 005a FB18     		add	r3, r7, r3
 310 005c 1A80     		strh	r2, [r3]
1012:Generated_Source\PSoC4/BLE_1_eventHandler.c ****         discServInfo.range.endHandle = cyBle_serverInfo[cyBle_disCount].range.endHandle;
 311              		.loc 1 1012 0
 312 005e 264B     		ldr	r3, .L15+8
 313 0060 1B78     		ldrb	r3, [r3]
 314 0062 191C     		mov	r1, r3
 315 0064 254A     		ldr	r2, .L15+12
 316 0066 0B1C     		mov	r3, r1
 317 0068 5B00     		lsl	r3, r3, #1
 318 006a 5B18     		add	r3, r3, r1
 319 006c 5B00     		lsl	r3, r3, #1
 320 006e D318     		add	r3, r2, r3
 321 0070 5A88     		ldrh	r2, [r3, #2]
 322 0072 0C23     		mov	r3, #12
 323 0074 FB18     		add	r3, r7, r3
 324 0076 5A80     		strh	r2, [r3, #2]
1013:Generated_Source\PSoC4/BLE_1_eventHandler.c ****         if(discServInfo.range.startHandle <= discServInfo.range.endHandle)
 325              		.loc 1 1013 0
 326 0078 0C23     		mov	r3, #12
 327 007a FB18     		add	r3, r7, r3
 328 007c 1A88     		ldrh	r2, [r3]
 329 007e 0C23     		mov	r3, #12
 330 0080 FB18     		add	r3, r7, r3
 331 0082 5B88     		ldrh	r3, [r3, #2]
 332 0084 9A42     		cmp	r2, r3
 333 0086 21D8     		bhi	.L12
1014:Generated_Source\PSoC4/BLE_1_eventHandler.c ****         {
1015:Generated_Source\PSoC4/BLE_1_eventHandler.c ****             if(CYBLE_ERROR_OK != CyBle_GattcFindIncludedServices(cyBle_connHandle, &discServInfo.ra
 334              		.loc 1 1015 0
 335 0088 1D4B     		ldr	r3, .L15+16
 336 008a 0C22     		mov	r2, #12
 337 008c B918     		add	r1, r7, r2
 338 008e 1A78     		ldrb	r2, [r3]
 339 0090 5B78     		ldrb	r3, [r3, #1]
 340 0092 1B02     		lsl	r3, r3, #8
 341 0094 1A43     		orr	r2, r3
 342 0096 0023     		mov	r3, #0
 343 0098 1204     		lsl	r2, r2, #16
 344 009a 120C     		lsr	r2, r2, #16
 345 009c 1B0C     		lsr	r3, r3, #16
 346 009e 1B04     		lsl	r3, r3, #16
 347 00a0 1343     		orr	r3, r2
 348 00a2 181C     		mov	r0, r3
ARM GAS  C:\Users\Sarah\AppData\Local\Temp\ccqSJLdk.s 			page 25


 349 00a4 FFF7FEFF 		bl	CyBle_GattcFindIncludedServices
 350 00a8 031E     		sub	r3, r0, #0
 351 00aa 12D0     		beq	.L14
1016:Generated_Source\PSoC4/BLE_1_eventHandler.c ****             {
1017:Generated_Source\PSoC4/BLE_1_eventHandler.c ****                 CyBle_ApplCallback(CYBLE_EVT_GATTC_INCL_DISCOVERY_FAILED, NULL);
 352              		.loc 1 1017 0
 353 00ac 154B     		ldr	r3, .L15+20
 354 00ae 1B68     		ldr	r3, [r3]
 355 00b0 8422     		mov	r2, #132
 356 00b2 5200     		lsl	r2, r2, #1
 357 00b4 101C     		mov	r0, r2
 358 00b6 0021     		mov	r1, #0
 359 00b8 9847     		blx	r3
1018:Generated_Source\PSoC4/BLE_1_eventHandler.c ****                 cyBle_eventHandlerFlag &= (uint8)~CYBLE_AUTO_DISCOVERY;
 360              		.loc 1 1018 0
 361 00ba 134B     		ldr	r3, .L15+24
 362 00bc 1B78     		ldrb	r3, [r3]
 363 00be DBB2     		uxtb	r3, r3
 364 00c0 0222     		mov	r2, #2
 365 00c2 9343     		bic	r3, r2
 366 00c4 DAB2     		uxtb	r2, r3
 367 00c6 104B     		ldr	r3, .L15+24
 368 00c8 1A70     		strb	r2, [r3]
 369 00ca 02E0     		b	.L14
 370              	.L12:
1019:Generated_Source\PSoC4/BLE_1_eventHandler.c ****             }
1020:Generated_Source\PSoC4/BLE_1_eventHandler.c ****         }
1021:Generated_Source\PSoC4/BLE_1_eventHandler.c ****         else /* Continue discovery of the following service */
1022:Generated_Source\PSoC4/BLE_1_eventHandler.c ****         {
1023:Generated_Source\PSoC4/BLE_1_eventHandler.c ****             CyBle_NextInclDiscovery(CYBLE_DISCOVERY_CONTINUE);
 371              		.loc 1 1023 0
 372 00cc 0120     		mov	r0, #1
 373 00ce FFF7FEFF 		bl	CyBle_NextInclDiscovery
 374              	.L14:
1024:Generated_Source\PSoC4/BLE_1_eventHandler.c ****         }
1025:Generated_Source\PSoC4/BLE_1_eventHandler.c ****         
1026:Generated_Source\PSoC4/BLE_1_eventHandler.c ****         cyBle_eventHandlerFlag &= (uint8)~CYBLE_CALLBACK;
 375              		.loc 1 1026 0 discriminator 1
 376 00d2 0D4B     		ldr	r3, .L15+24
 377 00d4 1B78     		ldrb	r3, [r3]
 378 00d6 DBB2     		uxtb	r3, r3
 379 00d8 0122     		mov	r2, #1
 380 00da 9343     		bic	r3, r2
 381 00dc DAB2     		uxtb	r2, r3
 382 00de 0A4B     		ldr	r3, .L15+24
 383 00e0 1A70     		strb	r2, [r3]
1027:Generated_Source\PSoC4/BLE_1_eventHandler.c ****     #ifdef CYBLE_CUSTOM_CLIENT
1028:Generated_Source\PSoC4/BLE_1_eventHandler.c ****         cyBle_discInclInfo.inclDefHandle = 0u;
 384              		.loc 1 1028 0 discriminator 1
 385 00e2 044B     		ldr	r3, .L15+4
 386 00e4 0022     		mov	r2, #0
 387 00e6 1A80     		strh	r2, [r3]
 388              	.L10:
 389              	.LBE3:
1029:Generated_Source\PSoC4/BLE_1_eventHandler.c ****     #endif /* CYBLE_CUSTOM_CLIENT */
1030:Generated_Source\PSoC4/BLE_1_eventHandler.c ****     }
1031:Generated_Source\PSoC4/BLE_1_eventHandler.c **** #endif /* CYBLE_CUSTOM_CLIENT */
ARM GAS  C:\Users\Sarah\AppData\Local\Temp\ccqSJLdk.s 			page 26


1032:Generated_Source\PSoC4/BLE_1_eventHandler.c **** #ifdef CYBLE_ANCS_CLIENT
1033:Generated_Source\PSoC4/BLE_1_eventHandler.c ****     if((cyBle_eventHandlerFlag & CYBLE_CALLBACK) != 0u)
1034:Generated_Source\PSoC4/BLE_1_eventHandler.c ****     {
1035:Generated_Source\PSoC4/BLE_1_eventHandler.c ****         CyBle_AncscReadResponseEventHandler(eventParam);
1036:Generated_Source\PSoC4/BLE_1_eventHandler.c ****     }
1037:Generated_Source\PSoC4/BLE_1_eventHandler.c **** #endif /* CYBLE_ANCS_CLIENT */
1038:Generated_Source\PSoC4/BLE_1_eventHandler.c **** #ifdef CYBLE_ANS_CLIENT
1039:Generated_Source\PSoC4/BLE_1_eventHandler.c ****     if((cyBle_eventHandlerFlag & CYBLE_CALLBACK) != 0u)
1040:Generated_Source\PSoC4/BLE_1_eventHandler.c ****     {
1041:Generated_Source\PSoC4/BLE_1_eventHandler.c ****         CyBle_AnscReadResponseEventHandler(eventParam);
1042:Generated_Source\PSoC4/BLE_1_eventHandler.c ****     }
1043:Generated_Source\PSoC4/BLE_1_eventHandler.c **** #endif /* CYBLE_ANS_CLIENT */
1044:Generated_Source\PSoC4/BLE_1_eventHandler.c **** #ifdef CYBLE_BAS_CLIENT
1045:Generated_Source\PSoC4/BLE_1_eventHandler.c ****     if((cyBle_eventHandlerFlag & CYBLE_CALLBACK) != 0u)
1046:Generated_Source\PSoC4/BLE_1_eventHandler.c ****     {
1047:Generated_Source\PSoC4/BLE_1_eventHandler.c ****         CyBle_BascReadResponseEventHandler(eventParam);
1048:Generated_Source\PSoC4/BLE_1_eventHandler.c ****     }
1049:Generated_Source\PSoC4/BLE_1_eventHandler.c **** #endif /* CYBLE_BAS_CLIENT */
1050:Generated_Source\PSoC4/BLE_1_eventHandler.c **** #ifdef CYBLE_BLS_CLIENT
1051:Generated_Source\PSoC4/BLE_1_eventHandler.c ****     if((cyBle_eventHandlerFlag & CYBLE_CALLBACK) != 0u)
1052:Generated_Source\PSoC4/BLE_1_eventHandler.c ****     {
1053:Generated_Source\PSoC4/BLE_1_eventHandler.c ****         CyBle_BlscReadResponseEventHandler(eventParam);
1054:Generated_Source\PSoC4/BLE_1_eventHandler.c ****     }
1055:Generated_Source\PSoC4/BLE_1_eventHandler.c **** #endif /* CYBLE_BLS_CLIENT */
1056:Generated_Source\PSoC4/BLE_1_eventHandler.c **** #ifdef CYBLE_BCS_CLIENT
1057:Generated_Source\PSoC4/BLE_1_eventHandler.c ****     if((cyBle_eventHandlerFlag & CYBLE_CALLBACK) != 0u)
1058:Generated_Source\PSoC4/BLE_1_eventHandler.c ****     {
1059:Generated_Source\PSoC4/BLE_1_eventHandler.c ****         CyBle_BcscReadResponseEventHandler(eventParam);
1060:Generated_Source\PSoC4/BLE_1_eventHandler.c ****     }
1061:Generated_Source\PSoC4/BLE_1_eventHandler.c **** #endif /* CYBLE_BCS_CLIENT */
1062:Generated_Source\PSoC4/BLE_1_eventHandler.c **** #ifdef CYBLE_BMS_CLIENT
1063:Generated_Source\PSoC4/BLE_1_eventHandler.c ****     if((cyBle_eventHandlerFlag & CYBLE_CALLBACK) != 0u)
1064:Generated_Source\PSoC4/BLE_1_eventHandler.c ****     {
1065:Generated_Source\PSoC4/BLE_1_eventHandler.c ****         CyBle_BmscReadResponseEventHandler(eventParam);
1066:Generated_Source\PSoC4/BLE_1_eventHandler.c ****     }
1067:Generated_Source\PSoC4/BLE_1_eventHandler.c **** #endif /* CYBLE_BMS_CLIENT */
1068:Generated_Source\PSoC4/BLE_1_eventHandler.c **** #ifdef CYBLE_CGMS_CLIENT
1069:Generated_Source\PSoC4/BLE_1_eventHandler.c ****     if((cyBle_eventHandlerFlag & CYBLE_CALLBACK) != 0u)
1070:Generated_Source\PSoC4/BLE_1_eventHandler.c ****     {
1071:Generated_Source\PSoC4/BLE_1_eventHandler.c ****         CyBle_CgmscReadResponseEventHandler(eventParam);
1072:Generated_Source\PSoC4/BLE_1_eventHandler.c ****     }
1073:Generated_Source\PSoC4/BLE_1_eventHandler.c **** #endif /* CYBLE_CGMS_CLIENT */
1074:Generated_Source\PSoC4/BLE_1_eventHandler.c **** #ifdef CYBLE_CPS_CLIENT
1075:Generated_Source\PSoC4/BLE_1_eventHandler.c ****     if((cyBle_eventHandlerFlag & CYBLE_CALLBACK) != 0u)
1076:Generated_Source\PSoC4/BLE_1_eventHandler.c ****     {
1077:Generated_Source\PSoC4/BLE_1_eventHandler.c ****         CyBle_CpscReadResponseEventHandler(eventParam);
1078:Generated_Source\PSoC4/BLE_1_eventHandler.c ****     }
1079:Generated_Source\PSoC4/BLE_1_eventHandler.c **** #endif /* CYBLE_CPS_CLIENT */
1080:Generated_Source\PSoC4/BLE_1_eventHandler.c **** #ifdef CYBLE_CSCS_CLIENT
1081:Generated_Source\PSoC4/BLE_1_eventHandler.c ****     if((cyBle_eventHandlerFlag & CYBLE_CALLBACK) != 0u)
1082:Generated_Source\PSoC4/BLE_1_eventHandler.c ****     {
1083:Generated_Source\PSoC4/BLE_1_eventHandler.c ****         CyBle_CscscReadResponseEventHandler(eventParam);
1084:Generated_Source\PSoC4/BLE_1_eventHandler.c ****     }
1085:Generated_Source\PSoC4/BLE_1_eventHandler.c **** #endif /* CYBLE_CSCS_CLIENT */
1086:Generated_Source\PSoC4/BLE_1_eventHandler.c **** #ifdef CYBLE_CTS_CLIENT
1087:Generated_Source\PSoC4/BLE_1_eventHandler.c ****     if((cyBle_eventHandlerFlag & CYBLE_CALLBACK) != 0u)
1088:Generated_Source\PSoC4/BLE_1_eventHandler.c ****     {
ARM GAS  C:\Users\Sarah\AppData\Local\Temp\ccqSJLdk.s 			page 27


1089:Generated_Source\PSoC4/BLE_1_eventHandler.c ****         CyBle_CtscReadResponseEventHandler(eventParam);
1090:Generated_Source\PSoC4/BLE_1_eventHandler.c ****     }
1091:Generated_Source\PSoC4/BLE_1_eventHandler.c **** #endif /* CYBLE_BAS_CLIENT */
1092:Generated_Source\PSoC4/BLE_1_eventHandler.c **** #ifdef CYBLE_DIS_CLIENT
1093:Generated_Source\PSoC4/BLE_1_eventHandler.c ****     if((cyBle_eventHandlerFlag & CYBLE_CALLBACK) != 0u)
1094:Generated_Source\PSoC4/BLE_1_eventHandler.c ****     {
1095:Generated_Source\PSoC4/BLE_1_eventHandler.c ****         CyBle_DiscReadResponseEventHandler(eventParam);
1096:Generated_Source\PSoC4/BLE_1_eventHandler.c ****     }
1097:Generated_Source\PSoC4/BLE_1_eventHandler.c **** #endif /* CYBLE_DIS_CLIENT */
1098:Generated_Source\PSoC4/BLE_1_eventHandler.c **** #ifdef CYBLE_ESS_CLIENT
1099:Generated_Source\PSoC4/BLE_1_eventHandler.c ****     if((cyBle_eventHandlerFlag & CYBLE_CALLBACK) != 0u)
1100:Generated_Source\PSoC4/BLE_1_eventHandler.c ****     {
1101:Generated_Source\PSoC4/BLE_1_eventHandler.c ****         CyBle_EsscReadResponseEventHandler(eventParam);
1102:Generated_Source\PSoC4/BLE_1_eventHandler.c ****     }
1103:Generated_Source\PSoC4/BLE_1_eventHandler.c **** #endif /* CYBLE_ESS_CLIENT */
1104:Generated_Source\PSoC4/BLE_1_eventHandler.c **** #ifdef CYBLE_GLS_CLIENT
1105:Generated_Source\PSoC4/BLE_1_eventHandler.c ****     if((cyBle_eventHandlerFlag & CYBLE_CALLBACK) != 0u)
1106:Generated_Source\PSoC4/BLE_1_eventHandler.c ****     {
1107:Generated_Source\PSoC4/BLE_1_eventHandler.c ****         CyBle_GlscReadResponseEventHandler(eventParam);
1108:Generated_Source\PSoC4/BLE_1_eventHandler.c ****     }
1109:Generated_Source\PSoC4/BLE_1_eventHandler.c **** #endif /* CYBLE_GLS_CLIENT */
1110:Generated_Source\PSoC4/BLE_1_eventHandler.c **** #ifdef CYBLE_HIDS_CLIENT
1111:Generated_Source\PSoC4/BLE_1_eventHandler.c ****     if((cyBle_eventHandlerFlag & CYBLE_CALLBACK) != 0u)
1112:Generated_Source\PSoC4/BLE_1_eventHandler.c ****     {
1113:Generated_Source\PSoC4/BLE_1_eventHandler.c ****         CyBle_HidscReadResponseEventHandler(eventParam);
1114:Generated_Source\PSoC4/BLE_1_eventHandler.c ****     }
1115:Generated_Source\PSoC4/BLE_1_eventHandler.c **** #endif /* CYBLE_HIDS_CLIENT */
1116:Generated_Source\PSoC4/BLE_1_eventHandler.c **** #ifdef CYBLE_HPS_CLIENT
1117:Generated_Source\PSoC4/BLE_1_eventHandler.c ****     if((cyBle_eventHandlerFlag & CYBLE_CALLBACK) != 0u)
1118:Generated_Source\PSoC4/BLE_1_eventHandler.c ****     {
1119:Generated_Source\PSoC4/BLE_1_eventHandler.c ****         CyBle_HpscReadResponseEventHandler(eventParam);
1120:Generated_Source\PSoC4/BLE_1_eventHandler.c ****     }
1121:Generated_Source\PSoC4/BLE_1_eventHandler.c **** #endif /* CYBLE_HPS_CLIENT */
1122:Generated_Source\PSoC4/BLE_1_eventHandler.c **** #ifdef CYBLE_HRS_CLIENT
1123:Generated_Source\PSoC4/BLE_1_eventHandler.c ****     if((cyBle_eventHandlerFlag & CYBLE_CALLBACK) != 0u)
1124:Generated_Source\PSoC4/BLE_1_eventHandler.c ****     {
1125:Generated_Source\PSoC4/BLE_1_eventHandler.c ****         CyBle_HrscReadResponseEventHandler(eventParam);
1126:Generated_Source\PSoC4/BLE_1_eventHandler.c ****     }
1127:Generated_Source\PSoC4/BLE_1_eventHandler.c **** #endif /* CYBLE_HRS_CLIENT */
1128:Generated_Source\PSoC4/BLE_1_eventHandler.c **** #ifdef CYBLE_HTS_CLIENT
1129:Generated_Source\PSoC4/BLE_1_eventHandler.c ****     if((cyBle_eventHandlerFlag & CYBLE_CALLBACK) != 0u)
1130:Generated_Source\PSoC4/BLE_1_eventHandler.c ****     {
1131:Generated_Source\PSoC4/BLE_1_eventHandler.c ****         CyBle_HtscReadResponseEventHandler(eventParam);
1132:Generated_Source\PSoC4/BLE_1_eventHandler.c ****     }
1133:Generated_Source\PSoC4/BLE_1_eventHandler.c **** #endif /* CYBLE_HTS_CLIENT */
1134:Generated_Source\PSoC4/BLE_1_eventHandler.c **** #ifdef CYBLE_IPS_CLIENT
1135:Generated_Source\PSoC4/BLE_1_eventHandler.c ****     if((cyBle_eventHandlerFlag & CYBLE_CALLBACK) != 0u)
1136:Generated_Source\PSoC4/BLE_1_eventHandler.c ****     {
1137:Generated_Source\PSoC4/BLE_1_eventHandler.c ****         CyBle_IpscReadResponseEventHandler(eventParam);
1138:Generated_Source\PSoC4/BLE_1_eventHandler.c ****     }
1139:Generated_Source\PSoC4/BLE_1_eventHandler.c **** #endif /* CYBLE_IPS_CLIENT */
1140:Generated_Source\PSoC4/BLE_1_eventHandler.c **** #ifdef CYBLE_LLS_CLIENT
1141:Generated_Source\PSoC4/BLE_1_eventHandler.c ****     if((cyBle_eventHandlerFlag & CYBLE_CALLBACK) != 0u)
1142:Generated_Source\PSoC4/BLE_1_eventHandler.c ****     {
1143:Generated_Source\PSoC4/BLE_1_eventHandler.c ****         CyBle_LlscReadResponseEventHandler(eventParam);
1144:Generated_Source\PSoC4/BLE_1_eventHandler.c ****     }
1145:Generated_Source\PSoC4/BLE_1_eventHandler.c **** #endif /* CYBLE_LLS_CLIENT */
ARM GAS  C:\Users\Sarah\AppData\Local\Temp\ccqSJLdk.s 			page 28


1146:Generated_Source\PSoC4/BLE_1_eventHandler.c **** #ifdef CYBLE_LNS_CLIENT
1147:Generated_Source\PSoC4/BLE_1_eventHandler.c ****     if((cyBle_eventHandlerFlag & CYBLE_CALLBACK) != 0u)
1148:Generated_Source\PSoC4/BLE_1_eventHandler.c ****     {
1149:Generated_Source\PSoC4/BLE_1_eventHandler.c ****         CyBle_LnscReadResponseEventHandler(eventParam);
1150:Generated_Source\PSoC4/BLE_1_eventHandler.c ****     }
1151:Generated_Source\PSoC4/BLE_1_eventHandler.c **** #endif /* CYBLE_LNS_CLIENT */
1152:Generated_Source\PSoC4/BLE_1_eventHandler.c **** #ifdef CYBLE_NDCS_CLIENT
1153:Generated_Source\PSoC4/BLE_1_eventHandler.c ****     if((cyBle_eventHandlerFlag & CYBLE_CALLBACK) != 0u)
1154:Generated_Source\PSoC4/BLE_1_eventHandler.c ****     {
1155:Generated_Source\PSoC4/BLE_1_eventHandler.c ****         CyBle_NdcscReadResponseEventHandler(eventParam);
1156:Generated_Source\PSoC4/BLE_1_eventHandler.c ****     }
1157:Generated_Source\PSoC4/BLE_1_eventHandler.c **** #endif /* CYBLE_NDCS_CLIENT */
1158:Generated_Source\PSoC4/BLE_1_eventHandler.c **** #ifdef CYBLE_PASS_CLIENT
1159:Generated_Source\PSoC4/BLE_1_eventHandler.c ****     if((cyBle_eventHandlerFlag & CYBLE_CALLBACK) != 0u)
1160:Generated_Source\PSoC4/BLE_1_eventHandler.c ****     {
1161:Generated_Source\PSoC4/BLE_1_eventHandler.c ****         CyBle_PasscReadResponseEventHandler(eventParam);
1162:Generated_Source\PSoC4/BLE_1_eventHandler.c ****     }
1163:Generated_Source\PSoC4/BLE_1_eventHandler.c **** #endif /* CYBLE_PASS_CLIENT */
1164:Generated_Source\PSoC4/BLE_1_eventHandler.c **** #ifdef CYBLE_PLXS_CLIENT
1165:Generated_Source\PSoC4/BLE_1_eventHandler.c ****     if((cyBle_eventHandlerFlag & CYBLE_CALLBACK) != 0u)
1166:Generated_Source\PSoC4/BLE_1_eventHandler.c ****     {
1167:Generated_Source\PSoC4/BLE_1_eventHandler.c ****         CyBle_PlxscReadResponseEventHandler(eventParam);
1168:Generated_Source\PSoC4/BLE_1_eventHandler.c ****     }
1169:Generated_Source\PSoC4/BLE_1_eventHandler.c **** #endif /* CYBLE_PLXS_CLIENT */
1170:Generated_Source\PSoC4/BLE_1_eventHandler.c **** #ifdef CYBLE_RSCS_CLIENT
1171:Generated_Source\PSoC4/BLE_1_eventHandler.c ****     if((cyBle_eventHandlerFlag & CYBLE_CALLBACK) != 0u)
1172:Generated_Source\PSoC4/BLE_1_eventHandler.c ****     {
1173:Generated_Source\PSoC4/BLE_1_eventHandler.c ****         CyBle_RscscReadResponseEventHandler(eventParam);
1174:Generated_Source\PSoC4/BLE_1_eventHandler.c ****     }
1175:Generated_Source\PSoC4/BLE_1_eventHandler.c **** #endif /* CYBLE_RSCS_CLIENT */
1176:Generated_Source\PSoC4/BLE_1_eventHandler.c **** #ifdef CYBLE_RTUS_CLIENT
1177:Generated_Source\PSoC4/BLE_1_eventHandler.c ****     if((cyBle_eventHandlerFlag & CYBLE_CALLBACK) != 0u)
1178:Generated_Source\PSoC4/BLE_1_eventHandler.c ****     {
1179:Generated_Source\PSoC4/BLE_1_eventHandler.c ****         CyBle_RtuscReadResponseEventHandler(eventParam);
1180:Generated_Source\PSoC4/BLE_1_eventHandler.c ****     }
1181:Generated_Source\PSoC4/BLE_1_eventHandler.c **** #endif /* CYBLE_RTUS_CLIENT */
1182:Generated_Source\PSoC4/BLE_1_eventHandler.c **** #ifdef CYBLE_SCPS_CLIENT
1183:Generated_Source\PSoC4/BLE_1_eventHandler.c ****     if((cyBle_eventHandlerFlag & CYBLE_CALLBACK) != 0u)
1184:Generated_Source\PSoC4/BLE_1_eventHandler.c ****     {
1185:Generated_Source\PSoC4/BLE_1_eventHandler.c ****         CyBle_ScpscReadResponseEventHandler(eventParam);
1186:Generated_Source\PSoC4/BLE_1_eventHandler.c ****     }
1187:Generated_Source\PSoC4/BLE_1_eventHandler.c **** #endif /* CYBLE_SCPS_CLIENT */
1188:Generated_Source\PSoC4/BLE_1_eventHandler.c **** #ifdef CYBLE_TPS_CLIENT
1189:Generated_Source\PSoC4/BLE_1_eventHandler.c ****     if((cyBle_eventHandlerFlag & CYBLE_CALLBACK) != 0u)
1190:Generated_Source\PSoC4/BLE_1_eventHandler.c ****     {
1191:Generated_Source\PSoC4/BLE_1_eventHandler.c ****         CyBle_TpscReadResponseEventHandler(eventParam);
1192:Generated_Source\PSoC4/BLE_1_eventHandler.c ****     }
1193:Generated_Source\PSoC4/BLE_1_eventHandler.c **** #endif /* CYBLE_TPS_CLIENT */
1194:Generated_Source\PSoC4/BLE_1_eventHandler.c **** #ifdef CYBLE_UDS_CLIENT
1195:Generated_Source\PSoC4/BLE_1_eventHandler.c ****     if((cyBle_eventHandlerFlag & CYBLE_CALLBACK) != 0u)
1196:Generated_Source\PSoC4/BLE_1_eventHandler.c ****     {
1197:Generated_Source\PSoC4/BLE_1_eventHandler.c ****         CyBle_UdscReadResponseEventHandler(eventParam);
1198:Generated_Source\PSoC4/BLE_1_eventHandler.c ****     }
1199:Generated_Source\PSoC4/BLE_1_eventHandler.c **** #endif /* CYBLE_UDS_CLIENT */
1200:Generated_Source\PSoC4/BLE_1_eventHandler.c **** #ifdef CYBLE_WPTS_CLIENT
1201:Generated_Source\PSoC4/BLE_1_eventHandler.c ****     if((cyBle_eventHandlerFlag & CYBLE_CALLBACK) != 0u)
1202:Generated_Source\PSoC4/BLE_1_eventHandler.c ****     {
ARM GAS  C:\Users\Sarah\AppData\Local\Temp\ccqSJLdk.s 			page 29


1203:Generated_Source\PSoC4/BLE_1_eventHandler.c ****         CyBle_WptscReadResponseEventHandler(eventParam);
1204:Generated_Source\PSoC4/BLE_1_eventHandler.c ****     }
1205:Generated_Source\PSoC4/BLE_1_eventHandler.c **** #endif /* CYBLE_WPTS_CLIENT */
1206:Generated_Source\PSoC4/BLE_1_eventHandler.c **** #ifdef CYBLE_WSS_CLIENT
1207:Generated_Source\PSoC4/BLE_1_eventHandler.c ****     if((cyBle_eventHandlerFlag & CYBLE_CALLBACK) != 0u)
1208:Generated_Source\PSoC4/BLE_1_eventHandler.c ****     {
1209:Generated_Source\PSoC4/BLE_1_eventHandler.c ****         CyBle_WsscReadResponseEventHandler(eventParam);
1210:Generated_Source\PSoC4/BLE_1_eventHandler.c ****     }
1211:Generated_Source\PSoC4/BLE_1_eventHandler.c **** #endif /* CYBLE_WSS_CLIENT */
1212:Generated_Source\PSoC4/BLE_1_eventHandler.c **** }
 390              		.loc 1 1212 0
 391 00e8 BD46     		mov	sp, r7
 392 00ea 09B0     		add	sp, sp, #36
 393              		@ sp needed
 394 00ec 90BD     		pop	{r4, r7, pc}
 395              	.L16:
 396 00ee C046     		.align	2
 397              	.L15:
 398 00f0 00000000 		.word	cyBle_clientState
 399 00f4 00000000 		.word	cyBle_discInclInfo
 400 00f8 00000000 		.word	cyBle_disCount
 401 00fc 00000000 		.word	cyBle_serverInfo
 402 0100 00000000 		.word	cyBle_connHandle
 403 0104 00000000 		.word	CyBle_ApplCallback
 404 0108 00000000 		.word	cyBle_eventHandlerFlag
 405              		.cfi_endproc
 406              	.LFE7:
 407              		.size	CyBle_ReadResponseEventHandler, .-CyBle_ReadResponseEventHandler
 408              		.section	.text.CyBle_ReadMultipleResponseEventHandler,"ax",%progbits
 409              		.align	2
 410              		.code	16
 411              		.thumb_func
 412              		.type	CyBle_ReadMultipleResponseEventHandler, %function
 413              	CyBle_ReadMultipleResponseEventHandler:
 414              	.LFB8:
1213:Generated_Source\PSoC4/BLE_1_eventHandler.c **** 
1214:Generated_Source\PSoC4/BLE_1_eventHandler.c **** /******************************************************************************    
1215:Generated_Source\PSoC4/BLE_1_eventHandler.c **** * Function Name: CyBle_ReadMultipleResponseEventHandler
1216:Generated_Source\PSoC4/BLE_1_eventHandler.c **** ***************************************************************************//**
1217:Generated_Source\PSoC4/BLE_1_eventHandler.c **** * 
1218:Generated_Source\PSoC4/BLE_1_eventHandler.c **** *  Handles the Read Multiple Response event from BLE stack.
1219:Generated_Source\PSoC4/BLE_1_eventHandler.c **** * 
1220:Generated_Source\PSoC4/BLE_1_eventHandler.c **** *  \param eventParam: event parameter
1221:Generated_Source\PSoC4/BLE_1_eventHandler.c **** * 
1222:Generated_Source\PSoC4/BLE_1_eventHandler.c **** * \return
1223:Generated_Source\PSoC4/BLE_1_eventHandler.c **** *  None
1224:Generated_Source\PSoC4/BLE_1_eventHandler.c **** * 
1225:Generated_Source\PSoC4/BLE_1_eventHandler.c **** ******************************************************************************/
1226:Generated_Source\PSoC4/BLE_1_eventHandler.c **** static void CyBle_ReadMultipleResponseEventHandler(CYBLE_GATTC_READ_RSP_PARAM_T *eventParam)
1227:Generated_Source\PSoC4/BLE_1_eventHandler.c **** {
 415              		.loc 1 1227 0
 416              		.cfi_startproc
 417 0000 90B5     		push	{r4, r7, lr}
 418              		.cfi_def_cfa_offset 12
 419              		.cfi_offset 4, -12
 420              		.cfi_offset 7, -8
 421              		.cfi_offset 14, -4
ARM GAS  C:\Users\Sarah\AppData\Local\Temp\ccqSJLdk.s 			page 30


 422 0002 89B0     		sub	sp, sp, #36
 423              		.cfi_def_cfa_offset 48
 424 0004 00AF     		add	r7, sp, #0
 425              		.cfi_def_cfa_register 7
 426 0006 7860     		str	r0, [r7, #4]
1228:Generated_Source\PSoC4/BLE_1_eventHandler.c **** #ifdef CYBLE_CUSTOM_CLIENT
1229:Generated_Source\PSoC4/BLE_1_eventHandler.c ****     /* Read response with 128-bit included service uuid */
1230:Generated_Source\PSoC4/BLE_1_eventHandler.c ****     if((CYBLE_CLIENT_STATE_INCL_DISCOVERING == CyBle_GetClientState()) &&
 427              		.loc 1 1230 0
 428 0008 394B     		ldr	r3, .L22
 429 000a 1B78     		ldrb	r3, [r3]
 430 000c 022B     		cmp	r3, #2
 431 000e 6BD1     		bne	.L17
1231:Generated_Source\PSoC4/BLE_1_eventHandler.c ****        (cyBle_discInclInfo.inclDefHandle != 0u))
 432              		.loc 1 1231 0 discriminator 1
 433 0010 384B     		ldr	r3, .L22+4
 434 0012 1B88     		ldrh	r3, [r3]
1230:Generated_Source\PSoC4/BLE_1_eventHandler.c ****        (cyBle_discInclInfo.inclDefHandle != 0u))
 435              		.loc 1 1230 0 discriminator 1
 436 0014 002B     		cmp	r3, #0
 437 0016 67D0     		beq	.L17
 438              	.LBB4:
1232:Generated_Source\PSoC4/BLE_1_eventHandler.c ****     {
1233:Generated_Source\PSoC4/BLE_1_eventHandler.c ****         CYBLE_DISC_SRVC128_INFO_T discServInfo;
1234:Generated_Source\PSoC4/BLE_1_eventHandler.c **** 
1235:Generated_Source\PSoC4/BLE_1_eventHandler.c ****         /* Store service range */
1236:Generated_Source\PSoC4/BLE_1_eventHandler.c ****         discServInfo.range = cyBle_discInclInfo.inclHandleRange;
 439              		.loc 1 1236 0
 440 0018 0C23     		mov	r3, #12
 441 001a F918     		add	r1, r7, r3
 442 001c 354B     		ldr	r3, .L22+4
 443 001e 0222     		mov	r2, #2
 444 0020 9B18     		add	r3, r3, r2
 445 0022 0422     		mov	r2, #4
 446 0024 081C     		mov	r0, r1
 447 0026 191C     		mov	r1, r3
 448 0028 FFF7FEFF 		bl	memcpy
1237:Generated_Source\PSoC4/BLE_1_eventHandler.c ****         (void)memcpy((void *) discServInfo.uuid.uuid128.value, (void *)eventParam->value.val, event
 449              		.loc 1 1237 0
 450 002c 7B68     		ldr	r3, [r7, #4]
 451 002e 5A68     		ldr	r2, [r3, #4]
 452 0030 7B68     		ldr	r3, [r7, #4]
 453 0032 1B89     		ldrh	r3, [r3, #8]
 454 0034 1C1C     		mov	r4, r3
 455 0036 0C23     		mov	r3, #12
 456 0038 FB18     		add	r3, r7, r3
 457 003a 0433     		add	r3, r3, #4
 458 003c 181C     		mov	r0, r3
 459 003e 111C     		mov	r1, r2
 460 0040 221C     		mov	r2, r4
 461 0042 FFF7FEFF 		bl	memcpy
1238:Generated_Source\PSoC4/BLE_1_eventHandler.c ****         CyBle_CustomcDiscoverServiceEventHandler(&discServInfo);
 462              		.loc 1 1238 0
 463 0046 0C23     		mov	r3, #12
 464 0048 FB18     		add	r3, r7, r3
 465 004a 181C     		mov	r0, r3
 466 004c FFF7FEFF 		bl	CyBle_CustomcDiscoverServiceEventHandler
ARM GAS  C:\Users\Sarah\AppData\Local\Temp\ccqSJLdk.s 			page 31


1239:Generated_Source\PSoC4/BLE_1_eventHandler.c ****         
1240:Generated_Source\PSoC4/BLE_1_eventHandler.c ****         /* Re-initiate CyBle_GattcFindIncludedServices function, setting the start
1241:Generated_Source\PSoC4/BLE_1_eventHandler.c ****            handle to the attribute handle which is placed next to the one used in
1242:Generated_Source\PSoC4/BLE_1_eventHandler.c ****            the above step.
1243:Generated_Source\PSoC4/BLE_1_eventHandler.c ****         */
1244:Generated_Source\PSoC4/BLE_1_eventHandler.c ****         discServInfo.range.startHandle = cyBle_discInclInfo.inclDefHandle + 1;
 467              		.loc 1 1244 0
 468 0050 284B     		ldr	r3, .L22+4
 469 0052 1B88     		ldrh	r3, [r3]
 470 0054 0133     		add	r3, r3, #1
 471 0056 9AB2     		uxth	r2, r3
 472 0058 0C23     		mov	r3, #12
 473 005a FB18     		add	r3, r7, r3
 474 005c 1A80     		strh	r2, [r3]
1245:Generated_Source\PSoC4/BLE_1_eventHandler.c ****         discServInfo.range.endHandle = cyBle_serverInfo[cyBle_disCount].range.endHandle;
 475              		.loc 1 1245 0
 476 005e 264B     		ldr	r3, .L22+8
 477 0060 1B78     		ldrb	r3, [r3]
 478 0062 191C     		mov	r1, r3
 479 0064 254A     		ldr	r2, .L22+12
 480 0066 0B1C     		mov	r3, r1
 481 0068 5B00     		lsl	r3, r3, #1
 482 006a 5B18     		add	r3, r3, r1
 483 006c 5B00     		lsl	r3, r3, #1
 484 006e D318     		add	r3, r2, r3
 485 0070 5A88     		ldrh	r2, [r3, #2]
 486 0072 0C23     		mov	r3, #12
 487 0074 FB18     		add	r3, r7, r3
 488 0076 5A80     		strh	r2, [r3, #2]
1246:Generated_Source\PSoC4/BLE_1_eventHandler.c ****         if(discServInfo.range.startHandle <= discServInfo.range.endHandle)
 489              		.loc 1 1246 0
 490 0078 0C23     		mov	r3, #12
 491 007a FB18     		add	r3, r7, r3
 492 007c 1A88     		ldrh	r2, [r3]
 493 007e 0C23     		mov	r3, #12
 494 0080 FB18     		add	r3, r7, r3
 495 0082 5B88     		ldrh	r3, [r3, #2]
 496 0084 9A42     		cmp	r2, r3
 497 0086 21D8     		bhi	.L19
1247:Generated_Source\PSoC4/BLE_1_eventHandler.c ****         {
1248:Generated_Source\PSoC4/BLE_1_eventHandler.c ****             if(CYBLE_ERROR_OK != CyBle_GattcFindIncludedServices(cyBle_connHandle, &discServInfo.ra
 498              		.loc 1 1248 0
 499 0088 1D4B     		ldr	r3, .L22+16
 500 008a 0C22     		mov	r2, #12
 501 008c B918     		add	r1, r7, r2
 502 008e 1A78     		ldrb	r2, [r3]
 503 0090 5B78     		ldrb	r3, [r3, #1]
 504 0092 1B02     		lsl	r3, r3, #8
 505 0094 1A43     		orr	r2, r3
 506 0096 0023     		mov	r3, #0
 507 0098 1204     		lsl	r2, r2, #16
 508 009a 120C     		lsr	r2, r2, #16
 509 009c 1B0C     		lsr	r3, r3, #16
 510 009e 1B04     		lsl	r3, r3, #16
 511 00a0 1343     		orr	r3, r2
 512 00a2 181C     		mov	r0, r3
 513 00a4 FFF7FEFF 		bl	CyBle_GattcFindIncludedServices
ARM GAS  C:\Users\Sarah\AppData\Local\Temp\ccqSJLdk.s 			page 32


 514 00a8 031E     		sub	r3, r0, #0
 515 00aa 12D0     		beq	.L21
1249:Generated_Source\PSoC4/BLE_1_eventHandler.c ****             {
1250:Generated_Source\PSoC4/BLE_1_eventHandler.c ****                 CyBle_ApplCallback(CYBLE_EVT_GATTC_INCL_DISCOVERY_FAILED, NULL);
 516              		.loc 1 1250 0
 517 00ac 154B     		ldr	r3, .L22+20
 518 00ae 1B68     		ldr	r3, [r3]
 519 00b0 8422     		mov	r2, #132
 520 00b2 5200     		lsl	r2, r2, #1
 521 00b4 101C     		mov	r0, r2
 522 00b6 0021     		mov	r1, #0
 523 00b8 9847     		blx	r3
1251:Generated_Source\PSoC4/BLE_1_eventHandler.c ****                 cyBle_eventHandlerFlag &= (uint8)~CYBLE_AUTO_DISCOVERY;
 524              		.loc 1 1251 0
 525 00ba 134B     		ldr	r3, .L22+24
 526 00bc 1B78     		ldrb	r3, [r3]
 527 00be DBB2     		uxtb	r3, r3
 528 00c0 0222     		mov	r2, #2
 529 00c2 9343     		bic	r3, r2
 530 00c4 DAB2     		uxtb	r2, r3
 531 00c6 104B     		ldr	r3, .L22+24
 532 00c8 1A70     		strb	r2, [r3]
 533 00ca 02E0     		b	.L21
 534              	.L19:
1252:Generated_Source\PSoC4/BLE_1_eventHandler.c ****             }
1253:Generated_Source\PSoC4/BLE_1_eventHandler.c ****         }
1254:Generated_Source\PSoC4/BLE_1_eventHandler.c ****         else /* Continue discovery of the following service */
1255:Generated_Source\PSoC4/BLE_1_eventHandler.c ****         {
1256:Generated_Source\PSoC4/BLE_1_eventHandler.c ****             CyBle_NextInclDiscovery(CYBLE_DISCOVERY_CONTINUE);
 535              		.loc 1 1256 0
 536 00cc 0120     		mov	r0, #1
 537 00ce FFF7FEFF 		bl	CyBle_NextInclDiscovery
 538              	.L21:
1257:Generated_Source\PSoC4/BLE_1_eventHandler.c ****         }
1258:Generated_Source\PSoC4/BLE_1_eventHandler.c ****         
1259:Generated_Source\PSoC4/BLE_1_eventHandler.c ****         cyBle_eventHandlerFlag &= (uint8)~CYBLE_CALLBACK;
 539              		.loc 1 1259 0 discriminator 1
 540 00d2 0D4B     		ldr	r3, .L22+24
 541 00d4 1B78     		ldrb	r3, [r3]
 542 00d6 DBB2     		uxtb	r3, r3
 543 00d8 0122     		mov	r2, #1
 544 00da 9343     		bic	r3, r2
 545 00dc DAB2     		uxtb	r2, r3
 546 00de 0A4B     		ldr	r3, .L22+24
 547 00e0 1A70     		strb	r2, [r3]
1260:Generated_Source\PSoC4/BLE_1_eventHandler.c ****     #ifdef CYBLE_CUSTOM_CLIENT
1261:Generated_Source\PSoC4/BLE_1_eventHandler.c ****         cyBle_discInclInfo.inclDefHandle = 0u;
 548              		.loc 1 1261 0 discriminator 1
 549 00e2 044B     		ldr	r3, .L22+4
 550 00e4 0022     		mov	r2, #0
 551 00e6 1A80     		strh	r2, [r3]
 552              	.L17:
 553              	.LBE4:
1262:Generated_Source\PSoC4/BLE_1_eventHandler.c ****     #endif /* CYBLE_CUSTOM_CLIENT */
1263:Generated_Source\PSoC4/BLE_1_eventHandler.c ****     }
1264:Generated_Source\PSoC4/BLE_1_eventHandler.c **** #endif /* CYBLE_CUSTOM_CLIENT */
1265:Generated_Source\PSoC4/BLE_1_eventHandler.c **** #ifdef CYBLE_IPS_CLIENT
ARM GAS  C:\Users\Sarah\AppData\Local\Temp\ccqSJLdk.s 			page 33


1266:Generated_Source\PSoC4/BLE_1_eventHandler.c ****     if((cyBle_eventHandlerFlag & CYBLE_CALLBACK) != 0u)
1267:Generated_Source\PSoC4/BLE_1_eventHandler.c ****     {
1268:Generated_Source\PSoC4/BLE_1_eventHandler.c ****         CyBle_IpscReadMultipleResponseEventHandler(eventParam);
1269:Generated_Source\PSoC4/BLE_1_eventHandler.c ****     }
1270:Generated_Source\PSoC4/BLE_1_eventHandler.c **** #endif /* CYBLE_IPS_CLIENT */
1271:Generated_Source\PSoC4/BLE_1_eventHandler.c ****     /* MISRA 16.7 violation workaround */
1272:Generated_Source\PSoC4/BLE_1_eventHandler.c ****     eventParam = eventParam;
1273:Generated_Source\PSoC4/BLE_1_eventHandler.c **** }
 554              		.loc 1 1273 0
 555 00e8 BD46     		mov	sp, r7
 556 00ea 09B0     		add	sp, sp, #36
 557              		@ sp needed
 558 00ec 90BD     		pop	{r4, r7, pc}
 559              	.L23:
 560 00ee C046     		.align	2
 561              	.L22:
 562 00f0 00000000 		.word	cyBle_clientState
 563 00f4 00000000 		.word	cyBle_discInclInfo
 564 00f8 00000000 		.word	cyBle_disCount
 565 00fc 00000000 		.word	cyBle_serverInfo
 566 0100 00000000 		.word	cyBle_connHandle
 567 0104 00000000 		.word	CyBle_ApplCallback
 568 0108 00000000 		.word	cyBle_eventHandlerFlag
 569              		.cfi_endproc
 570              	.LFE8:
 571              		.size	CyBle_ReadMultipleResponseEventHandler, .-CyBle_ReadMultipleResponseEventHandler
 572              		.section	.text.CyBle_GattDisconnectEventHandler,"ax",%progbits
 573              		.align	2
 574              		.code	16
 575              		.thumb_func
 576              		.type	CyBle_GattDisconnectEventHandler, %function
 577              	CyBle_GattDisconnectEventHandler:
 578              	.LFB9:
1274:Generated_Source\PSoC4/BLE_1_eventHandler.c **** #endif /* CYBLE_GATT_ROLE_CLIENT */
1275:Generated_Source\PSoC4/BLE_1_eventHandler.c **** 
1276:Generated_Source\PSoC4/BLE_1_eventHandler.c **** 
1277:Generated_Source\PSoC4/BLE_1_eventHandler.c **** /****************************************************************************** 
1278:Generated_Source\PSoC4/BLE_1_eventHandler.c **** * Function Name: CyBle_DisconnectEventHandler
1279:Generated_Source\PSoC4/BLE_1_eventHandler.c **** ***************************************************************************//**
1280:Generated_Source\PSoC4/BLE_1_eventHandler.c **** * 
1281:Generated_Source\PSoC4/BLE_1_eventHandler.c **** *  Handles the GATT Disconnection event from the BLE stack.
1282:Generated_Source\PSoC4/BLE_1_eventHandler.c **** * 
1283:Generated_Source\PSoC4/BLE_1_eventHandler.c **** * \return
1284:Generated_Source\PSoC4/BLE_1_eventHandler.c **** *  None
1285:Generated_Source\PSoC4/BLE_1_eventHandler.c **** * 
1286:Generated_Source\PSoC4/BLE_1_eventHandler.c **** ******************************************************************************/
1287:Generated_Source\PSoC4/BLE_1_eventHandler.c **** static void CyBle_GattDisconnectEventHandler(void)
1288:Generated_Source\PSoC4/BLE_1_eventHandler.c **** {
 579              		.loc 1 1288 0
 580              		.cfi_startproc
 581 0000 80B5     		push	{r7, lr}
 582              		.cfi_def_cfa_offset 8
 583              		.cfi_offset 7, -8
 584              		.cfi_offset 14, -4
 585 0002 00AF     		add	r7, sp, #0
 586              		.cfi_def_cfa_register 7
1289:Generated_Source\PSoC4/BLE_1_eventHandler.c ****     cyBle_connHandle.attId = 0u;
ARM GAS  C:\Users\Sarah\AppData\Local\Temp\ccqSJLdk.s 			page 34


 587              		.loc 1 1289 0
 588 0004 094B     		ldr	r3, .L27
 589 0006 0022     		mov	r2, #0
 590 0008 5A70     		strb	r2, [r3, #1]
1290:Generated_Source\PSoC4/BLE_1_eventHandler.c ****     cyBle_connHandle.bdHandle = 0u;
 591              		.loc 1 1290 0
 592 000a 084B     		ldr	r3, .L27
 593 000c 0022     		mov	r2, #0
 594 000e 1A70     		strb	r2, [r3]
1291:Generated_Source\PSoC4/BLE_1_eventHandler.c ****     
1292:Generated_Source\PSoC4/BLE_1_eventHandler.c ****     #if (CYBLE_GATT_ROLE_CLIENT)
1293:Generated_Source\PSoC4/BLE_1_eventHandler.c ****         if(CyBle_GetClientState() == CYBLE_CLIENT_STATE_DISCOVERED)
 595              		.loc 1 1293 0
 596 0010 074B     		ldr	r3, .L27+4
 597 0012 1B78     		ldrb	r3, [r3]
 598 0014 052B     		cmp	r3, #5
 599 0016 03D1     		bne	.L25
1294:Generated_Source\PSoC4/BLE_1_eventHandler.c ****         {
1295:Generated_Source\PSoC4/BLE_1_eventHandler.c ****             CyBle_SetClientState(CYBLE_CLIENT_STATE_DISCONNECTED_DISCOVERED);
 600              		.loc 1 1295 0
 601 0018 054B     		ldr	r3, .L27+4
 602 001a 0722     		mov	r2, #7
 603 001c 1A70     		strb	r2, [r3]
 604 001e 02E0     		b	.L24
 605              	.L25:
1296:Generated_Source\PSoC4/BLE_1_eventHandler.c ****         }
1297:Generated_Source\PSoC4/BLE_1_eventHandler.c ****         else
1298:Generated_Source\PSoC4/BLE_1_eventHandler.c ****         {
1299:Generated_Source\PSoC4/BLE_1_eventHandler.c ****             CyBle_SetClientState(CYBLE_CLIENT_STATE_DISCONNECTED);
 606              		.loc 1 1299 0
 607 0020 034B     		ldr	r3, .L27+4
 608 0022 0822     		mov	r2, #8
 609 0024 1A70     		strb	r2, [r3]
 610              	.L24:
1300:Generated_Source\PSoC4/BLE_1_eventHandler.c ****         }
1301:Generated_Source\PSoC4/BLE_1_eventHandler.c ****     #endif /* CYBLE_GATT_ROLE_CLIENT */
1302:Generated_Source\PSoC4/BLE_1_eventHandler.c ****         
1303:Generated_Source\PSoC4/BLE_1_eventHandler.c ****     #ifdef CYBLE_CPS_SERVER
1304:Generated_Source\PSoC4/BLE_1_eventHandler.c ****         #if CYBLE_GAP_ROLE_BROADCASTER
1305:Generated_Source\PSoC4/BLE_1_eventHandler.c ****             CyBle_CpssDisconnectEventHandler();
1306:Generated_Source\PSoC4/BLE_1_eventHandler.c ****         #endif /* CYBLE_GAP_ROLE_BROADCASTER */
1307:Generated_Source\PSoC4/BLE_1_eventHandler.c ****     #endif /* CYBLE_CPS_SERVER */
1308:Generated_Source\PSoC4/BLE_1_eventHandler.c **** 
1309:Generated_Source\PSoC4/BLE_1_eventHandler.c ****     #ifdef CYBLE_CPS_CLIENT
1310:Generated_Source\PSoC4/BLE_1_eventHandler.c ****         CyBle_CpscDisconnectEventHandler();
1311:Generated_Source\PSoC4/BLE_1_eventHandler.c ****     #endif /* CYBLE_CPS_CLIENT */
1312:Generated_Source\PSoC4/BLE_1_eventHandler.c **** 
1313:Generated_Source\PSoC4/BLE_1_eventHandler.c ****     #ifdef CYBLE_IAS_SERVER
1314:Generated_Source\PSoC4/BLE_1_eventHandler.c ****         CyBle_IassDisconnectEventHandler();
1315:Generated_Source\PSoC4/BLE_1_eventHandler.c ****     #endif /* CYBLE_IAS_SERVER */
1316:Generated_Source\PSoC4/BLE_1_eventHandler.c ****     
1317:Generated_Source\PSoC4/BLE_1_eventHandler.c ****     #ifdef CYBLE_GLS_SERVER
1318:Generated_Source\PSoC4/BLE_1_eventHandler.c ****         CyBle_GlsInit();
1319:Generated_Source\PSoC4/BLE_1_eventHandler.c ****     #endif /* CYBLE_GLS_SERVER */
1320:Generated_Source\PSoC4/BLE_1_eventHandler.c ****     
1321:Generated_Source\PSoC4/BLE_1_eventHandler.c ****     #ifdef CYBLE_LNS_SERVER
1322:Generated_Source\PSoC4/BLE_1_eventHandler.c ****         CyBle_LnsInit();
ARM GAS  C:\Users\Sarah\AppData\Local\Temp\ccqSJLdk.s 			page 35


1323:Generated_Source\PSoC4/BLE_1_eventHandler.c ****     #endif /* CYBLE_LNS_SERVER */
1324:Generated_Source\PSoC4/BLE_1_eventHandler.c ****     
1325:Generated_Source\PSoC4/BLE_1_eventHandler.c ****     #ifdef CYBLE_UDS_SERVER
1326:Generated_Source\PSoC4/BLE_1_eventHandler.c ****         CyBle_UdsInit();
1327:Generated_Source\PSoC4/BLE_1_eventHandler.c ****     #endif /* CYBLE_UDS_SERVER */
1328:Generated_Source\PSoC4/BLE_1_eventHandler.c **** }
 611              		.loc 1 1328 0
 612 0026 BD46     		mov	sp, r7
 613              		@ sp needed
 614 0028 80BD     		pop	{r7, pc}
 615              	.L28:
 616 002a C046     		.align	2
 617              	.L27:
 618 002c 00000000 		.word	cyBle_connHandle
 619 0030 00000000 		.word	cyBle_clientState
 620              		.cfi_endproc
 621              	.LFE9:
 622              		.size	CyBle_GattDisconnectEventHandler, .-CyBle_GattDisconnectEventHandler
 623              		.section	.text.CyBle_TimeOutEventHandler,"ax",%progbits
 624              		.align	2
 625              		.code	16
 626              		.thumb_func
 627              		.type	CyBle_TimeOutEventHandler, %function
 628              	CyBle_TimeOutEventHandler:
 629              	.LFB10:
1329:Generated_Source\PSoC4/BLE_1_eventHandler.c **** 
1330:Generated_Source\PSoC4/BLE_1_eventHandler.c **** 
1331:Generated_Source\PSoC4/BLE_1_eventHandler.c **** /****************************************************************************** 
1332:Generated_Source\PSoC4/BLE_1_eventHandler.c **** * Function Name: CyBle_TimeOutEventHandler
1333:Generated_Source\PSoC4/BLE_1_eventHandler.c **** ***************************************************************************//**
1334:Generated_Source\PSoC4/BLE_1_eventHandler.c **** * 
1335:Generated_Source\PSoC4/BLE_1_eventHandler.c **** *  Handles the CYBLE_EVT_TIMEOUT event from the BLE stack.
1336:Generated_Source\PSoC4/BLE_1_eventHandler.c **** * 
1337:Generated_Source\PSoC4/BLE_1_eventHandler.c **** *  \param eventParam: The pointer to a structure of type CYBLE_TO_REASON_CODE_T.
1338:Generated_Source\PSoC4/BLE_1_eventHandler.c **** * 
1339:Generated_Source\PSoC4/BLE_1_eventHandler.c **** * \return
1340:Generated_Source\PSoC4/BLE_1_eventHandler.c **** *  None
1341:Generated_Source\PSoC4/BLE_1_eventHandler.c **** * 
1342:Generated_Source\PSoC4/BLE_1_eventHandler.c **** ******************************************************************************/
1343:Generated_Source\PSoC4/BLE_1_eventHandler.c **** static void CyBle_TimeOutEventHandler(const CYBLE_TO_REASON_CODE_T *eventParam)
1344:Generated_Source\PSoC4/BLE_1_eventHandler.c **** {
 630              		.loc 1 1344 0
 631              		.cfi_startproc
 632 0000 80B5     		push	{r7, lr}
 633              		.cfi_def_cfa_offset 8
 634              		.cfi_offset 7, -8
 635              		.cfi_offset 14, -4
 636 0002 82B0     		sub	sp, sp, #8
 637              		.cfi_def_cfa_offset 16
 638 0004 00AF     		add	r7, sp, #0
 639              		.cfi_def_cfa_register 7
 640 0006 7860     		str	r0, [r7, #4]
1345:Generated_Source\PSoC4/BLE_1_eventHandler.c ****     if(*eventParam == CYBLE_GATT_RSP_TO)
 641              		.loc 1 1345 0
 642 0008 7B68     		ldr	r3, [r7, #4]
 643 000a 1B78     		ldrb	r3, [r3]
 644 000c 032B     		cmp	r3, #3
ARM GAS  C:\Users\Sarah\AppData\Local\Temp\ccqSJLdk.s 			page 36


 645 000e 3ED1     		bne	.L30
1346:Generated_Source\PSoC4/BLE_1_eventHandler.c ****     {
1347:Generated_Source\PSoC4/BLE_1_eventHandler.c ****     #if (CYBLE_GATT_ROLE_CLIENT)
1348:Generated_Source\PSoC4/BLE_1_eventHandler.c ****         if((cyBle_eventHandlerFlag & CYBLE_AUTO_DISCOVERY) != 0u)
 646              		.loc 1 1348 0
 647 0010 254B     		ldr	r3, .L39
 648 0012 1B78     		ldrb	r3, [r3]
 649 0014 DBB2     		uxtb	r3, r3
 650 0016 1A1C     		mov	r2, r3
 651 0018 0223     		mov	r3, #2
 652 001a 1340     		and	r3, r2
 653 001c 37D0     		beq	.L30
1349:Generated_Source\PSoC4/BLE_1_eventHandler.c ****         {
1350:Generated_Source\PSoC4/BLE_1_eventHandler.c ****             switch(CyBle_GetClientState())
 654              		.loc 1 1350 0
 655 001e 234B     		ldr	r3, .L39+4
 656 0020 1B78     		ldrb	r3, [r3]
 657 0022 022B     		cmp	r3, #2
 658 0024 10D0     		beq	.L32
 659 0026 02DC     		bgt	.L33
 660 0028 012B     		cmp	r3, #1
 661 002a 05D0     		beq	.L34
1351:Generated_Source\PSoC4/BLE_1_eventHandler.c ****             {
1352:Generated_Source\PSoC4/BLE_1_eventHandler.c ****                 case CYBLE_CLIENT_STATE_SRVC_DISCOVERING:
1353:Generated_Source\PSoC4/BLE_1_eventHandler.c ****                     CyBle_ApplCallback(CYBLE_EVT_GATTC_SRVC_DISCOVERY_FAILED, NULL);
1354:Generated_Source\PSoC4/BLE_1_eventHandler.c ****                     break;
1355:Generated_Source\PSoC4/BLE_1_eventHandler.c ****                 case CYBLE_CLIENT_STATE_INCL_DISCOVERING:
1356:Generated_Source\PSoC4/BLE_1_eventHandler.c ****                     CyBle_ApplCallback(CYBLE_EVT_GATTC_INCL_DISCOVERY_FAILED, NULL);
1357:Generated_Source\PSoC4/BLE_1_eventHandler.c ****                     break;
1358:Generated_Source\PSoC4/BLE_1_eventHandler.c ****                 case CYBLE_CLIENT_STATE_CHAR_DISCOVERING:
1359:Generated_Source\PSoC4/BLE_1_eventHandler.c ****                     CyBle_ApplCallback(CYBLE_EVT_GATTC_CHAR_DISCOVERY_FAILED, NULL);
1360:Generated_Source\PSoC4/BLE_1_eventHandler.c ****                     break;
1361:Generated_Source\PSoC4/BLE_1_eventHandler.c ****                 case CYBLE_CLIENT_STATE_DESCR_DISCOVERING:
1362:Generated_Source\PSoC4/BLE_1_eventHandler.c ****                     CyBle_ApplCallback(CYBLE_EVT_GATTC_DESCR_DISCOVERY_FAILED, NULL);
1363:Generated_Source\PSoC4/BLE_1_eventHandler.c ****                     break;
1364:Generated_Source\PSoC4/BLE_1_eventHandler.c ****                 default:        /* Other states should not be set in Auto discovery mode */
1365:Generated_Source\PSoC4/BLE_1_eventHandler.c ****                     break;
 662              		.loc 1 1365 0
 663 002c 24E0     		b	.L37
 664              	.L33:
1350:Generated_Source\PSoC4/BLE_1_eventHandler.c ****             {
 665              		.loc 1 1350 0
 666 002e 032B     		cmp	r3, #3
 667 0030 12D0     		beq	.L35
 668 0032 042B     		cmp	r3, #4
 669 0034 18D0     		beq	.L36
 670              		.loc 1 1365 0
 671 0036 1FE0     		b	.L37
 672              	.L34:
1353:Generated_Source\PSoC4/BLE_1_eventHandler.c ****                     break;
 673              		.loc 1 1353 0
 674 0038 1D4B     		ldr	r3, .L39+8
 675 003a 1B68     		ldr	r3, [r3]
 676 003c 0822     		mov	r2, #8
 677 003e FF32     		add	r2, r2, #255
 678 0040 101C     		mov	r0, r2
 679 0042 0021     		mov	r1, #0
ARM GAS  C:\Users\Sarah\AppData\Local\Temp\ccqSJLdk.s 			page 37


 680 0044 9847     		blx	r3
1354:Generated_Source\PSoC4/BLE_1_eventHandler.c ****                 case CYBLE_CLIENT_STATE_INCL_DISCOVERING:
 681              		.loc 1 1354 0
 682 0046 17E0     		b	.L37
 683              	.L32:
1356:Generated_Source\PSoC4/BLE_1_eventHandler.c ****                     break;
 684              		.loc 1 1356 0
 685 0048 194B     		ldr	r3, .L39+8
 686 004a 1B68     		ldr	r3, [r3]
 687 004c 8422     		mov	r2, #132
 688 004e 5200     		lsl	r2, r2, #1
 689 0050 101C     		mov	r0, r2
 690 0052 0021     		mov	r1, #0
 691 0054 9847     		blx	r3
1357:Generated_Source\PSoC4/BLE_1_eventHandler.c ****                 case CYBLE_CLIENT_STATE_CHAR_DISCOVERING:
 692              		.loc 1 1357 0
 693 0056 0FE0     		b	.L37
 694              	.L35:
1359:Generated_Source\PSoC4/BLE_1_eventHandler.c ****                     break;
 695              		.loc 1 1359 0
 696 0058 154B     		ldr	r3, .L39+8
 697 005a 1B68     		ldr	r3, [r3]
 698 005c 0A22     		mov	r2, #10
 699 005e FF32     		add	r2, r2, #255
 700 0060 101C     		mov	r0, r2
 701 0062 0021     		mov	r1, #0
 702 0064 9847     		blx	r3
1360:Generated_Source\PSoC4/BLE_1_eventHandler.c ****                 case CYBLE_CLIENT_STATE_DESCR_DISCOVERING:
 703              		.loc 1 1360 0
 704 0066 07E0     		b	.L37
 705              	.L36:
1362:Generated_Source\PSoC4/BLE_1_eventHandler.c ****                     break;
 706              		.loc 1 1362 0
 707 0068 114B     		ldr	r3, .L39+8
 708 006a 1B68     		ldr	r3, [r3]
 709 006c 8522     		mov	r2, #133
 710 006e 5200     		lsl	r2, r2, #1
 711 0070 101C     		mov	r0, r2
 712 0072 0021     		mov	r1, #0
 713 0074 9847     		blx	r3
1363:Generated_Source\PSoC4/BLE_1_eventHandler.c ****                 default:        /* Other states should not be set in Auto discovery mode */
 714              		.loc 1 1363 0
 715 0076 C046     		mov	r8, r8
 716              	.L37:
1366:Generated_Source\PSoC4/BLE_1_eventHandler.c ****             }
1367:Generated_Source\PSoC4/BLE_1_eventHandler.c ****             cyBle_eventHandlerFlag &= (uint8)~CYBLE_AUTO_DISCOVERY;
 717              		.loc 1 1367 0
 718 0078 0B4B     		ldr	r3, .L39
 719 007a 1B78     		ldrb	r3, [r3]
 720 007c DBB2     		uxtb	r3, r3
 721 007e 0222     		mov	r2, #2
 722 0080 9343     		bic	r3, r2
 723 0082 DAB2     		uxtb	r2, r3
 724 0084 084B     		ldr	r3, .L39
 725 0086 1A70     		strb	r2, [r3]
1368:Generated_Source\PSoC4/BLE_1_eventHandler.c ****             CyBle_SetClientState(CYBLE_CLIENT_STATE_CONNECTED);
 726              		.loc 1 1368 0
ARM GAS  C:\Users\Sarah\AppData\Local\Temp\ccqSJLdk.s 			page 38


 727 0088 084B     		ldr	r3, .L39+4
 728 008a 0022     		mov	r2, #0
 729 008c 1A70     		strb	r2, [r3]
 730              	.L30:
1369:Generated_Source\PSoC4/BLE_1_eventHandler.c ****         }
1370:Generated_Source\PSoC4/BLE_1_eventHandler.c ****     #endif /* CYBLE_GATT_ROLE_CLIENT */
1371:Generated_Source\PSoC4/BLE_1_eventHandler.c ****     #ifdef CYBLE_CPS_SERVER
1372:Generated_Source\PSoC4/BLE_1_eventHandler.c ****         CyBle_CpssTimeOutEventHandler();
1373:Generated_Source\PSoC4/BLE_1_eventHandler.c ****     #endif /* CYBLE_CPS_SERVER */
1374:Generated_Source\PSoC4/BLE_1_eventHandler.c ****     }
1375:Generated_Source\PSoC4/BLE_1_eventHandler.c ****     
1376:Generated_Source\PSoC4/BLE_1_eventHandler.c ****     /* Connection procedure timeout */
1377:Generated_Source\PSoC4/BLE_1_eventHandler.c ****     if(*eventParam == CYBLE_GENERIC_TO)
 731              		.loc 1 1377 0
 732 008e 7B68     		ldr	r3, [r7, #4]
 733 0090 1B78     		ldrb	r3, [r3]
 734 0092 042B     		cmp	r3, #4
 735 0094 05D1     		bne	.L29
1378:Generated_Source\PSoC4/BLE_1_eventHandler.c ****     {
1379:Generated_Source\PSoC4/BLE_1_eventHandler.c ****     #if(CYBLE_GAP_ROLE_CENTRAL)
1380:Generated_Source\PSoC4/BLE_1_eventHandler.c ****         if(CyBle_GetState() == CYBLE_STATE_CONNECTING)
 736              		.loc 1 1380 0
 737 0096 074B     		ldr	r3, .L39+12
 738 0098 1B78     		ldrb	r3, [r3]
 739 009a 042B     		cmp	r3, #4
 740 009c 01D1     		bne	.L29
1381:Generated_Source\PSoC4/BLE_1_eventHandler.c ****         {
1382:Generated_Source\PSoC4/BLE_1_eventHandler.c ****             (void)CyBle_GapcCancelDeviceConnection();
 741              		.loc 1 1382 0
 742 009e FFF7FEFF 		bl	CyBle_GapcCancelDeviceConnection
 743              	.L29:
1383:Generated_Source\PSoC4/BLE_1_eventHandler.c ****         }
1384:Generated_Source\PSoC4/BLE_1_eventHandler.c ****     #endif /* CYBLE_GAP_ROLE_CENTRAL */
1385:Generated_Source\PSoC4/BLE_1_eventHandler.c ****     }
1386:Generated_Source\PSoC4/BLE_1_eventHandler.c **** }
 744              		.loc 1 1386 0
 745 00a2 BD46     		mov	sp, r7
 746 00a4 02B0     		add	sp, sp, #8
 747              		@ sp needed
 748 00a6 80BD     		pop	{r7, pc}
 749              	.L40:
 750              		.align	2
 751              	.L39:
 752 00a8 00000000 		.word	cyBle_eventHandlerFlag
 753 00ac 00000000 		.word	cyBle_clientState
 754 00b0 00000000 		.word	CyBle_ApplCallback
 755 00b4 00000000 		.word	cyBle_state
 756              		.cfi_endproc
 757              	.LFE10:
 758              		.size	CyBle_TimeOutEventHandler, .-CyBle_TimeOutEventHandler
 759              		.section	.text.CyBle_GattConnectReqHandler,"ax",%progbits
 760              		.align	2
 761              		.code	16
 762              		.thumb_func
 763              		.type	CyBle_GattConnectReqHandler, %function
 764              	CyBle_GattConnectReqHandler:
 765              	.LFB11:
ARM GAS  C:\Users\Sarah\AppData\Local\Temp\ccqSJLdk.s 			page 39


1387:Generated_Source\PSoC4/BLE_1_eventHandler.c **** 
1388:Generated_Source\PSoC4/BLE_1_eventHandler.c **** 
1389:Generated_Source\PSoC4/BLE_1_eventHandler.c **** /****************************************************************************** 
1390:Generated_Source\PSoC4/BLE_1_eventHandler.c **** * Function Name: CyBle_GattConnectReqHandler
1391:Generated_Source\PSoC4/BLE_1_eventHandler.c **** ***************************************************************************//**
1392:Generated_Source\PSoC4/BLE_1_eventHandler.c **** * 
1393:Generated_Source\PSoC4/BLE_1_eventHandler.c **** *  Handles the GATT connect event from the BLE stack.
1394:Generated_Source\PSoC4/BLE_1_eventHandler.c **** * 
1395:Generated_Source\PSoC4/BLE_1_eventHandler.c **** * \return
1396:Generated_Source\PSoC4/BLE_1_eventHandler.c **** *  None
1397:Generated_Source\PSoC4/BLE_1_eventHandler.c **** * 
1398:Generated_Source\PSoC4/BLE_1_eventHandler.c **** ******************************************************************************/
1399:Generated_Source\PSoC4/BLE_1_eventHandler.c **** static void CyBle_GattConnectReqHandler(void)
1400:Generated_Source\PSoC4/BLE_1_eventHandler.c **** {
 766              		.loc 1 1400 0
 767              		.cfi_startproc
 768 0000 80B5     		push	{r7, lr}
 769              		.cfi_def_cfa_offset 8
 770              		.cfi_offset 7, -8
 771              		.cfi_offset 14, -4
 772 0002 00AF     		add	r7, sp, #0
 773              		.cfi_def_cfa_register 7
1401:Generated_Source\PSoC4/BLE_1_eventHandler.c ****     #ifdef CYBLE_CGMS_SERVER
1402:Generated_Source\PSoC4/BLE_1_eventHandler.c ****         CyBle_CgmsInit();
1403:Generated_Source\PSoC4/BLE_1_eventHandler.c ****     #endif /* CYBLE_CGMS_SERVER */
1404:Generated_Source\PSoC4/BLE_1_eventHandler.c ****     
1405:Generated_Source\PSoC4/BLE_1_eventHandler.c ****     #ifdef CYBLE_CPS_SERVER
1406:Generated_Source\PSoC4/BLE_1_eventHandler.c ****         CyBle_CpssConnectEventHandler();
1407:Generated_Source\PSoC4/BLE_1_eventHandler.c ****     #endif /* CYBLE_CPS_SERVER */
1408:Generated_Source\PSoC4/BLE_1_eventHandler.c ****     
1409:Generated_Source\PSoC4/BLE_1_eventHandler.c ****     #ifdef CYBLE_CSCS_SERVER
1410:Generated_Source\PSoC4/BLE_1_eventHandler.c ****             CyBle_CscsInit();
1411:Generated_Source\PSoC4/BLE_1_eventHandler.c ****     #endif /* CYBLE_CSCS_SERVER */
1412:Generated_Source\PSoC4/BLE_1_eventHandler.c ****     
1413:Generated_Source\PSoC4/BLE_1_eventHandler.c ****     #ifdef CYBLE_LLS_SERVER
1414:Generated_Source\PSoC4/BLE_1_eventHandler.c ****         CyBle_LlssConnectEventHandler();
1415:Generated_Source\PSoC4/BLE_1_eventHandler.c ****     #endif /* CYBLE_LLS_SERVER */
1416:Generated_Source\PSoC4/BLE_1_eventHandler.c ****     
1417:Generated_Source\PSoC4/BLE_1_eventHandler.c ****     #ifdef CYBLE_HIDS_SERVER
1418:Generated_Source\PSoC4/BLE_1_eventHandler.c ****         CyBle_HidssOnDeviceConnected();
1419:Generated_Source\PSoC4/BLE_1_eventHandler.c ****     #endif /* CYBLE_HIDS_SERVER */
1420:Generated_Source\PSoC4/BLE_1_eventHandler.c **** 
1421:Generated_Source\PSoC4/BLE_1_eventHandler.c ****     #ifdef CYBLE_RSCS_SERVER
1422:Generated_Source\PSoC4/BLE_1_eventHandler.c ****         CyBle_RscsInit();
1423:Generated_Source\PSoC4/BLE_1_eventHandler.c ****     #endif /* CYBLE_RSCS_SERVER */
1424:Generated_Source\PSoC4/BLE_1_eventHandler.c **** }
 774              		.loc 1 1424 0
 775 0004 BD46     		mov	sp, r7
 776              		@ sp needed
 777 0006 80BD     		pop	{r7, pc}
 778              		.cfi_endproc
 779              	.LFE11:
 780              		.size	CyBle_GattConnectReqHandler, .-CyBle_GattConnectReqHandler
 781              		.section	.text.CyBle_IsDeviceAddressValid,"ax",%progbits
 782              		.align	2
 783              		.global	CyBle_IsDeviceAddressValid
 784              		.code	16
ARM GAS  C:\Users\Sarah\AppData\Local\Temp\ccqSJLdk.s 			page 40


 785              		.thumb_func
 786              		.type	CyBle_IsDeviceAddressValid, %function
 787              	CyBle_IsDeviceAddressValid:
 788              	.LFB12:
1425:Generated_Source\PSoC4/BLE_1_eventHandler.c **** 
1426:Generated_Source\PSoC4/BLE_1_eventHandler.c **** 
1427:Generated_Source\PSoC4/BLE_1_eventHandler.c **** #if (CYBLE_GATT_ROLE_SERVER || CYBLE_GATT_ROLE_CLIENT)
1428:Generated_Source\PSoC4/BLE_1_eventHandler.c **** 
1429:Generated_Source\PSoC4/BLE_1_eventHandler.c **** /****************************************************************************** 
1430:Generated_Source\PSoC4/BLE_1_eventHandler.c **** * Function Name: CyBle_IsDeviceAddressValid
1431:Generated_Source\PSoC4/BLE_1_eventHandler.c **** ***************************************************************************//**
1432:Generated_Source\PSoC4/BLE_1_eventHandler.c **** * 
1433:Generated_Source\PSoC4/BLE_1_eventHandler.c **** *  This function verifies that BLE public address has been programmed to SFLASH 
1434:Generated_Source\PSoC4/BLE_1_eventHandler.c **** *  during manufacture. It could be used to verify if public device address is 
1435:Generated_Source\PSoC4/BLE_1_eventHandler.c **** *  programmed to flash memory.
1436:Generated_Source\PSoC4/BLE_1_eventHandler.c **** * 
1437:Generated_Source\PSoC4/BLE_1_eventHandler.c **** *  \param deviceAddress: the pointer to the BD address of type CYBLE_GAP_BD_ADDR_T. 
1438:Generated_Source\PSoC4/BLE_1_eventHandler.c **** * 
1439:Generated_Source\PSoC4/BLE_1_eventHandler.c **** * \return
1440:Generated_Source\PSoC4/BLE_1_eventHandler.c **** *  Non zero value when a device address differs from the default SFLASH content.
1441:Generated_Source\PSoC4/BLE_1_eventHandler.c **** * 
1442:Generated_Source\PSoC4/BLE_1_eventHandler.c **** ******************************************************************************/
1443:Generated_Source\PSoC4/BLE_1_eventHandler.c **** uint8 CyBle_IsDeviceAddressValid(const CYBLE_GAP_BD_ADDR_T *deviceAddress)
1444:Generated_Source\PSoC4/BLE_1_eventHandler.c **** {
 789              		.loc 1 1444 0
 790              		.cfi_startproc
 791 0000 80B5     		push	{r7, lr}
 792              		.cfi_def_cfa_offset 8
 793              		.cfi_offset 7, -8
 794              		.cfi_offset 14, -4
 795 0002 84B0     		sub	sp, sp, #16
 796              		.cfi_def_cfa_offset 24
 797 0004 00AF     		add	r7, sp, #0
 798              		.cfi_def_cfa_register 7
 799 0006 7860     		str	r0, [r7, #4]
1445:Generated_Source\PSoC4/BLE_1_eventHandler.c ****     uint8 i;
1446:Generated_Source\PSoC4/BLE_1_eventHandler.c ****     uint8 addressValid = 0u;
 800              		.loc 1 1446 0
 801 0008 0E23     		mov	r3, #14
 802 000a FB18     		add	r3, r7, r3
 803 000c 0022     		mov	r2, #0
 804 000e 1A70     		strb	r2, [r3]
1447:Generated_Source\PSoC4/BLE_1_eventHandler.c ****     
1448:Generated_Source\PSoC4/BLE_1_eventHandler.c ****     if(deviceAddress -> type == CYBLE_GAP_ADDR_TYPE_PUBLIC)  
 805              		.loc 1 1448 0
 806 0010 7B68     		ldr	r3, [r7, #4]
 807 0012 9B79     		ldrb	r3, [r3, #6]
 808 0014 002B     		cmp	r3, #0
 809 0016 1CD1     		bne	.L43
1449:Generated_Source\PSoC4/BLE_1_eventHandler.c ****     {
1450:Generated_Source\PSoC4/BLE_1_eventHandler.c ****         for(i = 0u; i < CYBLE_GAP_BD_ADDR_SIZE; i++)
 810              		.loc 1 1450 0
 811 0018 0F23     		mov	r3, #15
 812 001a FB18     		add	r3, r7, r3
 813 001c 0022     		mov	r2, #0
 814 001e 1A70     		strb	r2, [r3]
 815 0020 12E0     		b	.L44
ARM GAS  C:\Users\Sarah\AppData\Local\Temp\ccqSJLdk.s 			page 41


 816              	.L46:
1451:Generated_Source\PSoC4/BLE_1_eventHandler.c ****         {
1452:Generated_Source\PSoC4/BLE_1_eventHandler.c ****             if(deviceAddress->bdAddr[i] != 0u)
 817              		.loc 1 1452 0
 818 0022 0F23     		mov	r3, #15
 819 0024 FB18     		add	r3, r7, r3
 820 0026 1B78     		ldrb	r3, [r3]
 821 0028 7A68     		ldr	r2, [r7, #4]
 822 002a D35C     		ldrb	r3, [r2, r3]
 823 002c 002B     		cmp	r3, #0
 824 002e 04D0     		beq	.L45
1453:Generated_Source\PSoC4/BLE_1_eventHandler.c ****             {
1454:Generated_Source\PSoC4/BLE_1_eventHandler.c ****                 addressValid = 1u;
 825              		.loc 1 1454 0
 826 0030 0E23     		mov	r3, #14
 827 0032 FB18     		add	r3, r7, r3
 828 0034 0122     		mov	r2, #1
 829 0036 1A70     		strb	r2, [r3]
1455:Generated_Source\PSoC4/BLE_1_eventHandler.c ****                 break;
 830              		.loc 1 1455 0
 831 0038 0BE0     		b	.L43
 832              	.L45:
1450:Generated_Source\PSoC4/BLE_1_eventHandler.c ****         {
 833              		.loc 1 1450 0 discriminator 2
 834 003a 0F23     		mov	r3, #15
 835 003c FB18     		add	r3, r7, r3
 836 003e 1A78     		ldrb	r2, [r3]
 837 0040 0F23     		mov	r3, #15
 838 0042 FB18     		add	r3, r7, r3
 839 0044 0132     		add	r2, r2, #1
 840 0046 1A70     		strb	r2, [r3]
 841              	.L44:
1450:Generated_Source\PSoC4/BLE_1_eventHandler.c ****         {
 842              		.loc 1 1450 0 is_stmt 0 discriminator 1
 843 0048 0F23     		mov	r3, #15
 844 004a FB18     		add	r3, r7, r3
 845 004c 1B78     		ldrb	r3, [r3]
 846 004e 052B     		cmp	r3, #5
 847 0050 E7D9     		bls	.L46
 848              	.L43:
1456:Generated_Source\PSoC4/BLE_1_eventHandler.c ****             }
1457:Generated_Source\PSoC4/BLE_1_eventHandler.c ****         }
1458:Generated_Source\PSoC4/BLE_1_eventHandler.c ****     }
1459:Generated_Source\PSoC4/BLE_1_eventHandler.c ****     return (addressValid);
 849              		.loc 1 1459 0 is_stmt 1
 850 0052 0E23     		mov	r3, #14
 851 0054 FB18     		add	r3, r7, r3
 852 0056 1B78     		ldrb	r3, [r3]
1460:Generated_Source\PSoC4/BLE_1_eventHandler.c **** }
 853              		.loc 1 1460 0
 854 0058 181C     		mov	r0, r3
 855 005a BD46     		mov	sp, r7
 856 005c 04B0     		add	sp, sp, #16
 857              		@ sp needed
 858 005e 80BD     		pop	{r7, pc}
 859              		.cfi_endproc
 860              	.LFE12:
ARM GAS  C:\Users\Sarah\AppData\Local\Temp\ccqSJLdk.s 			page 42


 861              		.size	CyBle_IsDeviceAddressValid, .-CyBle_IsDeviceAddressValid
 862              		.section	.text.CyBle_L2Cap_ConnParamUpdateRspEventHandler,"ax",%progbits
 863              		.align	2
 864              		.code	16
 865              		.thumb_func
 866              		.type	CyBle_L2Cap_ConnParamUpdateRspEventHandler, %function
 867              	CyBle_L2Cap_ConnParamUpdateRspEventHandler:
 868              	.LFB13:
1461:Generated_Source\PSoC4/BLE_1_eventHandler.c **** #endif /* CYBLE_GATT_ROLE_SERVER || CYBLE_GATT_ROLE_CLIENT */
1462:Generated_Source\PSoC4/BLE_1_eventHandler.c **** 
1463:Generated_Source\PSoC4/BLE_1_eventHandler.c **** 
1464:Generated_Source\PSoC4/BLE_1_eventHandler.c **** /****************************************************************************** 
1465:Generated_Source\PSoC4/BLE_1_eventHandler.c **** * Function Name: CyBle_L2Cap_ConnParamUpdateRspHandler
1466:Generated_Source\PSoC4/BLE_1_eventHandler.c **** ***************************************************************************//**
1467:Generated_Source\PSoC4/BLE_1_eventHandler.c **** * 
1468:Generated_Source\PSoC4/BLE_1_eventHandler.c **** *  Handles the L2CAP connection parameter response event from
1469:Generated_Source\PSoC4/BLE_1_eventHandler.c **** *  the BLE stack.
1470:Generated_Source\PSoC4/BLE_1_eventHandler.c **** * 
1471:Generated_Source\PSoC4/BLE_1_eventHandler.c **** *  \param response:
1472:Generated_Source\PSoC4/BLE_1_eventHandler.c **** *      * Accepted = 0x0000
1473:Generated_Source\PSoC4/BLE_1_eventHandler.c **** *      * Rejected = 0x0001
1474:Generated_Source\PSoC4/BLE_1_eventHandler.c **** * 
1475:Generated_Source\PSoC4/BLE_1_eventHandler.c **** * \return
1476:Generated_Source\PSoC4/BLE_1_eventHandler.c **** *  None
1477:Generated_Source\PSoC4/BLE_1_eventHandler.c **** * 
1478:Generated_Source\PSoC4/BLE_1_eventHandler.c **** ******************************************************************************/
1479:Generated_Source\PSoC4/BLE_1_eventHandler.c **** static void CyBle_L2Cap_ConnParamUpdateRspEventHandler(uint16 response)
1480:Generated_Source\PSoC4/BLE_1_eventHandler.c **** {
 869              		.loc 1 1480 0
 870              		.cfi_startproc
 871 0000 80B5     		push	{r7, lr}
 872              		.cfi_def_cfa_offset 8
 873              		.cfi_offset 7, -8
 874              		.cfi_offset 14, -4
 875 0002 82B0     		sub	sp, sp, #8
 876              		.cfi_def_cfa_offset 16
 877 0004 00AF     		add	r7, sp, #0
 878              		.cfi_def_cfa_register 7
 879 0006 021C     		mov	r2, r0
 880 0008 BB1D     		add	r3, r7, #6
 881 000a 1A80     		strh	r2, [r3]
1481:Generated_Source\PSoC4/BLE_1_eventHandler.c ****     #ifdef CYBLE_CPS_SERVER
1482:Generated_Source\PSoC4/BLE_1_eventHandler.c ****         CyBle_CpssConnParamUpdateRspEventHandler(response);
1483:Generated_Source\PSoC4/BLE_1_eventHandler.c ****     #endif /* CYBLE_CPS_SERVER */
1484:Generated_Source\PSoC4/BLE_1_eventHandler.c ****     
1485:Generated_Source\PSoC4/BLE_1_eventHandler.c ****     /* Unreferenced variable warning workaround */
1486:Generated_Source\PSoC4/BLE_1_eventHandler.c ****     if(response != 0u)
1487:Generated_Source\PSoC4/BLE_1_eventHandler.c ****     {
1488:Generated_Source\PSoC4/BLE_1_eventHandler.c ****     }
1489:Generated_Source\PSoC4/BLE_1_eventHandler.c **** }
 882              		.loc 1 1489 0
 883 000c BD46     		mov	sp, r7
 884 000e 02B0     		add	sp, sp, #8
 885              		@ sp needed
 886 0010 80BD     		pop	{r7, pc}
 887              		.cfi_endproc
 888              	.LFE13:
ARM GAS  C:\Users\Sarah\AppData\Local\Temp\ccqSJLdk.s 			page 43


 889              		.size	CyBle_L2Cap_ConnParamUpdateRspEventHandler, .-CyBle_L2Cap_ConnParamUpdateRspEventHandler
 890 0012 C046     		.section	.text.CyBle_GapConnUpdateCompleteEventHandler,"ax",%progbits
 891              		.align	2
 892              		.code	16
 893              		.thumb_func
 894              		.type	CyBle_GapConnUpdateCompleteEventHandler, %function
 895              	CyBle_GapConnUpdateCompleteEventHandler:
 896              	.LFB14:
1490:Generated_Source\PSoC4/BLE_1_eventHandler.c **** 
1491:Generated_Source\PSoC4/BLE_1_eventHandler.c **** 
1492:Generated_Source\PSoC4/BLE_1_eventHandler.c **** /****************************************************************************** 
1493:Generated_Source\PSoC4/BLE_1_eventHandler.c **** * Function Name: CyBle_GapConnUpdateCompleteEventHandler
1494:Generated_Source\PSoC4/BLE_1_eventHandler.c **** ***************************************************************************//**
1495:Generated_Source\PSoC4/BLE_1_eventHandler.c **** * 
1496:Generated_Source\PSoC4/BLE_1_eventHandler.c **** *  Handles the CYBLE_EVT_GAP_CONNECTION_UPDATE_COMPLETE event from
1497:Generated_Source\PSoC4/BLE_1_eventHandler.c **** *  the BLE stack.
1498:Generated_Source\PSoC4/BLE_1_eventHandler.c **** * 
1499:Generated_Source\PSoC4/BLE_1_eventHandler.c **** *  \param eventParam: The pointer to the data structure specified by the event.
1500:Generated_Source\PSoC4/BLE_1_eventHandler.c **** * 
1501:Generated_Source\PSoC4/BLE_1_eventHandler.c **** * \return
1502:Generated_Source\PSoC4/BLE_1_eventHandler.c **** *  None
1503:Generated_Source\PSoC4/BLE_1_eventHandler.c **** * 
1504:Generated_Source\PSoC4/BLE_1_eventHandler.c **** ******************************************************************************/
1505:Generated_Source\PSoC4/BLE_1_eventHandler.c **** static void CyBle_GapConnUpdateCompleteEventHandler(const CYBLE_GAP_CONN_PARAM_UPDATED_IN_CONTROLLE
1506:Generated_Source\PSoC4/BLE_1_eventHandler.c **** {
 897              		.loc 1 1506 0
 898              		.cfi_startproc
 899 0000 80B5     		push	{r7, lr}
 900              		.cfi_def_cfa_offset 8
 901              		.cfi_offset 7, -8
 902              		.cfi_offset 14, -4
 903 0002 82B0     		sub	sp, sp, #8
 904              		.cfi_def_cfa_offset 16
 905 0004 00AF     		add	r7, sp, #0
 906              		.cfi_def_cfa_register 7
 907 0006 7860     		str	r0, [r7, #4]
1507:Generated_Source\PSoC4/BLE_1_eventHandler.c ****     #ifdef CYBLE_CPS_SERVER
1508:Generated_Source\PSoC4/BLE_1_eventHandler.c ****         CyBle_CpssConnUpdateCompleteEventHandler(eventParam);
1509:Generated_Source\PSoC4/BLE_1_eventHandler.c ****     #endif /* CYBLE_CPS_SERVER */
1510:Generated_Source\PSoC4/BLE_1_eventHandler.c ****     
1511:Generated_Source\PSoC4/BLE_1_eventHandler.c ****     /* Unreferenced variable warning workaround */
1512:Generated_Source\PSoC4/BLE_1_eventHandler.c ****     if(eventParam != 0u)
1513:Generated_Source\PSoC4/BLE_1_eventHandler.c ****     {
1514:Generated_Source\PSoC4/BLE_1_eventHandler.c ****     }
1515:Generated_Source\PSoC4/BLE_1_eventHandler.c **** }
 908              		.loc 1 1515 0
 909 0008 BD46     		mov	sp, r7
 910 000a 02B0     		add	sp, sp, #8
 911              		@ sp needed
 912 000c 80BD     		pop	{r7, pc}
 913              		.cfi_endproc
 914              	.LFE14:
 915              		.size	CyBle_GapConnUpdateCompleteEventHandler, .-CyBle_GapConnUpdateCompleteEventHandler
 916              		.section	.text.CyBle_EventHandler,"ax",%progbits
 917              		.align	2
 918              		.global	CyBle_EventHandler
 919              		.code	16
ARM GAS  C:\Users\Sarah\AppData\Local\Temp\ccqSJLdk.s 			page 44


 920              		.thumb_func
 921              		.type	CyBle_EventHandler, %function
 922              	CyBle_EventHandler:
 923              	.LFB15:
1516:Generated_Source\PSoC4/BLE_1_eventHandler.c **** 
1517:Generated_Source\PSoC4/BLE_1_eventHandler.c **** 
1518:Generated_Source\PSoC4/BLE_1_eventHandler.c **** /****************************************************************************** 
1519:Generated_Source\PSoC4/BLE_1_eventHandler.c **** * Function Name: CyBle_EventHandler
1520:Generated_Source\PSoC4/BLE_1_eventHandler.c **** ***************************************************************************//**
1521:Generated_Source\PSoC4/BLE_1_eventHandler.c **** * 
1522:Generated_Source\PSoC4/BLE_1_eventHandler.c **** *  Handles the events from the BLE stack
1523:Generated_Source\PSoC4/BLE_1_eventHandler.c **** * 
1524:Generated_Source\PSoC4/BLE_1_eventHandler.c **** *  \param eventCode:    the event code
1525:Generated_Source\PSoC4/BLE_1_eventHandler.c **** *  \param eventParam:  the event parameters
1526:Generated_Source\PSoC4/BLE_1_eventHandler.c **** * 
1527:Generated_Source\PSoC4/BLE_1_eventHandler.c **** * \return
1528:Generated_Source\PSoC4/BLE_1_eventHandler.c **** *  None.
1529:Generated_Source\PSoC4/BLE_1_eventHandler.c **** * 
1530:Generated_Source\PSoC4/BLE_1_eventHandler.c **** ******************************************************************************/
1531:Generated_Source\PSoC4/BLE_1_eventHandler.c **** void CyBle_EventHandler(uint8 eventCode, void *eventParam)
1532:Generated_Source\PSoC4/BLE_1_eventHandler.c **** {
 924              		.loc 1 1532 0
 925              		.cfi_startproc
 926 0000 80B5     		push	{r7, lr}
 927              		.cfi_def_cfa_offset 8
 928              		.cfi_offset 7, -8
 929              		.cfi_offset 14, -4
 930 0002 86B0     		sub	sp, sp, #24
 931              		.cfi_def_cfa_offset 32
 932 0004 00AF     		add	r7, sp, #0
 933              		.cfi_def_cfa_register 7
 934 0006 021C     		mov	r2, r0
 935 0008 3960     		str	r1, [r7]
 936 000a FB1D     		add	r3, r7, #7
 937 000c 1A70     		strb	r2, [r3]
1533:Generated_Source\PSoC4/BLE_1_eventHandler.c ****     cyBle_eventHandlerFlag |= CYBLE_CALLBACK;
 938              		.loc 1 1533 0
 939 000e C84B     		ldr	r3, .L103
 940 0010 1B78     		ldrb	r3, [r3]
 941 0012 DBB2     		uxtb	r3, r3
 942 0014 0122     		mov	r2, #1
 943 0016 1343     		orr	r3, r2
 944 0018 DAB2     		uxtb	r2, r3
 945 001a C54B     		ldr	r3, .L103
 946 001c 1A70     		strb	r2, [r3]
1534:Generated_Source\PSoC4/BLE_1_eventHandler.c **** 
1535:Generated_Source\PSoC4/BLE_1_eventHandler.c ****     /* Common Profile event handling */
1536:Generated_Source\PSoC4/BLE_1_eventHandler.c ****     switch(eventCode)
 947              		.loc 1 1536 0
 948 001e FB1D     		add	r3, r7, #7
 949 0020 1B78     		ldrb	r3, [r3]
 950 0022 FA2B     		cmp	r3, #250
 951 0024 00D9     		bls	.LCB824
 952 0026 A5E1     		b	.L102	@long jump
 953              	.LCB824:
 954 0028 9A00     		lsl	r2, r3, #2
 955 002a C24B     		ldr	r3, .L103+4
ARM GAS  C:\Users\Sarah\AppData\Local\Temp\ccqSJLdk.s 			page 45


 956 002c D318     		add	r3, r2, r3
 957 002e 1B68     		ldr	r3, [r3]
 958 0030 9F46     		mov	pc, r3
 959              		.section	.rodata
 960              		.align	2
 961              	.L53:
 962 0000 74030000 		.word	.L102
 963 0004 32000000 		.word	.L52
 964 0008 B0000000 		.word	.L54
 965 000c 74030000 		.word	.L102
 966 0010 74030000 		.word	.L102
 967 0014 BA000000 		.word	.L55
 968 0018 C4000000 		.word	.L56
 969 001c 74030000 		.word	.L102
 970 0020 74030000 		.word	.L102
 971 0024 74030000 		.word	.L102
 972 0028 74030000 		.word	.L102
 973 002c 74030000 		.word	.L102
 974 0030 74030000 		.word	.L102
 975 0034 74030000 		.word	.L102
 976 0038 74030000 		.word	.L102
 977 003c 74030000 		.word	.L102
 978 0040 74030000 		.word	.L102
 979 0044 74030000 		.word	.L102
 980 0048 74030000 		.word	.L102
 981 004c 74030000 		.word	.L102
 982 0050 74030000 		.word	.L102
 983 0054 74030000 		.word	.L102
 984 0058 74030000 		.word	.L102
 985 005c 74030000 		.word	.L102
 986 0060 74030000 		.word	.L102
 987 0064 74030000 		.word	.L102
 988 0068 74030000 		.word	.L102
 989 006c 74030000 		.word	.L102
 990 0070 74030000 		.word	.L102
 991 0074 74030000 		.word	.L102
 992 0078 74030000 		.word	.L102
 993 007c 74030000 		.word	.L102
 994 0080 74030000 		.word	.L102
 995 0084 04010000 		.word	.L58
 996 0088 74030000 		.word	.L102
 997 008c 74030000 		.word	.L102
 998 0090 32010000 		.word	.L59
 999 0094 74030000 		.word	.L102
 1000 0098 74030000 		.word	.L102
 1001 009c 46010000 		.word	.L60
 1002 00a0 62010000 		.word	.L61
 1003 00a4 74030000 		.word	.L102
 1004 00a8 3C010000 		.word	.L62
 1005 00ac 6A010000 		.word	.L63
 1006 00b0 74030000 		.word	.L102
 1007 00b4 74030000 		.word	.L102
 1008 00b8 74030000 		.word	.L102
 1009 00bc 74030000 		.word	.L102
 1010 00c0 74030000 		.word	.L102
 1011 00c4 74030000 		.word	.L102
 1012 00c8 74030000 		.word	.L102
ARM GAS  C:\Users\Sarah\AppData\Local\Temp\ccqSJLdk.s 			page 46


 1013 00cc 74030000 		.word	.L102
 1014 00d0 74030000 		.word	.L102
 1015 00d4 74030000 		.word	.L102
 1016 00d8 74030000 		.word	.L102
 1017 00dc 74030000 		.word	.L102
 1018 00e0 74030000 		.word	.L102
 1019 00e4 74030000 		.word	.L102
 1020 00e8 74030000 		.word	.L102
 1021 00ec 74030000 		.word	.L102
 1022 00f0 74030000 		.word	.L102
 1023 00f4 74030000 		.word	.L102
 1024 00f8 74030000 		.word	.L102
 1025 00fc 74030000 		.word	.L102
 1026 0100 C2020000 		.word	.L64
 1027 0104 02020000 		.word	.L65
 1028 0108 4A020000 		.word	.L66
 1029 010c 50020000 		.word	.L67
 1030 0110 74030000 		.word	.L102
 1031 0114 9E020000 		.word	.L68
 1032 0118 A8020000 		.word	.L69
 1033 011c B8020000 		.word	.L70
 1034 0120 74030000 		.word	.L102
 1035 0124 00030000 		.word	.L71
 1036 0128 74030000 		.word	.L102
 1037 012c 0A030000 		.word	.L73
 1038 0130 8A020000 		.word	.L74
 1039 0134 14030000 		.word	.L75
 1040 0138 74030000 		.word	.L102
 1041 013c 74030000 		.word	.L102
 1042 0140 74030000 		.word	.L102
 1043 0144 74030000 		.word	.L102
 1044 0148 CC020000 		.word	.L80
 1045 014c D6020000 		.word	.L81
 1046 0150 94020000 		.word	.L82
 1047 0154 74030000 		.word	.L102
 1048 0158 74030000 		.word	.L102
 1049 015c 74030000 		.word	.L102
 1050 0160 B2020000 		.word	.L84
 1051 0164 74030000 		.word	.L102
 1052 0168 74030000 		.word	.L102
 1053 016c 74030000 		.word	.L102
 1054 0170 74030000 		.word	.L102
 1055 0174 74030000 		.word	.L102
 1056 0178 74030000 		.word	.L102
 1057 017c 74030000 		.word	.L102
 1058 0180 74030000 		.word	.L102
 1059 0184 74030000 		.word	.L102
 1060 0188 74030000 		.word	.L102
 1061 018c 74030000 		.word	.L102
 1062 0190 74030000 		.word	.L102
 1063 0194 74030000 		.word	.L102
 1064 0198 74030000 		.word	.L102
 1065 019c 74030000 		.word	.L102
 1066 01a0 74030000 		.word	.L102
 1067 01a4 74030000 		.word	.L102
 1068 01a8 74030000 		.word	.L102
 1069 01ac 74030000 		.word	.L102
ARM GAS  C:\Users\Sarah\AppData\Local\Temp\ccqSJLdk.s 			page 47


 1070 01b0 74030000 		.word	.L102
 1071 01b4 74030000 		.word	.L102
 1072 01b8 74030000 		.word	.L102
 1073 01bc 74030000 		.word	.L102
 1074 01c0 74030000 		.word	.L102
 1075 01c4 F6010000 		.word	.L85
 1076 01c8 74030000 		.word	.L102
 1077 01cc 74030000 		.word	.L102
 1078 01d0 74030000 		.word	.L102
 1079 01d4 74030000 		.word	.L102
 1080 01d8 74030000 		.word	.L102
 1081 01dc 74030000 		.word	.L102
 1082 01e0 74030000 		.word	.L102
 1083 01e4 74030000 		.word	.L102
 1084 01e8 74030000 		.word	.L102
 1085 01ec 74030000 		.word	.L102
 1086 01f0 74030000 		.word	.L102
 1087 01f4 74030000 		.word	.L102
 1088 01f8 74030000 		.word	.L102
 1089 01fc 74030000 		.word	.L102
 1090 0200 74030000 		.word	.L102
 1091 0204 74030000 		.word	.L102
 1092 0208 74030000 		.word	.L102
 1093 020c 74030000 		.word	.L102
 1094 0210 74030000 		.word	.L102
 1095 0214 74030000 		.word	.L102
 1096 0218 74030000 		.word	.L102
 1097 021c 74030000 		.word	.L102
 1098 0220 74030000 		.word	.L102
 1099 0224 74030000 		.word	.L102
 1100 0228 74030000 		.word	.L102
 1101 022c 74030000 		.word	.L102
 1102 0230 74030000 		.word	.L102
 1103 0234 74030000 		.word	.L102
 1104 0238 74030000 		.word	.L102
 1105 023c 74030000 		.word	.L102
 1106 0240 74030000 		.word	.L102
 1107 0244 74030000 		.word	.L102
 1108 0248 74030000 		.word	.L102
 1109 024c 74030000 		.word	.L102
 1110 0250 74030000 		.word	.L102
 1111 0254 74030000 		.word	.L102
 1112 0258 74030000 		.word	.L102
 1113 025c 74030000 		.word	.L102
 1114 0260 74030000 		.word	.L102
 1115 0264 74030000 		.word	.L102
 1116 0268 74030000 		.word	.L102
 1117 026c 74030000 		.word	.L102
 1118 0270 74030000 		.word	.L102
 1119 0274 74030000 		.word	.L102
 1120 0278 74030000 		.word	.L102
 1121 027c 74030000 		.word	.L102
 1122 0280 74030000 		.word	.L102
 1123 0284 74030000 		.word	.L102
 1124 0288 74030000 		.word	.L102
 1125 028c 74030000 		.word	.L102
 1126 0290 74030000 		.word	.L102
ARM GAS  C:\Users\Sarah\AppData\Local\Temp\ccqSJLdk.s 			page 48


 1127 0294 74030000 		.word	.L102
 1128 0298 74030000 		.word	.L102
 1129 029c 74030000 		.word	.L102
 1130 02a0 74030000 		.word	.L102
 1131 02a4 74030000 		.word	.L102
 1132 02a8 74030000 		.word	.L102
 1133 02ac 74030000 		.word	.L102
 1134 02b0 74030000 		.word	.L102
 1135 02b4 74030000 		.word	.L102
 1136 02b8 74030000 		.word	.L102
 1137 02bc 74030000 		.word	.L102
 1138 02c0 74030000 		.word	.L102
 1139 02c4 74030000 		.word	.L102
 1140 02c8 74030000 		.word	.L102
 1141 02cc 74030000 		.word	.L102
 1142 02d0 74030000 		.word	.L102
 1143 02d4 74030000 		.word	.L102
 1144 02d8 74030000 		.word	.L102
 1145 02dc 74030000 		.word	.L102
 1146 02e0 74030000 		.word	.L102
 1147 02e4 74030000 		.word	.L102
 1148 02e8 74030000 		.word	.L102
 1149 02ec 74030000 		.word	.L102
 1150 02f0 74030000 		.word	.L102
 1151 02f4 74030000 		.word	.L102
 1152 02f8 74030000 		.word	.L102
 1153 02fc 74030000 		.word	.L102
 1154 0300 74030000 		.word	.L102
 1155 0304 74030000 		.word	.L102
 1156 0308 74030000 		.word	.L102
 1157 030c 74030000 		.word	.L102
 1158 0310 74030000 		.word	.L102
 1159 0314 74030000 		.word	.L102
 1160 0318 74030000 		.word	.L102
 1161 031c 74030000 		.word	.L102
 1162 0320 74030000 		.word	.L102
 1163 0324 74030000 		.word	.L102
 1164 0328 74030000 		.word	.L102
 1165 032c 74030000 		.word	.L102
 1166 0330 74030000 		.word	.L102
 1167 0334 74030000 		.word	.L102
 1168 0338 74030000 		.word	.L102
 1169 033c 74030000 		.word	.L102
 1170 0340 74030000 		.word	.L102
 1171 0344 74030000 		.word	.L102
 1172 0348 74030000 		.word	.L102
 1173 034c 74030000 		.word	.L102
 1174 0350 74030000 		.word	.L102
 1175 0354 74030000 		.word	.L102
 1176 0358 74030000 		.word	.L102
 1177 035c 74030000 		.word	.L102
 1178 0360 74030000 		.word	.L102
 1179 0364 74030000 		.word	.L102
 1180 0368 74030000 		.word	.L102
 1181 036c 74030000 		.word	.L102
 1182 0370 74030000 		.word	.L102
 1183 0374 74030000 		.word	.L102
ARM GAS  C:\Users\Sarah\AppData\Local\Temp\ccqSJLdk.s 			page 49


 1184 0378 74030000 		.word	.L102
 1185 037c 74030000 		.word	.L102
 1186 0380 74030000 		.word	.L102
 1187 0384 74030000 		.word	.L102
 1188 0388 74030000 		.word	.L102
 1189 038c 74030000 		.word	.L102
 1190 0390 74030000 		.word	.L102
 1191 0394 74030000 		.word	.L102
 1192 0398 74030000 		.word	.L102
 1193 039c 74030000 		.word	.L102
 1194 03a0 74030000 		.word	.L102
 1195 03a4 74030000 		.word	.L102
 1196 03a8 74030000 		.word	.L102
 1197 03ac 74030000 		.word	.L102
 1198 03b0 74030000 		.word	.L102
 1199 03b4 74030000 		.word	.L102
 1200 03b8 74030000 		.word	.L102
 1201 03bc 74030000 		.word	.L102
 1202 03c0 74030000 		.word	.L102
 1203 03c4 74030000 		.word	.L102
 1204 03c8 74030000 		.word	.L102
 1205 03cc 74030000 		.word	.L102
 1206 03d0 74030000 		.word	.L102
 1207 03d4 74030000 		.word	.L102
 1208 03d8 74030000 		.word	.L102
 1209 03dc 74030000 		.word	.L102
 1210 03e0 74030000 		.word	.L102
 1211 03e4 74030000 		.word	.L102
 1212 03e8 1E030000 		.word	.L86
 1213              		.section	.text.CyBle_EventHandler
 1214              	.L52:
 1215              	.LBB5:
1537:Generated_Source\PSoC4/BLE_1_eventHandler.c ****     {
1538:Generated_Source\PSoC4/BLE_1_eventHandler.c ****         /**********************************************************
1539:Generated_Source\PSoC4/BLE_1_eventHandler.c ****         * General events
1540:Generated_Source\PSoC4/BLE_1_eventHandler.c ****         ************************************************************/
1541:Generated_Source\PSoC4/BLE_1_eventHandler.c ****         case CYBLE_EVT_STACK_ON:
1542:Generated_Source\PSoC4/BLE_1_eventHandler.c ****         #if(CYBLE_MODE_PROFILE)
1543:Generated_Source\PSoC4/BLE_1_eventHandler.c ****         {
1544:Generated_Source\PSoC4/BLE_1_eventHandler.c ****             CYBLE_BLESS_PWR_IN_DB_T bleSsPowerLevel;
1545:Generated_Source\PSoC4/BLE_1_eventHandler.c ****             
1546:Generated_Source\PSoC4/BLE_1_eventHandler.c ****             /* Set Tx Power Level for advertising and connection channels */
1547:Generated_Source\PSoC4/BLE_1_eventHandler.c ****             bleSsPowerLevel.blePwrLevelInDbm = CYBLE_TX_POWER_LEVEL_ADV;
 1216              		.loc 1 1547 0
 1217 0032 0C23     		mov	r3, #12
 1218 0034 FB18     		add	r3, r7, r3
 1219 0036 0722     		mov	r2, #7
 1220 0038 1A70     		strb	r2, [r3]
1548:Generated_Source\PSoC4/BLE_1_eventHandler.c ****             bleSsPowerLevel.bleSsChId = CYBLE_LL_ADV_CH_TYPE;
 1221              		.loc 1 1548 0
 1222 003a 0C23     		mov	r3, #12
 1223 003c FB18     		add	r3, r7, r3
 1224 003e 0022     		mov	r2, #0
 1225 0040 5A70     		strb	r2, [r3, #1]
1549:Generated_Source\PSoC4/BLE_1_eventHandler.c ****             (void) CyBle_SetTxPowerLevel (&bleSsPowerLevel);
 1226              		.loc 1 1549 0
 1227 0042 0C23     		mov	r3, #12
ARM GAS  C:\Users\Sarah\AppData\Local\Temp\ccqSJLdk.s 			page 50


 1228 0044 FB18     		add	r3, r7, r3
 1229 0046 181C     		mov	r0, r3
 1230 0048 FFF7FEFF 		bl	CyBle_SetTxPowerLevel
1550:Generated_Source\PSoC4/BLE_1_eventHandler.c ****             bleSsPowerLevel.blePwrLevelInDbm = CYBLE_TX_POWER_LEVEL_CONN;
 1231              		.loc 1 1550 0
 1232 004c 0C23     		mov	r3, #12
 1233 004e FB18     		add	r3, r7, r3
 1234 0050 0722     		mov	r2, #7
 1235 0052 1A70     		strb	r2, [r3]
1551:Generated_Source\PSoC4/BLE_1_eventHandler.c ****             bleSsPowerLevel.bleSsChId = CYBLE_LL_CONN_CH_TYPE;
 1236              		.loc 1 1551 0
 1237 0054 0C23     		mov	r3, #12
 1238 0056 FB18     		add	r3, r7, r3
 1239 0058 0122     		mov	r2, #1
 1240 005a 5A70     		strb	r2, [r3, #1]
1552:Generated_Source\PSoC4/BLE_1_eventHandler.c ****             (void) CyBle_SetTxPowerLevel (&bleSsPowerLevel);
 1241              		.loc 1 1552 0
 1242 005c 0C23     		mov	r3, #12
 1243 005e FB18     		add	r3, r7, r3
 1244 0060 181C     		mov	r0, r3
 1245 0062 FFF7FEFF 		bl	CyBle_SetTxPowerLevel
 1246              	.LBE5:
1553:Generated_Source\PSoC4/BLE_1_eventHandler.c ****             
1554:Generated_Source\PSoC4/BLE_1_eventHandler.c ****         }
1555:Generated_Source\PSoC4/BLE_1_eventHandler.c ****         #endif /* CYBLE_MODE_PROFILE */
1556:Generated_Source\PSoC4/BLE_1_eventHandler.c ****         #if (CYBLE_GATT_ROLE_SERVER || CYBLE_GATT_ROLE_CLIENT)
1557:Generated_Source\PSoC4/BLE_1_eventHandler.c ****             /* Set device Address  */
1558:Generated_Source\PSoC4/BLE_1_eventHandler.c ****             if(CyBle_IsDeviceAddressValid(cyBle_sflashDeviceAddress) != 0u)
 1247              		.loc 1 1558 0
 1248 0066 B44B     		ldr	r3, .L103+8
 1249 0068 1B68     		ldr	r3, [r3]
 1250 006a 181C     		mov	r0, r3
 1251 006c FFF7FEFF 		bl	CyBle_IsDeviceAddressValid
 1252 0070 031E     		sub	r3, r0, #0
 1253 0072 05D0     		beq	.L87
1559:Generated_Source\PSoC4/BLE_1_eventHandler.c ****             {
1560:Generated_Source\PSoC4/BLE_1_eventHandler.c ****                 (void) CyBle_SetDeviceAddress(cyBle_sflashDeviceAddress);
 1254              		.loc 1 1560 0
 1255 0074 B04B     		ldr	r3, .L103+8
 1256 0076 1B68     		ldr	r3, [r3]
 1257 0078 181C     		mov	r0, r3
 1258 007a FFF7FEFF 		bl	CyBle_SetDeviceAddress
 1259 007e 03E0     		b	.L88
 1260              	.L87:
1561:Generated_Source\PSoC4/BLE_1_eventHandler.c ****                 #if(CYBLE_GAP_ROLE_PERIPHERAL || CYBLE_GAP_ROLE_BROADCASTER)
1562:Generated_Source\PSoC4/BLE_1_eventHandler.c ****                     CyBle_ChangeAdDeviceAddress(cyBle_sflashDeviceAddress, 0u);
1563:Generated_Source\PSoC4/BLE_1_eventHandler.c ****                     CyBle_ChangeAdDeviceAddress(cyBle_sflashDeviceAddress, 1u);
1564:Generated_Source\PSoC4/BLE_1_eventHandler.c ****                 #endif /* CYBLE_GAP_ROLE_PERIPHERAL || CYBLE_GAP_ROLE_BROADCASTER */    
1565:Generated_Source\PSoC4/BLE_1_eventHandler.c ****             }
1566:Generated_Source\PSoC4/BLE_1_eventHandler.c ****             else
1567:Generated_Source\PSoC4/BLE_1_eventHandler.c ****             {
1568:Generated_Source\PSoC4/BLE_1_eventHandler.c ****             #if (SILICON_GENERATED_DEVICE_ADDRESS != 0u)
1569:Generated_Source\PSoC4/BLE_1_eventHandler.c ****             {
1570:Generated_Source\PSoC4/BLE_1_eventHandler.c ****                 uint32 bdAddrLoc;
1571:Generated_Source\PSoC4/BLE_1_eventHandler.c ****                 bdAddrLoc = (CYBLE_SFLASH_DIE_X_REG & CYBLE_SFLASH_DIE_X_MASK) |
1572:Generated_Source\PSoC4/BLE_1_eventHandler.c ****                     ((uint32)(((uint32)CYBLE_SFLASH_DIE_Y_REG) & ((uint32)CYBLE_SFLASH_DIE_Y_MASK))
1573:Generated_Source\PSoC4/BLE_1_eventHandler.c ****                         CYBLE_SFLASH_DIE_X_BITS) |
ARM GAS  C:\Users\Sarah\AppData\Local\Temp\ccqSJLdk.s 			page 51


1574:Generated_Source\PSoC4/BLE_1_eventHandler.c ****                     ((uint32)(((uint32)CYBLE_SFLASH_DIE_WAFER_REG) & ((uint32)CYBLE_SFLASH_DIE_WAFE
1575:Generated_Source\PSoC4/BLE_1_eventHandler.c ****                         CYBLE_SFLASH_DIE_XY_BITS) |
1576:Generated_Source\PSoC4/BLE_1_eventHandler.c ****                     ((uint32)(((uint32)CYBLE_SFLASH_DIE_LOT_REG) & ((uint32)CYBLE_SFLASH_DIE_LOT_MA
1577:Generated_Source\PSoC4/BLE_1_eventHandler.c ****                         CYBLE_SFLASH_DIE_XYWAFER_BITS);
1578:Generated_Source\PSoC4/BLE_1_eventHandler.c ****                             
1579:Generated_Source\PSoC4/BLE_1_eventHandler.c ****                 cyBle_deviceAddress.bdAddr[0] = (uint8)bdAddrLoc;
1580:Generated_Source\PSoC4/BLE_1_eventHandler.c ****                 cyBle_deviceAddress.bdAddr[1] = (uint8)(bdAddrLoc >> 8u);
1581:Generated_Source\PSoC4/BLE_1_eventHandler.c ****                 cyBle_deviceAddress.bdAddr[2] = (uint8)(bdAddrLoc >> 16u);
1582:Generated_Source\PSoC4/BLE_1_eventHandler.c ****             }
1583:Generated_Source\PSoC4/BLE_1_eventHandler.c ****             #endif /* SILICON_GENERATED_DEVICE_ADDRESS != 0u */
1584:Generated_Source\PSoC4/BLE_1_eventHandler.c ****                 (void) CyBle_SetDeviceAddress(&cyBle_deviceAddress);
 1261              		.loc 1 1584 0
 1262 0080 AE4B     		ldr	r3, .L103+12
 1263 0082 181C     		mov	r0, r3
 1264 0084 FFF7FEFF 		bl	CyBle_SetDeviceAddress
 1265              	.L88:
1585:Generated_Source\PSoC4/BLE_1_eventHandler.c ****                 #if(CYBLE_GAP_ROLE_PERIPHERAL || CYBLE_GAP_ROLE_BROADCASTER)
1586:Generated_Source\PSoC4/BLE_1_eventHandler.c ****                     CyBle_ChangeAdDeviceAddress(&cyBle_deviceAddress, 0u);
1587:Generated_Source\PSoC4/BLE_1_eventHandler.c ****                     CyBle_ChangeAdDeviceAddress(&cyBle_deviceAddress, 1u);
1588:Generated_Source\PSoC4/BLE_1_eventHandler.c ****                 #endif /* CYBLE_GAP_ROLE_PERIPHERAL || CYBLE_GAP_ROLE_BROADCASTER */    
1589:Generated_Source\PSoC4/BLE_1_eventHandler.c ****             }
1590:Generated_Source\PSoC4/BLE_1_eventHandler.c ****             /* Set device IO Capability  */
1591:Generated_Source\PSoC4/BLE_1_eventHandler.c ****             (void) CyBle_GapSetIoCap(CYBLE_IO_CAPABILITY);    
 1266              		.loc 1 1591 0
 1267 0088 0020     		mov	r0, #0
 1268 008a FFF7FEFF 		bl	CyBle_GapSetIoCap
 1269              	.LBB6:
1592:Generated_Source\PSoC4/BLE_1_eventHandler.c ****             {
1593:Generated_Source\PSoC4/BLE_1_eventHandler.c ****                 /* Enable all 4.1 events and configured 4.2 events */
1594:Generated_Source\PSoC4/BLE_1_eventHandler.c ****                 uint8 leMask[CYBLE_LE_MASK_LENGTH] = {LO8(CYBLE_LE_MASK), HI8(CYBLE_LE_MASK)};
 1270              		.loc 1 1594 0
 1271 008e 0823     		mov	r3, #8
 1272 0090 FB18     		add	r3, r7, r3
 1273 0092 3F22     		mov	r2, #63
 1274 0094 1A70     		strb	r2, [r3]
 1275 0096 0823     		mov	r3, #8
 1276 0098 FB18     		add	r3, r7, r3
 1277 009a 0022     		mov	r2, #0
 1278 009c 5A70     		strb	r2, [r3, #1]
1595:Generated_Source\PSoC4/BLE_1_eventHandler.c ****                 (void) CyBle_GapSetLeEventMask(leMask);
 1279              		.loc 1 1595 0
 1280 009e 0823     		mov	r3, #8
 1281 00a0 FB18     		add	r3, r7, r3
 1282 00a2 181C     		mov	r0, r3
 1283 00a4 FFF7FEFF 		bl	CyBle_GapSetLeEventMask
 1284              	.LBE6:
1596:Generated_Source\PSoC4/BLE_1_eventHandler.c ****             }
1597:Generated_Source\PSoC4/BLE_1_eventHandler.c ****         #if(CYBLE_DLE_FEATURE_ENABLED)
1598:Generated_Source\PSoC4/BLE_1_eventHandler.c ****         {
1599:Generated_Source\PSoC4/BLE_1_eventHandler.c ****             /* Set maximum suggested TX payload size */
1600:Generated_Source\PSoC4/BLE_1_eventHandler.c ****             uint16 payloadTime = CYBLE_LL_MAX_TX_TIME;
1601:Generated_Source\PSoC4/BLE_1_eventHandler.c ****             (void) CyBle_GapConvertOctetToTime(CYBLE_GAP_PHY_1MBPS, CYBLE_LL_MAX_TX_PAYLOAD_SIZE, &
1602:Generated_Source\PSoC4/BLE_1_eventHandler.c ****             (void) CyBle_GapSetSuggestedDataLength(CYBLE_LL_MAX_TX_PAYLOAD_SIZE, payloadTime); 
1603:Generated_Source\PSoC4/BLE_1_eventHandler.c ****         }
1604:Generated_Source\PSoC4/BLE_1_eventHandler.c ****         #endif /* CYBLE_DLE_FEATURE != 0u */
1605:Generated_Source\PSoC4/BLE_1_eventHandler.c ****         
1606:Generated_Source\PSoC4/BLE_1_eventHandler.c ****         #endif /* CYBLE_GATT_ROLE_SERVER || CYBLE_GATT_ROLE_CLIENT */
ARM GAS  C:\Users\Sarah\AppData\Local\Temp\ccqSJLdk.s 			page 52


1607:Generated_Source\PSoC4/BLE_1_eventHandler.c ****             CyBle_SetState(CYBLE_STATE_DISCONNECTED);
 1285              		.loc 1 1607 0
 1286 00a8 A54B     		ldr	r3, .L103+16
 1287 00aa 0522     		mov	r2, #5
 1288 00ac 1A70     		strb	r2, [r3]
1608:Generated_Source\PSoC4/BLE_1_eventHandler.c ****             break;
 1289              		.loc 1 1608 0
 1290 00ae 62E1     		b	.L89
 1291              	.L54:
1609:Generated_Source\PSoC4/BLE_1_eventHandler.c ****         case CYBLE_EVT_TIMEOUT:
1610:Generated_Source\PSoC4/BLE_1_eventHandler.c ****             CyBle_TimeOutEventHandler((CYBLE_TO_REASON_CODE_T *)eventParam);
 1292              		.loc 1 1610 0
 1293 00b0 3B68     		ldr	r3, [r7]
 1294 00b2 181C     		mov	r0, r3
 1295 00b4 FFF7FEFF 		bl	CyBle_TimeOutEventHandler
1611:Generated_Source\PSoC4/BLE_1_eventHandler.c ****             break;
 1296              		.loc 1 1611 0
 1297 00b8 5DE1     		b	.L89
 1298              	.L55:
1612:Generated_Source\PSoC4/BLE_1_eventHandler.c ****     	case CYBLE_EVT_STACK_BUSY_STATUS:
1613:Generated_Source\PSoC4/BLE_1_eventHandler.c ****             cyBle_busyStatus = *(uint8 *)eventParam;
 1299              		.loc 1 1613 0
 1300 00ba 3B68     		ldr	r3, [r7]
 1301 00bc 1A78     		ldrb	r2, [r3]
 1302 00be A14B     		ldr	r3, .L103+20
 1303 00c0 1A70     		strb	r2, [r3]
1614:Generated_Source\PSoC4/BLE_1_eventHandler.c ****             break;
 1304              		.loc 1 1614 0
 1305 00c2 58E1     		b	.L89
 1306              	.L56:
 1307              	.LBB7:
1615:Generated_Source\PSoC4/BLE_1_eventHandler.c ****     	case CYBLE_EVT_MEMORY_REQUEST:
1616:Generated_Source\PSoC4/BLE_1_eventHandler.c ****         #if(CYBLE_MODE_PROFILE)
1617:Generated_Source\PSoC4/BLE_1_eventHandler.c ****         {
1618:Generated_Source\PSoC4/BLE_1_eventHandler.c ****             CYBLE_MEMORY_REQUEST_T *memReq = (CYBLE_MEMORY_REQUEST_T *)eventParam;
 1308              		.loc 1 1618 0
 1309 00c4 3B68     		ldr	r3, [r7]
 1310 00c6 3B61     		str	r3, [r7, #16]
1619:Generated_Source\PSoC4/BLE_1_eventHandler.c ****             if(memReq->request == CYBLE_PREPARED_WRITE_REQUEST)
 1311              		.loc 1 1619 0
 1312 00c8 3B69     		ldr	r3, [r7, #16]
 1313 00ca 1B78     		ldrb	r3, [r3]
 1314 00cc 002B     		cmp	r3, #0
 1315 00ce 18D1     		bne	.L90
1620:Generated_Source\PSoC4/BLE_1_eventHandler.c ****             {  
1621:Generated_Source\PSoC4/BLE_1_eventHandler.c ****             #if(CYBLE_GATT_ENABLE_EXTERNAL_PREP_WRITE_BUFF == 0u)
1622:Generated_Source\PSoC4/BLE_1_eventHandler.c ****                 /* Stack requests to provide memory to process remote request */
1623:Generated_Source\PSoC4/BLE_1_eventHandler.c ****                 if(memReq->allocFree == CYBLE_ALLOC_MEMORY)
 1316              		.loc 1 1623 0
 1317 00d0 3B69     		ldr	r3, [r7, #16]
 1318 00d2 5B78     		ldrb	r3, [r3, #1]
 1319 00d4 002B     		cmp	r3, #0
 1320 00d6 0BD1     		bne	.L91
 1321              	.LBB8:
1624:Generated_Source\PSoC4/BLE_1_eventHandler.c ****                 {
1625:Generated_Source\PSoC4/BLE_1_eventHandler.c ****                     static CYBLE_PREPARE_WRITE_REQUEST_MEMORY_T gPrepWriteReqMem;
1626:Generated_Source\PSoC4/BLE_1_eventHandler.c ****                     
ARM GAS  C:\Users\Sarah\AppData\Local\Temp\ccqSJLdk.s 			page 53


1627:Generated_Source\PSoC4/BLE_1_eventHandler.c ****                     /* Configure and return statically allocated buffer at the end of cyBle_stackMe
1628:Generated_Source\PSoC4/BLE_1_eventHandler.c ****                     gPrepWriteReqMem.prepareWriteQueueSize = CYBLE_GATT_MAX_PREPARE_BUFF_COUNT;
 1322              		.loc 1 1628 0
 1323 00d8 9B4B     		ldr	r3, .L103+24
 1324 00da 0022     		mov	r2, #0
 1325 00dc DA80     		strh	r2, [r3, #6]
1629:Generated_Source\PSoC4/BLE_1_eventHandler.c ****                     gPrepWriteReqMem.totalAttrValueLength = CYBLE_GATT_PREPARE_LENGTH_ALIGN;
 1326              		.loc 1 1629 0
 1327 00de 9A4B     		ldr	r3, .L103+24
 1328 00e0 0022     		mov	r2, #0
 1329 00e2 9A80     		strh	r2, [r3, #4]
1630:Generated_Source\PSoC4/BLE_1_eventHandler.c ****                     gPrepWriteReqMem.queueBuffer = &cyBle_stackMemoryRam[CYBLE_STACK_RAM_SIZE - 
 1330              		.loc 1 1630 0
 1331 00e4 984B     		ldr	r3, .L103+24
 1332 00e6 994A     		ldr	r2, .L103+28
 1333 00e8 1A60     		str	r2, [r3]
1631:Generated_Source\PSoC4/BLE_1_eventHandler.c ****                                                                          CYBLE_GATT_PREPARE_WRITE_B
1632:Generated_Source\PSoC4/BLE_1_eventHandler.c ****                     memReq->configMemory = &gPrepWriteReqMem;  
 1334              		.loc 1 1632 0
 1335 00ea 3B69     		ldr	r3, [r7, #16]
 1336 00ec 964A     		ldr	r2, .L103+24
 1337 00ee 5A60     		str	r2, [r3, #4]
 1338              	.L91:
 1339              	.LBE8:
1633:Generated_Source\PSoC4/BLE_1_eventHandler.c ****                 }                
1634:Generated_Source\PSoC4/BLE_1_eventHandler.c ****                 /* Clear CYBLE_CALLBACK flag not to provide handled event to application */
1635:Generated_Source\PSoC4/BLE_1_eventHandler.c ****                 cyBle_eventHandlerFlag &= (uint8)~CYBLE_CALLBACK;
 1340              		.loc 1 1635 0
 1341 00f0 8F4B     		ldr	r3, .L103
 1342 00f2 1B78     		ldrb	r3, [r3]
 1343 00f4 DBB2     		uxtb	r3, r3
 1344 00f6 0122     		mov	r2, #1
 1345 00f8 9343     		bic	r3, r2
 1346 00fa DAB2     		uxtb	r2, r3
 1347 00fc 8C4B     		ldr	r3, .L103
 1348 00fe 1A70     		strb	r2, [r3]
 1349              	.LBE7:
1636:Generated_Source\PSoC4/BLE_1_eventHandler.c ****             #endif  /* CYBLE_GATT_ENABLE_EXTERNAL_PREP_WRITE_BUFF == 0u */
1637:Generated_Source\PSoC4/BLE_1_eventHandler.c ****             }
1638:Generated_Source\PSoC4/BLE_1_eventHandler.c ****         }
1639:Generated_Source\PSoC4/BLE_1_eventHandler.c ****         #endif /* CYBLE_MODE_PROFILE */
1640:Generated_Source\PSoC4/BLE_1_eventHandler.c ****             break;
 1350              		.loc 1 1640 0
 1351 0100 39E1     		b	.L89
 1352              	.L90:
 1353 0102 38E1     		b	.L89
 1354              	.L58:
1641:Generated_Source\PSoC4/BLE_1_eventHandler.c ****         /**********************************************************
1642:Generated_Source\PSoC4/BLE_1_eventHandler.c ****         * GAP events
1643:Generated_Source\PSoC4/BLE_1_eventHandler.c ****         ************************************************************/
1644:Generated_Source\PSoC4/BLE_1_eventHandler.c ****         case CYBLE_EVT_GAP_AUTH_REQ:
1645:Generated_Source\PSoC4/BLE_1_eventHandler.c ****         #if(CYBLE_MODE_PROFILE)
1646:Generated_Source\PSoC4/BLE_1_eventHandler.c ****             if((cyBle_eventHandlerFlag & CYBLE_DISABLE_AUTOMATIC_AUTH) == 0u)
 1355              		.loc 1 1646 0
 1356 0104 8A4B     		ldr	r3, .L103
 1357 0106 1B78     		ldrb	r3, [r3]
 1358 0108 DBB2     		uxtb	r3, r3
ARM GAS  C:\Users\Sarah\AppData\Local\Temp\ccqSJLdk.s 			page 54


 1359 010a 1A1C     		mov	r2, r3
 1360 010c 2023     		mov	r3, #32
 1361 010e 1340     		and	r3, r2
 1362 0110 0ED1     		bne	.L92
1647:Generated_Source\PSoC4/BLE_1_eventHandler.c ****             {
1648:Generated_Source\PSoC4/BLE_1_eventHandler.c ****                 /* If the responding device does not support pairing then the responding 
1649:Generated_Source\PSoC4/BLE_1_eventHandler.c ****                    device shall respond using the Pairing Failed message with the error 
1650:Generated_Source\PSoC4/BLE_1_eventHandler.c ****                    code "Pairing Not Supported" otherwise it responds with a Pairing 
1651:Generated_Source\PSoC4/BLE_1_eventHandler.c ****                    Response message.
1652:Generated_Source\PSoC4/BLE_1_eventHandler.c ****                 */
1653:Generated_Source\PSoC4/BLE_1_eventHandler.c ****                 if(cyBle_authInfo.security == (CYBLE_GAP_SEC_MODE_1 | CYBLE_GAP_SEC_LEVEL_1))
 1363              		.loc 1 1653 0
 1364 0112 8F4B     		ldr	r3, .L103+32
 1365 0114 1B78     		ldrb	r3, [r3]
 1366 0116 102B     		cmp	r3, #16
 1367 0118 02D1     		bne	.L93
1654:Generated_Source\PSoC4/BLE_1_eventHandler.c ****                 {
1655:Generated_Source\PSoC4/BLE_1_eventHandler.c ****                     cyBle_authInfo.authErr = CYBLE_GAP_AUTH_ERROR_PAIRING_NOT_SUPPORTED;
 1368              		.loc 1 1655 0
 1369 011a 8D4B     		ldr	r3, .L103+32
 1370 011c 0522     		mov	r2, #5
 1371 011e DA70     		strb	r2, [r3, #3]
 1372              	.L93:
1656:Generated_Source\PSoC4/BLE_1_eventHandler.c ****                 }    
1657:Generated_Source\PSoC4/BLE_1_eventHandler.c ****             #if(CYBLE_GAP_ROLE_PERIPHERAL)
1658:Generated_Source\PSoC4/BLE_1_eventHandler.c ****                 {
1659:Generated_Source\PSoC4/BLE_1_eventHandler.c ****                     CYBLE_API_RESULT_T apiResult;
1660:Generated_Source\PSoC4/BLE_1_eventHandler.c ****                     
1661:Generated_Source\PSoC4/BLE_1_eventHandler.c ****                     apiResult = CyBle_GappAuthReqReply(cyBle_connHandle.bdHandle, &cyBle_authInfo);
1662:Generated_Source\PSoC4/BLE_1_eventHandler.c ****                     /* Setting callback flag again as CyBle_GappAuthReqReply() will generate
1663:Generated_Source\PSoC4/BLE_1_eventHandler.c ****                     * CYBLE_EVT_GAP_SMP_NEGOTIATED_AUTH_INFO event which will clear the callback
1664:Generated_Source\PSoC4/BLE_1_eventHandler.c ****                     * flag.
1665:Generated_Source\PSoC4/BLE_1_eventHandler.c ****                     */
1666:Generated_Source\PSoC4/BLE_1_eventHandler.c ****                     if (apiResult != CYBLE_ERROR_OK)
1667:Generated_Source\PSoC4/BLE_1_eventHandler.c ****                     {   
1668:Generated_Source\PSoC4/BLE_1_eventHandler.c ****                         CyBle_ApplCallback(CYBLE_EVT_GAP_AUTH_REQ_REPLY_ERR , &apiResult);
1669:Generated_Source\PSoC4/BLE_1_eventHandler.c ****                     }
1670:Generated_Source\PSoC4/BLE_1_eventHandler.c ****                     cyBle_eventHandlerFlag |= CYBLE_CALLBACK;
1671:Generated_Source\PSoC4/BLE_1_eventHandler.c ****                 }
1672:Generated_Source\PSoC4/BLE_1_eventHandler.c ****             #endif /* CYBLE_GAP_ROLE_PERIPHERAL */
1673:Generated_Source\PSoC4/BLE_1_eventHandler.c ****             #if (CYBLE_GAP_ROLE_CENTRAL)
1674:Generated_Source\PSoC4/BLE_1_eventHandler.c ****                 (void)CyBle_GapAuthReq(cyBle_connHandle.bdHandle, &cyBle_authInfo);
 1373              		.loc 1 1674 0
 1374 0120 8C4B     		ldr	r3, .L103+36
 1375 0122 1A78     		ldrb	r2, [r3]
 1376 0124 8A4B     		ldr	r3, .L103+32
 1377 0126 101C     		mov	r0, r2
 1378 0128 191C     		mov	r1, r3
 1379 012a FFF7FEFF 		bl	CyBle_GapAuthReq
1675:Generated_Source\PSoC4/BLE_1_eventHandler.c ****             #endif /* CYBLE_GAP_ROLE_CENTRAL */
1676:Generated_Source\PSoC4/BLE_1_eventHandler.c ****             }
1677:Generated_Source\PSoC4/BLE_1_eventHandler.c ****         #endif /* CYBLE_MODE_PROFILE */
1678:Generated_Source\PSoC4/BLE_1_eventHandler.c ****             break;
 1380              		.loc 1 1678 0
 1381 012e 22E1     		b	.L89
 1382              	.L92:
 1383 0130 21E1     		b	.L89
ARM GAS  C:\Users\Sarah\AppData\Local\Temp\ccqSJLdk.s 			page 55


 1384              	.L59:
1679:Generated_Source\PSoC4/BLE_1_eventHandler.c ****         
1680:Generated_Source\PSoC4/BLE_1_eventHandler.c ****         case CYBLE_EVT_GAP_AUTH_COMPLETE:
1681:Generated_Source\PSoC4/BLE_1_eventHandler.c ****         #if((CYBLE_GAP_ROLE_PERIPHERAL || CYBLE_GAP_ROLE_CENTRAL) && (CYBLE_BONDING_REQUIREMENT == 
1682:Generated_Source\PSoC4/BLE_1_eventHandler.c ****             cyBle_peerBonding = ((CYBLE_GAP_AUTH_INFO_T *)eventParam)->bonding;
 1385              		.loc 1 1682 0
 1386 0132 3B68     		ldr	r3, [r7]
 1387 0134 5A78     		ldrb	r2, [r3, #1]
 1388 0136 884B     		ldr	r3, .L103+40
 1389 0138 1A70     		strb	r2, [r3]
1683:Generated_Source\PSoC4/BLE_1_eventHandler.c ****         #endif  /* CYBLE_BONDING_REQUIREMENT == CYBLE_BONDING_YES */
1684:Generated_Source\PSoC4/BLE_1_eventHandler.c ****             break;
 1390              		.loc 1 1684 0
 1391 013a 1CE1     		b	.L89
 1392              	.L62:
1685:Generated_Source\PSoC4/BLE_1_eventHandler.c ****         
1686:Generated_Source\PSoC4/BLE_1_eventHandler.c ****         case CYBLE_EVT_GAP_CONNECTION_UPDATE_COMPLETE:
1687:Generated_Source\PSoC4/BLE_1_eventHandler.c ****             CyBle_GapConnUpdateCompleteEventHandler((const CYBLE_GAP_CONN_PARAM_UPDATED_IN_CONTROLL
 1393              		.loc 1 1687 0
 1394 013c 3B68     		ldr	r3, [r7]
 1395 013e 181C     		mov	r0, r3
 1396 0140 FFF7FEFF 		bl	CyBle_GapConnUpdateCompleteEventHandler
1688:Generated_Source\PSoC4/BLE_1_eventHandler.c ****             break;
 1397              		.loc 1 1688 0
 1398 0144 17E1     		b	.L89
 1399              	.L60:
1689:Generated_Source\PSoC4/BLE_1_eventHandler.c ****             
1690:Generated_Source\PSoC4/BLE_1_eventHandler.c ****     #if(CYBLE_LL_PRIVACY_FEATURE != 0u)        
1691:Generated_Source\PSoC4/BLE_1_eventHandler.c ****         case CYBLE_EVT_GAP_ENHANCE_CONN_COMPLETE:
1692:Generated_Source\PSoC4/BLE_1_eventHandler.c ****         {
1693:Generated_Source\PSoC4/BLE_1_eventHandler.c ****             CYBLE_GAP_CONN_PARAM_UPDATED_IN_CONTROLLER_T  connCParam;
1694:Generated_Source\PSoC4/BLE_1_eventHandler.c ****             CYBLE_GAP_ENHANCE_CONN_COMPLETE_T *connEnhanceParam;
1695:Generated_Source\PSoC4/BLE_1_eventHandler.c ****             
1696:Generated_Source\PSoC4/BLE_1_eventHandler.c ****             connEnhanceParam = (CYBLE_GAP_ENHANCE_CONN_COMPLETE_T *)eventParam;
1697:Generated_Source\PSoC4/BLE_1_eventHandler.c ****             connCParam.status = connEnhanceParam->status;
1698:Generated_Source\PSoC4/BLE_1_eventHandler.c ****             connCParam.connIntv = connEnhanceParam->connIntv;
1699:Generated_Source\PSoC4/BLE_1_eventHandler.c ****             connCParam.connLatency = connEnhanceParam->connLatency;
1700:Generated_Source\PSoC4/BLE_1_eventHandler.c ****             connCParam.supervisionTO = connEnhanceParam->supervisionTo;
1701:Generated_Source\PSoC4/BLE_1_eventHandler.c ****             CyBle_GapConnUpdateCompleteEventHandler((const CYBLE_GAP_CONN_PARAM_UPDATED_IN_CONTROLL
1702:Generated_Source\PSoC4/BLE_1_eventHandler.c ****             
1703:Generated_Source\PSoC4/BLE_1_eventHandler.c ****             #if(CYBLE_GAP_ROLE_CENTRAL)
1704:Generated_Source\PSoC4/BLE_1_eventHandler.c ****                 if(cyBle_connectingTimeout != 0u)
1705:Generated_Source\PSoC4/BLE_1_eventHandler.c ****                 {
1706:Generated_Source\PSoC4/BLE_1_eventHandler.c ****                    (void)CyBle_StopTimer();
1707:Generated_Source\PSoC4/BLE_1_eventHandler.c ****                 }
1708:Generated_Source\PSoC4/BLE_1_eventHandler.c ****             #endif /* CYBLE_GAP_ROLE_CENTRAL */
1709:Generated_Source\PSoC4/BLE_1_eventHandler.c ****             CyBle_SetState(CYBLE_STATE_CONNECTED);
1710:Generated_Source\PSoC4/BLE_1_eventHandler.c ****         }
1711:Generated_Source\PSoC4/BLE_1_eventHandler.c ****             break;
1712:Generated_Source\PSoC4/BLE_1_eventHandler.c ****     #endif /* CYBLE_LL_PRIVACY_FEATURE != 0u */      
1713:Generated_Source\PSoC4/BLE_1_eventHandler.c ****             
1714:Generated_Source\PSoC4/BLE_1_eventHandler.c ****         case CYBLE_EVT_GAP_DEVICE_CONNECTED:
1715:Generated_Source\PSoC4/BLE_1_eventHandler.c ****             CyBle_GapConnUpdateCompleteEventHandler((const CYBLE_GAP_CONN_PARAM_UPDATED_IN_CONTROLL
 1400              		.loc 1 1715 0
 1401 0146 3B68     		ldr	r3, [r7]
 1402 0148 181C     		mov	r0, r3
 1403 014a FFF7FEFF 		bl	CyBle_GapConnUpdateCompleteEventHandler
ARM GAS  C:\Users\Sarah\AppData\Local\Temp\ccqSJLdk.s 			page 56


1716:Generated_Source\PSoC4/BLE_1_eventHandler.c ****             #if(CYBLE_GAP_ROLE_CENTRAL)
1717:Generated_Source\PSoC4/BLE_1_eventHandler.c ****                 if(cyBle_connectingTimeout != 0u)
 1404              		.loc 1 1717 0
 1405 014e 834B     		ldr	r3, .L103+44
 1406 0150 1B88     		ldrh	r3, [r3]
 1407 0152 002B     		cmp	r3, #0
 1408 0154 01D0     		beq	.L94
1718:Generated_Source\PSoC4/BLE_1_eventHandler.c ****                 {
1719:Generated_Source\PSoC4/BLE_1_eventHandler.c ****                    (void)CyBle_StopTimer();
 1409              		.loc 1 1719 0
 1410 0156 FFF7FEFF 		bl	CyBle_StopTimer
 1411              	.L94:
1720:Generated_Source\PSoC4/BLE_1_eventHandler.c ****                 }
1721:Generated_Source\PSoC4/BLE_1_eventHandler.c ****             #endif /* CYBLE_GAP_ROLE_CENTRAL */
1722:Generated_Source\PSoC4/BLE_1_eventHandler.c ****             CyBle_SetState(CYBLE_STATE_CONNECTED);
 1412              		.loc 1 1722 0
 1413 015a 794B     		ldr	r3, .L103+16
 1414 015c 0222     		mov	r2, #2
 1415 015e 1A70     		strb	r2, [r3]
1723:Generated_Source\PSoC4/BLE_1_eventHandler.c ****             break;
 1416              		.loc 1 1723 0
 1417 0160 09E1     		b	.L89
 1418              	.L61:
1724:Generated_Source\PSoC4/BLE_1_eventHandler.c **** 
1725:Generated_Source\PSoC4/BLE_1_eventHandler.c ****         case CYBLE_EVT_GAP_DEVICE_DISCONNECTED:
1726:Generated_Source\PSoC4/BLE_1_eventHandler.c ****             CyBle_SetState(CYBLE_STATE_DISCONNECTED);
 1419              		.loc 1 1726 0
 1420 0162 774B     		ldr	r3, .L103+16
 1421 0164 0522     		mov	r2, #5
 1422 0166 1A70     		strb	r2, [r3]
1727:Generated_Source\PSoC4/BLE_1_eventHandler.c ****             break;
 1423              		.loc 1 1727 0
 1424 0168 05E1     		b	.L89
 1425              	.L63:
1728:Generated_Source\PSoC4/BLE_1_eventHandler.c ****         #if(CYBLE_GAP_ROLE_PERIPHERAL || CYBLE_GAP_ROLE_BROADCASTER)
1729:Generated_Source\PSoC4/BLE_1_eventHandler.c ****             
1730:Generated_Source\PSoC4/BLE_1_eventHandler.c ****         case CYBLE_EVT_GAPP_ADVERTISEMENT_START_STOP:
1731:Generated_Source\PSoC4/BLE_1_eventHandler.c ****             #ifdef CYBLE_CPS_SERVER
1732:Generated_Source\PSoC4/BLE_1_eventHandler.c ****                 #if(CYBLE_GAP_ROLE_BROADCASTER)
1733:Generated_Source\PSoC4/BLE_1_eventHandler.c ****                     CyBle_CpssAdvertisementStartStopEventHandler();
1734:Generated_Source\PSoC4/BLE_1_eventHandler.c ****                 #endif /* CYBLE_GAP_ROLE_BROADCASTER */
1735:Generated_Source\PSoC4/BLE_1_eventHandler.c ****             #endif /* CYBLE_CPS_SERVER */
1736:Generated_Source\PSoC4/BLE_1_eventHandler.c ****             
1737:Generated_Source\PSoC4/BLE_1_eventHandler.c ****             if((CYBLE_STATE_CONNECTED != CyBle_GetState()) && ((cyBle_eventHandlerFlag & CYBLE_CALL
1738:Generated_Source\PSoC4/BLE_1_eventHandler.c ****             {
1739:Generated_Source\PSoC4/BLE_1_eventHandler.c ****                 /* After CyBle_GappStartAdvertisement first event indicates that advertising has be
1740:Generated_Source\PSoC4/BLE_1_eventHandler.c ****                 if(0u != (cyBle_eventHandlerFlag & CYBLE_START_FLAG))
1741:Generated_Source\PSoC4/BLE_1_eventHandler.c ****                 {
1742:Generated_Source\PSoC4/BLE_1_eventHandler.c ****                     CyBle_SetState(CYBLE_STATE_ADVERTISING);
1743:Generated_Source\PSoC4/BLE_1_eventHandler.c ****                     cyBle_eventHandlerFlag &= (uint8)~CYBLE_START_FLAG;
1744:Generated_Source\PSoC4/BLE_1_eventHandler.c ****                 }
1745:Generated_Source\PSoC4/BLE_1_eventHandler.c ****                 /* When application initiated stop advertisement */
1746:Generated_Source\PSoC4/BLE_1_eventHandler.c ****                 else if(0u != (cyBle_eventHandlerFlag & CYBLE_STOP_FLAG))
1747:Generated_Source\PSoC4/BLE_1_eventHandler.c ****                 {
1748:Generated_Source\PSoC4/BLE_1_eventHandler.c ****                     CyBle_SetState(CYBLE_STATE_DISCONNECTED);  
1749:Generated_Source\PSoC4/BLE_1_eventHandler.c ****                     cyBle_eventHandlerFlag &= (uint8)~CYBLE_STOP_FLAG;
1750:Generated_Source\PSoC4/BLE_1_eventHandler.c ****                 }
ARM GAS  C:\Users\Sarah\AppData\Local\Temp\ccqSJLdk.s 			page 57


1751:Generated_Source\PSoC4/BLE_1_eventHandler.c ****                 else /* Following event indicates that advertising has been stopped */
1752:Generated_Source\PSoC4/BLE_1_eventHandler.c ****                 {
1753:Generated_Source\PSoC4/BLE_1_eventHandler.c ****                     if(CyBle_GetState() == CYBLE_STATE_ADVERTISING)
1754:Generated_Source\PSoC4/BLE_1_eventHandler.c ****                     {
1755:Generated_Source\PSoC4/BLE_1_eventHandler.c ****                         CyBle_SetState(CYBLE_STATE_DISCONNECTED);
1756:Generated_Source\PSoC4/BLE_1_eventHandler.c ****                     #if ((CYBLE_SLOW_ADV_ENABLED != 0u) && (CYBLE_FAST_ADV_TIMEOUT != 0u))
1757:Generated_Source\PSoC4/BLE_1_eventHandler.c ****                         if(cyBle_advertisingIntervalType == CYBLE_ADVERTISING_FAST)
1758:Generated_Source\PSoC4/BLE_1_eventHandler.c ****                         {
1759:Generated_Source\PSoC4/BLE_1_eventHandler.c ****                             /* When fast advertising time out occur: Start slow advertising */
1760:Generated_Source\PSoC4/BLE_1_eventHandler.c ****                             if(CyBle_GappStartAdvertisement(CYBLE_ADVERTISING_SLOW) == CYBLE_ERROR_
1761:Generated_Source\PSoC4/BLE_1_eventHandler.c ****                             {
1762:Generated_Source\PSoC4/BLE_1_eventHandler.c ****                                 CyBle_SetState(CYBLE_STATE_ADVERTISING);
1763:Generated_Source\PSoC4/BLE_1_eventHandler.c ****                             }
1764:Generated_Source\PSoC4/BLE_1_eventHandler.c ****                         }
1765:Generated_Source\PSoC4/BLE_1_eventHandler.c ****                     #endif /* CYBLE_SLOW_ADV_ENABLED */
1766:Generated_Source\PSoC4/BLE_1_eventHandler.c ****                     }
1767:Generated_Source\PSoC4/BLE_1_eventHandler.c ****                 }
1768:Generated_Source\PSoC4/BLE_1_eventHandler.c ****             }
1769:Generated_Source\PSoC4/BLE_1_eventHandler.c ****             break;
1770:Generated_Source\PSoC4/BLE_1_eventHandler.c ****         #endif /* CYBLE_GAP_ROLE_PERIPHERAL || CYBLE_GAP_ROLE_BROADCASTER */
1771:Generated_Source\PSoC4/BLE_1_eventHandler.c ****         
1772:Generated_Source\PSoC4/BLE_1_eventHandler.c ****         #if(CYBLE_GAP_ROLE_CENTRAL || CYBLE_GAP_ROLE_OBSERVER)    
1773:Generated_Source\PSoC4/BLE_1_eventHandler.c ****         case CYBLE_EVT_GAPC_SCAN_START_STOP:
1774:Generated_Source\PSoC4/BLE_1_eventHandler.c ****             #ifdef CYBLE_CPS_CLIENT
1775:Generated_Source\PSoC4/BLE_1_eventHandler.c ****                 CyBle_CpscScanStartStopEventHandler();
1776:Generated_Source\PSoC4/BLE_1_eventHandler.c ****             #endif /* CYBLE_CPS_CLIENT */
1777:Generated_Source\PSoC4/BLE_1_eventHandler.c ****             
1778:Generated_Source\PSoC4/BLE_1_eventHandler.c ****             if((CYBLE_STATE_CONNECTED != CyBle_GetState()) && ((cyBle_eventHandlerFlag & CYBLE_CALL
 1426              		.loc 1 1778 0
 1427 016a 754B     		ldr	r3, .L103+16
 1428 016c 1B78     		ldrb	r3, [r3]
 1429 016e 022B     		cmp	r3, #2
 1430 0170 40D0     		beq	.L95
 1431              		.loc 1 1778 0 is_stmt 0 discriminator 1
 1432 0172 6F4B     		ldr	r3, .L103
 1433 0174 1B78     		ldrb	r3, [r3]
 1434 0176 DBB2     		uxtb	r3, r3
 1435 0178 1A1C     		mov	r2, r3
 1436 017a 0123     		mov	r3, #1
 1437 017c 1340     		and	r3, r2
 1438 017e 39D0     		beq	.L95
1779:Generated_Source\PSoC4/BLE_1_eventHandler.c ****             {
1780:Generated_Source\PSoC4/BLE_1_eventHandler.c ****                 /* After CyBle_GapcStartScan first event indicates that scanning has been started *
1781:Generated_Source\PSoC4/BLE_1_eventHandler.c ****                 if(0u != (cyBle_eventHandlerFlag & CYBLE_START_FLAG))
 1439              		.loc 1 1781 0 is_stmt 1
 1440 0180 6B4B     		ldr	r3, .L103
 1441 0182 1B78     		ldrb	r3, [r3]
 1442 0184 DBB2     		uxtb	r3, r3
 1443 0186 1A1C     		mov	r2, r3
 1444 0188 0423     		mov	r3, #4
 1445 018a 1340     		and	r3, r2
 1446 018c 0BD0     		beq	.L96
1782:Generated_Source\PSoC4/BLE_1_eventHandler.c ****                 {
1783:Generated_Source\PSoC4/BLE_1_eventHandler.c ****                     CyBle_SetState(CYBLE_STATE_SCANNING);
 1447              		.loc 1 1783 0
 1448 018e 6C4B     		ldr	r3, .L103+16
 1449 0190 0322     		mov	r2, #3
ARM GAS  C:\Users\Sarah\AppData\Local\Temp\ccqSJLdk.s 			page 58


 1450 0192 1A70     		strb	r2, [r3]
1784:Generated_Source\PSoC4/BLE_1_eventHandler.c ****                     cyBle_eventHandlerFlag &= (uint8)~CYBLE_START_FLAG;
 1451              		.loc 1 1784 0
 1452 0194 664B     		ldr	r3, .L103
 1453 0196 1B78     		ldrb	r3, [r3]
 1454 0198 DBB2     		uxtb	r3, r3
 1455 019a 0422     		mov	r2, #4
 1456 019c 9343     		bic	r3, r2
 1457 019e DAB2     		uxtb	r2, r3
 1458 01a0 634B     		ldr	r3, .L103
 1459 01a2 1A70     		strb	r2, [r3]
 1460 01a4 26E0     		b	.L95
 1461              	.L96:
1785:Generated_Source\PSoC4/BLE_1_eventHandler.c ****                 }
1786:Generated_Source\PSoC4/BLE_1_eventHandler.c ****                 /* When application initiated stop scanning */
1787:Generated_Source\PSoC4/BLE_1_eventHandler.c ****                 else if(0u != (cyBle_eventHandlerFlag & CYBLE_STOP_FLAG))
 1462              		.loc 1 1787 0
 1463 01a6 624B     		ldr	r3, .L103
 1464 01a8 1B78     		ldrb	r3, [r3]
 1465 01aa DBB2     		uxtb	r3, r3
 1466 01ac 1A1C     		mov	r2, r3
 1467 01ae 0823     		mov	r3, #8
 1468 01b0 1340     		and	r3, r2
 1469 01b2 0BD0     		beq	.L97
1788:Generated_Source\PSoC4/BLE_1_eventHandler.c ****                 {
1789:Generated_Source\PSoC4/BLE_1_eventHandler.c ****                     CyBle_SetState(CYBLE_STATE_DISCONNECTED);  
 1470              		.loc 1 1789 0
 1471 01b4 624B     		ldr	r3, .L103+16
 1472 01b6 0522     		mov	r2, #5
 1473 01b8 1A70     		strb	r2, [r3]
1790:Generated_Source\PSoC4/BLE_1_eventHandler.c ****                     cyBle_eventHandlerFlag &= (uint8)~CYBLE_STOP_FLAG;
 1474              		.loc 1 1790 0
 1475 01ba 5D4B     		ldr	r3, .L103
 1476 01bc 1B78     		ldrb	r3, [r3]
 1477 01be DBB2     		uxtb	r3, r3
 1478 01c0 0822     		mov	r2, #8
 1479 01c2 9343     		bic	r3, r2
 1480 01c4 DAB2     		uxtb	r2, r3
 1481 01c6 5A4B     		ldr	r3, .L103
 1482 01c8 1A70     		strb	r2, [r3]
 1483 01ca 13E0     		b	.L95
 1484              	.L97:
1791:Generated_Source\PSoC4/BLE_1_eventHandler.c ****                 }
1792:Generated_Source\PSoC4/BLE_1_eventHandler.c ****                 else /* Following event indicates that scanning has been stopped by stack */
1793:Generated_Source\PSoC4/BLE_1_eventHandler.c ****                 {
1794:Generated_Source\PSoC4/BLE_1_eventHandler.c ****                     if(CyBle_GetState() == CYBLE_STATE_SCANNING)
 1485              		.loc 1 1794 0
 1486 01cc 5C4B     		ldr	r3, .L103+16
 1487 01ce 1B78     		ldrb	r3, [r3]
 1488 01d0 032B     		cmp	r3, #3
 1489 01d2 0FD1     		bne	.L95
1795:Generated_Source\PSoC4/BLE_1_eventHandler.c ****                     {
1796:Generated_Source\PSoC4/BLE_1_eventHandler.c ****                         CyBle_SetState(CYBLE_STATE_DISCONNECTED);  
 1490              		.loc 1 1796 0
 1491 01d4 5A4B     		ldr	r3, .L103+16
 1492 01d6 0522     		mov	r2, #5
 1493 01d8 1A70     		strb	r2, [r3]
ARM GAS  C:\Users\Sarah\AppData\Local\Temp\ccqSJLdk.s 			page 59


1797:Generated_Source\PSoC4/BLE_1_eventHandler.c ****                     #if ((CYBLE_SLOW_SCAN_ENABLED != 0u) && (CYBLE_FAST_SCAN_TIMEOUT != 0u))
1798:Generated_Source\PSoC4/BLE_1_eventHandler.c ****                         if(cyBle_scanningIntervalType == CYBLE_SCANNING_FAST)
 1494              		.loc 1 1798 0
 1495 01da 614B     		ldr	r3, .L103+48
 1496 01dc 1B78     		ldrb	r3, [r3]
 1497 01de 002B     		cmp	r3, #0
 1498 01e0 08D1     		bne	.L95
1799:Generated_Source\PSoC4/BLE_1_eventHandler.c ****                         {
1800:Generated_Source\PSoC4/BLE_1_eventHandler.c ****                             /* When fast scanning time out occur: Start slow scanning */
1801:Generated_Source\PSoC4/BLE_1_eventHandler.c ****                             if(CyBle_GapcStartScan(CYBLE_SCANNING_SLOW) == CYBLE_ERROR_OK)
 1499              		.loc 1 1801 0
 1500 01e2 0120     		mov	r0, #1
 1501 01e4 FFF7FEFF 		bl	CyBle_GapcStartScan
 1502 01e8 031E     		sub	r3, r0, #0
 1503 01ea 03D1     		bne	.L95
1802:Generated_Source\PSoC4/BLE_1_eventHandler.c ****                             {
1803:Generated_Source\PSoC4/BLE_1_eventHandler.c ****                                 CyBle_SetState(CYBLE_STATE_SCANNING);
 1504              		.loc 1 1803 0
 1505 01ec 544B     		ldr	r3, .L103+16
 1506 01ee 0322     		mov	r2, #3
 1507 01f0 1A70     		strb	r2, [r3]
1804:Generated_Source\PSoC4/BLE_1_eventHandler.c ****                             }
1805:Generated_Source\PSoC4/BLE_1_eventHandler.c ****                         }
1806:Generated_Source\PSoC4/BLE_1_eventHandler.c ****                     #endif /* CYBLE_SLOW_SCAN_ENABLED */
1807:Generated_Source\PSoC4/BLE_1_eventHandler.c ****                     }
1808:Generated_Source\PSoC4/BLE_1_eventHandler.c ****                 }
1809:Generated_Source\PSoC4/BLE_1_eventHandler.c ****             }
1810:Generated_Source\PSoC4/BLE_1_eventHandler.c ****             break;
 1508              		.loc 1 1810 0
 1509 01f2 C0E0     		b	.L89
 1510              	.L95:
 1511 01f4 BFE0     		b	.L89
 1512              	.L85:
1811:Generated_Source\PSoC4/BLE_1_eventHandler.c ****         #endif /* CYBLE_GAP_ROLE_CENTRAL || CYBLE_GAP_ROLE_OBSERVER */
1812:Generated_Source\PSoC4/BLE_1_eventHandler.c **** 
1813:Generated_Source\PSoC4/BLE_1_eventHandler.c ****         /**********************************************************
1814:Generated_Source\PSoC4/BLE_1_eventHandler.c ****         * L2AP events 
1815:Generated_Source\PSoC4/BLE_1_eventHandler.c ****         ************************************************************/
1816:Generated_Source\PSoC4/BLE_1_eventHandler.c ****         case CYBLE_EVT_L2CAP_CONN_PARAM_UPDATE_RSP:
1817:Generated_Source\PSoC4/BLE_1_eventHandler.c ****             CyBle_L2Cap_ConnParamUpdateRspEventHandler(*(uint16 *)eventParam);
 1513              		.loc 1 1817 0
 1514 01f6 3B68     		ldr	r3, [r7]
 1515 01f8 1B88     		ldrh	r3, [r3]
 1516 01fa 181C     		mov	r0, r3
 1517 01fc FFF7FEFF 		bl	CyBle_L2Cap_ConnParamUpdateRspEventHandler
1818:Generated_Source\PSoC4/BLE_1_eventHandler.c ****             break;
 1518              		.loc 1 1818 0
 1519 0200 B9E0     		b	.L89
 1520              	.L65:
1819:Generated_Source\PSoC4/BLE_1_eventHandler.c ****         
1820:Generated_Source\PSoC4/BLE_1_eventHandler.c ****         /**********************************************************
1821:Generated_Source\PSoC4/BLE_1_eventHandler.c ****         * GATT events
1822:Generated_Source\PSoC4/BLE_1_eventHandler.c ****         ************************************************************/        
1823:Generated_Source\PSoC4/BLE_1_eventHandler.c ****         case CYBLE_EVT_GATT_CONNECT_IND:
1824:Generated_Source\PSoC4/BLE_1_eventHandler.c ****             cyBle_connHandle = *(CYBLE_CONN_HANDLE_T *)eventParam;
 1521              		.loc 1 1824 0
 1522 0202 544A     		ldr	r2, .L103+36
ARM GAS  C:\Users\Sarah\AppData\Local\Temp\ccqSJLdk.s 			page 60


 1523 0204 3B68     		ldr	r3, [r7]
 1524 0206 111C     		mov	r1, r2
 1525 0208 1A1C     		mov	r2, r3
 1526 020a 0223     		mov	r3, #2
 1527 020c 081C     		mov	r0, r1
 1528 020e 111C     		mov	r1, r2
 1529 0210 1A1C     		mov	r2, r3
 1530 0212 FFF7FEFF 		bl	memcpy
1825:Generated_Source\PSoC4/BLE_1_eventHandler.c ****             cyBle_busyStatus = CYBLE_STACK_STATE_FREE;
 1531              		.loc 1 1825 0
 1532 0216 4B4B     		ldr	r3, .L103+20
 1533 0218 0022     		mov	r2, #0
 1534 021a 1A70     		strb	r2, [r3]
1826:Generated_Source\PSoC4/BLE_1_eventHandler.c ****             
1827:Generated_Source\PSoC4/BLE_1_eventHandler.c ****         #if((CYBLE_GATT_ROLE_SERVER) && (CYBLE_GATT_DB_CCCD_COUNT != 0u) && \
1828:Generated_Source\PSoC4/BLE_1_eventHandler.c ****             (CYBLE_BONDING_REQUIREMENT == CYBLE_BONDING_YES))
1829:Generated_Source\PSoC4/BLE_1_eventHandler.c ****             /* Init CCCD values in RAM when bonding is enabled */
1830:Generated_Source\PSoC4/BLE_1_eventHandler.c ****         	(void) memcpy (cyBle_attValuesCCCD, cyBle_flashStorage.attValuesCCCDFlashMemory[cyBle_conn
 1535              		.loc 1 1830 0
 1536 021c 4D4B     		ldr	r3, .L103+36
 1537 021e 1B78     		ldrb	r3, [r3]
 1538 0220 3D33     		add	r3, r3, #61
 1539 0222 FF33     		add	r3, r3, #255
 1540 0224 5A00     		lsl	r2, r3, #1
 1541 0226 4F4B     		ldr	r3, .L103+52
 1542 0228 D318     		add	r3, r2, r3
 1543 022a 0133     		add	r3, r3, #1
 1544 022c 4E4A     		ldr	r2, .L103+56
 1545 022e 111C     		mov	r1, r2
 1546 0230 1A1C     		mov	r2, r3
 1547 0232 0223     		mov	r3, #2
 1548 0234 081C     		mov	r0, r1
 1549 0236 111C     		mov	r1, r2
 1550 0238 1A1C     		mov	r2, r3
 1551 023a FFF7FEFF 		bl	memcpy
1831:Generated_Source\PSoC4/BLE_1_eventHandler.c ****                             CYBLE_GATT_DB_CCCD_COUNT);
1832:Generated_Source\PSoC4/BLE_1_eventHandler.c ****         #endif /* CYBLE_GATT_ROLE_SERVER && (CYBLE_BONDING_REQUIREMENT == CYBLE_BONDING_YES) */
1833:Generated_Source\PSoC4/BLE_1_eventHandler.c ****         
1834:Generated_Source\PSoC4/BLE_1_eventHandler.c ****         #if (CYBLE_GATT_ROLE_CLIENT)
1835:Generated_Source\PSoC4/BLE_1_eventHandler.c ****             CyBle_SetClientState(CYBLE_CLIENT_STATE_CONNECTED);
 1552              		.loc 1 1835 0
 1553 023e 4B4B     		ldr	r3, .L103+60
 1554 0240 0022     		mov	r2, #0
 1555 0242 1A70     		strb	r2, [r3]
1836:Generated_Source\PSoC4/BLE_1_eventHandler.c ****         #endif /* CYBLE_GATT_ROLE_CLIENT */
1837:Generated_Source\PSoC4/BLE_1_eventHandler.c ****         
1838:Generated_Source\PSoC4/BLE_1_eventHandler.c ****             CyBle_GattConnectReqHandler();
 1556              		.loc 1 1838 0
 1557 0244 FFF7FEFF 		bl	CyBle_GattConnectReqHandler
1839:Generated_Source\PSoC4/BLE_1_eventHandler.c ****             break;
 1558              		.loc 1 1839 0
 1559 0248 95E0     		b	.L89
 1560              	.L66:
1840:Generated_Source\PSoC4/BLE_1_eventHandler.c **** 
1841:Generated_Source\PSoC4/BLE_1_eventHandler.c ****         case CYBLE_EVT_GATT_DISCONNECT_IND:
1842:Generated_Source\PSoC4/BLE_1_eventHandler.c ****             CyBle_GattDisconnectEventHandler();
 1561              		.loc 1 1842 0
ARM GAS  C:\Users\Sarah\AppData\Local\Temp\ccqSJLdk.s 			page 61


 1562 024a FFF7FEFF 		bl	CyBle_GattDisconnectEventHandler
1843:Generated_Source\PSoC4/BLE_1_eventHandler.c ****             break;
 1563              		.loc 1 1843 0
 1564 024e 92E0     		b	.L89
 1565              	.L67:
 1566              	.LBB9:
1844:Generated_Source\PSoC4/BLE_1_eventHandler.c **** 
1845:Generated_Source\PSoC4/BLE_1_eventHandler.c ****     #if((CYBLE_GATT_ROLE_SERVER) || (CYBLE_GATT_ROLE_CLIENT))
1846:Generated_Source\PSoC4/BLE_1_eventHandler.c ****         case CYBLE_EVT_GATTS_XCNHG_MTU_REQ:
1847:Generated_Source\PSoC4/BLE_1_eventHandler.c ****             {
1848:Generated_Source\PSoC4/BLE_1_eventHandler.c ****                 uint16 cyBle_mtuSize;
1849:Generated_Source\PSoC4/BLE_1_eventHandler.c ****                 if(CYBLE_GATT_MTU > ((CYBLE_GATT_XCHG_MTU_PARAM_T *)eventParam)->mtu)
 1567              		.loc 1 1849 0
 1568 0250 3B68     		ldr	r3, [r7]
 1569 0252 5B88     		ldrh	r3, [r3, #2]
 1570 0254 162B     		cmp	r3, #22
 1571 0256 05D8     		bhi	.L98
1850:Generated_Source\PSoC4/BLE_1_eventHandler.c ****                 {
1851:Generated_Source\PSoC4/BLE_1_eventHandler.c ****                     cyBle_mtuSize = ((CYBLE_GATT_XCHG_MTU_PARAM_T *)eventParam)->mtu;
 1572              		.loc 1 1851 0
 1573 0258 1623     		mov	r3, #22
 1574 025a FB18     		add	r3, r7, r3
 1575 025c 3A68     		ldr	r2, [r7]
 1576 025e 5288     		ldrh	r2, [r2, #2]
 1577 0260 1A80     		strh	r2, [r3]
 1578 0262 03E0     		b	.L99
 1579              	.L98:
1852:Generated_Source\PSoC4/BLE_1_eventHandler.c ****                 }
1853:Generated_Source\PSoC4/BLE_1_eventHandler.c ****                 else
1854:Generated_Source\PSoC4/BLE_1_eventHandler.c ****                 {
1855:Generated_Source\PSoC4/BLE_1_eventHandler.c ****                     cyBle_mtuSize = CYBLE_GATT_MTU;
 1580              		.loc 1 1855 0
 1581 0264 1623     		mov	r3, #22
 1582 0266 FB18     		add	r3, r7, r3
 1583 0268 1722     		mov	r2, #23
 1584 026a 1A80     		strh	r2, [r3]
 1585              	.L99:
1856:Generated_Source\PSoC4/BLE_1_eventHandler.c ****                 }
1857:Generated_Source\PSoC4/BLE_1_eventHandler.c ****                 (void)CyBle_GattsExchangeMtuRsp(((CYBLE_GATT_XCHG_MTU_PARAM_T *)eventParam)->connHa
 1586              		.loc 1 1857 0
 1587 026c 3B68     		ldr	r3, [r7]
 1588 026e 1622     		mov	r2, #22
 1589 0270 BA18     		add	r2, r7, r2
 1590 0272 1188     		ldrh	r1, [r2]
 1591 0274 1A88     		ldrh	r2, [r3]
 1592 0276 0023     		mov	r3, #0
 1593 0278 1204     		lsl	r2, r2, #16
 1594 027a 120C     		lsr	r2, r2, #16
 1595 027c 1B0C     		lsr	r3, r3, #16
 1596 027e 1B04     		lsl	r3, r3, #16
 1597 0280 1343     		orr	r3, r2
 1598 0282 181C     		mov	r0, r3
 1599 0284 FFF7FEFF 		bl	CyBle_GattsExchangeMtuRsp
 1600              	.LBE9:
1858:Generated_Source\PSoC4/BLE_1_eventHandler.c ****             }
1859:Generated_Source\PSoC4/BLE_1_eventHandler.c ****             break;
 1601              		.loc 1 1859 0
ARM GAS  C:\Users\Sarah\AppData\Local\Temp\ccqSJLdk.s 			page 62


 1602 0288 75E0     		b	.L89
 1603              	.L74:
1860:Generated_Source\PSoC4/BLE_1_eventHandler.c ****     #endif /* CYBLE_GATT_ROLE_SERVER || CYBLE_GATT_ROLE_CLIENT */
1861:Generated_Source\PSoC4/BLE_1_eventHandler.c ****     
1862:Generated_Source\PSoC4/BLE_1_eventHandler.c ****     #if (CYBLE_GATT_ROLE_CLIENT)
1863:Generated_Source\PSoC4/BLE_1_eventHandler.c ****         case CYBLE_EVT_GAPC_SCAN_PROGRESS_RESULT:
1864:Generated_Source\PSoC4/BLE_1_eventHandler.c ****         #ifdef CYBLE_CPS_CLIENT
1865:Generated_Source\PSoC4/BLE_1_eventHandler.c ****             CyBle_CpscScanProcessEventHandler((CYBLE_GAPC_ADV_REPORT_T *)eventParam);
1866:Generated_Source\PSoC4/BLE_1_eventHandler.c ****         #endif /* CYBLE_CPS_CLIENT */
1867:Generated_Source\PSoC4/BLE_1_eventHandler.c ****             break;
1868:Generated_Source\PSoC4/BLE_1_eventHandler.c ****     #endif /* CYBLE_GATT_ROLE_CLIENT */
1869:Generated_Source\PSoC4/BLE_1_eventHandler.c **** 
1870:Generated_Source\PSoC4/BLE_1_eventHandler.c ****     #if(CYBLE_GATT_ROLE_SERVER)
1871:Generated_Source\PSoC4/BLE_1_eventHandler.c ****         case CYBLE_EVT_GATTS_WRITE_REQ:
1872:Generated_Source\PSoC4/BLE_1_eventHandler.c ****             CyBle_WriteReqHandler((CYBLE_GATTS_WRITE_REQ_PARAM_T *)eventParam);
 1604              		.loc 1 1872 0
 1605 028a 3B68     		ldr	r3, [r7]
 1606 028c 181C     		mov	r0, r3
 1607 028e FFF7FEFF 		bl	CyBle_WriteReqHandler
1873:Generated_Source\PSoC4/BLE_1_eventHandler.c ****             break;
 1608              		.loc 1 1873 0
 1609 0292 70E0     		b	.L89
 1610              	.L82:
1874:Generated_Source\PSoC4/BLE_1_eventHandler.c **** 
1875:Generated_Source\PSoC4/BLE_1_eventHandler.c ****         case CYBLE_EVT_GATTS_WRITE_CMD_REQ:
1876:Generated_Source\PSoC4/BLE_1_eventHandler.c ****         #ifdef CYBLE_IAS_SERVER
1877:Generated_Source\PSoC4/BLE_1_eventHandler.c ****             if((cyBle_eventHandlerFlag & CYBLE_CALLBACK) != 0u)
1878:Generated_Source\PSoC4/BLE_1_eventHandler.c ****             {
1879:Generated_Source\PSoC4/BLE_1_eventHandler.c ****                 (void)CyBle_IassWriteCmdEventHandler((CYBLE_GATTS_WRITE_REQ_PARAM_T *)eventParam);
1880:Generated_Source\PSoC4/BLE_1_eventHandler.c ****             }
1881:Generated_Source\PSoC4/BLE_1_eventHandler.c ****         #endif /* CYBLE_IAS_SERVER */
1882:Generated_Source\PSoC4/BLE_1_eventHandler.c ****         #ifdef CYBLE_IPS_SERVER
1883:Generated_Source\PSoC4/BLE_1_eventHandler.c ****             if((cyBle_eventHandlerFlag & CYBLE_CALLBACK) != 0u)
1884:Generated_Source\PSoC4/BLE_1_eventHandler.c ****             {
1885:Generated_Source\PSoC4/BLE_1_eventHandler.c ****                 (void)CyBle_IpssWriteCmdEventHandler((CYBLE_GATTS_WRITE_REQ_PARAM_T *)eventParam);
1886:Generated_Source\PSoC4/BLE_1_eventHandler.c ****             }
1887:Generated_Source\PSoC4/BLE_1_eventHandler.c ****         #endif /* CYBLE_IPS_SERVER */
1888:Generated_Source\PSoC4/BLE_1_eventHandler.c ****         #ifdef CYBLE_HIDS_SERVER
1889:Generated_Source\PSoC4/BLE_1_eventHandler.c ****             if((cyBle_eventHandlerFlag & CYBLE_CALLBACK) != 0u)
1890:Generated_Source\PSoC4/BLE_1_eventHandler.c ****             {
1891:Generated_Source\PSoC4/BLE_1_eventHandler.c ****                 (void)CyBle_HidssWriteEventHandler((CYBLE_GATTS_WRITE_REQ_PARAM_T *)eventParam);
1892:Generated_Source\PSoC4/BLE_1_eventHandler.c ****             }
1893:Generated_Source\PSoC4/BLE_1_eventHandler.c ****         #endif /* CYBLE_HIDS_SERVER */
1894:Generated_Source\PSoC4/BLE_1_eventHandler.c ****         #ifdef CYBLE_PASS_SERVER
1895:Generated_Source\PSoC4/BLE_1_eventHandler.c ****             if((cyBle_eventHandlerFlag & CYBLE_CALLBACK) != 0u)
1896:Generated_Source\PSoC4/BLE_1_eventHandler.c ****             {
1897:Generated_Source\PSoC4/BLE_1_eventHandler.c ****                 (void)CyBle_PasssWriteCmdEventHandler((CYBLE_GATTS_WRITE_REQ_PARAM_T *)eventParam);
1898:Generated_Source\PSoC4/BLE_1_eventHandler.c ****             }
1899:Generated_Source\PSoC4/BLE_1_eventHandler.c ****         #endif /* CYBLE_PASS_SERVER */
1900:Generated_Source\PSoC4/BLE_1_eventHandler.c ****         #ifdef CYBLE_RTUS_SERVER
1901:Generated_Source\PSoC4/BLE_1_eventHandler.c ****             if((cyBle_eventHandlerFlag & CYBLE_CALLBACK) != 0u)
1902:Generated_Source\PSoC4/BLE_1_eventHandler.c ****             {
1903:Generated_Source\PSoC4/BLE_1_eventHandler.c ****                 (void)CyBle_RtussWriteCmdEventHandler((CYBLE_GATTS_WRITE_REQ_PARAM_T *)eventParam);
1904:Generated_Source\PSoC4/BLE_1_eventHandler.c ****             }
1905:Generated_Source\PSoC4/BLE_1_eventHandler.c ****         #endif /* CYBLE_RTUS_SERVER */
1906:Generated_Source\PSoC4/BLE_1_eventHandler.c ****         #ifdef CYBLE_SCPS_SERVER
1907:Generated_Source\PSoC4/BLE_1_eventHandler.c ****             if((cyBle_eventHandlerFlag & CYBLE_CALLBACK) != 0u)
ARM GAS  C:\Users\Sarah\AppData\Local\Temp\ccqSJLdk.s 			page 63


1908:Generated_Source\PSoC4/BLE_1_eventHandler.c ****             {
1909:Generated_Source\PSoC4/BLE_1_eventHandler.c ****                 (void)CyBle_ScpssWriteEventHandler((CYBLE_GATTS_WRITE_REQ_PARAM_T *)eventParam);
1910:Generated_Source\PSoC4/BLE_1_eventHandler.c ****             }
1911:Generated_Source\PSoC4/BLE_1_eventHandler.c ****         #endif /* CYBLE_SCPS_SERVER */
1912:Generated_Source\PSoC4/BLE_1_eventHandler.c ****             break;
1913:Generated_Source\PSoC4/BLE_1_eventHandler.c ****         
1914:Generated_Source\PSoC4/BLE_1_eventHandler.c ****         case CYBLE_EVT_GATTS_PREP_WRITE_REQ:
1915:Generated_Source\PSoC4/BLE_1_eventHandler.c ****         #ifdef CYBLE_BMS_SERVER
1916:Generated_Source\PSoC4/BLE_1_eventHandler.c ****             CyBle_BmssPrepareWriteRequestEventHandler((CYBLE_GATTS_PREP_WRITE_REQ_PARAM_T *)eventPa
1917:Generated_Source\PSoC4/BLE_1_eventHandler.c ****         #endif /* CYBLE_BMS_SERVER */
1918:Generated_Source\PSoC4/BLE_1_eventHandler.c ****         #ifdef CYBLE_BTS_SERVER
1919:Generated_Source\PSoC4/BLE_1_eventHandler.c ****             if((cyBle_eventHandlerFlag & CYBLE_CALLBACK) != 0u)
1920:Generated_Source\PSoC4/BLE_1_eventHandler.c ****             {
1921:Generated_Source\PSoC4/BLE_1_eventHandler.c ****                 CyBle_BtssPrepareWriteRequestEventHandler((CYBLE_GATTS_PREP_WRITE_REQ_PARAM_T *)eve
1922:Generated_Source\PSoC4/BLE_1_eventHandler.c ****             }
1923:Generated_Source\PSoC4/BLE_1_eventHandler.c ****         #endif /* CYBLE_BTS_SERVER */
1924:Generated_Source\PSoC4/BLE_1_eventHandler.c ****         #ifdef CYBLE_ESS_SERVER
1925:Generated_Source\PSoC4/BLE_1_eventHandler.c ****             if((cyBle_eventHandlerFlag & CYBLE_CALLBACK) != 0u)
1926:Generated_Source\PSoC4/BLE_1_eventHandler.c ****             {
1927:Generated_Source\PSoC4/BLE_1_eventHandler.c ****                 CyBle_EsssPrepareWriteRequestEventHandler((CYBLE_GATTS_PREP_WRITE_REQ_PARAM_T *)eve
1928:Generated_Source\PSoC4/BLE_1_eventHandler.c ****             }
1929:Generated_Source\PSoC4/BLE_1_eventHandler.c ****         #endif /* CYBLE_ESS_SERVER */
1930:Generated_Source\PSoC4/BLE_1_eventHandler.c ****         #ifdef CYBLE_HPS_SERVER
1931:Generated_Source\PSoC4/BLE_1_eventHandler.c ****             if((cyBle_eventHandlerFlag & CYBLE_CALLBACK) != 0u)
1932:Generated_Source\PSoC4/BLE_1_eventHandler.c ****             {
1933:Generated_Source\PSoC4/BLE_1_eventHandler.c ****                 CyBle_HpssPrepareWriteRequestEventHandler((CYBLE_GATTS_PREP_WRITE_REQ_PARAM_T *)eve
1934:Generated_Source\PSoC4/BLE_1_eventHandler.c ****             }
1935:Generated_Source\PSoC4/BLE_1_eventHandler.c ****         #endif /* CYBLE_HPS_SERVER */
1936:Generated_Source\PSoC4/BLE_1_eventHandler.c ****         #ifdef CYBLE_IPS_SERVER
1937:Generated_Source\PSoC4/BLE_1_eventHandler.c ****             if((cyBle_eventHandlerFlag & CYBLE_CALLBACK) != 0u)
1938:Generated_Source\PSoC4/BLE_1_eventHandler.c ****             {
1939:Generated_Source\PSoC4/BLE_1_eventHandler.c ****                 CyBle_IpssPrepareWriteRequestEventHandler((CYBLE_GATTS_PREP_WRITE_REQ_PARAM_T *)eve
1940:Generated_Source\PSoC4/BLE_1_eventHandler.c ****             }
1941:Generated_Source\PSoC4/BLE_1_eventHandler.c ****         #endif /* CYBLE_IPS_SERVER */
1942:Generated_Source\PSoC4/BLE_1_eventHandler.c ****         #ifdef CYBLE_UDS_SERVER
1943:Generated_Source\PSoC4/BLE_1_eventHandler.c ****             if((cyBle_eventHandlerFlag & CYBLE_CALLBACK) != 0u)
1944:Generated_Source\PSoC4/BLE_1_eventHandler.c ****             {
1945:Generated_Source\PSoC4/BLE_1_eventHandler.c ****                 CyBle_UdssPrepareWriteRequestEventHandler((CYBLE_GATTS_PREP_WRITE_REQ_PARAM_T *)eve
1946:Generated_Source\PSoC4/BLE_1_eventHandler.c ****             }
1947:Generated_Source\PSoC4/BLE_1_eventHandler.c ****         #endif /* CYBLE_UDS_SERVER */
1948:Generated_Source\PSoC4/BLE_1_eventHandler.c ****             break;
1949:Generated_Source\PSoC4/BLE_1_eventHandler.c **** 
1950:Generated_Source\PSoC4/BLE_1_eventHandler.c ****         case CYBLE_EVT_GATTS_EXEC_WRITE_REQ:
1951:Generated_Source\PSoC4/BLE_1_eventHandler.c ****         #ifdef CYBLE_BMS_SERVER
1952:Generated_Source\PSoC4/BLE_1_eventHandler.c ****             CyBle_BmssExecuteWriteRequestEventHandler((CYBLE_GATTS_EXEC_WRITE_REQ_T *)eventParam);
1953:Generated_Source\PSoC4/BLE_1_eventHandler.c ****         #endif /* CYBLE_BMS_SERVER */
1954:Generated_Source\PSoC4/BLE_1_eventHandler.c ****         #ifdef CYBLE_BTS_SERVER
1955:Generated_Source\PSoC4/BLE_1_eventHandler.c ****             CyBle_BtssExecuteWriteRequestEventHandler((CYBLE_GATTS_EXEC_WRITE_REQ_T *)eventParam);
1956:Generated_Source\PSoC4/BLE_1_eventHandler.c ****         #endif /* CYBLE_BTS_SERVER */
1957:Generated_Source\PSoC4/BLE_1_eventHandler.c ****         #ifdef CYBLE_ESS_SERVER
1958:Generated_Source\PSoC4/BLE_1_eventHandler.c ****             CyBle_EsssExecuteWriteRequestEventHandler((CYBLE_GATTS_EXEC_WRITE_REQ_T *)eventParam);
1959:Generated_Source\PSoC4/BLE_1_eventHandler.c ****         #endif /* CYBLE_ESS_SERVER */
1960:Generated_Source\PSoC4/BLE_1_eventHandler.c ****         #ifdef CYBLE_HPS_SERVER
1961:Generated_Source\PSoC4/BLE_1_eventHandler.c ****             CyBle_HpssExecuteWriteRequestEventHandler((CYBLE_GATTS_EXEC_WRITE_REQ_T *)eventParam);
1962:Generated_Source\PSoC4/BLE_1_eventHandler.c ****         #endif /* CYBLE_HPS_SERVER */
1963:Generated_Source\PSoC4/BLE_1_eventHandler.c ****         #ifdef CYBLE_IPS_SERVER
1964:Generated_Source\PSoC4/BLE_1_eventHandler.c ****             CyBle_IpssExecuteWriteRequestEventHandler((CYBLE_GATTS_EXEC_WRITE_REQ_T *)eventParam);
ARM GAS  C:\Users\Sarah\AppData\Local\Temp\ccqSJLdk.s 			page 64


1965:Generated_Source\PSoC4/BLE_1_eventHandler.c ****         #endif /* CYBLE_IPS_SERVER */
1966:Generated_Source\PSoC4/BLE_1_eventHandler.c **** 		#ifdef CYBLE_UDS_SERVER
1967:Generated_Source\PSoC4/BLE_1_eventHandler.c ****             CyBle_UdssExecuteWriteRequestEventHandler((CYBLE_GATTS_EXEC_WRITE_REQ_T *)eventParam);
1968:Generated_Source\PSoC4/BLE_1_eventHandler.c ****         #endif /* CYBLE_UDS_SERVER */
1969:Generated_Source\PSoC4/BLE_1_eventHandler.c ****             break;
1970:Generated_Source\PSoC4/BLE_1_eventHandler.c ****         
1971:Generated_Source\PSoC4/BLE_1_eventHandler.c ****         case CYBLE_EVT_GATTS_HANDLE_VALUE_CNF:
1972:Generated_Source\PSoC4/BLE_1_eventHandler.c ****             CyBle_ValueConfirmation((CYBLE_CONN_HANDLE_T *)eventParam);
 1611              		.loc 1 1972 0
 1612 0294 3B68     		ldr	r3, [r7]
 1613 0296 181C     		mov	r0, r3
 1614 0298 FFF7FEFF 		bl	CyBle_ValueConfirmation
1973:Generated_Source\PSoC4/BLE_1_eventHandler.c ****             break;
 1615              		.loc 1 1973 0
 1616 029c 6BE0     		b	.L89
 1617              	.L68:
1974:Generated_Source\PSoC4/BLE_1_eventHandler.c ****             
1975:Generated_Source\PSoC4/BLE_1_eventHandler.c ****         case CYBLE_EVT_GATTS_READ_CHAR_VAL_ACCESS_REQ:
1976:Generated_Source\PSoC4/BLE_1_eventHandler.c ****         #ifdef CYBLE_UDS_SERVER
1977:Generated_Source\PSoC4/BLE_1_eventHandler.c ****             CyBle_UdssReadRequestEventHandler((CYBLE_GATTS_CHAR_VAL_READ_REQ_T *)eventParam);
1978:Generated_Source\PSoC4/BLE_1_eventHandler.c ****         #endif /* CYBLE_UDS_SERVER */
1979:Generated_Source\PSoC4/BLE_1_eventHandler.c ****             break;
1980:Generated_Source\PSoC4/BLE_1_eventHandler.c ****             
1981:Generated_Source\PSoC4/BLE_1_eventHandler.c ****     #endif /* CYBLE_GATT_ROLE_SERVER */
1982:Generated_Source\PSoC4/BLE_1_eventHandler.c **** 
1983:Generated_Source\PSoC4/BLE_1_eventHandler.c ****     #if (CYBLE_GATT_ROLE_CLIENT)
1984:Generated_Source\PSoC4/BLE_1_eventHandler.c ****         
1985:Generated_Source\PSoC4/BLE_1_eventHandler.c ****         case CYBLE_EVT_GATTC_READ_BY_GROUP_TYPE_RSP:
1986:Generated_Source\PSoC4/BLE_1_eventHandler.c ****             CyBle_ReadByGroupEventHandler((CYBLE_GATTC_READ_BY_GRP_RSP_PARAM_T *)eventParam);
 1618              		.loc 1 1986 0
 1619 029e 3B68     		ldr	r3, [r7]
 1620 02a0 181C     		mov	r0, r3
 1621 02a2 FFF7FEFF 		bl	CyBle_ReadByGroupEventHandler
1987:Generated_Source\PSoC4/BLE_1_eventHandler.c ****             break;
 1622              		.loc 1 1987 0
 1623 02a6 66E0     		b	.L89
 1624              	.L69:
1988:Generated_Source\PSoC4/BLE_1_eventHandler.c **** 
1989:Generated_Source\PSoC4/BLE_1_eventHandler.c ****         case CYBLE_EVT_GATTC_READ_BY_TYPE_RSP:
1990:Generated_Source\PSoC4/BLE_1_eventHandler.c ****             CyBle_ReadByTypeEventHandler((CYBLE_GATTC_READ_BY_TYPE_RSP_PARAM_T *)eventParam);
 1625              		.loc 1 1990 0
 1626 02a8 3B68     		ldr	r3, [r7]
 1627 02aa 181C     		mov	r0, r3
 1628 02ac FFF7FEFF 		bl	CyBle_ReadByTypeEventHandler
1991:Generated_Source\PSoC4/BLE_1_eventHandler.c ****             break;
 1629              		.loc 1 1991 0
 1630 02b0 61E0     		b	.L89
 1631              	.L84:
1992:Generated_Source\PSoC4/BLE_1_eventHandler.c **** 
1993:Generated_Source\PSoC4/BLE_1_eventHandler.c ****         case CYBLE_EVT_GATTC_READ_BLOB_RSP:
1994:Generated_Source\PSoC4/BLE_1_eventHandler.c ****         #ifdef CYBLE_ESS_CLIENT
1995:Generated_Source\PSoC4/BLE_1_eventHandler.c ****             CyBle_EsscReadLongRespEventHandler((CYBLE_GATTC_READ_RSP_PARAM_T *)eventParam);
1996:Generated_Source\PSoC4/BLE_1_eventHandler.c ****         #endif /* CYBLE_ESS_CLIENT */
1997:Generated_Source\PSoC4/BLE_1_eventHandler.c ****         #ifdef CYBLE_HPS_CLIENT
1998:Generated_Source\PSoC4/BLE_1_eventHandler.c ****             CyBle_HpscReadLongRespEventHandler((CYBLE_GATTC_READ_RSP_PARAM_T *)eventParam);
1999:Generated_Source\PSoC4/BLE_1_eventHandler.c ****         #endif /* CYBLE_HPS_CLIENT */
2000:Generated_Source\PSoC4/BLE_1_eventHandler.c **** 		#ifdef CYBLE_IPS_CLIENT
ARM GAS  C:\Users\Sarah\AppData\Local\Temp\ccqSJLdk.s 			page 65


2001:Generated_Source\PSoC4/BLE_1_eventHandler.c ****             CyBle_IpscReadLongRespEventHandler((CYBLE_GATTC_READ_RSP_PARAM_T *)eventParam);
2002:Generated_Source\PSoC4/BLE_1_eventHandler.c ****         #endif /* CYBLE_IPS_CLIENT */
2003:Generated_Source\PSoC4/BLE_1_eventHandler.c ****         #ifdef CYBLE_UDS_CLIENT
2004:Generated_Source\PSoC4/BLE_1_eventHandler.c ****             if((cyBle_eventHandlerFlag & CYBLE_CALLBACK) != 0u)
2005:Generated_Source\PSoC4/BLE_1_eventHandler.c ****             {
2006:Generated_Source\PSoC4/BLE_1_eventHandler.c ****                 CyBle_UdscReadLongRespEventHandler((CYBLE_GATTC_READ_RSP_PARAM_T *)eventParam);
2007:Generated_Source\PSoC4/BLE_1_eventHandler.c ****             }
2008:Generated_Source\PSoC4/BLE_1_eventHandler.c ****         #endif /* CYBLE_UDS_CLIENT */
2009:Generated_Source\PSoC4/BLE_1_eventHandler.c ****             break;
2010:Generated_Source\PSoC4/BLE_1_eventHandler.c ****         
2011:Generated_Source\PSoC4/BLE_1_eventHandler.c ****         case CYBLE_EVT_GATTC_LONG_PROCEDURE_END:
2012:Generated_Source\PSoC4/BLE_1_eventHandler.c ****             CyBle_LongProcedureEndEventHandler();
 1632              		.loc 1 2012 0
 1633 02b2 FFF7FEFF 		bl	CyBle_LongProcedureEndEventHandler
2013:Generated_Source\PSoC4/BLE_1_eventHandler.c ****             break;
 1634              		.loc 1 2013 0
 1635 02b6 5EE0     		b	.L89
 1636              	.L70:
2014:Generated_Source\PSoC4/BLE_1_eventHandler.c ****         
2015:Generated_Source\PSoC4/BLE_1_eventHandler.c ****         case CYBLE_EVT_GATTC_FIND_INFO_RSP:
2016:Generated_Source\PSoC4/BLE_1_eventHandler.c ****             CyBle_FindInfoEventHandler((CYBLE_GATTC_FIND_INFO_RSP_PARAM_T *)eventParam);
 1637              		.loc 1 2016 0
 1638 02b8 3B68     		ldr	r3, [r7]
 1639 02ba 181C     		mov	r0, r3
 1640 02bc FFF7FEFF 		bl	CyBle_FindInfoEventHandler
2017:Generated_Source\PSoC4/BLE_1_eventHandler.c ****             break;
 1641              		.loc 1 2017 0
 1642 02c0 59E0     		b	.L89
 1643              	.L64:
2018:Generated_Source\PSoC4/BLE_1_eventHandler.c **** 
2019:Generated_Source\PSoC4/BLE_1_eventHandler.c ****         case CYBLE_EVT_GATTC_ERROR_RSP:
2020:Generated_Source\PSoC4/BLE_1_eventHandler.c ****             CyBle_ErrorResponseEventHandler((CYBLE_GATTC_ERR_RSP_PARAM_T *)eventParam);
 1644              		.loc 1 2020 0
 1645 02c2 3B68     		ldr	r3, [r7]
 1646 02c4 181C     		mov	r0, r3
 1647 02c6 FFF7FEFF 		bl	CyBle_ErrorResponseEventHandler
2021:Generated_Source\PSoC4/BLE_1_eventHandler.c ****             break;
 1648              		.loc 1 2021 0
 1649 02ca 54E0     		b	.L89
 1650              	.L80:
2022:Generated_Source\PSoC4/BLE_1_eventHandler.c **** 
2023:Generated_Source\PSoC4/BLE_1_eventHandler.c ****         case CYBLE_EVT_GATTC_HANDLE_VALUE_NTF:
2024:Generated_Source\PSoC4/BLE_1_eventHandler.c ****             CyBle_NotificationEventHandler((CYBLE_GATTC_HANDLE_VALUE_NTF_PARAM_T *)eventParam);
 1651              		.loc 1 2024 0
 1652 02cc 3B68     		ldr	r3, [r7]
 1653 02ce 181C     		mov	r0, r3
 1654 02d0 FFF7FEFF 		bl	CyBle_NotificationEventHandler
2025:Generated_Source\PSoC4/BLE_1_eventHandler.c ****             break;
 1655              		.loc 1 2025 0
 1656 02d4 4FE0     		b	.L89
 1657              	.L81:
2026:Generated_Source\PSoC4/BLE_1_eventHandler.c **** 
2027:Generated_Source\PSoC4/BLE_1_eventHandler.c ****         case CYBLE_EVT_GATTC_HANDLE_VALUE_IND:
2028:Generated_Source\PSoC4/BLE_1_eventHandler.c ****             CyBle_GattcIndicationEventHandler((CYBLE_GATTC_HANDLE_VALUE_IND_PARAM_T *)eventParam);
 1658              		.loc 1 2028 0
 1659 02d6 3B68     		ldr	r3, [r7]
 1660 02d8 181C     		mov	r0, r3
ARM GAS  C:\Users\Sarah\AppData\Local\Temp\ccqSJLdk.s 			page 66


 1661 02da FFF7FEFF 		bl	CyBle_GattcIndicationEventHandler
2029:Generated_Source\PSoC4/BLE_1_eventHandler.c ****             CyBle_IndicationEventHandler((CYBLE_GATTC_HANDLE_VALUE_IND_PARAM_T *)eventParam);
 1662              		.loc 1 2029 0
 1663 02de 3B68     		ldr	r3, [r7]
 1664 02e0 181C     		mov	r0, r3
 1665 02e2 FFF7FEFF 		bl	CyBle_IndicationEventHandler
2030:Generated_Source\PSoC4/BLE_1_eventHandler.c ****         
2031:Generated_Source\PSoC4/BLE_1_eventHandler.c ****             /* Respond with a Handle Value Confirmation when request handled */
2032:Generated_Source\PSoC4/BLE_1_eventHandler.c ****             if((cyBle_eventHandlerFlag & CYBLE_CALLBACK) == 0u)
 1666              		.loc 1 2032 0
 1667 02e6 124B     		ldr	r3, .L103
 1668 02e8 1B78     		ldrb	r3, [r3]
 1669 02ea DBB2     		uxtb	r3, r3
 1670 02ec 1A1C     		mov	r2, r3
 1671 02ee 0123     		mov	r3, #1
 1672 02f0 1340     		and	r3, r2
 1673 02f2 04D1     		bne	.L100
2033:Generated_Source\PSoC4/BLE_1_eventHandler.c ****             {
2034:Generated_Source\PSoC4/BLE_1_eventHandler.c ****                 (void)CyBle_GattcConfirmation(((CYBLE_GATTC_HANDLE_VALUE_IND_PARAM_T *)eventParam)-
 1674              		.loc 1 2034 0
 1675 02f4 3B68     		ldr	r3, [r7]
 1676 02f6 1868     		ldr	r0, [r3]
 1677 02f8 FFF7FEFF 		bl	CyBle_GattcConfirmation
2035:Generated_Source\PSoC4/BLE_1_eventHandler.c ****             }
2036:Generated_Source\PSoC4/BLE_1_eventHandler.c ****             break;
 1678              		.loc 1 2036 0
 1679 02fc 3BE0     		b	.L89
 1680              	.L100:
 1681 02fe 3AE0     		b	.L89
 1682              	.L71:
2037:Generated_Source\PSoC4/BLE_1_eventHandler.c ****         
2038:Generated_Source\PSoC4/BLE_1_eventHandler.c ****         case CYBLE_EVT_GATTC_READ_RSP:
2039:Generated_Source\PSoC4/BLE_1_eventHandler.c ****             CyBle_ReadResponseEventHandler((CYBLE_GATTC_READ_RSP_PARAM_T *)eventParam);
 1683              		.loc 1 2039 0
 1684 0300 3B68     		ldr	r3, [r7]
 1685 0302 181C     		mov	r0, r3
 1686 0304 FFF7FEFF 		bl	CyBle_ReadResponseEventHandler
2040:Generated_Source\PSoC4/BLE_1_eventHandler.c ****             break;
 1687              		.loc 1 2040 0
 1688 0308 35E0     		b	.L89
 1689              	.L73:
2041:Generated_Source\PSoC4/BLE_1_eventHandler.c ****         
2042:Generated_Source\PSoC4/BLE_1_eventHandler.c ****         case CYBLE_EVT_GATTC_READ_MULTI_RSP:
2043:Generated_Source\PSoC4/BLE_1_eventHandler.c ****             CyBle_ReadMultipleResponseEventHandler((CYBLE_GATTC_READ_RSP_PARAM_T *)eventParam);
 1690              		.loc 1 2043 0
 1691 030a 3B68     		ldr	r3, [r7]
 1692 030c 181C     		mov	r0, r3
 1693 030e FFF7FEFF 		bl	CyBle_ReadMultipleResponseEventHandler
2044:Generated_Source\PSoC4/BLE_1_eventHandler.c ****             break;
 1694              		.loc 1 2044 0
 1695 0312 30E0     		b	.L89
 1696              	.L75:
2045:Generated_Source\PSoC4/BLE_1_eventHandler.c ****             
2046:Generated_Source\PSoC4/BLE_1_eventHandler.c ****         case CYBLE_EVT_GATTC_WRITE_RSP:
2047:Generated_Source\PSoC4/BLE_1_eventHandler.c ****             CyBle_GattcWriteResponseEventHandler((CYBLE_CONN_HANDLE_T *)eventParam);
 1697              		.loc 1 2047 0
 1698 0314 3B68     		ldr	r3, [r7]
ARM GAS  C:\Users\Sarah\AppData\Local\Temp\ccqSJLdk.s 			page 67


 1699 0316 181C     		mov	r0, r3
 1700 0318 FFF7FEFF 		bl	CyBle_GattcWriteResponseEventHandler
2048:Generated_Source\PSoC4/BLE_1_eventHandler.c ****             break;
 1701              		.loc 1 2048 0
 1702 031c 2BE0     		b	.L89
 1703              	.L86:
2049:Generated_Source\PSoC4/BLE_1_eventHandler.c ****             
2050:Generated_Source\PSoC4/BLE_1_eventHandler.c ****         case CYBLE_EVT_GATTC_EXEC_WRITE_RSP:
2051:Generated_Source\PSoC4/BLE_1_eventHandler.c ****         #ifdef CYBLE_BMS_CLIENT
2052:Generated_Source\PSoC4/BLE_1_eventHandler.c ****             CyBle_BmscExecuteWriteResponseEventHandler((CYBLE_GATTC_EXEC_WRITE_RSP_T *)eventParam);
2053:Generated_Source\PSoC4/BLE_1_eventHandler.c ****         #endif /* CYBLE_BMS_CLIENT */
2054:Generated_Source\PSoC4/BLE_1_eventHandler.c ****         #ifdef CYBLE_ESS_CLIENT
2055:Generated_Source\PSoC4/BLE_1_eventHandler.c ****             if((cyBle_eventHandlerFlag & CYBLE_CALLBACK) != 0u)
2056:Generated_Source\PSoC4/BLE_1_eventHandler.c ****             {
2057:Generated_Source\PSoC4/BLE_1_eventHandler.c ****                 CyBle_EsscExecuteWriteResponseEventHandler((CYBLE_GATTC_EXEC_WRITE_RSP_T *)eventPar
2058:Generated_Source\PSoC4/BLE_1_eventHandler.c ****             }
2059:Generated_Source\PSoC4/BLE_1_eventHandler.c ****         #endif /* CYBLE_ESS_CLIENT */
2060:Generated_Source\PSoC4/BLE_1_eventHandler.c ****         #ifdef CYBLE_HPS_CLIENT
2061:Generated_Source\PSoC4/BLE_1_eventHandler.c ****             if((cyBle_eventHandlerFlag & CYBLE_CALLBACK) != 0u)
2062:Generated_Source\PSoC4/BLE_1_eventHandler.c ****             {
2063:Generated_Source\PSoC4/BLE_1_eventHandler.c ****                 CyBle_HpscExecuteWriteResponseEventHandler((CYBLE_GATTC_EXEC_WRITE_RSP_T *)eventPar
2064:Generated_Source\PSoC4/BLE_1_eventHandler.c ****             }
2065:Generated_Source\PSoC4/BLE_1_eventHandler.c ****         #endif /* CYBLE_HPS_CLIENT */
2066:Generated_Source\PSoC4/BLE_1_eventHandler.c ****         #ifdef CYBLE_IPS_CLIENT
2067:Generated_Source\PSoC4/BLE_1_eventHandler.c ****             if((cyBle_eventHandlerFlag & CYBLE_CALLBACK) != 0u)
2068:Generated_Source\PSoC4/BLE_1_eventHandler.c ****             {
2069:Generated_Source\PSoC4/BLE_1_eventHandler.c ****                 CyBle_IpscExecuteWriteResponseEventHandler((CYBLE_GATTC_EXEC_WRITE_RSP_T *)eventPar
2070:Generated_Source\PSoC4/BLE_1_eventHandler.c ****             }
2071:Generated_Source\PSoC4/BLE_1_eventHandler.c ****         #endif /* CYBLE_IPS_CLIENT */
2072:Generated_Source\PSoC4/BLE_1_eventHandler.c ****         #ifdef CYBLE_UDS_CLIENT
2073:Generated_Source\PSoC4/BLE_1_eventHandler.c ****             if((cyBle_eventHandlerFlag & CYBLE_CALLBACK) != 0u)
2074:Generated_Source\PSoC4/BLE_1_eventHandler.c ****             {
2075:Generated_Source\PSoC4/BLE_1_eventHandler.c ****                 CyBle_UdscExecuteWriteResponseEventHandler((CYBLE_GATTC_EXEC_WRITE_RSP_T *)eventPar
2076:Generated_Source\PSoC4/BLE_1_eventHandler.c ****             }
2077:Generated_Source\PSoC4/BLE_1_eventHandler.c ****         #endif /* CYBLE_UDS_CLIENT */
2078:Generated_Source\PSoC4/BLE_1_eventHandler.c ****             break;
2079:Generated_Source\PSoC4/BLE_1_eventHandler.c ****             
2080:Generated_Source\PSoC4/BLE_1_eventHandler.c ****     #endif /* CYBLE_GATT_ROLE_CLIENT */
2081:Generated_Source\PSoC4/BLE_1_eventHandler.c **** 
2082:Generated_Source\PSoC4/BLE_1_eventHandler.c ****     #if((CYBLE_GAP_ROLE_PERIPHERAL || CYBLE_GAP_ROLE_CENTRAL) && (CYBLE_BONDING_REQUIREMENT == CYBL
2083:Generated_Source\PSoC4/BLE_1_eventHandler.c **** 
2084:Generated_Source\PSoC4/BLE_1_eventHandler.c ****         case CYBLE_EVT_PENDING_FLASH_WRITE:
2085:Generated_Source\PSoC4/BLE_1_eventHandler.c ****             cyBle_pendingFlashWrite |= CYBLE_PENDING_STACK_FLASH_WRITE_BIT;
 1704              		.loc 1 2085 0
 1705 031e 144B     		ldr	r3, .L103+64
 1706 0320 1B78     		ldrb	r3, [r3]
 1707 0322 0122     		mov	r2, #1
 1708 0324 1343     		orr	r3, r2
 1709 0326 DAB2     		uxtb	r2, r3
 1710 0328 114B     		ldr	r3, .L103+64
 1711 032a 1A70     		strb	r2, [r3]
2086:Generated_Source\PSoC4/BLE_1_eventHandler.c ****             break;
 1712              		.loc 1 2086 0
 1713 032c 23E0     		b	.L89
 1714              	.L104:
 1715 032e C046     		.align	2
 1716              	.L103:
ARM GAS  C:\Users\Sarah\AppData\Local\Temp\ccqSJLdk.s 			page 68


 1717 0330 00000000 		.word	cyBle_eventHandlerFlag
 1718 0334 00000000 		.word	.L53
 1719 0338 00000000 		.word	cyBle_sflashDeviceAddress
 1720 033c 00000000 		.word	cyBle_deviceAddress
 1721 0340 00000000 		.word	cyBle_state
 1722 0344 00000000 		.word	cyBle_busyStatus
 1723 0348 18000000 		.word	gPrepWriteReqMem.6598
 1724 034c E00A0000 		.word	cyBle_stackMemoryRam+2784
 1725 0350 00000000 		.word	cyBle_authInfo
 1726 0354 00000000 		.word	cyBle_connHandle
 1727 0358 00000000 		.word	cyBle_peerBonding
 1728 035c 00000000 		.word	cyBle_connectingTimeout
 1729 0360 00000000 		.word	cyBle_scanningIntervalType
 1730 0364 00000000 		.word	cyBle_flashStorage
 1731 0368 00000000 		.word	cyBle_attValuesCCCD
 1732 036c 00000000 		.word	cyBle_clientState
 1733 0370 00000000 		.word	cyBle_pendingFlashWrite
 1734              	.L102:
2087:Generated_Source\PSoC4/BLE_1_eventHandler.c ****         
2088:Generated_Source\PSoC4/BLE_1_eventHandler.c ****     #endif  /* (CYBLE_BONDING_REQUIREMENT == CYBLE_BONDING_YES) */
2089:Generated_Source\PSoC4/BLE_1_eventHandler.c ****     
2090:Generated_Source\PSoC4/BLE_1_eventHandler.c ****         default:
2091:Generated_Source\PSoC4/BLE_1_eventHandler.c ****             break;
 1735              		.loc 1 2091 0
 1736 0374 C046     		mov	r8, r8
 1737              	.L89:
2092:Generated_Source\PSoC4/BLE_1_eventHandler.c ****     }
2093:Generated_Source\PSoC4/BLE_1_eventHandler.c **** 
2094:Generated_Source\PSoC4/BLE_1_eventHandler.c ****     if(0u != (cyBle_eventHandlerFlag & (CYBLE_CALLBACK | CYBLE_ENABLE_ALL_EVENTS))) 
 1738              		.loc 1 2094 0
 1739 0376 0D4B     		ldr	r3, .L105
 1740 0378 1B78     		ldrb	r3, [r3]
 1741 037a DBB2     		uxtb	r3, r3
 1742 037c 1A1C     		mov	r2, r3
 1743 037e 1123     		mov	r3, #17
 1744 0380 1340     		and	r3, r2
 1745 0382 0FD0     		beq	.L50
2095:Generated_Source\PSoC4/BLE_1_eventHandler.c ****     {
2096:Generated_Source\PSoC4/BLE_1_eventHandler.c ****         cyBle_eventHandlerFlag &= (uint8)~CYBLE_CALLBACK;
 1746              		.loc 1 2096 0
 1747 0384 094B     		ldr	r3, .L105
 1748 0386 1B78     		ldrb	r3, [r3]
 1749 0388 DBB2     		uxtb	r3, r3
 1750 038a 0122     		mov	r2, #1
 1751 038c 9343     		bic	r3, r2
 1752 038e DAB2     		uxtb	r2, r3
 1753 0390 064B     		ldr	r3, .L105
 1754 0392 1A70     		strb	r2, [r3]
2097:Generated_Source\PSoC4/BLE_1_eventHandler.c ****         CyBle_ApplCallback((uint32)eventCode, eventParam);
 1755              		.loc 1 2097 0
 1756 0394 064B     		ldr	r3, .L105+4
 1757 0396 1B68     		ldr	r3, [r3]
 1758 0398 FA1D     		add	r2, r7, #7
 1759 039a 1178     		ldrb	r1, [r2]
 1760 039c 3A68     		ldr	r2, [r7]
 1761 039e 081C     		mov	r0, r1
 1762 03a0 111C     		mov	r1, r2
ARM GAS  C:\Users\Sarah\AppData\Local\Temp\ccqSJLdk.s 			page 69


 1763 03a2 9847     		blx	r3
 1764              	.L50:
2098:Generated_Source\PSoC4/BLE_1_eventHandler.c ****     }
2099:Generated_Source\PSoC4/BLE_1_eventHandler.c **** }
 1765              		.loc 1 2099 0
 1766 03a4 BD46     		mov	sp, r7
 1767 03a6 06B0     		add	sp, sp, #24
 1768              		@ sp needed
 1769 03a8 80BD     		pop	{r7, pc}
 1770              	.L106:
 1771 03aa C046     		.align	2
 1772              	.L105:
 1773 03ac 00000000 		.word	cyBle_eventHandlerFlag
 1774 03b0 00000000 		.word	CyBle_ApplCallback
 1775              		.cfi_endproc
 1776              	.LFE15:
 1777              		.size	CyBle_EventHandler, .-CyBle_EventHandler
 1778              		.section	.text.CyBle_ReadByGroupEventHandler,"ax",%progbits
 1779              		.align	2
 1780              		.global	CyBle_ReadByGroupEventHandler
 1781              		.code	16
 1782              		.thumb_func
 1783              		.type	CyBle_ReadByGroupEventHandler, %function
 1784              	CyBle_ReadByGroupEventHandler:
 1785              	.LFB16:
2100:Generated_Source\PSoC4/BLE_1_eventHandler.c **** 
2101:Generated_Source\PSoC4/BLE_1_eventHandler.c **** 
2102:Generated_Source\PSoC4/BLE_1_eventHandler.c **** #if (CYBLE_GATT_ROLE_CLIENT)
2103:Generated_Source\PSoC4/BLE_1_eventHandler.c **** 
2104:Generated_Source\PSoC4/BLE_1_eventHandler.c **** 
2105:Generated_Source\PSoC4/BLE_1_eventHandler.c **** /****************************************************************************** 
2106:Generated_Source\PSoC4/BLE_1_eventHandler.c **** * Function Name: CyBle_ReadByGroupEventHandler
2107:Generated_Source\PSoC4/BLE_1_eventHandler.c **** ***************************************************************************//**
2108:Generated_Source\PSoC4/BLE_1_eventHandler.c **** * 
2109:Generated_Source\PSoC4/BLE_1_eventHandler.c **** *  Handles the Read By Group Response Event during an automatic server discovery
2110:Generated_Source\PSoC4/BLE_1_eventHandler.c **** *  process.
2111:Generated_Source\PSoC4/BLE_1_eventHandler.c **** * 
2112:Generated_Source\PSoC4/BLE_1_eventHandler.c **** *  \param eventParam:  the event parameters for a Read By Group Response
2113:Generated_Source\PSoC4/BLE_1_eventHandler.c **** * 
2114:Generated_Source\PSoC4/BLE_1_eventHandler.c **** * \return
2115:Generated_Source\PSoC4/BLE_1_eventHandler.c **** *  None
2116:Generated_Source\PSoC4/BLE_1_eventHandler.c **** * 
2117:Generated_Source\PSoC4/BLE_1_eventHandler.c **** ******************************************************************************/
2118:Generated_Source\PSoC4/BLE_1_eventHandler.c **** void CyBle_ReadByGroupEventHandler(CYBLE_GATTC_READ_BY_GRP_RSP_PARAM_T *eventParam)
2119:Generated_Source\PSoC4/BLE_1_eventHandler.c **** {
 1786              		.loc 1 2119 0
 1787              		.cfi_startproc
 1788 0000 80B5     		push	{r7, lr}
 1789              		.cfi_def_cfa_offset 8
 1790              		.cfi_offset 7, -8
 1791              		.cfi_offset 14, -4
 1792 0002 86B0     		sub	sp, sp, #24
 1793              		.cfi_def_cfa_offset 32
 1794 0004 00AF     		add	r7, sp, #0
 1795              		.cfi_def_cfa_register 7
 1796 0006 7860     		str	r0, [r7, #4]
2120:Generated_Source\PSoC4/BLE_1_eventHandler.c ****     uint16 j;
ARM GAS  C:\Users\Sarah\AppData\Local\Temp\ccqSJLdk.s 			page 70


2121:Generated_Source\PSoC4/BLE_1_eventHandler.c ****     uint16 dataLength;
2122:Generated_Source\PSoC4/BLE_1_eventHandler.c ****     uint16 attrLength;
2123:Generated_Source\PSoC4/BLE_1_eventHandler.c ****     uint16 i;
2124:Generated_Source\PSoC4/BLE_1_eventHandler.c ****     CYBLE_DISC_SRVC128_INFO_T* discServInfo = NULL;
 1797              		.loc 1 2124 0
 1798 0008 0023     		mov	r3, #0
 1799 000a FB60     		str	r3, [r7, #12]
2125:Generated_Source\PSoC4/BLE_1_eventHandler.c ****     uint8 flag;
2126:Generated_Source\PSoC4/BLE_1_eventHandler.c ****     if((CyBle_GetClientState() == CYBLE_CLIENT_STATE_SRVC_DISCOVERING) &&
 1800              		.loc 1 2126 0
 1801 000c 694B     		ldr	r3, .L120
 1802 000e 1B78     		ldrb	r3, [r3]
 1803 0010 012B     		cmp	r3, #1
 1804 0012 00D0     		beq	.LCB1402
 1805 0014 CAE0     		b	.L107	@long jump
 1806              	.LCB1402:
2127:Generated_Source\PSoC4/BLE_1_eventHandler.c ****         ((cyBle_eventHandlerFlag & CYBLE_AUTO_DISCOVERY) != 0u))
 1807              		.loc 1 2127 0 discriminator 1
 1808 0016 684B     		ldr	r3, .L120+4
 1809 0018 1B78     		ldrb	r3, [r3]
 1810 001a DBB2     		uxtb	r3, r3
 1811 001c 1A1C     		mov	r2, r3
 1812 001e 0223     		mov	r3, #2
 1813 0020 1340     		and	r3, r2
2126:Generated_Source\PSoC4/BLE_1_eventHandler.c ****         ((cyBle_eventHandlerFlag & CYBLE_AUTO_DISCOVERY) != 0u))
 1814              		.loc 1 2126 0 discriminator 1
 1815 0022 00D1     		bne	.LCB1410
 1816 0024 C2E0     		b	.L107	@long jump
 1817              	.LCB1410:
2128:Generated_Source\PSoC4/BLE_1_eventHandler.c ****     {
2129:Generated_Source\PSoC4/BLE_1_eventHandler.c ****         dataLength = eventParam->attrData.length;
 1818              		.loc 1 2129 0
 1819 0026 0A23     		mov	r3, #10
 1820 0028 FB18     		add	r3, r7, r3
 1821 002a 7A68     		ldr	r2, [r7, #4]
 1822 002c 1289     		ldrh	r2, [r2, #8]
 1823 002e 1A80     		strh	r2, [r3]
2130:Generated_Source\PSoC4/BLE_1_eventHandler.c **** 
2131:Generated_Source\PSoC4/BLE_1_eventHandler.c ****         if((dataLength == CYBLE_DISC_SRVC_INFO_LEN) || (dataLength == CYBLE_DISC_SRVC_INFO_128_LEN)
 1824              		.loc 1 2131 0
 1825 0030 0A23     		mov	r3, #10
 1826 0032 FB18     		add	r3, r7, r3
 1827 0034 1B88     		ldrh	r3, [r3]
 1828 0036 062B     		cmp	r3, #6
 1829 0038 05D0     		beq	.L109
 1830              		.loc 1 2131 0 is_stmt 0 discriminator 1
 1831 003a 0A23     		mov	r3, #10
 1832 003c FB18     		add	r3, r7, r3
 1833 003e 1B88     		ldrh	r3, [r3]
 1834 0040 142B     		cmp	r3, #20
 1835 0042 00D0     		beq	.LCB1425
 1836 0044 ABE0     		b	.L110	@long jump
 1837              	.LCB1425:
 1838              	.L109:
2132:Generated_Source\PSoC4/BLE_1_eventHandler.c ****         {
2133:Generated_Source\PSoC4/BLE_1_eventHandler.c ****             attrLength = eventParam->attrData.attrLen;
 1839              		.loc 1 2133 0 is_stmt 1
ARM GAS  C:\Users\Sarah\AppData\Local\Temp\ccqSJLdk.s 			page 71


 1840 0046 0823     		mov	r3, #8
 1841 0048 FB18     		add	r3, r7, r3
 1842 004a 7A68     		ldr	r2, [r7, #4]
 1843 004c 5289     		ldrh	r2, [r2, #10]
 1844 004e 1A80     		strh	r2, [r3]
2134:Generated_Source\PSoC4/BLE_1_eventHandler.c **** 
2135:Generated_Source\PSoC4/BLE_1_eventHandler.c ****             for(i = 0u; i < attrLength; i += dataLength)
 1845              		.loc 1 2135 0
 1846 0050 1423     		mov	r3, #20
 1847 0052 FB18     		add	r3, r7, r3
 1848 0054 0022     		mov	r2, #0
 1849 0056 1A80     		strh	r2, [r3]
 1850 0058 8FE0     		b	.L111
 1851              	.L119:
2136:Generated_Source\PSoC4/BLE_1_eventHandler.c ****             {
2137:Generated_Source\PSoC4/BLE_1_eventHandler.c ****                 discServInfo = (CYBLE_DISC_SRVC128_INFO_T *)(eventParam->attrData.attrValue + i);
 1852              		.loc 1 2137 0
 1853 005a 7B68     		ldr	r3, [r7, #4]
 1854 005c 5A68     		ldr	r2, [r3, #4]
 1855 005e 1423     		mov	r3, #20
 1856 0060 FB18     		add	r3, r7, r3
 1857 0062 1B88     		ldrh	r3, [r3]
 1858 0064 D318     		add	r3, r2, r3
 1859 0066 FB60     		str	r3, [r7, #12]
2138:Generated_Source\PSoC4/BLE_1_eventHandler.c ****                 flag = 0u;
 1860              		.loc 1 2138 0
 1861 0068 1323     		mov	r3, #19
 1862 006a FB18     		add	r3, r7, r3
 1863 006c 0022     		mov	r2, #0
 1864 006e 1A70     		strb	r2, [r3]
2139:Generated_Source\PSoC4/BLE_1_eventHandler.c **** 
2140:Generated_Source\PSoC4/BLE_1_eventHandler.c ****                 if((discServInfo->range.startHandle >= cyBle_gattcDiscoveryRange.startHandle) &&
 1865              		.loc 1 2140 0
 1866 0070 FB68     		ldr	r3, [r7, #12]
 1867 0072 1A88     		ldrh	r2, [r3]
 1868 0074 514B     		ldr	r3, .L120+8
 1869 0076 1B88     		ldrh	r3, [r3]
 1870 0078 9A42     		cmp	r2, r3
 1871 007a 00D2     		bcs	.LCB1456
 1872 007c 73E0     		b	.L112	@long jump
 1873              	.LCB1456:
2141:Generated_Source\PSoC4/BLE_1_eventHandler.c ****                    (discServInfo->range.startHandle <= cyBle_gattcDiscoveryRange.endHandle))
 1874              		.loc 1 2141 0 discriminator 1
 1875 007e FB68     		ldr	r3, [r7, #12]
 1876 0080 1A88     		ldrh	r2, [r3]
 1877 0082 4E4B     		ldr	r3, .L120+8
 1878 0084 5B88     		ldrh	r3, [r3, #2]
2140:Generated_Source\PSoC4/BLE_1_eventHandler.c ****                    (discServInfo->range.startHandle <= cyBle_gattcDiscoveryRange.endHandle))
 1879              		.loc 1 2140 0 discriminator 1
 1880 0086 9A42     		cmp	r2, r3
 1881 0088 00D9     		bls	.LCB1462
 1882 008a 6CE0     		b	.L112	@long jump
 1883              	.LCB1462:
2142:Generated_Source\PSoC4/BLE_1_eventHandler.c ****                 {
2143:Generated_Source\PSoC4/BLE_1_eventHandler.c ****                     if(dataLength == CYBLE_DISC_SRVC_INFO_LEN)
 1884              		.loc 1 2143 0
 1885 008c 0A23     		mov	r3, #10
ARM GAS  C:\Users\Sarah\AppData\Local\Temp\ccqSJLdk.s 			page 72


 1886 008e FB18     		add	r3, r7, r3
 1887 0090 1B88     		ldrh	r3, [r3]
 1888 0092 062B     		cmp	r3, #6
 1889 0094 63D1     		bne	.L113
2144:Generated_Source\PSoC4/BLE_1_eventHandler.c ****                     {
2145:Generated_Source\PSoC4/BLE_1_eventHandler.c ****     					for(j = 0u; (j < (uint16)CYBLE_SRVI_COUNT) && (flag == 0u); j++)
 1890              		.loc 1 2145 0
 1891 0096 1623     		mov	r3, #22
 1892 0098 FB18     		add	r3, r7, r3
 1893 009a 0022     		mov	r2, #0
 1894 009c 1A80     		strh	r2, [r3]
 1895 009e 53E0     		b	.L114
 1896              	.L118:
2146:Generated_Source\PSoC4/BLE_1_eventHandler.c ****                         {
2147:Generated_Source\PSoC4/BLE_1_eventHandler.c ****                             if(cyBle_serverInfo[j].uuid == discServInfo->uuid.uuid16)
 1897              		.loc 1 2147 0
 1898 00a0 1623     		mov	r3, #22
 1899 00a2 FB18     		add	r3, r7, r3
 1900 00a4 1A88     		ldrh	r2, [r3]
 1901 00a6 4649     		ldr	r1, .L120+12
 1902 00a8 131C     		mov	r3, r2
 1903 00aa 5B00     		lsl	r3, r3, #1
 1904 00ac 9B18     		add	r3, r3, r2
 1905 00ae 5B00     		lsl	r3, r3, #1
 1906 00b0 CB18     		add	r3, r1, r3
 1907 00b2 9A88     		ldrh	r2, [r3, #4]
 1908 00b4 FB68     		ldr	r3, [r7, #12]
 1909 00b6 9B88     		ldrh	r3, [r3, #4]
 1910 00b8 9A42     		cmp	r2, r3
 1911 00ba 3ED1     		bne	.L115
2148:Generated_Source\PSoC4/BLE_1_eventHandler.c ****                             {
2149:Generated_Source\PSoC4/BLE_1_eventHandler.c ****                                 if(cyBle_serverInfo[j].range.startHandle == CYBLE_GATT_INVALID_ATTR
 1912              		.loc 1 2149 0
 1913 00bc 1623     		mov	r3, #22
 1914 00be FB18     		add	r3, r7, r3
 1915 00c0 1A88     		ldrh	r2, [r3]
 1916 00c2 3F49     		ldr	r1, .L120+12
 1917 00c4 131C     		mov	r3, r2
 1918 00c6 5B00     		lsl	r3, r3, #1
 1919 00c8 9B18     		add	r3, r3, r2
 1920 00ca 5B00     		lsl	r3, r3, #1
 1921 00cc 5B5A     		ldrh	r3, [r3, r1]
 1922 00ce 002B     		cmp	r3, #0
 1923 00d0 13D1     		bne	.L116
2150:Generated_Source\PSoC4/BLE_1_eventHandler.c ****                                 {
2151:Generated_Source\PSoC4/BLE_1_eventHandler.c ****                                     cyBle_serverInfo[j].range = discServInfo->range;
 1924              		.loc 1 2151 0
 1925 00d2 1623     		mov	r3, #22
 1926 00d4 FB18     		add	r3, r7, r3
 1927 00d6 1A88     		ldrh	r2, [r3]
 1928 00d8 3949     		ldr	r1, .L120+12
 1929 00da 131C     		mov	r3, r2
 1930 00dc 5B00     		lsl	r3, r3, #1
 1931 00de 9B18     		add	r3, r3, r2
 1932 00e0 5B00     		lsl	r3, r3, #1
 1933 00e2 FA68     		ldr	r2, [r7, #12]
 1934 00e4 CB18     		add	r3, r1, r3
ARM GAS  C:\Users\Sarah\AppData\Local\Temp\ccqSJLdk.s 			page 73


 1935 00e6 111C     		mov	r1, r2
 1936 00e8 0422     		mov	r2, #4
 1937 00ea 181C     		mov	r0, r3
 1938 00ec FFF7FEFF 		bl	memcpy
2152:Generated_Source\PSoC4/BLE_1_eventHandler.c ****                                     flag = 1u;
 1939              		.loc 1 2152 0
 1940 00f0 1323     		mov	r3, #19
 1941 00f2 FB18     		add	r3, r7, r3
 1942 00f4 0122     		mov	r2, #1
 1943 00f6 1A70     		strb	r2, [r3]
 1944 00f8 1FE0     		b	.L115
 1945              	.L116:
2153:Generated_Source\PSoC4/BLE_1_eventHandler.c ****                                 }
2154:Generated_Source\PSoC4/BLE_1_eventHandler.c ****                                 else    /* Duplication of service */
2155:Generated_Source\PSoC4/BLE_1_eventHandler.c ****                                 {
2156:Generated_Source\PSoC4/BLE_1_eventHandler.c ****                                     /* For multiple service support next service has the same uuid 
2157:Generated_Source\PSoC4/BLE_1_eventHandler.c ****                                     if((j >= (CYBLE_SRVI_COUNT - 1u)) || 
 1946              		.loc 1 2157 0
 1947 00fa 1623     		mov	r3, #22
 1948 00fc FB18     		add	r3, r7, r3
 1949 00fe 1B88     		ldrh	r3, [r3]
 1950 0100 012B     		cmp	r3, #1
 1951 0102 0ED8     		bhi	.L117
2158:Generated_Source\PSoC4/BLE_1_eventHandler.c ****                                        (cyBle_serverInfo[j + 1u].uuid != discServInfo->uuid.uuid16)
 1952              		.loc 1 2158 0 discriminator 1
 1953 0104 1623     		mov	r3, #22
 1954 0106 FB18     		add	r3, r7, r3
 1955 0108 1B88     		ldrh	r3, [r3]
 1956 010a 5A1C     		add	r2, r3, #1
 1957 010c 2C49     		ldr	r1, .L120+12
 1958 010e 131C     		mov	r3, r2
 1959 0110 5B00     		lsl	r3, r3, #1
 1960 0112 9B18     		add	r3, r3, r2
 1961 0114 5B00     		lsl	r3, r3, #1
 1962 0116 CB18     		add	r3, r1, r3
 1963 0118 9A88     		ldrh	r2, [r3, #4]
 1964 011a FB68     		ldr	r3, [r7, #12]
 1965 011c 9B88     		ldrh	r3, [r3, #4]
2157:Generated_Source\PSoC4/BLE_1_eventHandler.c ****                                        (cyBle_serverInfo[j + 1u].uuid != discServInfo->uuid.uuid16)
 1966              		.loc 1 2157 0 discriminator 1
 1967 011e 9A42     		cmp	r2, r3
 1968 0120 0BD0     		beq	.L115
 1969              	.L117:
2159:Generated_Source\PSoC4/BLE_1_eventHandler.c ****                                     {
2160:Generated_Source\PSoC4/BLE_1_eventHandler.c ****                                         CyBle_ApplCallback(CYBLE_EVT_GATTC_SRVC_DUPLICATION, &discS
 1970              		.loc 1 2160 0
 1971 0122 284B     		ldr	r3, .L120+16
 1972 0124 1B68     		ldr	r3, [r3]
 1973 0126 FA68     		ldr	r2, [r7, #12]
 1974 0128 111D     		add	r1, r2, #4
 1975 012a 0C22     		mov	r2, #12
 1976 012c FF32     		add	r2, r2, #255
 1977 012e 101C     		mov	r0, r2
 1978 0130 9847     		blx	r3
2161:Generated_Source\PSoC4/BLE_1_eventHandler.c ****                                         flag = 1u;
 1979              		.loc 1 2161 0
 1980 0132 1323     		mov	r3, #19
ARM GAS  C:\Users\Sarah\AppData\Local\Temp\ccqSJLdk.s 			page 74


 1981 0134 FB18     		add	r3, r7, r3
 1982 0136 0122     		mov	r2, #1
 1983 0138 1A70     		strb	r2, [r3]
 1984              	.L115:
2145:Generated_Source\PSoC4/BLE_1_eventHandler.c ****                         {
 1985              		.loc 1 2145 0 discriminator 2
 1986 013a 1623     		mov	r3, #22
 1987 013c FB18     		add	r3, r7, r3
 1988 013e 1A88     		ldrh	r2, [r3]
 1989 0140 1623     		mov	r3, #22
 1990 0142 FB18     		add	r3, r7, r3
 1991 0144 0132     		add	r2, r2, #1
 1992 0146 1A80     		strh	r2, [r3]
 1993              	.L114:
2145:Generated_Source\PSoC4/BLE_1_eventHandler.c ****                         {
 1994              		.loc 1 2145 0 is_stmt 0 discriminator 1
 1995 0148 1623     		mov	r3, #22
 1996 014a FB18     		add	r3, r7, r3
 1997 014c 1B88     		ldrh	r3, [r3]
 1998 014e 022B     		cmp	r3, #2
 1999 0150 09D8     		bhi	.L112
2145:Generated_Source\PSoC4/BLE_1_eventHandler.c ****                         {
 2000              		.loc 1 2145 0 discriminator 3
 2001 0152 1323     		mov	r3, #19
 2002 0154 FB18     		add	r3, r7, r3
 2003 0156 1B78     		ldrb	r3, [r3]
 2004 0158 002B     		cmp	r3, #0
 2005 015a A1D0     		beq	.L118
 2006 015c 03E0     		b	.L112
 2007              	.L113:
2162:Generated_Source\PSoC4/BLE_1_eventHandler.c ****                                     }
2163:Generated_Source\PSoC4/BLE_1_eventHandler.c ****                                 }
2164:Generated_Source\PSoC4/BLE_1_eventHandler.c ****                             }
2165:Generated_Source\PSoC4/BLE_1_eventHandler.c ****                         }
2166:Generated_Source\PSoC4/BLE_1_eventHandler.c ****                     }
2167:Generated_Source\PSoC4/BLE_1_eventHandler.c ****                     else  /* Received 128 bit service UUID */
2168:Generated_Source\PSoC4/BLE_1_eventHandler.c ****                     {
2169:Generated_Source\PSoC4/BLE_1_eventHandler.c ****                     #ifdef CYBLE_ANCS_CLIENT
2170:Generated_Source\PSoC4/BLE_1_eventHandler.c ****                         CyBle_AncscDiscoverServiceEventHandler(discServInfo);
2171:Generated_Source\PSoC4/BLE_1_eventHandler.c ****                     #endif /* CYBLE_CUSTOM_CLIENT */
2172:Generated_Source\PSoC4/BLE_1_eventHandler.c ****                     #ifdef CYBLE_CUSTOM_CLIENT
2173:Generated_Source\PSoC4/BLE_1_eventHandler.c ****                         CyBle_CustomcDiscoverServiceEventHandler(discServInfo);
 2008              		.loc 1 2173 0 is_stmt 1
 2009 015e FB68     		ldr	r3, [r7, #12]
 2010 0160 181C     		mov	r0, r3
 2011 0162 FFF7FEFF 		bl	CyBle_CustomcDiscoverServiceEventHandler
 2012              	.L112:
2135:Generated_Source\PSoC4/BLE_1_eventHandler.c ****             {
 2013              		.loc 1 2135 0 discriminator 2
 2014 0166 1423     		mov	r3, #20
 2015 0168 FB18     		add	r3, r7, r3
 2016 016a 1422     		mov	r2, #20
 2017 016c B918     		add	r1, r7, r2
 2018 016e 0A22     		mov	r2, #10
 2019 0170 BA18     		add	r2, r7, r2
 2020 0172 0988     		ldrh	r1, [r1]
 2021 0174 1288     		ldrh	r2, [r2]
ARM GAS  C:\Users\Sarah\AppData\Local\Temp\ccqSJLdk.s 			page 75


 2022 0176 8A18     		add	r2, r1, r2
 2023 0178 1A80     		strh	r2, [r3]
 2024              	.L111:
2135:Generated_Source\PSoC4/BLE_1_eventHandler.c ****             {
 2025              		.loc 1 2135 0 is_stmt 0 discriminator 1
 2026 017a 1423     		mov	r3, #20
 2027 017c FA18     		add	r2, r7, r3
 2028 017e 0823     		mov	r3, #8
 2029 0180 FB18     		add	r3, r7, r3
 2030 0182 1288     		ldrh	r2, [r2]
 2031 0184 1B88     		ldrh	r3, [r3]
 2032 0186 9A42     		cmp	r2, r3
 2033 0188 00D2     		bcs	.LCB1605
 2034 018a 66E7     		b	.L119	@long jump
 2035              	.LCB1605:
2174:Generated_Source\PSoC4/BLE_1_eventHandler.c ****                     #endif /* CYBLE_CUSTOM_CLIENT */
2175:Generated_Source\PSoC4/BLE_1_eventHandler.c ****                     }
2176:Generated_Source\PSoC4/BLE_1_eventHandler.c ****                 }
2177:Generated_Source\PSoC4/BLE_1_eventHandler.c ****             }
2178:Generated_Source\PSoC4/BLE_1_eventHandler.c ****             cyBle_eventHandlerFlag &= (uint8)~CYBLE_CALLBACK;
 2036              		.loc 1 2178 0 is_stmt 1
 2037 018c 0A4B     		ldr	r3, .L120+4
 2038 018e 1B78     		ldrb	r3, [r3]
 2039 0190 DBB2     		uxtb	r3, r3
 2040 0192 0122     		mov	r2, #1
 2041 0194 9343     		bic	r3, r2
 2042 0196 DAB2     		uxtb	r2, r3
 2043 0198 074B     		ldr	r3, .L120+4
 2044 019a 1A70     		strb	r2, [r3]
 2045 019c 06E0     		b	.L107
 2046              	.L110:
2179:Generated_Source\PSoC4/BLE_1_eventHandler.c ****         }
2180:Generated_Source\PSoC4/BLE_1_eventHandler.c ****         else
2181:Generated_Source\PSoC4/BLE_1_eventHandler.c ****         {
2182:Generated_Source\PSoC4/BLE_1_eventHandler.c ****             CyBle_ApplCallback(CYBLE_EVT_GATTC_SRVC_DISCOVERY_FAILED, NULL);
 2047              		.loc 1 2182 0
 2048 019e 094B     		ldr	r3, .L120+16
 2049 01a0 1B68     		ldr	r3, [r3]
 2050 01a2 0822     		mov	r2, #8
 2051 01a4 FF32     		add	r2, r2, #255
 2052 01a6 101C     		mov	r0, r2
 2053 01a8 0021     		mov	r1, #0
 2054 01aa 9847     		blx	r3
 2055              	.L107:
2183:Generated_Source\PSoC4/BLE_1_eventHandler.c ****         }
2184:Generated_Source\PSoC4/BLE_1_eventHandler.c ****     }
2185:Generated_Source\PSoC4/BLE_1_eventHandler.c **** }
 2056              		.loc 1 2185 0
 2057 01ac BD46     		mov	sp, r7
 2058 01ae 06B0     		add	sp, sp, #24
 2059              		@ sp needed
 2060 01b0 80BD     		pop	{r7, pc}
 2061              	.L121:
 2062 01b2 C046     		.align	2
 2063              	.L120:
 2064 01b4 00000000 		.word	cyBle_clientState
 2065 01b8 00000000 		.word	cyBle_eventHandlerFlag
ARM GAS  C:\Users\Sarah\AppData\Local\Temp\ccqSJLdk.s 			page 76


 2066 01bc 00000000 		.word	cyBle_gattcDiscoveryRange
 2067 01c0 00000000 		.word	cyBle_serverInfo
 2068 01c4 00000000 		.word	CyBle_ApplCallback
 2069              		.cfi_endproc
 2070              	.LFE16:
 2071              		.size	CyBle_ReadByGroupEventHandler, .-CyBle_ReadByGroupEventHandler
 2072              		.section	.text.CyBle_NextInclDiscovery,"ax",%progbits
 2073              		.align	2
 2074              		.global	CyBle_NextInclDiscovery
 2075              		.code	16
 2076              		.thumb_func
 2077              		.type	CyBle_NextInclDiscovery, %function
 2078              	CyBle_NextInclDiscovery:
 2079              	.LFB17:
2186:Generated_Source\PSoC4/BLE_1_eventHandler.c **** 
2187:Generated_Source\PSoC4/BLE_1_eventHandler.c **** 
2188:Generated_Source\PSoC4/BLE_1_eventHandler.c **** /****************************************************************************** 
2189:Generated_Source\PSoC4/BLE_1_eventHandler.c **** * Function Name: CyBle_NextInclDiscovery
2190:Generated_Source\PSoC4/BLE_1_eventHandler.c **** ***************************************************************************//**
2191:Generated_Source\PSoC4/BLE_1_eventHandler.c **** * 
2192:Generated_Source\PSoC4/BLE_1_eventHandler.c **** *  Looks for the included services in the current service (pointed by
2193:Generated_Source\PSoC4/BLE_1_eventHandler.c **** *   cyBle_disCount). If the current service handle range is invalid (any of start
2194:Generated_Source\PSoC4/BLE_1_eventHandler.c **** *   or end handle is invalid), then increment the cyBle_disCount and check
2195:Generated_Source\PSoC4/BLE_1_eventHandler.c **** *   the next service range and does so until a valid range is caught or the end of
2196:Generated_Source\PSoC4/BLE_1_eventHandler.c **** *   the service set is reached.
2197:Generated_Source\PSoC4/BLE_1_eventHandler.c **** * 
2198:Generated_Source\PSoC4/BLE_1_eventHandler.c **** *  \param incrementIndex: Not zero value indicates that service index should be 
2199:Generated_Source\PSoC4/BLE_1_eventHandler.c **** *                         incremented.
2200:Generated_Source\PSoC4/BLE_1_eventHandler.c **** * 
2201:Generated_Source\PSoC4/BLE_1_eventHandler.c **** * \return
2202:Generated_Source\PSoC4/BLE_1_eventHandler.c **** *  None.
2203:Generated_Source\PSoC4/BLE_1_eventHandler.c **** * 
2204:Generated_Source\PSoC4/BLE_1_eventHandler.c **** ******************************************************************************/
2205:Generated_Source\PSoC4/BLE_1_eventHandler.c **** void CyBle_NextInclDiscovery(uint8 incrementIndex)
2206:Generated_Source\PSoC4/BLE_1_eventHandler.c **** {
 2080              		.loc 1 2206 0
 2081              		.cfi_startproc
 2082 0000 80B5     		push	{r7, lr}
 2083              		.cfi_def_cfa_offset 8
 2084              		.cfi_offset 7, -8
 2085              		.cfi_offset 14, -4
 2086 0002 82B0     		sub	sp, sp, #8
 2087              		.cfi_def_cfa_offset 16
 2088 0004 00AF     		add	r7, sp, #0
 2089              		.cfi_def_cfa_register 7
 2090 0006 021C     		mov	r2, r0
 2091 0008 FB1D     		add	r3, r7, #7
 2092 000a 1A70     		strb	r2, [r3]
2207:Generated_Source\PSoC4/BLE_1_eventHandler.c **** 
2208:Generated_Source\PSoC4/BLE_1_eventHandler.c ****     if(incrementIndex != CYBLE_DISCOVERY_INIT)
 2093              		.loc 1 2208 0
 2094 000c FB1D     		add	r3, r7, #7
 2095 000e 1B78     		ldrb	r3, [r3]
 2096 0010 002B     		cmp	r3, #0
 2097 0012 06D0     		beq	.L123
2209:Generated_Source\PSoC4/BLE_1_eventHandler.c ****     {
2210:Generated_Source\PSoC4/BLE_1_eventHandler.c ****         cyBle_disCount++;
ARM GAS  C:\Users\Sarah\AppData\Local\Temp\ccqSJLdk.s 			page 77


 2098              		.loc 1 2210 0
 2099 0014 334B     		ldr	r3, .L131
 2100 0016 1B78     		ldrb	r3, [r3]
 2101 0018 0133     		add	r3, r3, #1
 2102 001a DAB2     		uxtb	r2, r3
 2103 001c 314B     		ldr	r3, .L131
 2104 001e 1A70     		strb	r2, [r3]
 2105 0020 05E0     		b	.L124
 2106              	.L123:
2211:Generated_Source\PSoC4/BLE_1_eventHandler.c ****     }
2212:Generated_Source\PSoC4/BLE_1_eventHandler.c ****     else
2213:Generated_Source\PSoC4/BLE_1_eventHandler.c ****     {
2214:Generated_Source\PSoC4/BLE_1_eventHandler.c ****         cyBle_disCount = 0u;
 2107              		.loc 1 2214 0
 2108 0022 304B     		ldr	r3, .L131
 2109 0024 0022     		mov	r2, #0
 2110 0026 1A70     		strb	r2, [r3]
2215:Generated_Source\PSoC4/BLE_1_eventHandler.c ****     #ifdef CYBLE_CUSTOM_CLIENT
2216:Generated_Source\PSoC4/BLE_1_eventHandler.c ****         cyBle_discInclInfo.inclDefHandle = 0u;
 2111              		.loc 1 2216 0
 2112 0028 2F4B     		ldr	r3, .L131+4
 2113 002a 0022     		mov	r2, #0
 2114 002c 1A80     		strh	r2, [r3]
 2115              	.L124:
2217:Generated_Source\PSoC4/BLE_1_eventHandler.c ****     #endif /* CYBLE_CUSTOM_CLIENT */
2218:Generated_Source\PSoC4/BLE_1_eventHandler.c ****     }
2219:Generated_Source\PSoC4/BLE_1_eventHandler.c **** 
2220:Generated_Source\PSoC4/BLE_1_eventHandler.c ****     /* Skip not existing services and services out of discovery range */
2221:Generated_Source\PSoC4/BLE_1_eventHandler.c ****     while((cyBle_disCount < (uint8) CYBLE_SRVI_COUNT) &&
 2116              		.loc 1 2221 0
 2117 002e 05E0     		b	.L125
 2118              	.L127:
2222:Generated_Source\PSoC4/BLE_1_eventHandler.c ****           ((cyBle_serverInfo[cyBle_disCount].range.startHandle < cyBle_gattcDiscoveryRange.startHan
2223:Generated_Source\PSoC4/BLE_1_eventHandler.c ****            (cyBle_serverInfo[cyBle_disCount].range.startHandle > cyBle_gattcDiscoveryRange.endHandl
2224:Generated_Source\PSoC4/BLE_1_eventHandler.c ****     {
2225:Generated_Source\PSoC4/BLE_1_eventHandler.c ****         cyBle_disCount++;
 2119              		.loc 1 2225 0
 2120 0030 2C4B     		ldr	r3, .L131
 2121 0032 1B78     		ldrb	r3, [r3]
 2122 0034 0133     		add	r3, r3, #1
 2123 0036 DAB2     		uxtb	r2, r3
 2124 0038 2A4B     		ldr	r3, .L131
 2125 003a 1A70     		strb	r2, [r3]
 2126              	.L125:
2221:Generated_Source\PSoC4/BLE_1_eventHandler.c ****           ((cyBle_serverInfo[cyBle_disCount].range.startHandle < cyBle_gattcDiscoveryRange.startHan
 2127              		.loc 1 2221 0
 2128 003c 294B     		ldr	r3, .L131
 2129 003e 1B78     		ldrb	r3, [r3]
 2130 0040 022B     		cmp	r3, #2
 2131 0042 19D8     		bhi	.L126
2222:Generated_Source\PSoC4/BLE_1_eventHandler.c ****           ((cyBle_serverInfo[cyBle_disCount].range.startHandle < cyBle_gattcDiscoveryRange.startHan
 2132              		.loc 1 2222 0 discriminator 1
 2133 0044 274B     		ldr	r3, .L131
 2134 0046 1B78     		ldrb	r3, [r3]
 2135 0048 191C     		mov	r1, r3
 2136 004a 284A     		ldr	r2, .L131+8
 2137 004c 0B1C     		mov	r3, r1
ARM GAS  C:\Users\Sarah\AppData\Local\Temp\ccqSJLdk.s 			page 78


 2138 004e 5B00     		lsl	r3, r3, #1
 2139 0050 5B18     		add	r3, r3, r1
 2140 0052 5B00     		lsl	r3, r3, #1
 2141 0054 9A5A     		ldrh	r2, [r3, r2]
 2142 0056 264B     		ldr	r3, .L131+12
 2143 0058 1B88     		ldrh	r3, [r3]
2221:Generated_Source\PSoC4/BLE_1_eventHandler.c ****           ((cyBle_serverInfo[cyBle_disCount].range.startHandle < cyBle_gattcDiscoveryRange.startHan
 2144              		.loc 1 2221 0 discriminator 1
 2145 005a 9A42     		cmp	r2, r3
 2146 005c E8D3     		bcc	.L127
2223:Generated_Source\PSoC4/BLE_1_eventHandler.c ****     {
 2147              		.loc 1 2223 0
 2148 005e 214B     		ldr	r3, .L131
 2149 0060 1B78     		ldrb	r3, [r3]
 2150 0062 191C     		mov	r1, r3
 2151 0064 214A     		ldr	r2, .L131+8
 2152 0066 0B1C     		mov	r3, r1
 2153 0068 5B00     		lsl	r3, r3, #1
 2154 006a 5B18     		add	r3, r3, r1
 2155 006c 5B00     		lsl	r3, r3, #1
 2156 006e 9A5A     		ldrh	r2, [r3, r2]
 2157 0070 1F4B     		ldr	r3, .L131+12
 2158 0072 5B88     		ldrh	r3, [r3, #2]
2222:Generated_Source\PSoC4/BLE_1_eventHandler.c ****           ((cyBle_serverInfo[cyBle_disCount].range.startHandle < cyBle_gattcDiscoveryRange.startHan
 2159              		.loc 1 2222 0
 2160 0074 9A42     		cmp	r2, r3
 2161 0076 DBD8     		bhi	.L127
 2162              	.L126:
2226:Generated_Source\PSoC4/BLE_1_eventHandler.c ****     }
2227:Generated_Source\PSoC4/BLE_1_eventHandler.c **** 
2228:Generated_Source\PSoC4/BLE_1_eventHandler.c ****     if(cyBle_disCount < (uint8) CYBLE_SRVI_COUNT)
 2163              		.loc 1 2228 0
 2164 0078 1A4B     		ldr	r3, .L131
 2165 007a 1B78     		ldrb	r3, [r3]
 2166 007c 022B     		cmp	r3, #2
 2167 007e 28D8     		bhi	.L128
2229:Generated_Source\PSoC4/BLE_1_eventHandler.c ****     {
2230:Generated_Source\PSoC4/BLE_1_eventHandler.c ****         if(CYBLE_ERROR_OK != CyBle_GattcFindIncludedServices(cyBle_connHandle, &cyBle_serverInfo[cy
 2168              		.loc 1 2230 0
 2169 0080 184B     		ldr	r3, .L131
 2170 0082 1B78     		ldrb	r3, [r3]
 2171 0084 1A1C     		mov	r2, r3
 2172 0086 131C     		mov	r3, r2
 2173 0088 5B00     		lsl	r3, r3, #1
 2174 008a 9B18     		add	r3, r3, r2
 2175 008c 5B00     		lsl	r3, r3, #1
 2176 008e 174A     		ldr	r2, .L131+8
 2177 0090 9918     		add	r1, r3, r2
 2178 0092 184B     		ldr	r3, .L131+16
 2179 0094 1A78     		ldrb	r2, [r3]
 2180 0096 5B78     		ldrb	r3, [r3, #1]
 2181 0098 1B02     		lsl	r3, r3, #8
 2182 009a 1A43     		orr	r2, r3
 2183 009c 0023     		mov	r3, #0
 2184 009e 1204     		lsl	r2, r2, #16
 2185 00a0 120C     		lsr	r2, r2, #16
 2186 00a2 1B0C     		lsr	r3, r3, #16
ARM GAS  C:\Users\Sarah\AppData\Local\Temp\ccqSJLdk.s 			page 79


 2187 00a4 1B04     		lsl	r3, r3, #16
 2188 00a6 1343     		orr	r3, r2
 2189 00a8 181C     		mov	r0, r3
 2190 00aa FFF7FEFF 		bl	CyBle_GattcFindIncludedServices
 2191 00ae 031E     		sub	r3, r0, #0
 2192 00b0 15D0     		beq	.L122
2231:Generated_Source\PSoC4/BLE_1_eventHandler.c ****         {
2232:Generated_Source\PSoC4/BLE_1_eventHandler.c ****             CyBle_ApplCallback(CYBLE_EVT_GATTC_INCL_DISCOVERY_FAILED, NULL);
 2193              		.loc 1 2232 0
 2194 00b2 114B     		ldr	r3, .L131+20
 2195 00b4 1B68     		ldr	r3, [r3]
 2196 00b6 8422     		mov	r2, #132
 2197 00b8 5200     		lsl	r2, r2, #1
 2198 00ba 101C     		mov	r0, r2
 2199 00bc 0021     		mov	r1, #0
 2200 00be 9847     		blx	r3
2233:Generated_Source\PSoC4/BLE_1_eventHandler.c ****             cyBle_eventHandlerFlag &= (uint8)~CYBLE_AUTO_DISCOVERY;
 2201              		.loc 1 2233 0
 2202 00c0 0E4B     		ldr	r3, .L131+24
 2203 00c2 1B78     		ldrb	r3, [r3]
 2204 00c4 DBB2     		uxtb	r3, r3
 2205 00c6 0222     		mov	r2, #2
 2206 00c8 9343     		bic	r3, r2
 2207 00ca DAB2     		uxtb	r2, r3
 2208 00cc 0B4B     		ldr	r3, .L131+24
 2209 00ce 1A70     		strb	r2, [r3]
 2210 00d0 05E0     		b	.L122
 2211              	.L128:
2234:Generated_Source\PSoC4/BLE_1_eventHandler.c ****         }
2235:Generated_Source\PSoC4/BLE_1_eventHandler.c ****     }
2236:Generated_Source\PSoC4/BLE_1_eventHandler.c ****     else /* Included service discovery procedure is done, start characteristic discovery procedure 
2237:Generated_Source\PSoC4/BLE_1_eventHandler.c ****     {
2238:Generated_Source\PSoC4/BLE_1_eventHandler.c ****         #if(CYBLE_STACK_MODE_DEBUG)
2239:Generated_Source\PSoC4/BLE_1_eventHandler.c ****             CyBle_ApplCallback(CYBLE_EVT_GATTC_INCL_DISCOVERY_COMPLETE, NULL);
2240:Generated_Source\PSoC4/BLE_1_eventHandler.c ****         #endif /* CYBLE_STACK_MODE_DEBUG */
2241:Generated_Source\PSoC4/BLE_1_eventHandler.c ****             CyBle_SetClientState(CYBLE_CLIENT_STATE_CHAR_DISCOVERING);
 2212              		.loc 1 2241 0
 2213 00d2 0B4B     		ldr	r3, .L131+28
 2214 00d4 0322     		mov	r2, #3
 2215 00d6 1A70     		strb	r2, [r3]
2242:Generated_Source\PSoC4/BLE_1_eventHandler.c ****             CyBle_NextCharDiscovery(CYBLE_DISCOVERY_INIT);
 2216              		.loc 1 2242 0
 2217 00d8 0020     		mov	r0, #0
 2218 00da FFF7FEFF 		bl	CyBle_NextCharDiscovery
 2219              	.L122:
2243:Generated_Source\PSoC4/BLE_1_eventHandler.c ****     }
2244:Generated_Source\PSoC4/BLE_1_eventHandler.c **** }
 2220              		.loc 1 2244 0
 2221 00de BD46     		mov	sp, r7
 2222 00e0 02B0     		add	sp, sp, #8
 2223              		@ sp needed
 2224 00e2 80BD     		pop	{r7, pc}
 2225              	.L132:
 2226              		.align	2
 2227              	.L131:
 2228 00e4 00000000 		.word	cyBle_disCount
 2229 00e8 00000000 		.word	cyBle_discInclInfo
ARM GAS  C:\Users\Sarah\AppData\Local\Temp\ccqSJLdk.s 			page 80


 2230 00ec 00000000 		.word	cyBle_serverInfo
 2231 00f0 00000000 		.word	cyBle_gattcDiscoveryRange
 2232 00f4 00000000 		.word	cyBle_connHandle
 2233 00f8 00000000 		.word	CyBle_ApplCallback
 2234 00fc 00000000 		.word	cyBle_eventHandlerFlag
 2235 0100 00000000 		.word	cyBle_clientState
 2236              		.cfi_endproc
 2237              	.LFE17:
 2238              		.size	CyBle_NextInclDiscovery, .-CyBle_NextInclDiscovery
 2239              		.section	.text.CyBle_GapcDiscoverCharacteristicsEventHandler,"ax",%progbits
 2240              		.align	2
 2241              		.code	16
 2242              		.thumb_func
 2243              		.type	CyBle_GapcDiscoverCharacteristicsEventHandler, %function
 2244              	CyBle_GapcDiscoverCharacteristicsEventHandler:
 2245              	.LFB18:
2245:Generated_Source\PSoC4/BLE_1_eventHandler.c **** 
2246:Generated_Source\PSoC4/BLE_1_eventHandler.c **** 
2247:Generated_Source\PSoC4/BLE_1_eventHandler.c **** /****************************************************************************** 
2248:Generated_Source\PSoC4/BLE_1_eventHandler.c **** * Function Name: CyBle_GapcDiscoverCharacteristicsEventHandler
2249:Generated_Source\PSoC4/BLE_1_eventHandler.c **** ***************************************************************************//**
2250:Generated_Source\PSoC4/BLE_1_eventHandler.c **** * 
2251:Generated_Source\PSoC4/BLE_1_eventHandler.c **** *  This function is called on receiving a "CYBLE_EVT_GATTC_READ_BY_TYPE_RSP"
2252:Generated_Source\PSoC4/BLE_1_eventHandler.c **** *  event. Based on the service UUID, an appropriate data structure is populated
2253:Generated_Source\PSoC4/BLE_1_eventHandler.c **** *  using the data received as part of the callback.
2254:Generated_Source\PSoC4/BLE_1_eventHandler.c **** * 
2255:Generated_Source\PSoC4/BLE_1_eventHandler.c **** *  \param discCharInfo:  the pointer to a characteristic information structure.
2256:Generated_Source\PSoC4/BLE_1_eventHandler.c **** * 
2257:Generated_Source\PSoC4/BLE_1_eventHandler.c **** * \return
2258:Generated_Source\PSoC4/BLE_1_eventHandler.c **** *  None
2259:Generated_Source\PSoC4/BLE_1_eventHandler.c **** * 
2260:Generated_Source\PSoC4/BLE_1_eventHandler.c **** ******************************************************************************/
2261:Generated_Source\PSoC4/BLE_1_eventHandler.c **** static void CyBle_GapcDiscoverCharacteristicsEventHandler(CYBLE_DISC_CHAR_INFO_T *discCharInfo)
2262:Generated_Source\PSoC4/BLE_1_eventHandler.c **** {
 2246              		.loc 1 2262 0
 2247              		.cfi_startproc
 2248 0000 80B5     		push	{r7, lr}
 2249              		.cfi_def_cfa_offset 8
 2250              		.cfi_offset 7, -8
 2251              		.cfi_offset 14, -4
 2252 0002 82B0     		sub	sp, sp, #8
 2253              		.cfi_def_cfa_offset 16
 2254 0004 00AF     		add	r7, sp, #0
 2255              		.cfi_def_cfa_register 7
 2256 0006 7860     		str	r0, [r7, #4]
2263:Generated_Source\PSoC4/BLE_1_eventHandler.c ****     switch(discCharInfo->uuid.uuid16)
 2257              		.loc 1 2263 0
 2258 0008 7B68     		ldr	r3, [r7, #4]
 2259 000a DB88     		ldrh	r3, [r3, #6]
 2260 000c 434A     		ldr	r2, .L156
 2261 000e 9342     		cmp	r3, r2
 2262 0010 38D0     		beq	.L135
 2263 0012 424A     		ldr	r2, .L156
 2264 0014 9342     		cmp	r3, r2
 2265 0016 07DC     		bgt	.L136
 2266 0018 A822     		mov	r2, #168
 2267 001a 9201     		lsl	r2, r2, #6
ARM GAS  C:\Users\Sarah\AppData\Local\Temp\ccqSJLdk.s 			page 81


 2268 001c 9342     		cmp	r3, r2
 2269 001e 0DD0     		beq	.L137
 2270 0020 3F4A     		ldr	r2, .L156+4
 2271 0022 9342     		cmp	r3, r2
 2272 0024 1CD0     		beq	.L138
2264:Generated_Source\PSoC4/BLE_1_eventHandler.c ****     {
2265:Generated_Source\PSoC4/BLE_1_eventHandler.c ****     case CYBLE_UUID_CHAR_DEVICE_NAME:
2266:Generated_Source\PSoC4/BLE_1_eventHandler.c ****         CYBLE_GapcCheckCharHandle(cyBle_gapc.deviceNameCharHandle, discCharInfo);
2267:Generated_Source\PSoC4/BLE_1_eventHandler.c ****         break;
2268:Generated_Source\PSoC4/BLE_1_eventHandler.c **** 
2269:Generated_Source\PSoC4/BLE_1_eventHandler.c ****     case CYBLE_UUID_CHAR_APPEARANCE:
2270:Generated_Source\PSoC4/BLE_1_eventHandler.c ****         CYBLE_GapcCheckCharHandle(cyBle_gapc.appearanceCharHandle, discCharInfo);
2271:Generated_Source\PSoC4/BLE_1_eventHandler.c ****         break;
2272:Generated_Source\PSoC4/BLE_1_eventHandler.c **** 
2273:Generated_Source\PSoC4/BLE_1_eventHandler.c ****     case CYBLE_UUID_CHAR_PERIPH_PRIVCY_FLAG:
2274:Generated_Source\PSoC4/BLE_1_eventHandler.c ****         CYBLE_GapcCheckCharHandle(cyBle_gapc.periphPrivacyCharHandle, discCharInfo);
2275:Generated_Source\PSoC4/BLE_1_eventHandler.c ****         break;
2276:Generated_Source\PSoC4/BLE_1_eventHandler.c **** 
2277:Generated_Source\PSoC4/BLE_1_eventHandler.c ****     case CYBLE_UUID_CHAR_RECONNECTION_ADDR:
2278:Generated_Source\PSoC4/BLE_1_eventHandler.c ****         CYBLE_GapcCheckCharHandle(cyBle_gapc.reconnAddrCharHandle, discCharInfo);
2279:Generated_Source\PSoC4/BLE_1_eventHandler.c ****         break;
2280:Generated_Source\PSoC4/BLE_1_eventHandler.c **** 
2281:Generated_Source\PSoC4/BLE_1_eventHandler.c ****     case CYBLE_UUID_CHAR_PRFRRD_CNXN_PARAM:
2282:Generated_Source\PSoC4/BLE_1_eventHandler.c ****         CYBLE_GapcCheckCharHandle(cyBle_gapc.prefConnParamCharHandle, discCharInfo);
2283:Generated_Source\PSoC4/BLE_1_eventHandler.c ****         break;
2284:Generated_Source\PSoC4/BLE_1_eventHandler.c **** 
2285:Generated_Source\PSoC4/BLE_1_eventHandler.c ****     case CYBLE_UUID_CHAR_CENTRAL_ADDRESS_RESOLUTION:
2286:Generated_Source\PSoC4/BLE_1_eventHandler.c ****         CYBLE_GapcCheckCharHandle(cyBle_gapc.centralAddrResolutionCharHandle, discCharInfo);
2287:Generated_Source\PSoC4/BLE_1_eventHandler.c ****         break;
2288:Generated_Source\PSoC4/BLE_1_eventHandler.c **** 
2289:Generated_Source\PSoC4/BLE_1_eventHandler.c ****     default:
2290:Generated_Source\PSoC4/BLE_1_eventHandler.c ****         break;
 2273              		.loc 1 2290 0
 2274 0026 75E0     		b	.L133
 2275              	.L136:
2263:Generated_Source\PSoC4/BLE_1_eventHandler.c ****     switch(discCharInfo->uuid.uuid16)
 2276              		.loc 1 2263 0
 2277 0028 3E4A     		ldr	r2, .L156+8
 2278 002a 9342     		cmp	r3, r2
 2279 002c 4ED0     		beq	.L139
 2280 002e 3D4A     		ldr	r2, .L156+8
 2281 0030 9342     		cmp	r3, r2
 2282 0032 39DB     		blt	.L140
 2283 0034 3C4A     		ldr	r2, .L156+12
 2284 0036 9342     		cmp	r3, r2
 2285 0038 5AD0     		beq	.L141
 2286              		.loc 1 2290 0
 2287 003a 6BE0     		b	.L133
 2288              	.L137:
2266:Generated_Source\PSoC4/BLE_1_eventHandler.c ****         break;
 2289              		.loc 1 2266 0
 2290 003c 3B4B     		ldr	r3, .L156+16
 2291 003e 1B88     		ldrh	r3, [r3]
 2292 0040 002B     		cmp	r3, #0
 2293 0042 04D1     		bne	.L142
2266:Generated_Source\PSoC4/BLE_1_eventHandler.c ****         break;
 2294              		.loc 1 2266 0 is_stmt 0 discriminator 1
ARM GAS  C:\Users\Sarah\AppData\Local\Temp\ccqSJLdk.s 			page 82


 2295 0044 7B68     		ldr	r3, [r7, #4]
 2296 0046 9A88     		ldrh	r2, [r3, #4]
 2297 0048 384B     		ldr	r3, .L156+16
 2298 004a 1A80     		strh	r2, [r3]
2267:Generated_Source\PSoC4/BLE_1_eventHandler.c **** 
 2299              		.loc 1 2267 0 is_stmt 1 discriminator 1
 2300 004c 62E0     		b	.L133
 2301              	.L142:
2266:Generated_Source\PSoC4/BLE_1_eventHandler.c ****         break;
 2302              		.loc 1 2266 0 discriminator 2
 2303 004e 384B     		ldr	r3, .L156+20
 2304 0050 1B68     		ldr	r3, [r3]
 2305 0052 7A68     		ldr	r2, [r7, #4]
 2306 0054 911D     		add	r1, r2, #6
 2307 0056 8622     		mov	r2, #134
 2308 0058 5200     		lsl	r2, r2, #1
 2309 005a 101C     		mov	r0, r2
 2310 005c 9847     		blx	r3
2267:Generated_Source\PSoC4/BLE_1_eventHandler.c **** 
 2311              		.loc 1 2267 0 discriminator 2
 2312 005e 59E0     		b	.L133
 2313              	.L138:
2270:Generated_Source\PSoC4/BLE_1_eventHandler.c ****         break;
 2314              		.loc 1 2270 0
 2315 0060 324B     		ldr	r3, .L156+16
 2316 0062 5B88     		ldrh	r3, [r3, #2]
 2317 0064 002B     		cmp	r3, #0
 2318 0066 04D1     		bne	.L145
2270:Generated_Source\PSoC4/BLE_1_eventHandler.c ****         break;
 2319              		.loc 1 2270 0 is_stmt 0 discriminator 1
 2320 0068 7B68     		ldr	r3, [r7, #4]
 2321 006a 9A88     		ldrh	r2, [r3, #4]
 2322 006c 2F4B     		ldr	r3, .L156+16
 2323 006e 5A80     		strh	r2, [r3, #2]
2271:Generated_Source\PSoC4/BLE_1_eventHandler.c **** 
 2324              		.loc 1 2271 0 is_stmt 1 discriminator 1
 2325 0070 50E0     		b	.L133
 2326              	.L145:
2270:Generated_Source\PSoC4/BLE_1_eventHandler.c ****         break;
 2327              		.loc 1 2270 0 discriminator 2
 2328 0072 2F4B     		ldr	r3, .L156+20
 2329 0074 1B68     		ldr	r3, [r3]
 2330 0076 7A68     		ldr	r2, [r7, #4]
 2331 0078 911D     		add	r1, r2, #6
 2332 007a 8622     		mov	r2, #134
 2333 007c 5200     		lsl	r2, r2, #1
 2334 007e 101C     		mov	r0, r2
 2335 0080 9847     		blx	r3
2271:Generated_Source\PSoC4/BLE_1_eventHandler.c **** 
 2336              		.loc 1 2271 0 discriminator 2
 2337 0082 47E0     		b	.L133
 2338              	.L135:
2274:Generated_Source\PSoC4/BLE_1_eventHandler.c ****         break;
 2339              		.loc 1 2274 0
 2340 0084 294B     		ldr	r3, .L156+16
 2341 0086 9B88     		ldrh	r3, [r3, #4]
 2342 0088 002B     		cmp	r3, #0
ARM GAS  C:\Users\Sarah\AppData\Local\Temp\ccqSJLdk.s 			page 83


 2343 008a 04D1     		bne	.L147
2274:Generated_Source\PSoC4/BLE_1_eventHandler.c ****         break;
 2344              		.loc 1 2274 0 is_stmt 0 discriminator 1
 2345 008c 7B68     		ldr	r3, [r7, #4]
 2346 008e 9A88     		ldrh	r2, [r3, #4]
 2347 0090 264B     		ldr	r3, .L156+16
 2348 0092 9A80     		strh	r2, [r3, #4]
2275:Generated_Source\PSoC4/BLE_1_eventHandler.c **** 
 2349              		.loc 1 2275 0 is_stmt 1 discriminator 1
 2350 0094 3EE0     		b	.L133
 2351              	.L147:
2274:Generated_Source\PSoC4/BLE_1_eventHandler.c ****         break;
 2352              		.loc 1 2274 0 discriminator 2
 2353 0096 264B     		ldr	r3, .L156+20
 2354 0098 1B68     		ldr	r3, [r3]
 2355 009a 7A68     		ldr	r2, [r7, #4]
 2356 009c 911D     		add	r1, r2, #6
 2357 009e 8622     		mov	r2, #134
 2358 00a0 5200     		lsl	r2, r2, #1
 2359 00a2 101C     		mov	r0, r2
 2360 00a4 9847     		blx	r3
2275:Generated_Source\PSoC4/BLE_1_eventHandler.c **** 
 2361              		.loc 1 2275 0 discriminator 2
 2362 00a6 35E0     		b	.L133
 2363              	.L140:
2278:Generated_Source\PSoC4/BLE_1_eventHandler.c ****         break;
 2364              		.loc 1 2278 0
 2365 00a8 204B     		ldr	r3, .L156+16
 2366 00aa DB88     		ldrh	r3, [r3, #6]
 2367 00ac 002B     		cmp	r3, #0
 2368 00ae 04D1     		bne	.L149
2278:Generated_Source\PSoC4/BLE_1_eventHandler.c ****         break;
 2369              		.loc 1 2278 0 is_stmt 0 discriminator 1
 2370 00b0 7B68     		ldr	r3, [r7, #4]
 2371 00b2 9A88     		ldrh	r2, [r3, #4]
 2372 00b4 1D4B     		ldr	r3, .L156+16
 2373 00b6 DA80     		strh	r2, [r3, #6]
2279:Generated_Source\PSoC4/BLE_1_eventHandler.c **** 
 2374              		.loc 1 2279 0 is_stmt 1 discriminator 1
 2375 00b8 2CE0     		b	.L133
 2376              	.L149:
2278:Generated_Source\PSoC4/BLE_1_eventHandler.c ****         break;
 2377              		.loc 1 2278 0 discriminator 2
 2378 00ba 1D4B     		ldr	r3, .L156+20
 2379 00bc 1B68     		ldr	r3, [r3]
 2380 00be 7A68     		ldr	r2, [r7, #4]
 2381 00c0 911D     		add	r1, r2, #6
 2382 00c2 8622     		mov	r2, #134
 2383 00c4 5200     		lsl	r2, r2, #1
 2384 00c6 101C     		mov	r0, r2
 2385 00c8 9847     		blx	r3
2279:Generated_Source\PSoC4/BLE_1_eventHandler.c **** 
 2386              		.loc 1 2279 0 discriminator 2
 2387 00ca 23E0     		b	.L133
 2388              	.L139:
2282:Generated_Source\PSoC4/BLE_1_eventHandler.c ****         break;
 2389              		.loc 1 2282 0
ARM GAS  C:\Users\Sarah\AppData\Local\Temp\ccqSJLdk.s 			page 84


 2390 00cc 174B     		ldr	r3, .L156+16
 2391 00ce 1B89     		ldrh	r3, [r3, #8]
 2392 00d0 002B     		cmp	r3, #0
 2393 00d2 04D1     		bne	.L151
2282:Generated_Source\PSoC4/BLE_1_eventHandler.c ****         break;
 2394              		.loc 1 2282 0 is_stmt 0 discriminator 1
 2395 00d4 7B68     		ldr	r3, [r7, #4]
 2396 00d6 9A88     		ldrh	r2, [r3, #4]
 2397 00d8 144B     		ldr	r3, .L156+16
 2398 00da 1A81     		strh	r2, [r3, #8]
2283:Generated_Source\PSoC4/BLE_1_eventHandler.c **** 
 2399              		.loc 1 2283 0 is_stmt 1 discriminator 1
 2400 00dc 1AE0     		b	.L133
 2401              	.L151:
2282:Generated_Source\PSoC4/BLE_1_eventHandler.c ****         break;
 2402              		.loc 1 2282 0 discriminator 2
 2403 00de 144B     		ldr	r3, .L156+20
 2404 00e0 1B68     		ldr	r3, [r3]
 2405 00e2 7A68     		ldr	r2, [r7, #4]
 2406 00e4 911D     		add	r1, r2, #6
 2407 00e6 8622     		mov	r2, #134
 2408 00e8 5200     		lsl	r2, r2, #1
 2409 00ea 101C     		mov	r0, r2
 2410 00ec 9847     		blx	r3
2283:Generated_Source\PSoC4/BLE_1_eventHandler.c **** 
 2411              		.loc 1 2283 0 discriminator 2
 2412 00ee 11E0     		b	.L133
 2413              	.L141:
2286:Generated_Source\PSoC4/BLE_1_eventHandler.c ****         break;
 2414              		.loc 1 2286 0
 2415 00f0 0E4B     		ldr	r3, .L156+16
 2416 00f2 5B89     		ldrh	r3, [r3, #10]
 2417 00f4 002B     		cmp	r3, #0
 2418 00f6 04D1     		bne	.L153
2286:Generated_Source\PSoC4/BLE_1_eventHandler.c ****         break;
 2419              		.loc 1 2286 0 is_stmt 0 discriminator 1
 2420 00f8 7B68     		ldr	r3, [r7, #4]
 2421 00fa 9A88     		ldrh	r2, [r3, #4]
 2422 00fc 0B4B     		ldr	r3, .L156+16
 2423 00fe 5A81     		strh	r2, [r3, #10]
2287:Generated_Source\PSoC4/BLE_1_eventHandler.c **** 
 2424              		.loc 1 2287 0 is_stmt 1 discriminator 1
 2425 0100 07E0     		b	.L155
 2426              	.L153:
2286:Generated_Source\PSoC4/BLE_1_eventHandler.c ****         break;
 2427              		.loc 1 2286 0 discriminator 2
 2428 0102 0B4B     		ldr	r3, .L156+20
 2429 0104 1B68     		ldr	r3, [r3]
 2430 0106 7A68     		ldr	r2, [r7, #4]
 2431 0108 911D     		add	r1, r2, #6
 2432 010a 8622     		mov	r2, #134
 2433 010c 5200     		lsl	r2, r2, #1
 2434 010e 101C     		mov	r0, r2
 2435 0110 9847     		blx	r3
 2436              	.L155:
2287:Generated_Source\PSoC4/BLE_1_eventHandler.c **** 
 2437              		.loc 1 2287 0
ARM GAS  C:\Users\Sarah\AppData\Local\Temp\ccqSJLdk.s 			page 85


 2438 0112 C046     		mov	r8, r8
 2439              	.L133:
2291:Generated_Source\PSoC4/BLE_1_eventHandler.c ****     }
2292:Generated_Source\PSoC4/BLE_1_eventHandler.c **** }
 2440              		.loc 1 2292 0
 2441 0114 BD46     		mov	sp, r7
 2442 0116 02B0     		add	sp, sp, #8
 2443              		@ sp needed
 2444 0118 80BD     		pop	{r7, pc}
 2445              	.L157:
 2446 011a C046     		.align	2
 2447              	.L156:
 2448 011c 022A0000 		.word	10754
 2449 0120 012A0000 		.word	10753
 2450 0124 042A0000 		.word	10756
 2451 0128 A62A0000 		.word	10918
 2452 012c 00000000 		.word	cyBle_gapc
 2453 0130 00000000 		.word	CyBle_ApplCallback
 2454              		.cfi_endproc
 2455              	.LFE18:
 2456              		.size	CyBle_GapcDiscoverCharacteristicsEventHandler, .-CyBle_GapcDiscoverCharacteristicsEventHandl
 2457              		.section	.text.CyBle_ReadByTypeEventHandler,"ax",%progbits
 2458              		.align	2
 2459              		.global	CyBle_ReadByTypeEventHandler
 2460              		.code	16
 2461              		.thumb_func
 2462              		.type	CyBle_ReadByTypeEventHandler, %function
 2463              	CyBle_ReadByTypeEventHandler:
 2464              	.LFB19:
2293:Generated_Source\PSoC4/BLE_1_eventHandler.c **** 
2294:Generated_Source\PSoC4/BLE_1_eventHandler.c **** 
2295:Generated_Source\PSoC4/BLE_1_eventHandler.c **** /****************************************************************************** 
2296:Generated_Source\PSoC4/BLE_1_eventHandler.c **** * Function Name: CyBle_ReadByTypeEventHandler
2297:Generated_Source\PSoC4/BLE_1_eventHandler.c **** ***************************************************************************//**
2298:Generated_Source\PSoC4/BLE_1_eventHandler.c **** *  Handles the Read By Type Response Event during an automatic server discovery
2299:Generated_Source\PSoC4/BLE_1_eventHandler.c **** *  process.
2300:Generated_Source\PSoC4/BLE_1_eventHandler.c **** * 
2301:Generated_Source\PSoC4/BLE_1_eventHandler.c **** *  \param eventParam: The event parameters for a Read By Type Response.
2302:Generated_Source\PSoC4/BLE_1_eventHandler.c **** * 
2303:Generated_Source\PSoC4/BLE_1_eventHandler.c **** * \return
2304:Generated_Source\PSoC4/BLE_1_eventHandler.c **** *  None.
2305:Generated_Source\PSoC4/BLE_1_eventHandler.c **** * 
2306:Generated_Source\PSoC4/BLE_1_eventHandler.c **** ******************************************************************************/
2307:Generated_Source\PSoC4/BLE_1_eventHandler.c **** void CyBle_ReadByTypeEventHandler(CYBLE_GATTC_READ_BY_TYPE_RSP_PARAM_T *eventParam)
2308:Generated_Source\PSoC4/BLE_1_eventHandler.c **** {
 2465              		.loc 1 2308 0
 2466              		.cfi_startproc
 2467 0000 90B5     		push	{r4, r7, lr}
 2468              		.cfi_def_cfa_offset 12
 2469              		.cfi_offset 4, -12
 2470              		.cfi_offset 7, -8
 2471              		.cfi_offset 14, -4
 2472 0002 93B0     		sub	sp, sp, #76
 2473              		.cfi_def_cfa_offset 88
 2474 0004 00AF     		add	r7, sp, #0
 2475              		.cfi_def_cfa_register 7
 2476 0006 7860     		str	r0, [r7, #4]
ARM GAS  C:\Users\Sarah\AppData\Local\Temp\ccqSJLdk.s 			page 86


2309:Generated_Source\PSoC4/BLE_1_eventHandler.c ****     uint16 dataLength;
2310:Generated_Source\PSoC4/BLE_1_eventHandler.c ****     uint16 attrLength;
2311:Generated_Source\PSoC4/BLE_1_eventHandler.c ****     uint16 i, j;
2312:Generated_Source\PSoC4/BLE_1_eventHandler.c ****     uint8 *attrVal;
2313:Generated_Source\PSoC4/BLE_1_eventHandler.c **** 
2314:Generated_Source\PSoC4/BLE_1_eventHandler.c ****     if((cyBle_eventHandlerFlag & CYBLE_AUTO_DISCOVERY) != 0u)
 2477              		.loc 1 2314 0
 2478 0008 D14B     		ldr	r3, .L191
 2479 000a 1B78     		ldrb	r3, [r3]
 2480 000c DBB2     		uxtb	r3, r3
 2481 000e 1A1C     		mov	r2, r3
 2482 0010 0223     		mov	r3, #2
 2483 0012 1340     		and	r3, r2
 2484 0014 00D1     		bne	.LCB2034
 2485 0016 CBE1     		b	.L158	@long jump
 2486              	.LCB2034:
2315:Generated_Source\PSoC4/BLE_1_eventHandler.c ****     {
2316:Generated_Source\PSoC4/BLE_1_eventHandler.c ****         /* Count of service information pieces in this mtu */
2317:Generated_Source\PSoC4/BLE_1_eventHandler.c ****         dataLength = eventParam->attrData.length;
 2487              		.loc 1 2317 0
 2488 0018 3E23     		mov	r3, #62
 2489 001a FB18     		add	r3, r7, r3
 2490 001c 7A68     		ldr	r2, [r7, #4]
 2491 001e 1289     		ldrh	r2, [r2, #8]
 2492 0020 1A80     		strh	r2, [r3]
2318:Generated_Source\PSoC4/BLE_1_eventHandler.c ****         attrLength = eventParam->attrData.attrLen;
 2493              		.loc 1 2318 0
 2494 0022 3C23     		mov	r3, #60
 2495 0024 FB18     		add	r3, r7, r3
 2496 0026 7A68     		ldr	r2, [r7, #4]
 2497 0028 5289     		ldrh	r2, [r2, #10]
 2498 002a 1A80     		strh	r2, [r3]
2319:Generated_Source\PSoC4/BLE_1_eventHandler.c ****         attrVal = eventParam->attrData.attrValue;
 2499              		.loc 1 2319 0
 2500 002c 7B68     		ldr	r3, [r7, #4]
 2501 002e 5B68     		ldr	r3, [r3, #4]
 2502 0030 3B64     		str	r3, [r7, #64]
2320:Generated_Source\PSoC4/BLE_1_eventHandler.c ****         
2321:Generated_Source\PSoC4/BLE_1_eventHandler.c ****         if(CyBle_GetClientState() == CYBLE_CLIENT_STATE_CHAR_DISCOVERING)
 2503              		.loc 1 2321 0
 2504 0032 C84B     		ldr	r3, .L191+4
 2505 0034 1B78     		ldrb	r3, [r3]
 2506 0036 032B     		cmp	r3, #3
 2507 0038 00D0     		beq	.LCB2051
 2508 003a C2E0     		b	.L160	@long jump
 2509              	.LCB2051:
 2510              	.LBB10:
2322:Generated_Source\PSoC4/BLE_1_eventHandler.c ****         {
2323:Generated_Source\PSoC4/BLE_1_eventHandler.c ****             CYBLE_DISC_CHAR_INFO_T discCharInfo;
2324:Generated_Source\PSoC4/BLE_1_eventHandler.c ****             
2325:Generated_Source\PSoC4/BLE_1_eventHandler.c ****             for(i = 0u; i < attrLength; i += dataLength)
 2511              		.loc 1 2325 0
 2512 003c 4623     		mov	r3, #70
 2513 003e FB18     		add	r3, r7, r3
 2514 0040 0022     		mov	r2, #0
 2515 0042 1A80     		strh	r2, [r3]
 2516 0044 B3E0     		b	.L161
ARM GAS  C:\Users\Sarah\AppData\Local\Temp\ccqSJLdk.s 			page 87


 2517              	.L173:
2326:Generated_Source\PSoC4/BLE_1_eventHandler.c ****             {
2327:Generated_Source\PSoC4/BLE_1_eventHandler.c ****                 discCharInfo.charDeclHandle = CyBle_Get16ByPtr(attrVal);
 2518              		.loc 1 2327 0
 2519 0046 3B6C     		ldr	r3, [r7, #64]
 2520 0048 181C     		mov	r0, r3
 2521 004a FFF7FEFF 		bl	CyBle_Get16ByPtr
 2522 004e 031C     		mov	r3, r0
 2523 0050 1A1C     		mov	r2, r3
 2524 0052 2423     		mov	r3, #36
 2525 0054 FB18     		add	r3, r7, r3
 2526 0056 1A80     		strh	r2, [r3]
2328:Generated_Source\PSoC4/BLE_1_eventHandler.c ****                 attrVal += sizeof(discCharInfo.charDeclHandle);
 2527              		.loc 1 2328 0
 2528 0058 3B6C     		ldr	r3, [r7, #64]
 2529 005a 0233     		add	r3, r3, #2
 2530 005c 3B64     		str	r3, [r7, #64]
2329:Generated_Source\PSoC4/BLE_1_eventHandler.c ****                 discCharInfo.properties = *attrVal;
 2531              		.loc 1 2329 0
 2532 005e 3B6C     		ldr	r3, [r7, #64]
 2533 0060 1A78     		ldrb	r2, [r3]
 2534 0062 2423     		mov	r3, #36
 2535 0064 FB18     		add	r3, r7, r3
 2536 0066 9A70     		strb	r2, [r3, #2]
2330:Generated_Source\PSoC4/BLE_1_eventHandler.c ****                 attrVal += sizeof(discCharInfo.properties);
 2537              		.loc 1 2330 0
 2538 0068 3B6C     		ldr	r3, [r7, #64]
 2539 006a 0133     		add	r3, r3, #1
 2540 006c 3B64     		str	r3, [r7, #64]
2331:Generated_Source\PSoC4/BLE_1_eventHandler.c ****                 discCharInfo.valueHandle = CyBle_Get16ByPtr(attrVal);
 2541              		.loc 1 2331 0
 2542 006e 3B6C     		ldr	r3, [r7, #64]
 2543 0070 181C     		mov	r0, r3
 2544 0072 FFF7FEFF 		bl	CyBle_Get16ByPtr
 2545 0076 031C     		mov	r3, r0
 2546 0078 1A1C     		mov	r2, r3
 2547 007a 2423     		mov	r3, #36
 2548 007c FB18     		add	r3, r7, r3
 2549 007e 9A80     		strh	r2, [r3, #4]
2332:Generated_Source\PSoC4/BLE_1_eventHandler.c ****                 attrVal += sizeof(discCharInfo.valueHandle);
 2550              		.loc 1 2332 0
 2551 0080 3B6C     		ldr	r3, [r7, #64]
 2552 0082 0233     		add	r3, r3, #2
 2553 0084 3B64     		str	r3, [r7, #64]
2333:Generated_Source\PSoC4/BLE_1_eventHandler.c ****                 /* Characteristics discovery with 128-bit uuid */
2334:Generated_Source\PSoC4/BLE_1_eventHandler.c ****                 if(dataLength == CYBLE_DISC_CHAR_INFO_128_LEN)
 2554              		.loc 1 2334 0
 2555 0086 3E23     		mov	r3, #62
 2556 0088 FB18     		add	r3, r7, r3
 2557 008a 1B88     		ldrh	r3, [r3]
 2558 008c 152B     		cmp	r3, #21
 2559 008e 34D1     		bne	.L162
2335:Generated_Source\PSoC4/BLE_1_eventHandler.c ****                 {
2336:Generated_Source\PSoC4/BLE_1_eventHandler.c ****                     discCharInfo.uuidFormat = CYBLE_GATT_128_BIT_UUID_FORMAT;
 2560              		.loc 1 2336 0
 2561 0090 2423     		mov	r3, #36
 2562 0092 FB18     		add	r3, r7, r3
ARM GAS  C:\Users\Sarah\AppData\Local\Temp\ccqSJLdk.s 			page 88


 2563 0094 0222     		mov	r2, #2
 2564 0096 9A75     		strb	r2, [r3, #22]
2337:Generated_Source\PSoC4/BLE_1_eventHandler.c ****                     (void)memcpy(&discCharInfo.uuid.uuid128, attrVal, CYBLE_GATT_128_BIT_UUID_SIZE)
 2565              		.loc 1 2337 0
 2566 0098 2423     		mov	r3, #36
 2567 009a FB18     		add	r3, r7, r3
 2568 009c 0622     		mov	r2, #6
 2569 009e 396C     		ldr	r1, [r7, #64]
 2570 00a0 9B18     		add	r3, r3, r2
 2571 00a2 1022     		mov	r2, #16
 2572 00a4 181C     		mov	r0, r3
 2573 00a6 FFF7FEFF 		bl	memcpy
2338:Generated_Source\PSoC4/BLE_1_eventHandler.c ****                     attrVal += CYBLE_GATT_128_BIT_UUID_SIZE;
 2574              		.loc 1 2338 0
 2575 00aa 3B6C     		ldr	r3, [r7, #64]
 2576 00ac 1033     		add	r3, r3, #16
 2577 00ae 3B64     		str	r3, [r7, #64]
2339:Generated_Source\PSoC4/BLE_1_eventHandler.c ****                     /* Switch by service uuid */
2340:Generated_Source\PSoC4/BLE_1_eventHandler.c ****                     switch (cyBle_serverInfo[cyBle_disCount].uuid)
 2578              		.loc 1 2340 0
 2579 00b0 A94B     		ldr	r3, .L191+8
 2580 00b2 1B78     		ldrb	r3, [r3]
 2581 00b4 191C     		mov	r1, r3
 2582 00b6 A94A     		ldr	r2, .L191+12
 2583 00b8 0B1C     		mov	r3, r1
 2584 00ba 5B00     		lsl	r3, r3, #1
 2585 00bc 5B18     		add	r3, r3, r1
 2586 00be 5B00     		lsl	r3, r3, #1
 2587 00c0 D318     		add	r3, r2, r3
 2588 00c2 9B88     		ldrh	r3, [r3, #4]
 2589 00c4 1A1E     		sub	r2, r3, #0
 2590 00c6 A64B     		ldr	r3, .L191+16
 2591 00c8 9A42     		cmp	r2, r3
 2592 00ca 14D0     		beq	.L188
2341:Generated_Source\PSoC4/BLE_1_eventHandler.c ****                     {
2342:Generated_Source\PSoC4/BLE_1_eventHandler.c ****                         case CYBLE_UUID_WIRELESS_POWER_TRANSFER_SERVICE:
2343:Generated_Source\PSoC4/BLE_1_eventHandler.c ****                             #ifdef CYBLE_WPTS_CLIENT
2344:Generated_Source\PSoC4/BLE_1_eventHandler.c ****                                 CyBle_WptscDiscoverCharacteristicsEventHandler(&discCharInfo);
2345:Generated_Source\PSoC4/BLE_1_eventHandler.c ****                             #endif /* CYBLE_WPTS_CLIENT */
2346:Generated_Source\PSoC4/BLE_1_eventHandler.c ****                             break;
2347:Generated_Source\PSoC4/BLE_1_eventHandler.c ****                     
2348:Generated_Source\PSoC4/BLE_1_eventHandler.c ****                         default:
2349:Generated_Source\PSoC4/BLE_1_eventHandler.c ****                     #ifdef CYBLE_ANCS_CLIENT
2350:Generated_Source\PSoC4/BLE_1_eventHandler.c ****                         if(cyBle_disCount == ((uint8)CYBLE_SRVI_ANCS))
2351:Generated_Source\PSoC4/BLE_1_eventHandler.c ****                         {
2352:Generated_Source\PSoC4/BLE_1_eventHandler.c ****                             CyBle_AncscDiscoverCharacteristicsEventHandler(&discCharInfo);
2353:Generated_Source\PSoC4/BLE_1_eventHandler.c ****                         }
2354:Generated_Source\PSoC4/BLE_1_eventHandler.c ****                     #endif /* CYBLE_ANCS_CLIENT */
2355:Generated_Source\PSoC4/BLE_1_eventHandler.c ****                     #ifdef CYBLE_CUSTOM_CLIENT
2356:Generated_Source\PSoC4/BLE_1_eventHandler.c ****                         if((cyBle_disCount >= ((uint8)CYBLE_SRVI_CUSTOMS)) &&
 2593              		.loc 1 2356 0
 2594 00cc A24B     		ldr	r3, .L191+8
 2595 00ce 1B78     		ldrb	r3, [r3]
 2596 00d0 012B     		cmp	r3, #1
 2597 00d2 0FD9     		bls	.L166
2357:Generated_Source\PSoC4/BLE_1_eventHandler.c ****                             (cyBle_disCount <= ((uint8)CYBLE_SRVI_CUSTOMS_END)))
 2598              		.loc 1 2357 0 discriminator 1
ARM GAS  C:\Users\Sarah\AppData\Local\Temp\ccqSJLdk.s 			page 89


 2599 00d4 A04B     		ldr	r3, .L191+8
 2600 00d6 1B78     		ldrb	r3, [r3]
2356:Generated_Source\PSoC4/BLE_1_eventHandler.c ****                             (cyBle_disCount <= ((uint8)CYBLE_SRVI_CUSTOMS_END)))
 2601              		.loc 1 2356 0 discriminator 1
 2602 00d8 022B     		cmp	r3, #2
 2603 00da 0BD8     		bhi	.L166
2358:Generated_Source\PSoC4/BLE_1_eventHandler.c ****                         {
2359:Generated_Source\PSoC4/BLE_1_eventHandler.c ****                             CyBle_CustomcDiscoverCharacteristicsEventHandler(cyBle_disCount - CYBLE
 2604              		.loc 1 2359 0
 2605 00dc 9E4B     		ldr	r3, .L191+8
 2606 00de 1B78     		ldrb	r3, [r3]
 2607 00e0 9BB2     		uxth	r3, r3
 2608 00e2 023B     		sub	r3, r3, #2
 2609 00e4 9AB2     		uxth	r2, r3
 2610 00e6 2423     		mov	r3, #36
 2611 00e8 FB18     		add	r3, r7, r3
 2612 00ea 101C     		mov	r0, r2
 2613 00ec 191C     		mov	r1, r3
 2614 00ee FFF7FEFF 		bl	CyBle_CustomcDiscoverCharacteristicsEventHandler
2360:Generated_Source\PSoC4/BLE_1_eventHandler.c ****                         }
2361:Generated_Source\PSoC4/BLE_1_eventHandler.c ****                     #endif /* CYBLE_CUSTOM_CLIENT */
2362:Generated_Source\PSoC4/BLE_1_eventHandler.c ****                         break;
 2615              		.loc 1 2362 0
 2616 00f2 01E0     		b	.L165
 2617              	.L166:
 2618              		.loc 1 2362 0 is_stmt 0 discriminator 2
 2619 00f4 00E0     		b	.L165
 2620              	.L188:
2346:Generated_Source\PSoC4/BLE_1_eventHandler.c ****                     
 2621              		.loc 1 2346 0 is_stmt 1
 2622 00f6 C046     		mov	r8, r8
 2623              	.L165:
 2624 00f8 47E0     		b	.L167
 2625              	.L162:
2363:Generated_Source\PSoC4/BLE_1_eventHandler.c ****                     }
2364:Generated_Source\PSoC4/BLE_1_eventHandler.c ****                 }
2365:Generated_Source\PSoC4/BLE_1_eventHandler.c ****                 else if(dataLength == CYBLE_DISC_CHAR_INFO_LEN)
 2626              		.loc 1 2365 0
 2627 00fa 3E23     		mov	r3, #62
 2628 00fc FB18     		add	r3, r7, r3
 2629 00fe 1B88     		ldrh	r3, [r3]
 2630 0100 072B     		cmp	r3, #7
 2631 0102 42D1     		bne	.L167
2366:Generated_Source\PSoC4/BLE_1_eventHandler.c ****                 {
2367:Generated_Source\PSoC4/BLE_1_eventHandler.c ****                     discCharInfo.uuidFormat = CYBLE_GATT_16_BIT_UUID_FORMAT;
 2632              		.loc 1 2367 0
 2633 0104 2423     		mov	r3, #36
 2634 0106 FB18     		add	r3, r7, r3
 2635 0108 0122     		mov	r2, #1
 2636 010a 9A75     		strb	r2, [r3, #22]
2368:Generated_Source\PSoC4/BLE_1_eventHandler.c ****                     discCharInfo.uuid.uuid16 = CyBle_Get16ByPtr(attrVal);
 2637              		.loc 1 2368 0
 2638 010c 3B6C     		ldr	r3, [r7, #64]
 2639 010e 181C     		mov	r0, r3
 2640 0110 FFF7FEFF 		bl	CyBle_Get16ByPtr
 2641 0114 031C     		mov	r3, r0
 2642 0116 1A1C     		mov	r2, r3
ARM GAS  C:\Users\Sarah\AppData\Local\Temp\ccqSJLdk.s 			page 90


 2643 0118 2423     		mov	r3, #36
 2644 011a FB18     		add	r3, r7, r3
 2645 011c DA80     		strh	r2, [r3, #6]
2369:Generated_Source\PSoC4/BLE_1_eventHandler.c ****                     attrVal += CYBLE_GATT_16_BIT_UUID_SIZE;
 2646              		.loc 1 2369 0
 2647 011e 3B6C     		ldr	r3, [r7, #64]
 2648 0120 0233     		add	r3, r3, #2
 2649 0122 3B64     		str	r3, [r7, #64]
2370:Generated_Source\PSoC4/BLE_1_eventHandler.c **** 
2371:Generated_Source\PSoC4/BLE_1_eventHandler.c ****                     /* Switch by service uuid */
2372:Generated_Source\PSoC4/BLE_1_eventHandler.c ****                     switch (cyBle_serverInfo[cyBle_disCount].uuid)
 2650              		.loc 1 2372 0
 2651 0124 8C4B     		ldr	r3, .L191+8
 2652 0126 1B78     		ldrb	r3, [r3]
 2653 0128 191C     		mov	r1, r3
 2654 012a 8C4A     		ldr	r2, .L191+12
 2655 012c 0B1C     		mov	r3, r1
 2656 012e 5B00     		lsl	r3, r3, #1
 2657 0130 5B18     		add	r3, r3, r1
 2658 0132 5B00     		lsl	r3, r3, #1
 2659 0134 D318     		add	r3, r2, r3
 2660 0136 9B88     		ldrh	r3, [r3, #4]
 2661 0138 C022     		mov	r2, #192
 2662 013a 5201     		lsl	r2, r2, #5
 2663 013c 9342     		cmp	r3, r2
 2664 013e 03D0     		beq	.L169
 2665 0140 884A     		ldr	r2, .L191+20
 2666 0142 9342     		cmp	r3, r2
 2667 0144 06D0     		beq	.L170
 2668 0146 0BE0     		b	.L187
 2669              	.L169:
2373:Generated_Source\PSoC4/BLE_1_eventHandler.c ****                     {
2374:Generated_Source\PSoC4/BLE_1_eventHandler.c ****                     case CYBLE_UUID_GAP_SERVICE:
2375:Generated_Source\PSoC4/BLE_1_eventHandler.c ****                         CyBle_GapcDiscoverCharacteristicsEventHandler(&discCharInfo);
 2670              		.loc 1 2375 0
 2671 0148 2423     		mov	r3, #36
 2672 014a FB18     		add	r3, r7, r3
 2673 014c 181C     		mov	r0, r3
 2674 014e FFF7FEFF 		bl	CyBle_GapcDiscoverCharacteristicsEventHandler
2376:Generated_Source\PSoC4/BLE_1_eventHandler.c ****                         break;
 2675              		.loc 1 2376 0
 2676 0152 1AE0     		b	.L171
 2677              	.L170:
2377:Generated_Source\PSoC4/BLE_1_eventHandler.c **** 
2378:Generated_Source\PSoC4/BLE_1_eventHandler.c ****                     case CYBLE_UUID_GATT_SERVICE:
2379:Generated_Source\PSoC4/BLE_1_eventHandler.c ****                         CyBle_GattcDiscoverCharacteristicsEventHandler(&discCharInfo);
 2678              		.loc 1 2379 0
 2679 0154 2423     		mov	r3, #36
 2680 0156 FB18     		add	r3, r7, r3
 2681 0158 181C     		mov	r0, r3
 2682 015a FFF7FEFF 		bl	CyBle_GattcDiscoverCharacteristicsEventHandler
2380:Generated_Source\PSoC4/BLE_1_eventHandler.c ****                         break;
 2683              		.loc 1 2380 0
 2684 015e 14E0     		b	.L171
 2685              	.L187:
2381:Generated_Source\PSoC4/BLE_1_eventHandler.c ****                 
2382:Generated_Source\PSoC4/BLE_1_eventHandler.c ****                 #ifdef CYBLE_ANS_CLIENT
ARM GAS  C:\Users\Sarah\AppData\Local\Temp\ccqSJLdk.s 			page 91


2383:Generated_Source\PSoC4/BLE_1_eventHandler.c ****                     case CYBLE_UUID_ALERT_NOTIFICATION_SERVICE:
2384:Generated_Source\PSoC4/BLE_1_eventHandler.c ****                         CyBle_AnscDiscoverCharacteristicsEventHandler(&discCharInfo);
2385:Generated_Source\PSoC4/BLE_1_eventHandler.c ****                         break;
2386:Generated_Source\PSoC4/BLE_1_eventHandler.c ****                 #endif /* CYBLE_ANS_CLIENT */
2387:Generated_Source\PSoC4/BLE_1_eventHandler.c ****                 #ifdef CYBLE_BAS_CLIENT
2388:Generated_Source\PSoC4/BLE_1_eventHandler.c ****                     case CYBLE_UUID_BAS_SERVICE:
2389:Generated_Source\PSoC4/BLE_1_eventHandler.c ****                         CyBle_BascDiscoverCharacteristicsEventHandler(cyBle_disCount - CYBLE_SRVI_B
2390:Generated_Source\PSoC4/BLE_1_eventHandler.c ****                         break;
2391:Generated_Source\PSoC4/BLE_1_eventHandler.c ****                 #endif /* CYBLE_BAS_CLIENT */
2392:Generated_Source\PSoC4/BLE_1_eventHandler.c ****                 #ifdef CYBLE_BCS_CLIENT
2393:Generated_Source\PSoC4/BLE_1_eventHandler.c ****                     case CYBLE_UUID_BODY_COMPOSITION_SERVICE:
2394:Generated_Source\PSoC4/BLE_1_eventHandler.c ****                         CyBle_BcscDiscoverCharacteristicsEventHandler(&discCharInfo);
2395:Generated_Source\PSoC4/BLE_1_eventHandler.c ****                         break;
2396:Generated_Source\PSoC4/BLE_1_eventHandler.c ****                 #endif /* CYBLE_BCS_CLIENT */
2397:Generated_Source\PSoC4/BLE_1_eventHandler.c ****                 #ifdef CYBLE_BLS_CLIENT
2398:Generated_Source\PSoC4/BLE_1_eventHandler.c ****                     case CYBLE_UUID_BLOOD_PRESSURE_SERVICE:
2399:Generated_Source\PSoC4/BLE_1_eventHandler.c ****                         CyBle_BlscDiscoverCharacteristicsEventHandler(&discCharInfo);
2400:Generated_Source\PSoC4/BLE_1_eventHandler.c ****                         break;
2401:Generated_Source\PSoC4/BLE_1_eventHandler.c ****                 #endif /* CYBLE_BLS_CLIENT */
2402:Generated_Source\PSoC4/BLE_1_eventHandler.c ****                 #ifdef CYBLE_BMS_CLIENT
2403:Generated_Source\PSoC4/BLE_1_eventHandler.c ****                     case CYBLE_UUID_BOND_MANAGEMENT_SERVICE:
2404:Generated_Source\PSoC4/BLE_1_eventHandler.c ****                         CyBle_BmscDiscoverCharacteristicsEventHandler(&discCharInfo);
2405:Generated_Source\PSoC4/BLE_1_eventHandler.c ****                         break;
2406:Generated_Source\PSoC4/BLE_1_eventHandler.c ****                 #endif /* CYBLE_BMS_CLIENT */
2407:Generated_Source\PSoC4/BLE_1_eventHandler.c ****                 #ifdef CYBLE_CGMS_CLIENT
2408:Generated_Source\PSoC4/BLE_1_eventHandler.c ****                     case CYBLE_UUID_CGM_SERVICE:
2409:Generated_Source\PSoC4/BLE_1_eventHandler.c ****                         CyBle_CgmscDiscoverCharacteristicsEventHandler(&discCharInfo);
2410:Generated_Source\PSoC4/BLE_1_eventHandler.c ****                         break;
2411:Generated_Source\PSoC4/BLE_1_eventHandler.c ****                 #endif /* CYBLE_CGMS_CLIENT */
2412:Generated_Source\PSoC4/BLE_1_eventHandler.c ****                 #ifdef CYBLE_CPS_CLIENT
2413:Generated_Source\PSoC4/BLE_1_eventHandler.c ****                     case CYBLE_UUID_CPS_SERVICE:
2414:Generated_Source\PSoC4/BLE_1_eventHandler.c ****                         CyBle_CpscDiscoverCharacteristicsEventHandler(&discCharInfo);
2415:Generated_Source\PSoC4/BLE_1_eventHandler.c ****                         break;
2416:Generated_Source\PSoC4/BLE_1_eventHandler.c ****                 #endif /* CYBLE_CPS_CLIENT */
2417:Generated_Source\PSoC4/BLE_1_eventHandler.c ****                 #ifdef CYBLE_CSCS_CLIENT
2418:Generated_Source\PSoC4/BLE_1_eventHandler.c ****                     case CYBLE_UUID_CYCLING_SPEED_AND_CADENCE_SERVICE:
2419:Generated_Source\PSoC4/BLE_1_eventHandler.c ****                         CyBle_CscscDiscoverCharacteristicsEventHandler(&discCharInfo);
2420:Generated_Source\PSoC4/BLE_1_eventHandler.c ****                         break;
2421:Generated_Source\PSoC4/BLE_1_eventHandler.c ****                 #endif /* CYBLE_CSCS_CLIENT */
2422:Generated_Source\PSoC4/BLE_1_eventHandler.c ****                 #ifdef CYBLE_CTS_CLIENT
2423:Generated_Source\PSoC4/BLE_1_eventHandler.c ****                     case CYBLE_UUID_CURRENT_TIME_SERVICE:
2424:Generated_Source\PSoC4/BLE_1_eventHandler.c ****                         CyBle_CtscDiscoverCharacteristicsEventHandler(&discCharInfo);
2425:Generated_Source\PSoC4/BLE_1_eventHandler.c ****                         break;
2426:Generated_Source\PSoC4/BLE_1_eventHandler.c ****                 #endif /* CYBLE_CTS_CLIENT */
2427:Generated_Source\PSoC4/BLE_1_eventHandler.c ****                 
2428:Generated_Source\PSoC4/BLE_1_eventHandler.c ****                 #ifdef CYBLE_DIS_CLIENT
2429:Generated_Source\PSoC4/BLE_1_eventHandler.c ****                     case CYBLE_UUID_DEVICE_INFO_SERVICE:
2430:Generated_Source\PSoC4/BLE_1_eventHandler.c ****                         CyBle_DiscDiscoverCharacteristicsEventHandler(&discCharInfo);
2431:Generated_Source\PSoC4/BLE_1_eventHandler.c ****                         break;
2432:Generated_Source\PSoC4/BLE_1_eventHandler.c ****                 #endif /* CYBLE_DIS_CLIENT */
2433:Generated_Source\PSoC4/BLE_1_eventHandler.c ****                 #ifdef CYBLE_ESS_CLIENT
2434:Generated_Source\PSoC4/BLE_1_eventHandler.c ****                     case CYBLE_UUID_ENVIRONMENTAL_SENSING_SERVICE:
2435:Generated_Source\PSoC4/BLE_1_eventHandler.c ****                         CyBle_EsscDiscoverCharacteristicsEventHandler(&discCharInfo);
2436:Generated_Source\PSoC4/BLE_1_eventHandler.c ****                         break;
2437:Generated_Source\PSoC4/BLE_1_eventHandler.c ****                 #endif /* CYBLE_ESS_CLIENT */
2438:Generated_Source\PSoC4/BLE_1_eventHandler.c ****                 #ifdef CYBLE_GLS_CLIENT
2439:Generated_Source\PSoC4/BLE_1_eventHandler.c ****                     case CYBLE_UUID_GLUCOSE_SERVICE:
ARM GAS  C:\Users\Sarah\AppData\Local\Temp\ccqSJLdk.s 			page 92


2440:Generated_Source\PSoC4/BLE_1_eventHandler.c ****                         CyBle_GlscDiscoverCharacteristicsEventHandler(&discCharInfo);
2441:Generated_Source\PSoC4/BLE_1_eventHandler.c ****                         break;
2442:Generated_Source\PSoC4/BLE_1_eventHandler.c ****                 #endif /* CYBLE_GLS_CLIENT */
2443:Generated_Source\PSoC4/BLE_1_eventHandler.c ****                 
2444:Generated_Source\PSoC4/BLE_1_eventHandler.c ****                 #ifdef CYBLE_HIDS_CLIENT
2445:Generated_Source\PSoC4/BLE_1_eventHandler.c ****                     case CYBLE_UUID_HIDS_SERVICE:
2446:Generated_Source\PSoC4/BLE_1_eventHandler.c ****                         CyBle_HidscDiscoverCharacteristicsEventHandler(cyBle_disCount - CYBLE_SRVI_
2447:Generated_Source\PSoC4/BLE_1_eventHandler.c ****                         break;
2448:Generated_Source\PSoC4/BLE_1_eventHandler.c ****                 #endif /* CYBLE_HIDS_CLIENT */
2449:Generated_Source\PSoC4/BLE_1_eventHandler.c ****                 #ifdef CYBLE_HPS_CLIENT
2450:Generated_Source\PSoC4/BLE_1_eventHandler.c ****                     case CYBLE_UUID_HTTP_PROXY_SERVICE:
2451:Generated_Source\PSoC4/BLE_1_eventHandler.c ****                         CyBle_HpscDiscoverCharacteristicsEventHandler(&discCharInfo);
2452:Generated_Source\PSoC4/BLE_1_eventHandler.c ****                         break;
2453:Generated_Source\PSoC4/BLE_1_eventHandler.c ****                 #endif /* CYBLE_HPS_CLIENT */
2454:Generated_Source\PSoC4/BLE_1_eventHandler.c ****                 #ifdef CYBLE_HRS_CLIENT
2455:Generated_Source\PSoC4/BLE_1_eventHandler.c ****                     case CYBLE_UUID_HEART_RATE_SERVICE:
2456:Generated_Source\PSoC4/BLE_1_eventHandler.c ****                         CyBle_HrscDiscoverCharacteristicsEventHandler(&discCharInfo);
2457:Generated_Source\PSoC4/BLE_1_eventHandler.c ****                         break;
2458:Generated_Source\PSoC4/BLE_1_eventHandler.c ****                 #endif /* CYBLE_HRS_CLIENT */
2459:Generated_Source\PSoC4/BLE_1_eventHandler.c ****                 #ifdef CYBLE_HTS_CLIENT
2460:Generated_Source\PSoC4/BLE_1_eventHandler.c ****                     case CYBLE_UUID_HEALTH_THERMOMETER_SERVICE:
2461:Generated_Source\PSoC4/BLE_1_eventHandler.c ****                         CyBle_HtscDiscoverCharacteristicsEventHandler(&discCharInfo);
2462:Generated_Source\PSoC4/BLE_1_eventHandler.c ****                         break;
2463:Generated_Source\PSoC4/BLE_1_eventHandler.c ****                 #endif /* CYBLE_HRS_CLIENT */
2464:Generated_Source\PSoC4/BLE_1_eventHandler.c ****                 #ifdef CYBLE_IAS_CLIENT
2465:Generated_Source\PSoC4/BLE_1_eventHandler.c ****                     case CYBLE_UUID_IMMEDIATE_ALERT_SERVICE:
2466:Generated_Source\PSoC4/BLE_1_eventHandler.c ****                         CyBle_IascDiscoverCharacteristicsEventHandler(&discCharInfo);
2467:Generated_Source\PSoC4/BLE_1_eventHandler.c ****                         break;
2468:Generated_Source\PSoC4/BLE_1_eventHandler.c ****                 #endif /* CYBLE_IAS_CLIENT */
2469:Generated_Source\PSoC4/BLE_1_eventHandler.c ****                 #ifdef CYBLE_IPS_CLIENT
2470:Generated_Source\PSoC4/BLE_1_eventHandler.c ****                     case CYBLE_UUID_IPS_SERVICE:
2471:Generated_Source\PSoC4/BLE_1_eventHandler.c ****                         CyBle_IpscDiscoverCharacteristicsEventHandler(&discCharInfo);
2472:Generated_Source\PSoC4/BLE_1_eventHandler.c ****                         break;
2473:Generated_Source\PSoC4/BLE_1_eventHandler.c ****                 #endif /* CYBLE_IPS_CLIENT */
2474:Generated_Source\PSoC4/BLE_1_eventHandler.c ****                 #ifdef CYBLE_LLS_CLIENT
2475:Generated_Source\PSoC4/BLE_1_eventHandler.c ****                     case CYBLE_UUID_LINK_LOSS_SERVICE:
2476:Generated_Source\PSoC4/BLE_1_eventHandler.c ****                         CyBle_LlscDiscoverCharacteristicsEventHandler(&discCharInfo);
2477:Generated_Source\PSoC4/BLE_1_eventHandler.c ****                         break;
2478:Generated_Source\PSoC4/BLE_1_eventHandler.c ****                 #endif /* CYBLE_LLS_CLIENT */
2479:Generated_Source\PSoC4/BLE_1_eventHandler.c ****                 #ifdef CYBLE_LNS_CLIENT
2480:Generated_Source\PSoC4/BLE_1_eventHandler.c ****                     case CYBLE_UUID_LOCATION_AND_NAVIGATION_SERVICE:
2481:Generated_Source\PSoC4/BLE_1_eventHandler.c ****                         CyBle_LnscDiscoverCharacteristicsEventHandler(&discCharInfo);
2482:Generated_Source\PSoC4/BLE_1_eventHandler.c ****                         break;
2483:Generated_Source\PSoC4/BLE_1_eventHandler.c ****                 #endif /* CYBLE_LNS_CLIENT */
2484:Generated_Source\PSoC4/BLE_1_eventHandler.c ****                 #ifdef CYBLE_PASS_CLIENT
2485:Generated_Source\PSoC4/BLE_1_eventHandler.c ****                     case CYBLE_UUID_PHONE_ALERT_STATUS_SERVICE:
2486:Generated_Source\PSoC4/BLE_1_eventHandler.c ****                         CyBle_PasscDiscoverCharacteristicsEventHandler(&discCharInfo);
2487:Generated_Source\PSoC4/BLE_1_eventHandler.c ****                         break;
2488:Generated_Source\PSoC4/BLE_1_eventHandler.c ****                 #endif /* CYBLE_PASS_CLIENT */
2489:Generated_Source\PSoC4/BLE_1_eventHandler.c ****                 #ifdef CYBLE_PLXS_CLIENT
2490:Generated_Source\PSoC4/BLE_1_eventHandler.c ****                     case CYBLE_UUID_PLX_SERVICE:
2491:Generated_Source\PSoC4/BLE_1_eventHandler.c ****                         CyBle_PlxscDiscoverCharacteristicsEventHandler(&discCharInfo);
2492:Generated_Source\PSoC4/BLE_1_eventHandler.c ****                         break;
2493:Generated_Source\PSoC4/BLE_1_eventHandler.c ****                 #endif /* CYBLE_PLXS_CLIENT */
2494:Generated_Source\PSoC4/BLE_1_eventHandler.c ****                 #ifdef CYBLE_NDCS_CLIENT
2495:Generated_Source\PSoC4/BLE_1_eventHandler.c ****                     case CYBLE_UUID_NEXT_DST_CHANGE_SERVICE:
2496:Generated_Source\PSoC4/BLE_1_eventHandler.c ****                         CyBle_NdcscDiscoverCharacteristicsEventHandler(&discCharInfo);
ARM GAS  C:\Users\Sarah\AppData\Local\Temp\ccqSJLdk.s 			page 93


2497:Generated_Source\PSoC4/BLE_1_eventHandler.c ****                         break;
2498:Generated_Source\PSoC4/BLE_1_eventHandler.c ****                 #endif /* CYBLE_NDCS_CLIENT */
2499:Generated_Source\PSoC4/BLE_1_eventHandler.c ****                 #ifdef CYBLE_RSCS_CLIENT
2500:Generated_Source\PSoC4/BLE_1_eventHandler.c ****                     case CYBLE_UUID_RUNNING_SPEED_AND_CADENCE_SERVICE:
2501:Generated_Source\PSoC4/BLE_1_eventHandler.c ****                         CyBle_RscscDiscoverCharacteristicsEventHandler(&discCharInfo);
2502:Generated_Source\PSoC4/BLE_1_eventHandler.c ****                         break;
2503:Generated_Source\PSoC4/BLE_1_eventHandler.c ****                 #endif /* CYBLE_RSCS_CLIENT */
2504:Generated_Source\PSoC4/BLE_1_eventHandler.c ****                 #ifdef CYBLE_RTUS_CLIENT
2505:Generated_Source\PSoC4/BLE_1_eventHandler.c ****                     case CYBLE_UUID_REF_TIME_UPDATE_SERVICE:
2506:Generated_Source\PSoC4/BLE_1_eventHandler.c ****                         CyBle_RtuscDiscoverCharacteristicsEventHandler(&discCharInfo);
2507:Generated_Source\PSoC4/BLE_1_eventHandler.c ****                         break;
2508:Generated_Source\PSoC4/BLE_1_eventHandler.c ****                 #endif /* CYBLE_RTUS_CLIENT */
2509:Generated_Source\PSoC4/BLE_1_eventHandler.c ****                 #ifdef CYBLE_SCPS_CLIENT
2510:Generated_Source\PSoC4/BLE_1_eventHandler.c ****                     case CYBLE_UUID_SCAN_PARAM_SERVICE:
2511:Generated_Source\PSoC4/BLE_1_eventHandler.c ****                         CyBle_ScpscDiscoverCharacteristicsEventHandler(&discCharInfo);
2512:Generated_Source\PSoC4/BLE_1_eventHandler.c ****                         break;
2513:Generated_Source\PSoC4/BLE_1_eventHandler.c ****                 #endif /* CYBLE_SCPS_CLIENT */
2514:Generated_Source\PSoC4/BLE_1_eventHandler.c ****                 #ifdef CYBLE_TPS_CLIENT
2515:Generated_Source\PSoC4/BLE_1_eventHandler.c ****                     case CYBLE_UUID_TX_POWER_SERVICE:
2516:Generated_Source\PSoC4/BLE_1_eventHandler.c ****                         CyBle_TpscDiscoverCharacteristicsEventHandler(&discCharInfo);
2517:Generated_Source\PSoC4/BLE_1_eventHandler.c ****                         break;
2518:Generated_Source\PSoC4/BLE_1_eventHandler.c ****                 #endif /* CYBLE_TPS_CLIENT */
2519:Generated_Source\PSoC4/BLE_1_eventHandler.c ****                 #ifdef CYBLE_UDS_CLIENT
2520:Generated_Source\PSoC4/BLE_1_eventHandler.c ****                     case CYBLE_UUID_USER_DATA_SERVICE:
2521:Generated_Source\PSoC4/BLE_1_eventHandler.c ****                         CyBle_UdscDiscoverCharacteristicsEventHandler(&discCharInfo);
2522:Generated_Source\PSoC4/BLE_1_eventHandler.c ****                         break;
2523:Generated_Source\PSoC4/BLE_1_eventHandler.c ****                 #endif /* CYBLE_UDS_CLIENT */
2524:Generated_Source\PSoC4/BLE_1_eventHandler.c ****                 #ifdef CYBLE_WSS_CLIENT
2525:Generated_Source\PSoC4/BLE_1_eventHandler.c ****                     case CYBLE_UUID_WEIGHT_SCALE_SERVICE:
2526:Generated_Source\PSoC4/BLE_1_eventHandler.c ****                         CyBle_WsscDiscoverCharacteristicsEventHandler(&discCharInfo);
2527:Generated_Source\PSoC4/BLE_1_eventHandler.c ****                         break;
2528:Generated_Source\PSoC4/BLE_1_eventHandler.c ****                 #endif /* CYBLE_WSS_CLIENT */
2529:Generated_Source\PSoC4/BLE_1_eventHandler.c ****                     default:
2530:Generated_Source\PSoC4/BLE_1_eventHandler.c ****                 #ifdef CYBLE_CUSTOM_CLIENT
2531:Generated_Source\PSoC4/BLE_1_eventHandler.c ****                     if((cyBle_disCount >= ((uint8)CYBLE_SRVI_CUSTOMS)) &&
 2686              		.loc 1 2531 0
 2687 0160 7D4B     		ldr	r3, .L191+8
 2688 0162 1B78     		ldrb	r3, [r3]
 2689 0164 012B     		cmp	r3, #1
 2690 0166 0FD9     		bls	.L172
2532:Generated_Source\PSoC4/BLE_1_eventHandler.c ****                         (cyBle_disCount <= ((uint8)CYBLE_SRVI_CUSTOMS_END)))
 2691              		.loc 1 2532 0 discriminator 1
 2692 0168 7B4B     		ldr	r3, .L191+8
 2693 016a 1B78     		ldrb	r3, [r3]
2531:Generated_Source\PSoC4/BLE_1_eventHandler.c ****                         (cyBle_disCount <= ((uint8)CYBLE_SRVI_CUSTOMS_END)))
 2694              		.loc 1 2531 0 discriminator 1
 2695 016c 022B     		cmp	r3, #2
 2696 016e 0BD8     		bhi	.L172
2533:Generated_Source\PSoC4/BLE_1_eventHandler.c ****                     {
2534:Generated_Source\PSoC4/BLE_1_eventHandler.c ****                         CyBle_CustomcDiscoverCharacteristicsEventHandler(cyBle_disCount - CYBLE_SRV
 2697              		.loc 1 2534 0
 2698 0170 794B     		ldr	r3, .L191+8
 2699 0172 1B78     		ldrb	r3, [r3]
 2700 0174 9BB2     		uxth	r3, r3
 2701 0176 023B     		sub	r3, r3, #2
 2702 0178 9AB2     		uxth	r2, r3
 2703 017a 2423     		mov	r3, #36
ARM GAS  C:\Users\Sarah\AppData\Local\Temp\ccqSJLdk.s 			page 94


 2704 017c FB18     		add	r3, r7, r3
 2705 017e 101C     		mov	r0, r2
 2706 0180 191C     		mov	r1, r3
 2707 0182 FFF7FEFF 		bl	CyBle_CustomcDiscoverCharacteristicsEventHandler
2535:Generated_Source\PSoC4/BLE_1_eventHandler.c ****                     }
2536:Generated_Source\PSoC4/BLE_1_eventHandler.c ****                 #endif /* CYBLE_CUSTOM_CLIENT */
2537:Generated_Source\PSoC4/BLE_1_eventHandler.c ****                         break;
 2708              		.loc 1 2537 0
 2709 0186 FFE7     		b	.L189
 2710              	.L172:
 2711              	.L189:
 2712 0188 C046     		mov	r8, r8
 2713              	.L171:
 2714              	.L167:
2538:Generated_Source\PSoC4/BLE_1_eventHandler.c ****                     }
2539:Generated_Source\PSoC4/BLE_1_eventHandler.c ****                 }
2540:Generated_Source\PSoC4/BLE_1_eventHandler.c ****                 else
2541:Generated_Source\PSoC4/BLE_1_eventHandler.c ****                 {
2542:Generated_Source\PSoC4/BLE_1_eventHandler.c ****                     /* Unsupported data length value */
2543:Generated_Source\PSoC4/BLE_1_eventHandler.c ****                 }
2544:Generated_Source\PSoC4/BLE_1_eventHandler.c **** 
2545:Generated_Source\PSoC4/BLE_1_eventHandler.c ****                 /* The sub-procedure is complete when an Error Response is received and the
2546:Generated_Source\PSoC4/BLE_1_eventHandler.c ****                    Error Code is set to an Attribute Not Found or the Read By Type Response has an
2547:Generated_Source\PSoC4/BLE_1_eventHandler.c ****                    Attribute Handle that is equal to the Ending Handle of the request - in this cas
2548:Generated_Source\PSoC4/BLE_1_eventHandler.c ****                    CYBLE_EVT_GATTC_LONG_PROCEDURE_END event is generated by stack. */
2549:Generated_Source\PSoC4/BLE_1_eventHandler.c **** 
2550:Generated_Source\PSoC4/BLE_1_eventHandler.c ****                 cyBle_eventHandlerFlag &= (uint8)~CYBLE_CALLBACK;
 2715              		.loc 1 2550 0 discriminator 2
 2716 018a 714B     		ldr	r3, .L191
 2717 018c 1B78     		ldrb	r3, [r3]
 2718 018e DBB2     		uxtb	r3, r3
 2719 0190 0122     		mov	r2, #1
 2720 0192 9343     		bic	r3, r2
 2721 0194 DAB2     		uxtb	r2, r3
 2722 0196 6E4B     		ldr	r3, .L191
 2723 0198 1A70     		strb	r2, [r3]
2325:Generated_Source\PSoC4/BLE_1_eventHandler.c ****             {
 2724              		.loc 1 2325 0 discriminator 2
 2725 019a 4623     		mov	r3, #70
 2726 019c FB18     		add	r3, r7, r3
 2727 019e 4622     		mov	r2, #70
 2728 01a0 B918     		add	r1, r7, r2
 2729 01a2 3E22     		mov	r2, #62
 2730 01a4 BA18     		add	r2, r7, r2
 2731 01a6 0988     		ldrh	r1, [r1]
 2732 01a8 1288     		ldrh	r2, [r2]
 2733 01aa 8A18     		add	r2, r1, r2
 2734 01ac 1A80     		strh	r2, [r3]
 2735              	.L161:
2325:Generated_Source\PSoC4/BLE_1_eventHandler.c ****             {
 2736              		.loc 1 2325 0 is_stmt 0 discriminator 1
 2737 01ae 4623     		mov	r3, #70
 2738 01b0 FA18     		add	r2, r7, r3
 2739 01b2 3C23     		mov	r3, #60
 2740 01b4 FB18     		add	r3, r7, r3
 2741 01b6 1288     		ldrh	r2, [r2]
 2742 01b8 1B88     		ldrh	r3, [r3]
ARM GAS  C:\Users\Sarah\AppData\Local\Temp\ccqSJLdk.s 			page 95


 2743 01ba 9A42     		cmp	r2, r3
 2744 01bc 00D2     		bcs	.LCB2271
 2745 01be 42E7     		b	.L173	@long jump
 2746              	.LCB2271:
 2747              	.LBE10:
 2748 01c0 F6E0     		b	.L158
 2749              	.L160:
2551:Generated_Source\PSoC4/BLE_1_eventHandler.c ****             }
2552:Generated_Source\PSoC4/BLE_1_eventHandler.c ****         }
2553:Generated_Source\PSoC4/BLE_1_eventHandler.c ****         else if(CyBle_GetClientState() == CYBLE_CLIENT_STATE_INCL_DISCOVERING)
 2750              		.loc 1 2553 0 is_stmt 1
 2751 01c2 644B     		ldr	r3, .L191+4
 2752 01c4 1B78     		ldrb	r3, [r3]
 2753 01c6 022B     		cmp	r3, #2
 2754 01c8 00D0     		beq	.LCB2280
 2755 01ca F1E0     		b	.L158	@long jump
 2756              	.LCB2280:
 2757              	.LBB11:
2554:Generated_Source\PSoC4/BLE_1_eventHandler.c ****         {
2555:Generated_Source\PSoC4/BLE_1_eventHandler.c ****             CYBLE_DISC_INCL_INFO_T discInclInfo;
2556:Generated_Source\PSoC4/BLE_1_eventHandler.c ****             
2557:Generated_Source\PSoC4/BLE_1_eventHandler.c ****             for(i = 0; i < attrLength; i += dataLength)
 2758              		.loc 1 2557 0
 2759 01cc 4623     		mov	r3, #70
 2760 01ce FB18     		add	r3, r7, r3
 2761 01d0 0022     		mov	r2, #0
 2762 01d2 1A80     		strh	r2, [r3]
 2763 01d4 E3E0     		b	.L174
 2764              	.L186:
2558:Generated_Source\PSoC4/BLE_1_eventHandler.c ****             {
2559:Generated_Source\PSoC4/BLE_1_eventHandler.c ****                 discInclInfo.inclDefHandle = CyBle_Get16ByPtr(attrVal);
 2765              		.loc 1 2559 0
 2766 01d6 3B6C     		ldr	r3, [r7, #64]
 2767 01d8 181C     		mov	r0, r3
 2768 01da FFF7FEFF 		bl	CyBle_Get16ByPtr
 2769 01de 031C     		mov	r3, r0
 2770 01e0 1A1C     		mov	r2, r3
 2771 01e2 0C23     		mov	r3, #12
 2772 01e4 FB18     		add	r3, r7, r3
 2773 01e6 1A80     		strh	r2, [r3]
2560:Generated_Source\PSoC4/BLE_1_eventHandler.c ****                 attrVal += sizeof(discInclInfo.inclDefHandle);
 2774              		.loc 1 2560 0
 2775 01e8 3B6C     		ldr	r3, [r7, #64]
 2776 01ea 0233     		add	r3, r3, #2
 2777 01ec 3B64     		str	r3, [r7, #64]
2561:Generated_Source\PSoC4/BLE_1_eventHandler.c ****                 discInclInfo.inclHandleRange.startHandle = CyBle_Get16ByPtr(attrVal);
 2778              		.loc 1 2561 0
 2779 01ee 3B6C     		ldr	r3, [r7, #64]
 2780 01f0 181C     		mov	r0, r3
 2781 01f2 FFF7FEFF 		bl	CyBle_Get16ByPtr
 2782 01f6 031C     		mov	r3, r0
 2783 01f8 1A1C     		mov	r2, r3
 2784 01fa 0C23     		mov	r3, #12
 2785 01fc FB18     		add	r3, r7, r3
 2786 01fe 5A80     		strh	r2, [r3, #2]
2562:Generated_Source\PSoC4/BLE_1_eventHandler.c ****                 attrVal += sizeof(discInclInfo.inclHandleRange.startHandle);
 2787              		.loc 1 2562 0
ARM GAS  C:\Users\Sarah\AppData\Local\Temp\ccqSJLdk.s 			page 96


 2788 0200 3B6C     		ldr	r3, [r7, #64]
 2789 0202 0233     		add	r3, r3, #2
 2790 0204 3B64     		str	r3, [r7, #64]
2563:Generated_Source\PSoC4/BLE_1_eventHandler.c ****                 discInclInfo.inclHandleRange.endHandle = CyBle_Get16ByPtr(attrVal);
 2791              		.loc 1 2563 0
 2792 0206 3B6C     		ldr	r3, [r7, #64]
 2793 0208 181C     		mov	r0, r3
 2794 020a FFF7FEFF 		bl	CyBle_Get16ByPtr
 2795 020e 031C     		mov	r3, r0
 2796 0210 1A1C     		mov	r2, r3
 2797 0212 0C23     		mov	r3, #12
 2798 0214 FB18     		add	r3, r7, r3
 2799 0216 9A80     		strh	r2, [r3, #4]
2564:Generated_Source\PSoC4/BLE_1_eventHandler.c ****                 attrVal += sizeof(discInclInfo.inclHandleRange.endHandle);
 2800              		.loc 1 2564 0
 2801 0218 3B6C     		ldr	r3, [r7, #64]
 2802 021a 0233     		add	r3, r3, #2
 2803 021c 3B64     		str	r3, [r7, #64]
2565:Generated_Source\PSoC4/BLE_1_eventHandler.c **** 
2566:Generated_Source\PSoC4/BLE_1_eventHandler.c ****                 if(dataLength == CYBLE_DISC_INCL_INFO_128_LEN)
 2804              		.loc 1 2566 0
 2805 021e 3E23     		mov	r3, #62
 2806 0220 FB18     		add	r3, r7, r3
 2807 0222 1B88     		ldrh	r3, [r3]
 2808 0224 062B     		cmp	r3, #6
 2809 0226 30D1     		bne	.L175
2567:Generated_Source\PSoC4/BLE_1_eventHandler.c ****                 {
2568:Generated_Source\PSoC4/BLE_1_eventHandler.c ****                     discInclInfo.uuidFormat = CYBLE_GATT_128_BIT_UUID_FORMAT;
 2810              		.loc 1 2568 0
 2811 0228 0C23     		mov	r3, #12
 2812 022a FB18     		add	r3, r7, r3
 2813 022c 0222     		mov	r2, #2
 2814 022e 9A75     		strb	r2, [r3, #22]
2569:Generated_Source\PSoC4/BLE_1_eventHandler.c ****                     /* Only custom service supports 128-bit uuid */
2570:Generated_Source\PSoC4/BLE_1_eventHandler.c ****                 #ifdef CYBLE_CUSTOM_CLIENT
2571:Generated_Source\PSoC4/BLE_1_eventHandler.c ****                     /* Stop ongoing GATT operation */
2572:Generated_Source\PSoC4/BLE_1_eventHandler.c ****                     CyBle_GattcStopCmd();
 2815              		.loc 1 2572 0
 2816 0230 FFF7FEFF 		bl	CyBle_GattcStopCmd
2573:Generated_Source\PSoC4/BLE_1_eventHandler.c ****                     /* Get the included service UUID when the included service uses a 128-bit
2574:Generated_Source\PSoC4/BLE_1_eventHandler.c ****                        UUID, the Read Request is used. The Attribute Handle for the Read Request is
2575:Generated_Source\PSoC4/BLE_1_eventHandler.c ****                        the Attribute Handle of the included service.
2576:Generated_Source\PSoC4/BLE_1_eventHandler.c ****                     */
2577:Generated_Source\PSoC4/BLE_1_eventHandler.c ****                     if(CyBle_GattcReadCharacteristicValue(cyBle_connHandle, 
 2817              		.loc 1 2577 0
 2818 0234 0C23     		mov	r3, #12
 2819 0236 FB18     		add	r3, r7, r3
 2820 0238 5988     		ldrh	r1, [r3, #2]
 2821 023a 4B4B     		ldr	r3, .L191+24
 2822 023c 1A78     		ldrb	r2, [r3]
 2823 023e 5B78     		ldrb	r3, [r3, #1]
 2824 0240 1B02     		lsl	r3, r3, #8
 2825 0242 1A43     		orr	r2, r3
 2826 0244 0023     		mov	r3, #0
 2827 0246 1204     		lsl	r2, r2, #16
 2828 0248 120C     		lsr	r2, r2, #16
 2829 024a 1B0C     		lsr	r3, r3, #16
ARM GAS  C:\Users\Sarah\AppData\Local\Temp\ccqSJLdk.s 			page 97


 2830 024c 1B04     		lsl	r3, r3, #16
 2831 024e 1343     		orr	r3, r2
 2832 0250 181C     		mov	r0, r3
 2833 0252 FFF7FEFF 		bl	CyBle_GattcReadCharacteristicValue
 2834 0256 031E     		sub	r3, r0, #0
 2835 0258 07D1     		bne	.L176
2578:Generated_Source\PSoC4/BLE_1_eventHandler.c ****                                          discInclInfo.inclHandleRange.startHandle) == CYBLE_ERROR_O
2579:Generated_Source\PSoC4/BLE_1_eventHandler.c ****                     {
2580:Generated_Source\PSoC4/BLE_1_eventHandler.c ****                         /* Save handle to support read response from device */
2581:Generated_Source\PSoC4/BLE_1_eventHandler.c ****                         cyBle_discInclInfo = discInclInfo;
 2836              		.loc 1 2581 0
 2837 025a 444B     		ldr	r3, .L191+28
 2838 025c 0C22     		mov	r2, #12
 2839 025e BA18     		add	r2, r7, r2
 2840 0260 13CA     		ldmia	r2!, {r0, r1, r4}
 2841 0262 13C3     		stmia	r3!, {r0, r1, r4}
 2842 0264 13CA     		ldmia	r2!, {r0, r1, r4}
 2843 0266 13C3     		stmia	r3!, {r0, r1, r4}
 2844 0268 87E0     		b	.L178
 2845              	.L176:
2582:Generated_Source\PSoC4/BLE_1_eventHandler.c ****                     }
2583:Generated_Source\PSoC4/BLE_1_eventHandler.c ****                     else
2584:Generated_Source\PSoC4/BLE_1_eventHandler.c ****                     {
2585:Generated_Source\PSoC4/BLE_1_eventHandler.c ****                         CyBle_ApplCallback(CYBLE_EVT_GATTC_INCL_DISCOVERY_FAILED, NULL);
 2846              		.loc 1 2585 0
 2847 026a 414B     		ldr	r3, .L191+32
 2848 026c 1B68     		ldr	r3, [r3]
 2849 026e 8422     		mov	r2, #132
 2850 0270 5200     		lsl	r2, r2, #1
 2851 0272 101C     		mov	r0, r2
 2852 0274 0021     		mov	r1, #0
 2853 0276 9847     		blx	r3
2586:Generated_Source\PSoC4/BLE_1_eventHandler.c ****                         cyBle_eventHandlerFlag &= (uint8)~CYBLE_AUTO_DISCOVERY;
 2854              		.loc 1 2586 0
 2855 0278 354B     		ldr	r3, .L191
 2856 027a 1B78     		ldrb	r3, [r3]
 2857 027c DBB2     		uxtb	r3, r3
 2858 027e 0222     		mov	r2, #2
 2859 0280 9343     		bic	r3, r2
 2860 0282 DAB2     		uxtb	r2, r3
 2861 0284 324B     		ldr	r3, .L191
 2862 0286 1A70     		strb	r2, [r3]
 2863 0288 77E0     		b	.L178
 2864              	.L175:
2587:Generated_Source\PSoC4/BLE_1_eventHandler.c ****                     }
2588:Generated_Source\PSoC4/BLE_1_eventHandler.c ****                 #endif /* CYBLE_CUSTOM_CLIENT */
2589:Generated_Source\PSoC4/BLE_1_eventHandler.c ****                 }
2590:Generated_Source\PSoC4/BLE_1_eventHandler.c ****                 else if(dataLength == CYBLE_DISC_INCL_INFO_LEN)
 2865              		.loc 1 2590 0
 2866 028a 3E23     		mov	r3, #62
 2867 028c FB18     		add	r3, r7, r3
 2868 028e 1B88     		ldrh	r3, [r3]
 2869 0290 082B     		cmp	r3, #8
 2870 0292 00D0     		beq	.LCB2384
 2871 0294 71E0     		b	.L178	@long jump
 2872              	.LCB2384:
2591:Generated_Source\PSoC4/BLE_1_eventHandler.c ****                 {
ARM GAS  C:\Users\Sarah\AppData\Local\Temp\ccqSJLdk.s 			page 98


2592:Generated_Source\PSoC4/BLE_1_eventHandler.c ****                     discInclInfo.uuidFormat = CYBLE_GATT_16_BIT_UUID_FORMAT;
 2873              		.loc 1 2592 0
 2874 0296 0C23     		mov	r3, #12
 2875 0298 FB18     		add	r3, r7, r3
 2876 029a 0122     		mov	r2, #1
 2877 029c 9A75     		strb	r2, [r3, #22]
2593:Generated_Source\PSoC4/BLE_1_eventHandler.c ****                     discInclInfo.uuid.uuid16 = CyBle_Get16ByPtr(attrVal);
 2878              		.loc 1 2593 0
 2879 029e 3B6C     		ldr	r3, [r7, #64]
 2880 02a0 181C     		mov	r0, r3
 2881 02a2 FFF7FEFF 		bl	CyBle_Get16ByPtr
 2882 02a6 031C     		mov	r3, r0
 2883 02a8 1A1C     		mov	r2, r3
 2884 02aa 0C23     		mov	r3, #12
 2885 02ac FB18     		add	r3, r7, r3
 2886 02ae DA80     		strh	r2, [r3, #6]
2594:Generated_Source\PSoC4/BLE_1_eventHandler.c ****                     attrVal += CYBLE_GATT_16_BIT_UUID_SIZE;
 2887              		.loc 1 2594 0
 2888 02b0 3B6C     		ldr	r3, [r7, #64]
 2889 02b2 0233     		add	r3, r3, #2
 2890 02b4 3B64     		str	r3, [r7, #64]
2595:Generated_Source\PSoC4/BLE_1_eventHandler.c ****                     
2596:Generated_Source\PSoC4/BLE_1_eventHandler.c ****                     /* Store range of included service in list of services for discovery */
2597:Generated_Source\PSoC4/BLE_1_eventHandler.c ****                     for(j = 0u; j < (uint8) CYBLE_SRVI_COUNT; j++)
 2891              		.loc 1 2597 0
 2892 02b6 4423     		mov	r3, #68
 2893 02b8 FB18     		add	r3, r7, r3
 2894 02ba 0022     		mov	r2, #0
 2895 02bc 1A80     		strh	r2, [r3]
 2896 02be 33E0     		b	.L179
 2897              	.L182:
2598:Generated_Source\PSoC4/BLE_1_eventHandler.c ****                     {
2599:Generated_Source\PSoC4/BLE_1_eventHandler.c ****                         if(cyBle_serverInfo[j].uuid == discInclInfo.uuid.uuid16)
 2898              		.loc 1 2599 0
 2899 02c0 4423     		mov	r3, #68
 2900 02c2 FB18     		add	r3, r7, r3
 2901 02c4 1A88     		ldrh	r2, [r3]
 2902 02c6 2549     		ldr	r1, .L191+12
 2903 02c8 131C     		mov	r3, r2
 2904 02ca 5B00     		lsl	r3, r3, #1
 2905 02cc 9B18     		add	r3, r3, r2
 2906 02ce 5B00     		lsl	r3, r3, #1
 2907 02d0 CB18     		add	r3, r1, r3
 2908 02d2 9A88     		ldrh	r2, [r3, #4]
 2909 02d4 0C23     		mov	r3, #12
 2910 02d6 FB18     		add	r3, r7, r3
 2911 02d8 DB88     		ldrh	r3, [r3, #6]
 2912 02da 9A42     		cmp	r2, r3
 2913 02dc 1DD1     		bne	.L180
2600:Generated_Source\PSoC4/BLE_1_eventHandler.c ****                         {
2601:Generated_Source\PSoC4/BLE_1_eventHandler.c ****                             if(cyBle_serverInfo[j].range.startHandle == CYBLE_GATT_INVALID_ATTR_HAN
 2914              		.loc 1 2601 0
 2915 02de 4423     		mov	r3, #68
 2916 02e0 FB18     		add	r3, r7, r3
 2917 02e2 1A88     		ldrh	r2, [r3]
 2918 02e4 1D49     		ldr	r1, .L191+12
 2919 02e6 131C     		mov	r3, r2
ARM GAS  C:\Users\Sarah\AppData\Local\Temp\ccqSJLdk.s 			page 99


 2920 02e8 5B00     		lsl	r3, r3, #1
 2921 02ea 9B18     		add	r3, r3, r2
 2922 02ec 5B00     		lsl	r3, r3, #1
 2923 02ee 5B5A     		ldrh	r3, [r3, r1]
 2924 02f0 002B     		cmp	r3, #0
 2925 02f2 12D1     		bne	.L180
2602:Generated_Source\PSoC4/BLE_1_eventHandler.c ****                             {
2603:Generated_Source\PSoC4/BLE_1_eventHandler.c ****                                 cyBle_serverInfo[j].range = discInclInfo.inclHandleRange;
 2926              		.loc 1 2603 0
 2927 02f4 4423     		mov	r3, #68
 2928 02f6 FB18     		add	r3, r7, r3
 2929 02f8 1A88     		ldrh	r2, [r3]
 2930 02fa 1849     		ldr	r1, .L191+12
 2931 02fc 131C     		mov	r3, r2
 2932 02fe 5B00     		lsl	r3, r3, #1
 2933 0300 9B18     		add	r3, r3, r2
 2934 0302 5B00     		lsl	r3, r3, #1
 2935 0304 0C22     		mov	r2, #12
 2936 0306 BA18     		add	r2, r7, r2
 2937 0308 0220     		mov	r0, #2
 2938 030a C918     		add	r1, r1, r3
 2939 030c 1318     		add	r3, r2, r0
 2940 030e 0422     		mov	r2, #4
 2941 0310 081C     		mov	r0, r1
 2942 0312 191C     		mov	r1, r3
 2943 0314 FFF7FEFF 		bl	memcpy
2604:Generated_Source\PSoC4/BLE_1_eventHandler.c ****                                 break;
 2944              		.loc 1 2604 0
 2945 0318 0BE0     		b	.L181
 2946              	.L180:
2597:Generated_Source\PSoC4/BLE_1_eventHandler.c ****                     {
 2947              		.loc 1 2597 0 discriminator 2
 2948 031a 4423     		mov	r3, #68
 2949 031c FB18     		add	r3, r7, r3
 2950 031e 1A88     		ldrh	r2, [r3]
 2951 0320 4423     		mov	r3, #68
 2952 0322 FB18     		add	r3, r7, r3
 2953 0324 0132     		add	r2, r2, #1
 2954 0326 1A80     		strh	r2, [r3]
 2955              	.L179:
2597:Generated_Source\PSoC4/BLE_1_eventHandler.c ****                     {
 2956              		.loc 1 2597 0 is_stmt 0 discriminator 1
 2957 0328 4423     		mov	r3, #68
 2958 032a FB18     		add	r3, r7, r3
 2959 032c 1B88     		ldrh	r3, [r3]
 2960 032e 022B     		cmp	r3, #2
 2961 0330 C6D9     		bls	.L182
 2962              	.L181:
2605:Generated_Source\PSoC4/BLE_1_eventHandler.c ****                             }
2606:Generated_Source\PSoC4/BLE_1_eventHandler.c ****                         }
2607:Generated_Source\PSoC4/BLE_1_eventHandler.c ****                     }
2608:Generated_Source\PSoC4/BLE_1_eventHandler.c **** 
2609:Generated_Source\PSoC4/BLE_1_eventHandler.c ****                     /* Switch by service uuid */
2610:Generated_Source\PSoC4/BLE_1_eventHandler.c ****                     switch (cyBle_serverInfo[cyBle_disCount].uuid)
 2963              		.loc 1 2610 0 is_stmt 1
 2964 0332 094B     		ldr	r3, .L191+8
 2965 0334 1B78     		ldrb	r3, [r3]
ARM GAS  C:\Users\Sarah\AppData\Local\Temp\ccqSJLdk.s 			page 100


 2966 0336 191C     		mov	r1, r3
 2967 0338 084A     		ldr	r2, .L191+12
 2968 033a 0B1C     		mov	r3, r1
 2969 033c 5B00     		lsl	r3, r3, #1
 2970 033e 5B18     		add	r3, r3, r1
 2971 0340 5B00     		lsl	r3, r3, #1
 2972 0342 D318     		add	r3, r2, r3
 2973 0344 9B88     		ldrh	r3, [r3, #4]
 2974 0346 1A1E     		sub	r2, r3, #0
 2975 0348 0A4B     		ldr	r3, .L191+36
 2976 034a 9A42     		cmp	r2, r3
 2977 034c 14D0     		beq	.L190
2611:Generated_Source\PSoC4/BLE_1_eventHandler.c ****                     {
2612:Generated_Source\PSoC4/BLE_1_eventHandler.c ****                         case CYBLE_UUID_HIDS_SERVICE:
2613:Generated_Source\PSoC4/BLE_1_eventHandler.c ****                         #ifdef CYBLE_HIDS_CLIENT    
2614:Generated_Source\PSoC4/BLE_1_eventHandler.c ****                             CyBle_HidscInclDiscoveryEventHandler(cyBle_disCount - CYBLE_SRVI_HIDS, 
2615:Generated_Source\PSoC4/BLE_1_eventHandler.c ****                         #endif /* CYBLE_HIDS_CLIENT */
2616:Generated_Source\PSoC4/BLE_1_eventHandler.c ****                             break;
2617:Generated_Source\PSoC4/BLE_1_eventHandler.c ****                     /* other services */
2618:Generated_Source\PSoC4/BLE_1_eventHandler.c **** 
2619:Generated_Source\PSoC4/BLE_1_eventHandler.c ****                     default:
2620:Generated_Source\PSoC4/BLE_1_eventHandler.c ****                         break;
 2978              		.loc 1 2620 0
 2979 034e 14E0     		b	.L185
 2980              	.L192:
 2981              		.align	2
 2982              	.L191:
 2983 0350 00000000 		.word	cyBle_eventHandlerFlag
 2984 0354 00000000 		.word	cyBle_clientState
 2985 0358 00000000 		.word	cyBle_disCount
 2986 035c 00000000 		.word	cyBle_serverInfo
 2987 0360 FEFF0000 		.word	65534
 2988 0364 01180000 		.word	6145
 2989 0368 00000000 		.word	cyBle_connHandle
 2990 036c 00000000 		.word	cyBle_discInclInfo
 2991 0370 00000000 		.word	CyBle_ApplCallback
 2992 0374 12180000 		.word	6162
 2993              	.L190:
2616:Generated_Source\PSoC4/BLE_1_eventHandler.c ****                     /* other services */
 2994              		.loc 1 2616 0
 2995 0378 C046     		mov	r8, r8
 2996              	.L185:
 2997              	.L178:
2621:Generated_Source\PSoC4/BLE_1_eventHandler.c ****                     }
2622:Generated_Source\PSoC4/BLE_1_eventHandler.c ****                 }
2623:Generated_Source\PSoC4/BLE_1_eventHandler.c ****                 else
2624:Generated_Source\PSoC4/BLE_1_eventHandler.c ****                 {
2625:Generated_Source\PSoC4/BLE_1_eventHandler.c ****                     /* Unsupported data length value */
2626:Generated_Source\PSoC4/BLE_1_eventHandler.c ****                 }
2627:Generated_Source\PSoC4/BLE_1_eventHandler.c ****                 /* The sub-procedure is complete when an Error Response is received and the
2628:Generated_Source\PSoC4/BLE_1_eventHandler.c ****                    Error Code is set to an Attribute Not Found or the Read By Type Response has an
2629:Generated_Source\PSoC4/BLE_1_eventHandler.c ****                    Attribute Handle that is equal to the Ending Handle of the request - in this cas
2630:Generated_Source\PSoC4/BLE_1_eventHandler.c ****                    CYBLE_EVT_GATTC_LONG_PROCEDURE_END event is generated by stack.
2631:Generated_Source\PSoC4/BLE_1_eventHandler.c ****                    Not complete when Read Request is sent to read 128-bit UUID.
2632:Generated_Source\PSoC4/BLE_1_eventHandler.c ****                 */
2633:Generated_Source\PSoC4/BLE_1_eventHandler.c ****                 cyBle_eventHandlerFlag &= (uint8)~CYBLE_CALLBACK;
 2998              		.loc 1 2633 0 discriminator 2
ARM GAS  C:\Users\Sarah\AppData\Local\Temp\ccqSJLdk.s 			page 101


 2999 037a 0F4B     		ldr	r3, .L193
 3000 037c 1B78     		ldrb	r3, [r3]
 3001 037e DBB2     		uxtb	r3, r3
 3002 0380 0122     		mov	r2, #1
 3003 0382 9343     		bic	r3, r2
 3004 0384 DAB2     		uxtb	r2, r3
 3005 0386 0C4B     		ldr	r3, .L193
 3006 0388 1A70     		strb	r2, [r3]
2557:Generated_Source\PSoC4/BLE_1_eventHandler.c ****             {
 3007              		.loc 1 2557 0 discriminator 2
 3008 038a 4623     		mov	r3, #70
 3009 038c FB18     		add	r3, r7, r3
 3010 038e 4622     		mov	r2, #70
 3011 0390 B918     		add	r1, r7, r2
 3012 0392 3E22     		mov	r2, #62
 3013 0394 BA18     		add	r2, r7, r2
 3014 0396 0988     		ldrh	r1, [r1]
 3015 0398 1288     		ldrh	r2, [r2]
 3016 039a 8A18     		add	r2, r1, r2
 3017 039c 1A80     		strh	r2, [r3]
 3018              	.L174:
2557:Generated_Source\PSoC4/BLE_1_eventHandler.c ****             {
 3019              		.loc 1 2557 0 is_stmt 0 discriminator 1
 3020 039e 4623     		mov	r3, #70
 3021 03a0 FA18     		add	r2, r7, r3
 3022 03a2 3C23     		mov	r3, #60
 3023 03a4 FB18     		add	r3, r7, r3
 3024 03a6 1288     		ldrh	r2, [r2]
 3025 03a8 1B88     		ldrh	r3, [r3]
 3026 03aa 9A42     		cmp	r2, r3
 3027 03ac 00D2     		bcs	.LCB2535
 3028 03ae 12E7     		b	.L186	@long jump
 3029              	.LCB2535:
 3030              	.L158:
 3031              	.LBE11:
2634:Generated_Source\PSoC4/BLE_1_eventHandler.c ****             }
2635:Generated_Source\PSoC4/BLE_1_eventHandler.c ****         }
2636:Generated_Source\PSoC4/BLE_1_eventHandler.c ****         else
2637:Generated_Source\PSoC4/BLE_1_eventHandler.c ****         {
2638:Generated_Source\PSoC4/BLE_1_eventHandler.c ****             /* Unhandled state value */
2639:Generated_Source\PSoC4/BLE_1_eventHandler.c ****         }
2640:Generated_Source\PSoC4/BLE_1_eventHandler.c ****     }
2641:Generated_Source\PSoC4/BLE_1_eventHandler.c **** }
 3032              		.loc 1 2641 0 is_stmt 1
 3033 03b0 BD46     		mov	sp, r7
 3034 03b2 13B0     		add	sp, sp, #76
 3035              		@ sp needed
 3036 03b4 90BD     		pop	{r4, r7, pc}
 3037              	.L194:
 3038 03b6 C046     		.align	2
 3039              	.L193:
 3040 03b8 00000000 		.word	cyBle_eventHandlerFlag
 3041              		.cfi_endproc
 3042              	.LFE19:
 3043              		.size	CyBle_ReadByTypeEventHandler, .-CyBle_ReadByTypeEventHandler
 3044              		.section	.text.CyBle_NextCharDiscovery,"ax",%progbits
 3045              		.align	2
ARM GAS  C:\Users\Sarah\AppData\Local\Temp\ccqSJLdk.s 			page 102


 3046              		.global	CyBle_NextCharDiscovery
 3047              		.code	16
 3048              		.thumb_func
 3049              		.type	CyBle_NextCharDiscovery, %function
 3050              	CyBle_NextCharDiscovery:
 3051              	.LFB20:
2642:Generated_Source\PSoC4/BLE_1_eventHandler.c **** 
2643:Generated_Source\PSoC4/BLE_1_eventHandler.c **** 
2644:Generated_Source\PSoC4/BLE_1_eventHandler.c **** /****************************************************************************** 
2645:Generated_Source\PSoC4/BLE_1_eventHandler.c **** * Function Name: CyBle_NextCharDiscovery
2646:Generated_Source\PSoC4/BLE_1_eventHandler.c **** ***************************************************************************//**
2647:Generated_Source\PSoC4/BLE_1_eventHandler.c **** * 
2648:Generated_Source\PSoC4/BLE_1_eventHandler.c **** *  Looks for a characteristic handle range for the current service (pointed by
2649:Generated_Source\PSoC4/BLE_1_eventHandler.c **** *   cyBle_disCount). If the current range is invalid (any of start or end
2650:Generated_Source\PSoC4/BLE_1_eventHandler.c **** *   handles is invalid), then increment the cyBle_disCount and check
2651:Generated_Source\PSoC4/BLE_1_eventHandler.c **** *   the next service range and does so until a valid range is caught or the end
2652:Generated_Source\PSoC4/BLE_1_eventHandler.c **** *   of the service set is reached.
2653:Generated_Source\PSoC4/BLE_1_eventHandler.c **** * 
2654:Generated_Source\PSoC4/BLE_1_eventHandler.c **** *  \param incrementIndex: Not zero value indicates that characteristic index 
2655:Generated_Source\PSoC4/BLE_1_eventHandler.c **** *                         should be incremented.
2656:Generated_Source\PSoC4/BLE_1_eventHandler.c **** * 
2657:Generated_Source\PSoC4/BLE_1_eventHandler.c **** * \return
2658:Generated_Source\PSoC4/BLE_1_eventHandler.c **** *  None.
2659:Generated_Source\PSoC4/BLE_1_eventHandler.c **** * 
2660:Generated_Source\PSoC4/BLE_1_eventHandler.c **** ******************************************************************************/
2661:Generated_Source\PSoC4/BLE_1_eventHandler.c **** void CyBle_NextCharDiscovery(uint8 incrementIndex)
2662:Generated_Source\PSoC4/BLE_1_eventHandler.c **** {
 3052              		.loc 1 2662 0
 3053              		.cfi_startproc
 3054 0000 80B5     		push	{r7, lr}
 3055              		.cfi_def_cfa_offset 8
 3056              		.cfi_offset 7, -8
 3057              		.cfi_offset 14, -4
 3058 0002 82B0     		sub	sp, sp, #8
 3059              		.cfi_def_cfa_offset 16
 3060 0004 00AF     		add	r7, sp, #0
 3061              		.cfi_def_cfa_register 7
 3062 0006 021C     		mov	r2, r0
 3063 0008 FB1D     		add	r3, r7, #7
 3064 000a 1A70     		strb	r2, [r3]
2663:Generated_Source\PSoC4/BLE_1_eventHandler.c **** 
2664:Generated_Source\PSoC4/BLE_1_eventHandler.c ****     if(incrementIndex != CYBLE_DISCOVERY_INIT)
 3065              		.loc 1 2664 0
 3066 000c FB1D     		add	r3, r7, #7
 3067 000e 1B78     		ldrb	r3, [r3]
 3068 0010 002B     		cmp	r3, #0
 3069 0012 06D0     		beq	.L196
2665:Generated_Source\PSoC4/BLE_1_eventHandler.c ****     {
2666:Generated_Source\PSoC4/BLE_1_eventHandler.c ****         cyBle_disCount++;
 3070              		.loc 1 2666 0
 3071 0014 354B     		ldr	r3, .L204
 3072 0016 1B78     		ldrb	r3, [r3]
 3073 0018 0133     		add	r3, r3, #1
 3074 001a DAB2     		uxtb	r2, r3
 3075 001c 334B     		ldr	r3, .L204
 3076 001e 1A70     		strb	r2, [r3]
 3077 0020 02E0     		b	.L197
ARM GAS  C:\Users\Sarah\AppData\Local\Temp\ccqSJLdk.s 			page 103


 3078              	.L196:
2667:Generated_Source\PSoC4/BLE_1_eventHandler.c ****     }
2668:Generated_Source\PSoC4/BLE_1_eventHandler.c ****     else
2669:Generated_Source\PSoC4/BLE_1_eventHandler.c ****     {
2670:Generated_Source\PSoC4/BLE_1_eventHandler.c ****         cyBle_disCount = 0u;
 3079              		.loc 1 2670 0
 3080 0022 324B     		ldr	r3, .L204
 3081 0024 0022     		mov	r2, #0
 3082 0026 1A70     		strb	r2, [r3]
 3083              	.L197:
2671:Generated_Source\PSoC4/BLE_1_eventHandler.c ****         #ifdef CYBLE_HIDS_CLIENT
2672:Generated_Source\PSoC4/BLE_1_eventHandler.c ****             disServiceIndex = 0u;
2673:Generated_Source\PSoC4/BLE_1_eventHandler.c ****         #endif /* CYBLE_HIDS_CLIENT */
2674:Generated_Source\PSoC4/BLE_1_eventHandler.c ****     }
2675:Generated_Source\PSoC4/BLE_1_eventHandler.c **** 
2676:Generated_Source\PSoC4/BLE_1_eventHandler.c ****     /* Skip not existing services and services out of discovery range */
2677:Generated_Source\PSoC4/BLE_1_eventHandler.c ****     while((cyBle_disCount < (uint8) CYBLE_SRVI_COUNT) &&
 3084              		.loc 1 2677 0
 3085 0028 05E0     		b	.L198
 3086              	.L200:
2678:Generated_Source\PSoC4/BLE_1_eventHandler.c ****           ((cyBle_serverInfo[cyBle_disCount].range.startHandle < cyBle_gattcDiscoveryRange.startHan
2679:Generated_Source\PSoC4/BLE_1_eventHandler.c ****            (cyBle_serverInfo[cyBle_disCount].range.startHandle > cyBle_gattcDiscoveryRange.endHandl
2680:Generated_Source\PSoC4/BLE_1_eventHandler.c ****     {
2681:Generated_Source\PSoC4/BLE_1_eventHandler.c ****         cyBle_disCount++;
 3087              		.loc 1 2681 0
 3088 002a 304B     		ldr	r3, .L204
 3089 002c 1B78     		ldrb	r3, [r3]
 3090 002e 0133     		add	r3, r3, #1
 3091 0030 DAB2     		uxtb	r2, r3
 3092 0032 2E4B     		ldr	r3, .L204
 3093 0034 1A70     		strb	r2, [r3]
 3094              	.L198:
2677:Generated_Source\PSoC4/BLE_1_eventHandler.c ****           ((cyBle_serverInfo[cyBle_disCount].range.startHandle < cyBle_gattcDiscoveryRange.startHan
 3095              		.loc 1 2677 0
 3096 0036 2D4B     		ldr	r3, .L204
 3097 0038 1B78     		ldrb	r3, [r3]
 3098 003a 022B     		cmp	r3, #2
 3099 003c 19D8     		bhi	.L199
2678:Generated_Source\PSoC4/BLE_1_eventHandler.c ****           ((cyBle_serverInfo[cyBle_disCount].range.startHandle < cyBle_gattcDiscoveryRange.startHan
 3100              		.loc 1 2678 0 discriminator 1
 3101 003e 2B4B     		ldr	r3, .L204
 3102 0040 1B78     		ldrb	r3, [r3]
 3103 0042 191C     		mov	r1, r3
 3104 0044 2A4A     		ldr	r2, .L204+4
 3105 0046 0B1C     		mov	r3, r1
 3106 0048 5B00     		lsl	r3, r3, #1
 3107 004a 5B18     		add	r3, r3, r1
 3108 004c 5B00     		lsl	r3, r3, #1
 3109 004e 9A5A     		ldrh	r2, [r3, r2]
 3110 0050 284B     		ldr	r3, .L204+8
 3111 0052 1B88     		ldrh	r3, [r3]
2677:Generated_Source\PSoC4/BLE_1_eventHandler.c ****           ((cyBle_serverInfo[cyBle_disCount].range.startHandle < cyBle_gattcDiscoveryRange.startHan
 3112              		.loc 1 2677 0 discriminator 1
 3113 0054 9A42     		cmp	r2, r3
 3114 0056 E8D3     		bcc	.L200
2679:Generated_Source\PSoC4/BLE_1_eventHandler.c ****     {
 3115              		.loc 1 2679 0
ARM GAS  C:\Users\Sarah\AppData\Local\Temp\ccqSJLdk.s 			page 104


 3116 0058 244B     		ldr	r3, .L204
 3117 005a 1B78     		ldrb	r3, [r3]
 3118 005c 191C     		mov	r1, r3
 3119 005e 244A     		ldr	r2, .L204+4
 3120 0060 0B1C     		mov	r3, r1
 3121 0062 5B00     		lsl	r3, r3, #1
 3122 0064 5B18     		add	r3, r3, r1
 3123 0066 5B00     		lsl	r3, r3, #1
 3124 0068 9A5A     		ldrh	r2, [r3, r2]
 3125 006a 224B     		ldr	r3, .L204+8
 3126 006c 5B88     		ldrh	r3, [r3, #2]
2678:Generated_Source\PSoC4/BLE_1_eventHandler.c ****           ((cyBle_serverInfo[cyBle_disCount].range.startHandle < cyBle_gattcDiscoveryRange.startHan
 3127              		.loc 1 2678 0
 3128 006e 9A42     		cmp	r2, r3
 3129 0070 DBD8     		bhi	.L200
 3130              	.L199:
2682:Generated_Source\PSoC4/BLE_1_eventHandler.c ****     }
2683:Generated_Source\PSoC4/BLE_1_eventHandler.c **** 
2684:Generated_Source\PSoC4/BLE_1_eventHandler.c ****     if(cyBle_disCount < (uint8) CYBLE_SRVI_COUNT)
 3131              		.loc 1 2684 0
 3132 0072 1E4B     		ldr	r3, .L204
 3133 0074 1B78     		ldrb	r3, [r3]
 3134 0076 022B     		cmp	r3, #2
 3135 0078 2FD8     		bhi	.L201
2685:Generated_Source\PSoC4/BLE_1_eventHandler.c ****     {
2686:Generated_Source\PSoC4/BLE_1_eventHandler.c ****         if(CYBLE_ERROR_OK != CyBle_GattcDiscoverAllCharacteristics(cyBle_connHandle, cyBle_serverIn
 3136              		.loc 1 2686 0
 3137 007a 1C4B     		ldr	r3, .L204
 3138 007c 1B78     		ldrb	r3, [r3]
 3139 007e 181C     		mov	r0, r3
 3140 0080 1D49     		ldr	r1, .L204+12
 3141 0082 1B4A     		ldr	r2, .L204+4
 3142 0084 031C     		mov	r3, r0
 3143 0086 5B00     		lsl	r3, r3, #1
 3144 0088 1B18     		add	r3, r3, r0
 3145 008a 5B00     		lsl	r3, r3, #1
 3146 008c 0878     		ldrb	r0, [r1]
 3147 008e 4978     		ldrb	r1, [r1, #1]
 3148 0090 0902     		lsl	r1, r1, #8
 3149 0092 0843     		orr	r0, r1
 3150 0094 0021     		mov	r1, #0
 3151 0096 0004     		lsl	r0, r0, #16
 3152 0098 000C     		lsr	r0, r0, #16
 3153 009a 090C     		lsr	r1, r1, #16
 3154 009c 0904     		lsl	r1, r1, #16
 3155 009e 0143     		orr	r1, r0
 3156 00a0 985A     		ldrh	r0, [r3, r2]
 3157 00a2 D318     		add	r3, r2, r3
 3158 00a4 5B88     		ldrh	r3, [r3, #2]
 3159 00a6 1B04     		lsl	r3, r3, #16
 3160 00a8 0343     		orr	r3, r0
 3161 00aa 0022     		mov	r2, #0
 3162 00ac 1A1C     		mov	r2, r3
 3163 00ae 081C     		mov	r0, r1
 3164 00b0 111C     		mov	r1, r2
 3165 00b2 FFF7FEFF 		bl	CyBle_GattcDiscoverAllCharacteristics
 3166 00b6 031E     		sub	r3, r0, #0
ARM GAS  C:\Users\Sarah\AppData\Local\Temp\ccqSJLdk.s 			page 105


 3167 00b8 15D0     		beq	.L195
2687:Generated_Source\PSoC4/BLE_1_eventHandler.c ****         {
2688:Generated_Source\PSoC4/BLE_1_eventHandler.c ****             CyBle_ApplCallback(CYBLE_EVT_GATTC_CHAR_DISCOVERY_FAILED, NULL);
 3168              		.loc 1 2688 0
 3169 00ba 104B     		ldr	r3, .L204+16
 3170 00bc 1B68     		ldr	r3, [r3]
 3171 00be 0A22     		mov	r2, #10
 3172 00c0 FF32     		add	r2, r2, #255
 3173 00c2 101C     		mov	r0, r2
 3174 00c4 0021     		mov	r1, #0
 3175 00c6 9847     		blx	r3
2689:Generated_Source\PSoC4/BLE_1_eventHandler.c ****             cyBle_eventHandlerFlag &= (uint8)~CYBLE_AUTO_DISCOVERY;
 3176              		.loc 1 2689 0
 3177 00c8 0D4B     		ldr	r3, .L204+20
 3178 00ca 1B78     		ldrb	r3, [r3]
 3179 00cc DBB2     		uxtb	r3, r3
 3180 00ce 0222     		mov	r2, #2
 3181 00d0 9343     		bic	r3, r2
 3182 00d2 DAB2     		uxtb	r2, r3
 3183 00d4 0A4B     		ldr	r3, .L204+20
 3184 00d6 1A70     		strb	r2, [r3]
 3185 00d8 05E0     		b	.L195
 3186              	.L201:
2690:Generated_Source\PSoC4/BLE_1_eventHandler.c ****         }
2691:Generated_Source\PSoC4/BLE_1_eventHandler.c ****     }
2692:Generated_Source\PSoC4/BLE_1_eventHandler.c ****     else /* Characteristic discovery procedure is done, start descriptor discovery procedure */
2693:Generated_Source\PSoC4/BLE_1_eventHandler.c ****     {
2694:Generated_Source\PSoC4/BLE_1_eventHandler.c ****     #if(CYBLE_STACK_MODE_DEBUG)
2695:Generated_Source\PSoC4/BLE_1_eventHandler.c ****         CyBle_ApplCallback(CYBLE_EVT_GATTC_CHAR_DISCOVERY_COMPLETE, NULL);
2696:Generated_Source\PSoC4/BLE_1_eventHandler.c ****     #endif /* CYBLE_STACK_MODE_DEBUG */
2697:Generated_Source\PSoC4/BLE_1_eventHandler.c ****         CyBle_SetClientState(CYBLE_CLIENT_STATE_DESCR_DISCOVERING);
 3187              		.loc 1 2697 0
 3188 00da 0A4B     		ldr	r3, .L204+24
 3189 00dc 0422     		mov	r2, #4
 3190 00de 1A70     		strb	r2, [r3]
2698:Generated_Source\PSoC4/BLE_1_eventHandler.c ****         CyBle_NextCharDscrDiscovery(CYBLE_DISCOVERY_INIT);
 3191              		.loc 1 2698 0
 3192 00e0 0020     		mov	r0, #0
 3193 00e2 FFF7FEFF 		bl	CyBle_NextCharDscrDiscovery
 3194              	.L195:
2699:Generated_Source\PSoC4/BLE_1_eventHandler.c ****     }
2700:Generated_Source\PSoC4/BLE_1_eventHandler.c **** 
2701:Generated_Source\PSoC4/BLE_1_eventHandler.c **** }
 3195              		.loc 1 2701 0
 3196 00e6 BD46     		mov	sp, r7
 3197 00e8 02B0     		add	sp, sp, #8
 3198              		@ sp needed
 3199 00ea 80BD     		pop	{r7, pc}
 3200              	.L205:
 3201              		.align	2
 3202              	.L204:
 3203 00ec 00000000 		.word	cyBle_disCount
 3204 00f0 00000000 		.word	cyBle_serverInfo
 3205 00f4 00000000 		.word	cyBle_gattcDiscoveryRange
 3206 00f8 00000000 		.word	cyBle_connHandle
 3207 00fc 00000000 		.word	CyBle_ApplCallback
 3208 0100 00000000 		.word	cyBle_eventHandlerFlag
ARM GAS  C:\Users\Sarah\AppData\Local\Temp\ccqSJLdk.s 			page 106


 3209 0104 00000000 		.word	cyBle_clientState
 3210              		.cfi_endproc
 3211              	.LFE20:
 3212              		.size	CyBle_NextCharDiscovery, .-CyBle_NextCharDiscovery
 3213              		.section	.text.CyBle_GetCharRange,"ax",%progbits
 3214              		.align	2
 3215              		.code	16
 3216              		.thumb_func
 3217              		.type	CyBle_GetCharRange, %function
 3218              	CyBle_GetCharRange:
 3219              	.LFB21:
2702:Generated_Source\PSoC4/BLE_1_eventHandler.c **** 
2703:Generated_Source\PSoC4/BLE_1_eventHandler.c **** 
2704:Generated_Source\PSoC4/BLE_1_eventHandler.c **** /****************************************************************************** 
2705:Generated_Source\PSoC4/BLE_1_eventHandler.c **** * Function Name: CyBle_GetCharRange
2706:Generated_Source\PSoC4/BLE_1_eventHandler.c **** ***************************************************************************//**
2707:Generated_Source\PSoC4/BLE_1_eventHandler.c **** * 
2708:Generated_Source\PSoC4/BLE_1_eventHandler.c **** *  Returns a possible range of the current characteristic descriptor
2709:Generated_Source\PSoC4/BLE_1_eventHandler.c **** *  (which is pointed by curr. descr. index cyBle_disCount).
2710:Generated_Source\PSoC4/BLE_1_eventHandler.c **** * 
2711:Generated_Source\PSoC4/BLE_1_eventHandler.c **** * \return
2712:Generated_Source\PSoC4/BLE_1_eventHandler.c **** *  CYBLE_GATT_ATTR_HANDLE_RANGE_T range:  the block of start and end handles.
2713:Generated_Source\PSoC4/BLE_1_eventHandler.c **** * 
2714:Generated_Source\PSoC4/BLE_1_eventHandler.c **** ******************************************************************************/
2715:Generated_Source\PSoC4/BLE_1_eventHandler.c **** static CYBLE_GATT_ATTR_HANDLE_RANGE_T CyBle_GetCharRange(void)
2716:Generated_Source\PSoC4/BLE_1_eventHandler.c **** {
 3220              		.loc 1 2716 0
 3221              		.cfi_startproc
 3222 0000 80B5     		push	{r7, lr}
 3223              		.cfi_def_cfa_offset 8
 3224              		.cfi_offset 7, -8
 3225              		.cfi_offset 14, -4
 3226 0002 82B0     		sub	sp, sp, #8
 3227              		.cfi_def_cfa_offset 16
 3228 0004 00AF     		add	r7, sp, #0
 3229              		.cfi_def_cfa_register 7
2717:Generated_Source\PSoC4/BLE_1_eventHandler.c ****     CYBLE_GATT_ATTR_HANDLE_RANGE_T charRange = {CYBLE_GATT_INVALID_ATTR_HANDLE_VALUE, CYBLE_GATT_IN
 3230              		.loc 1 2717 0
 3231 0006 3B1C     		mov	r3, r7
 3232 0008 0022     		mov	r2, #0
 3233 000a 1A80     		strh	r2, [r3]
 3234 000c 3B1C     		mov	r3, r7
 3235 000e 0022     		mov	r2, #0
 3236 0010 5A80     		strh	r2, [r3, #2]
2718:Generated_Source\PSoC4/BLE_1_eventHandler.c ****     if(cyBle_disCount == (uint8) CYBLE_SCDI_GATT_SERVICE_CHANGED)
 3237              		.loc 1 2718 0
 3238 0012 114B     		ldr	r3, .L209
 3239 0014 1B78     		ldrb	r3, [r3]
 3240 0016 002B     		cmp	r3, #0
 3241 0018 09D1     		bne	.L207
2719:Generated_Source\PSoC4/BLE_1_eventHandler.c ****     {
2720:Generated_Source\PSoC4/BLE_1_eventHandler.c ****         /* One descriptor is available in GATT service */
2721:Generated_Source\PSoC4/BLE_1_eventHandler.c ****         charRange.startHandle = cyBle_gattc.serviceChanged.valueHandle + 1u;
 3242              		.loc 1 2721 0
 3243 001a 104B     		ldr	r3, .L209+4
 3244 001c 5B88     		ldrh	r3, [r3, #2]
 3245 001e 0133     		add	r3, r3, #1
ARM GAS  C:\Users\Sarah\AppData\Local\Temp\ccqSJLdk.s 			page 107


 3246 0020 9AB2     		uxth	r2, r3
 3247 0022 3B1C     		mov	r3, r7
 3248 0024 1A80     		strh	r2, [r3]
2722:Generated_Source\PSoC4/BLE_1_eventHandler.c ****         charRange.endHandle = cyBle_serverInfo[CYBLE_SRVI_GATT].range.endHandle;
 3249              		.loc 1 2722 0
 3250 0026 0E4B     		ldr	r3, .L209+8
 3251 0028 1A89     		ldrh	r2, [r3, #8]
 3252 002a 3B1C     		mov	r3, r7
 3253 002c 5A80     		strh	r2, [r3, #2]
 3254              	.L207:
2723:Generated_Source\PSoC4/BLE_1_eventHandler.c ****     }
2724:Generated_Source\PSoC4/BLE_1_eventHandler.c **** #ifdef CYBLE_ANCS_CLIENT
2725:Generated_Source\PSoC4/BLE_1_eventHandler.c ****     if((cyBle_disCount == (uint8) CYBLE_SCDI_ANCS_NS) || (cyBle_disCount == (uint8) CYBLE_SCDI_ANCS
2726:Generated_Source\PSoC4/BLE_1_eventHandler.c ****     {
2727:Generated_Source\PSoC4/BLE_1_eventHandler.c ****         CYBLE_ANCS_CHAR_INDEX_T charIdx;
2728:Generated_Source\PSoC4/BLE_1_eventHandler.c ****         if(cyBle_disCount == (uint8) CYBLE_SCDI_ANCS_NS)
2729:Generated_Source\PSoC4/BLE_1_eventHandler.c ****         {
2730:Generated_Source\PSoC4/BLE_1_eventHandler.c ****             charIdx = CYBLE_ANCS_NS;
2731:Generated_Source\PSoC4/BLE_1_eventHandler.c ****         }
2732:Generated_Source\PSoC4/BLE_1_eventHandler.c ****         else
2733:Generated_Source\PSoC4/BLE_1_eventHandler.c ****         {
2734:Generated_Source\PSoC4/BLE_1_eventHandler.c ****             charIdx = CYBLE_ANCS_DS;
2735:Generated_Source\PSoC4/BLE_1_eventHandler.c ****         }
2736:Generated_Source\PSoC4/BLE_1_eventHandler.c ****         
2737:Generated_Source\PSoC4/BLE_1_eventHandler.c ****         if(cyBle_ancsc.charInfo[charIdx].valueHandle != CYBLE_GATT_INVALID_ATTR_HANDLE_VALUE)
2738:Generated_Source\PSoC4/BLE_1_eventHandler.c ****         {
2739:Generated_Source\PSoC4/BLE_1_eventHandler.c ****             /* One descriptor is available per characteristic */
2740:Generated_Source\PSoC4/BLE_1_eventHandler.c ****             charRange.startHandle = cyBle_ancsc.charInfo[charIdx].valueHandle + 1u;
2741:Generated_Source\PSoC4/BLE_1_eventHandler.c ****             charRange.endHandle = cyBle_ancsc.charInfo[charIdx].endHandle;
2742:Generated_Source\PSoC4/BLE_1_eventHandler.c ****         }
2743:Generated_Source\PSoC4/BLE_1_eventHandler.c ****     }
2744:Generated_Source\PSoC4/BLE_1_eventHandler.c **** #endif /* CYBLE_ANCS_CLIENT */
2745:Generated_Source\PSoC4/BLE_1_eventHandler.c **** #ifdef CYBLE_ANS_CLIENT
2746:Generated_Source\PSoC4/BLE_1_eventHandler.c ****     if((cyBle_disCount >= (uint8) CYBLE_SCDI_ANS_SUPPORTED_NEW_ALERT_CAT) &&
2747:Generated_Source\PSoC4/BLE_1_eventHandler.c ****         (cyBle_disCount <= (uint8) CYBLE_SCDI_ANS_ALERT_NTF_CONTROL_POINT))
2748:Generated_Source\PSoC4/BLE_1_eventHandler.c ****     {
2749:Generated_Source\PSoC4/BLE_1_eventHandler.c ****         charRange.startHandle = 
2750:Generated_Source\PSoC4/BLE_1_eventHandler.c ****             cyBle_ansc.characteristics[cyBle_disCount - CYBLE_SCDI_ANS_SUPPORTED_NEW_ALERT_CAT].cha
2751:Generated_Source\PSoC4/BLE_1_eventHandler.c ****         charRange.endHandle = 
2752:Generated_Source\PSoC4/BLE_1_eventHandler.c ****             cyBle_ansc.characteristics[cyBle_disCount - CYBLE_SCDI_ANS_SUPPORTED_NEW_ALERT_CAT].end
2753:Generated_Source\PSoC4/BLE_1_eventHandler.c ****     }
2754:Generated_Source\PSoC4/BLE_1_eventHandler.c **** #endif /* CYBLE_ANS_CLIENT */
2755:Generated_Source\PSoC4/BLE_1_eventHandler.c **** #ifdef CYBLE_BAS_CLIENT
2756:Generated_Source\PSoC4/BLE_1_eventHandler.c ****     if((cyBle_disCount >= (uint8) CYBLE_SCDI_BAS_LEVEL) && (cyBle_disCount <= (uint8) CYBLE_SCDI_BA
2757:Generated_Source\PSoC4/BLE_1_eventHandler.c ****     {
2758:Generated_Source\PSoC4/BLE_1_eventHandler.c ****         if(cyBle_basc[cyBle_disCount - CYBLE_SCDI_BAS_LEVEL].batteryLevel.valueHandle != CYBLE_GATT
2759:Generated_Source\PSoC4/BLE_1_eventHandler.c ****         {
2760:Generated_Source\PSoC4/BLE_1_eventHandler.c ****             /* One descriptor is available per characteristic */
2761:Generated_Source\PSoC4/BLE_1_eventHandler.c ****             charRange.startHandle = cyBle_basc[cyBle_disCount - CYBLE_SCDI_BAS_LEVEL].
2762:Generated_Source\PSoC4/BLE_1_eventHandler.c ****                                 batteryLevel.valueHandle + 1u;
2763:Generated_Source\PSoC4/BLE_1_eventHandler.c ****             charRange.endHandle = cyBle_serverInfo[CYBLE_SRVI_BAS + (cyBle_disCount - CYBLE_SCDI_BA
2764:Generated_Source\PSoC4/BLE_1_eventHandler.c ****                                 range.endHandle;
2765:Generated_Source\PSoC4/BLE_1_eventHandler.c ****         }
2766:Generated_Source\PSoC4/BLE_1_eventHandler.c ****     }
2767:Generated_Source\PSoC4/BLE_1_eventHandler.c **** #endif /* CYBLE_BAS_CLIENT */
2768:Generated_Source\PSoC4/BLE_1_eventHandler.c **** #ifdef CYBLE_BCS_CLIENT
2769:Generated_Source\PSoC4/BLE_1_eventHandler.c ****     if((cyBle_disCount == (uint8) CYBLE_SCDI_BCS_BODY_COMPOSITION_FEATURE) ||
ARM GAS  C:\Users\Sarah\AppData\Local\Temp\ccqSJLdk.s 			page 108


2770:Generated_Source\PSoC4/BLE_1_eventHandler.c ****         (cyBle_disCount == (uint8) CYBLE_SCDI_BCS_BODY_COMPOSITION_MEASUREMENT))
2771:Generated_Source\PSoC4/BLE_1_eventHandler.c ****     {
2772:Generated_Source\PSoC4/BLE_1_eventHandler.c ****         if(cyBle_bcsc.charInfo[cyBle_disCount - CYBLE_SCDI_BCS_BODY_COMPOSITION_FEATURE].valueHandl
2773:Generated_Source\PSoC4/BLE_1_eventHandler.c ****             CYBLE_GATT_INVALID_ATTR_HANDLE_VALUE)
2774:Generated_Source\PSoC4/BLE_1_eventHandler.c ****         {
2775:Generated_Source\PSoC4/BLE_1_eventHandler.c ****             /* One descriptor is available per characteristic */
2776:Generated_Source\PSoC4/BLE_1_eventHandler.c ****             charRange.startHandle =
2777:Generated_Source\PSoC4/BLE_1_eventHandler.c ****                 cyBle_bcsc.charInfo[cyBle_disCount - CYBLE_SCDI_BCS_BODY_COMPOSITION_FEATURE].value
2778:Generated_Source\PSoC4/BLE_1_eventHandler.c ****             charRange.endHandle =
2779:Generated_Source\PSoC4/BLE_1_eventHandler.c ****                 cyBle_bcsc.charInfo[cyBle_disCount - CYBLE_SCDI_BCS_BODY_COMPOSITION_FEATURE].endHa
2780:Generated_Source\PSoC4/BLE_1_eventHandler.c ****         }
2781:Generated_Source\PSoC4/BLE_1_eventHandler.c ****     }
2782:Generated_Source\PSoC4/BLE_1_eventHandler.c **** #endif /* CYBLE_BCS_CLIENT */
2783:Generated_Source\PSoC4/BLE_1_eventHandler.c **** #ifdef CYBLE_BLS_CLIENT
2784:Generated_Source\PSoC4/BLE_1_eventHandler.c ****     if((cyBle_disCount == (uint8) CYBLE_SCDI_BLS_BPM) || (cyBle_disCount == (uint8) CYBLE_SCDI_BLS_
2785:Generated_Source\PSoC4/BLE_1_eventHandler.c ****     {
2786:Generated_Source\PSoC4/BLE_1_eventHandler.c ****         if(cyBle_blsc.charInfo[cyBle_disCount - CYBLE_SCDI_BLS_BPM].valueHandle != CYBLE_GATT_INVAL
2787:Generated_Source\PSoC4/BLE_1_eventHandler.c ****         {
2788:Generated_Source\PSoC4/BLE_1_eventHandler.c ****             /* One descriptor is available per characteristic */
2789:Generated_Source\PSoC4/BLE_1_eventHandler.c ****             charRange.startHandle = cyBle_blsc.charInfo[cyBle_disCount - CYBLE_SCDI_BLS_BPM].valueH
2790:Generated_Source\PSoC4/BLE_1_eventHandler.c ****             charRange.endHandle = cyBle_blsc.charInfo[cyBle_disCount - CYBLE_SCDI_BLS_BPM].endHandl
2791:Generated_Source\PSoC4/BLE_1_eventHandler.c ****         }
2792:Generated_Source\PSoC4/BLE_1_eventHandler.c ****     }
2793:Generated_Source\PSoC4/BLE_1_eventHandler.c **** #endif /* CYBLE_BLS_CLIENT */
2794:Generated_Source\PSoC4/BLE_1_eventHandler.c **** #ifdef CYBLE_BMS_CLIENT
2795:Generated_Source\PSoC4/BLE_1_eventHandler.c ****     if(cyBle_disCount == (uint8) CYBLE_SCDI_BMS_BMCP)
2796:Generated_Source\PSoC4/BLE_1_eventHandler.c ****     {
2797:Generated_Source\PSoC4/BLE_1_eventHandler.c ****         if(cyBle_bmsc.charInfo[CYBLE_BMS_BMCP].valueHandle != CYBLE_GATT_INVALID_ATTR_HANDLE_VALUE)
2798:Generated_Source\PSoC4/BLE_1_eventHandler.c ****         {
2799:Generated_Source\PSoC4/BLE_1_eventHandler.c ****             /* One descriptor is available per characteristic */
2800:Generated_Source\PSoC4/BLE_1_eventHandler.c ****             charRange.startHandle = cyBle_bmsc.charInfo[CYBLE_BMS_BMCP].valueHandle + 1u;
2801:Generated_Source\PSoC4/BLE_1_eventHandler.c ****             charRange.endHandle = cyBle_bmsc.charInfo[CYBLE_BMS_BMCP].endHandle;
2802:Generated_Source\PSoC4/BLE_1_eventHandler.c ****         }
2803:Generated_Source\PSoC4/BLE_1_eventHandler.c ****     }
2804:Generated_Source\PSoC4/BLE_1_eventHandler.c **** #endif /* CYBLE_BMS_CLIENT */
2805:Generated_Source\PSoC4/BLE_1_eventHandler.c **** #ifdef CYBLE_CGMS_CLIENT
2806:Generated_Source\PSoC4/BLE_1_eventHandler.c ****     if((cyBle_disCount >= (uint8) CYBLE_SCDI_CGMS_CGMT) && (cyBle_disCount <= (uint8) CYBLE_SCDI_CG
2807:Generated_Source\PSoC4/BLE_1_eventHandler.c ****     {
2808:Generated_Source\PSoC4/BLE_1_eventHandler.c ****         uint8 charIdx = cyBle_disCount - CYBLE_SCDI_CGMS_CGMT;
2809:Generated_Source\PSoC4/BLE_1_eventHandler.c ****         if(((uint8)CYBLE_CGMS_CGMT) < charIdx)
2810:Generated_Source\PSoC4/BLE_1_eventHandler.c ****         {
2811:Generated_Source\PSoC4/BLE_1_eventHandler.c ****             /* charIdx for RACP is 5 and for SOCP is 6 */
2812:Generated_Source\PSoC4/BLE_1_eventHandler.c ****             charIdx += CYBLE_CGMS_RACP - 1u;
2813:Generated_Source\PSoC4/BLE_1_eventHandler.c ****         }
2814:Generated_Source\PSoC4/BLE_1_eventHandler.c ****         
2815:Generated_Source\PSoC4/BLE_1_eventHandler.c ****         if(cyBle_cgmsc.charInfo[charIdx].valueHandle != CYBLE_GATT_INVALID_ATTR_HANDLE_VALUE)
2816:Generated_Source\PSoC4/BLE_1_eventHandler.c ****         {
2817:Generated_Source\PSoC4/BLE_1_eventHandler.c ****             /* One descriptor is available per characteristic */
2818:Generated_Source\PSoC4/BLE_1_eventHandler.c ****             charRange.startHandle = cyBle_cgmsc.charInfo[charIdx].valueHandle + 1u;
2819:Generated_Source\PSoC4/BLE_1_eventHandler.c ****             charRange.endHandle = cyBle_cgmsc.charInfo[charIdx].endHandle;
2820:Generated_Source\PSoC4/BLE_1_eventHandler.c ****         }
2821:Generated_Source\PSoC4/BLE_1_eventHandler.c ****     }
2822:Generated_Source\PSoC4/BLE_1_eventHandler.c **** #endif /* CYBLE_CGMS_CLIENT */
2823:Generated_Source\PSoC4/BLE_1_eventHandler.c **** #ifdef CYBLE_CPS_CLIENT
2824:Generated_Source\PSoC4/BLE_1_eventHandler.c ****     if((cyBle_disCount >= (uint8) CYBLE_SCDI_CPS_POWER_MEASURE) && (cyBle_disCount <= (uint8) CYBLE
2825:Generated_Source\PSoC4/BLE_1_eventHandler.c ****     {
2826:Generated_Source\PSoC4/BLE_1_eventHandler.c ****         charRange.startHandle = cyBle_cpsc.charInfo[cyBle_disCount - CYBLE_SCDI_CPS_POWER_MEASURE].
ARM GAS  C:\Users\Sarah\AppData\Local\Temp\ccqSJLdk.s 			page 109


2827:Generated_Source\PSoC4/BLE_1_eventHandler.c ****         charRange.endHandle = cyBle_cpsc.charInfo[cyBle_disCount - CYBLE_SCDI_CPS_POWER_MEASURE].en
2828:Generated_Source\PSoC4/BLE_1_eventHandler.c ****     }
2829:Generated_Source\PSoC4/BLE_1_eventHandler.c **** #endif /* CYBLE_CPS_CLIENT */
2830:Generated_Source\PSoC4/BLE_1_eventHandler.c **** #ifdef CYBLE_CSCS_CLIENT
2831:Generated_Source\PSoC4/BLE_1_eventHandler.c ****     if((cyBle_disCount >= (uint8) CYBLE_SCDI_CSCS_CSC_MEASUREMENT) && 
2832:Generated_Source\PSoC4/BLE_1_eventHandler.c ****        (cyBle_disCount <= (uint8) CYBLE_SCDI_CSCS_SC_CONTROL_POINT))
2833:Generated_Source\PSoC4/BLE_1_eventHandler.c ****     {
2834:Generated_Source\PSoC4/BLE_1_eventHandler.c ****         charRange.startHandle = 
2835:Generated_Source\PSoC4/BLE_1_eventHandler.c ****             cyBle_cscsc.characteristics[cyBle_disCount - CYBLE_SCDI_CSCS_CSC_MEASUREMENT].charInfo.
2836:Generated_Source\PSoC4/BLE_1_eventHandler.c ****         charRange.endHandle = cyBle_cscsc.characteristics[cyBle_disCount - CYBLE_SCDI_CSCS_CSC_MEAS
2837:Generated_Source\PSoC4/BLE_1_eventHandler.c ****     }
2838:Generated_Source\PSoC4/BLE_1_eventHandler.c **** #endif /* CYBLE_CSCS_CLIENT */
2839:Generated_Source\PSoC4/BLE_1_eventHandler.c **** #ifdef CYBLE_CTS_CLIENT
2840:Generated_Source\PSoC4/BLE_1_eventHandler.c ****     if(cyBle_disCount == (uint8) CYBLE_SCDI_CTS_CURRENT_TIME)
2841:Generated_Source\PSoC4/BLE_1_eventHandler.c ****     {
2842:Generated_Source\PSoC4/BLE_1_eventHandler.c ****         if(cyBle_ctsc.currTimeCharacteristics[CYBLE_CTS_CURRENT_TIME].valueHandle != CYBLE_GATT_INV
2843:Generated_Source\PSoC4/BLE_1_eventHandler.c ****         {
2844:Generated_Source\PSoC4/BLE_1_eventHandler.c ****             /* One descriptor is available per service */
2845:Generated_Source\PSoC4/BLE_1_eventHandler.c ****             charRange.startHandle = cyBle_ctsc.currTimeCharacteristics[CYBLE_CTS_CURRENT_TIME].valu
2846:Generated_Source\PSoC4/BLE_1_eventHandler.c ****             charRange.endHandle = cyBle_serverInfo[CYBLE_SRVI_CTS].range.endHandle;
2847:Generated_Source\PSoC4/BLE_1_eventHandler.c ****         }
2848:Generated_Source\PSoC4/BLE_1_eventHandler.c ****     }
2849:Generated_Source\PSoC4/BLE_1_eventHandler.c **** #endif /* CYBLE_CTS_CLIENT */
2850:Generated_Source\PSoC4/BLE_1_eventHandler.c **** #ifdef CYBLE_ESS_CLIENT
2851:Generated_Source\PSoC4/BLE_1_eventHandler.c ****     if((cyBle_disCount >= (uint8) CYBLE_SCDI_ESS_DESCRIPTOR_VALUE_CHANGED) && 
2852:Generated_Source\PSoC4/BLE_1_eventHandler.c ****        (cyBle_disCount <= (uint8) CYBLE_SCDI_ESS_END_CHAR))
2853:Generated_Source\PSoC4/BLE_1_eventHandler.c ****     {
2854:Generated_Source\PSoC4/BLE_1_eventHandler.c ****         if(cyBle_esscPrevCharInstIndex != (cyBle_disCount - CYBLE_SCDI_ESS_DESCRIPTOR_VALUE_CHANGED
2855:Generated_Source\PSoC4/BLE_1_eventHandler.c ****         {
2856:Generated_Source\PSoC4/BLE_1_eventHandler.c ****             /* Check if this the last characteristic instance */
2857:Generated_Source\PSoC4/BLE_1_eventHandler.c ****             if((cyBle_esscActiveCharInstance + 1u) < cyBle_esscCharInstances[cyBle_esscActiveCharIn
2858:Generated_Source\PSoC4/BLE_1_eventHandler.c ****             {
2859:Generated_Source\PSoC4/BLE_1_eventHandler.c ****                 /* The instance is not last so increment it */
2860:Generated_Source\PSoC4/BLE_1_eventHandler.c ****                 cyBle_esscActiveCharInstance += 1u; 
2861:Generated_Source\PSoC4/BLE_1_eventHandler.c ****             }
2862:Generated_Source\PSoC4/BLE_1_eventHandler.c ****             else
2863:Generated_Source\PSoC4/BLE_1_eventHandler.c ****             {
2864:Generated_Source\PSoC4/BLE_1_eventHandler.c ****                 /* The instance is last so go to new characteristic */
2865:Generated_Source\PSoC4/BLE_1_eventHandler.c ****                 cyBle_esscActiveCharInstance = 0u;
2866:Generated_Source\PSoC4/BLE_1_eventHandler.c ****                 cyBle_esscActiveCharIndex += 1u;
2867:Generated_Source\PSoC4/BLE_1_eventHandler.c ****             }
2868:Generated_Source\PSoC4/BLE_1_eventHandler.c ****             cyBle_esscPrevCharInstIndex = (cyBle_disCount - CYBLE_SCDI_ESS_DESCRIPTOR_VALUE_CHANGED
2869:Generated_Source\PSoC4/BLE_1_eventHandler.c ****         }
2870:Generated_Source\PSoC4/BLE_1_eventHandler.c **** 
2871:Generated_Source\PSoC4/BLE_1_eventHandler.c ****         if(NULL != cyBle_essc.charInfoAddr[cyBle_esscActiveCharIndex].charInfoPtr)
2872:Generated_Source\PSoC4/BLE_1_eventHandler.c ****         {
2873:Generated_Source\PSoC4/BLE_1_eventHandler.c ****             if(cyBle_esscActiveCharInstance < cyBle_esscCharInstances[cyBle_esscActiveCharIndex])
2874:Generated_Source\PSoC4/BLE_1_eventHandler.c ****             {
2875:Generated_Source\PSoC4/BLE_1_eventHandler.c ****                 charRange.startHandle =
2876:Generated_Source\PSoC4/BLE_1_eventHandler.c ****                     cyBle_essc.charInfoAddr[cyBle_esscActiveCharIndex].charInfoPtr[cyBle_esscActive
2877:Generated_Source\PSoC4/BLE_1_eventHandler.c ****             
2878:Generated_Source\PSoC4/BLE_1_eventHandler.c ****                 charRange.endHandle =
2879:Generated_Source\PSoC4/BLE_1_eventHandler.c ****                     cyBle_essc.charInfoAddr[cyBle_esscActiveCharIndex].charInfoPtr[cyBle_esscActive
2880:Generated_Source\PSoC4/BLE_1_eventHandler.c ****             }
2881:Generated_Source\PSoC4/BLE_1_eventHandler.c ****             else
2882:Generated_Source\PSoC4/BLE_1_eventHandler.c ****             {
2883:Generated_Source\PSoC4/BLE_1_eventHandler.c ****                 charRange.startHandle = CYBLE_GATT_INVALID_ATTR_HANDLE_VALUE;
ARM GAS  C:\Users\Sarah\AppData\Local\Temp\ccqSJLdk.s 			page 110


2884:Generated_Source\PSoC4/BLE_1_eventHandler.c ****                 charRange.endHandle = CYBLE_GATT_INVALID_ATTR_HANDLE_VALUE;
2885:Generated_Source\PSoC4/BLE_1_eventHandler.c ****             }
2886:Generated_Source\PSoC4/BLE_1_eventHandler.c ****         }
2887:Generated_Source\PSoC4/BLE_1_eventHandler.c ****     }
2888:Generated_Source\PSoC4/BLE_1_eventHandler.c **** #endif /* CYBLE_ESS_CLIENT */
2889:Generated_Source\PSoC4/BLE_1_eventHandler.c **** #ifdef CYBLE_GLS_CLIENT
2890:Generated_Source\PSoC4/BLE_1_eventHandler.c ****     if((cyBle_disCount >= (uint8) CYBLE_SCDI_GLS_GLMT) && (cyBle_disCount <= (uint8) CYBLE_SCDI_GLS
2891:Generated_Source\PSoC4/BLE_1_eventHandler.c ****     {
2892:Generated_Source\PSoC4/BLE_1_eventHandler.c ****         uint8 charIdx = cyBle_disCount - CYBLE_SCDI_GLS_GLMT;
2893:Generated_Source\PSoC4/BLE_1_eventHandler.c ****         if(charIdx == (CYBLE_SCDI_GLS_RACP - CYBLE_SCDI_GLS_GLMT))
2894:Generated_Source\PSoC4/BLE_1_eventHandler.c ****         {
2895:Generated_Source\PSoC4/BLE_1_eventHandler.c ****             charIdx = CYBLE_GLS_RACP;
2896:Generated_Source\PSoC4/BLE_1_eventHandler.c ****         }
2897:Generated_Source\PSoC4/BLE_1_eventHandler.c ****         
2898:Generated_Source\PSoC4/BLE_1_eventHandler.c ****         if(cyBle_glsc.charInfo[charIdx].valueHandle != CYBLE_GATT_INVALID_ATTR_HANDLE_VALUE)
2899:Generated_Source\PSoC4/BLE_1_eventHandler.c ****         {
2900:Generated_Source\PSoC4/BLE_1_eventHandler.c ****             /* One descriptor is available per characteristic */
2901:Generated_Source\PSoC4/BLE_1_eventHandler.c ****             charRange.startHandle = cyBle_glsc.charInfo[charIdx].valueHandle + 1u;
2902:Generated_Source\PSoC4/BLE_1_eventHandler.c ****             charRange.endHandle = cyBle_glsc.charInfo[charIdx].endHandle;
2903:Generated_Source\PSoC4/BLE_1_eventHandler.c ****         }
2904:Generated_Source\PSoC4/BLE_1_eventHandler.c ****     }
2905:Generated_Source\PSoC4/BLE_1_eventHandler.c **** #endif /* CYBLE_GLS_CLIENT */
2906:Generated_Source\PSoC4/BLE_1_eventHandler.c **** #ifdef CYBLE_IPS_CLIENT
2907:Generated_Source\PSoC4/BLE_1_eventHandler.c ****     if((cyBle_disCount >= (uint8) CYBLE_SCDI_IPS_LATITUDE) && (cyBle_disCount <= (uint8) CYBLE_SCDI
2908:Generated_Source\PSoC4/BLE_1_eventHandler.c ****     {
2909:Generated_Source\PSoC4/BLE_1_eventHandler.c ****         charRange.startHandle = cyBle_ipsc.charInfo[(cyBle_disCount - CYBLE_SCDI_IPS_LATITUDE) + 1u
2910:Generated_Source\PSoC4/BLE_1_eventHandler.c ****         charRange.endHandle = cyBle_ipsc.charInfo[(cyBle_disCount - CYBLE_SCDI_IPS_LATITUDE) + 1u].
2911:Generated_Source\PSoC4/BLE_1_eventHandler.c ****     }
2912:Generated_Source\PSoC4/BLE_1_eventHandler.c **** #endif /* CYBLE_CPS_CLIENT */
2913:Generated_Source\PSoC4/BLE_1_eventHandler.c **** 
2914:Generated_Source\PSoC4/BLE_1_eventHandler.c **** #ifdef CYBLE_HIDS_CLIENT
2915:Generated_Source\PSoC4/BLE_1_eventHandler.c ****     if((cyBle_disCount >= (uint8) CYBLE_SCDI_HIDS_REPORT_MAP) && (cyBle_disCount <= (uint8) CYBLE_S
2916:Generated_Source\PSoC4/BLE_1_eventHandler.c ****     {
2917:Generated_Source\PSoC4/BLE_1_eventHandler.c ****         if(cyBle_disCount == (uint8) CYBLE_SCDI_HIDS_REPORT_MAP)
2918:Generated_Source\PSoC4/BLE_1_eventHandler.c ****         {
2919:Generated_Source\PSoC4/BLE_1_eventHandler.c ****             if(cyBle_hidsc[disServiceIndex].reportMap.valueHandle != CYBLE_GATT_INVALID_ATTR_HANDLE
2920:Generated_Source\PSoC4/BLE_1_eventHandler.c ****             {
2921:Generated_Source\PSoC4/BLE_1_eventHandler.c ****                 charRange.startHandle = cyBle_hidsc[disServiceIndex].reportMap.valueHandle + 1u;
2922:Generated_Source\PSoC4/BLE_1_eventHandler.c ****                 charRange.endHandle = cyBle_hidsc[disServiceIndex].reportMap.endHandle;
2923:Generated_Source\PSoC4/BLE_1_eventHandler.c ****             }
2924:Generated_Source\PSoC4/BLE_1_eventHandler.c ****         }
2925:Generated_Source\PSoC4/BLE_1_eventHandler.c ****         else if(cyBle_disCount < (uint8) CYBLE_SCDI_HIDS_REPORT)
2926:Generated_Source\PSoC4/BLE_1_eventHandler.c ****         {
2927:Generated_Source\PSoC4/BLE_1_eventHandler.c ****             if(cyBle_hidsc[disServiceIndex].bootReport[cyBle_disCount -
2928:Generated_Source\PSoC4/BLE_1_eventHandler.c ****                 CYBLE_SCDI_HIDS_BOOT_KYBRD_IN_REP].valueHandle != CYBLE_GATT_INVALID_ATTR_HANDLE_VA
2929:Generated_Source\PSoC4/BLE_1_eventHandler.c ****             {
2930:Generated_Source\PSoC4/BLE_1_eventHandler.c ****                 charRange.startHandle = cyBle_hidsc[disServiceIndex].
2931:Generated_Source\PSoC4/BLE_1_eventHandler.c ****                             bootReport[cyBle_disCount - CYBLE_SCDI_HIDS_BOOT_KYBRD_IN_REP].valueHan
2932:Generated_Source\PSoC4/BLE_1_eventHandler.c ****                 charRange.endHandle = cyBle_hidsc[disServiceIndex].
2933:Generated_Source\PSoC4/BLE_1_eventHandler.c ****                             bootReport[cyBle_disCount - CYBLE_SCDI_HIDS_BOOT_KYBRD_IN_REP].endHandl
2934:Generated_Source\PSoC4/BLE_1_eventHandler.c ****             }
2935:Generated_Source\PSoC4/BLE_1_eventHandler.c ****         }
2936:Generated_Source\PSoC4/BLE_1_eventHandler.c ****         else
2937:Generated_Source\PSoC4/BLE_1_eventHandler.c ****         {
2938:Generated_Source\PSoC4/BLE_1_eventHandler.c ****             if(cyBle_hidsc[disServiceIndex].report[cyBle_disCount - CYBLE_SCDI_HIDS_REPORT].valueHa
2939:Generated_Source\PSoC4/BLE_1_eventHandler.c ****                 CYBLE_GATT_INVALID_ATTR_HANDLE_VALUE)
2940:Generated_Source\PSoC4/BLE_1_eventHandler.c ****             {
ARM GAS  C:\Users\Sarah\AppData\Local\Temp\ccqSJLdk.s 			page 111


2941:Generated_Source\PSoC4/BLE_1_eventHandler.c ****                 charRange.startHandle = cyBle_hidsc[disServiceIndex].
2942:Generated_Source\PSoC4/BLE_1_eventHandler.c ****                             report[cyBle_disCount - CYBLE_SCDI_HIDS_REPORT].valueHandle + 1u;
2943:Generated_Source\PSoC4/BLE_1_eventHandler.c ****                 charRange.endHandle = cyBle_hidsc[disServiceIndex].
2944:Generated_Source\PSoC4/BLE_1_eventHandler.c ****                             report[cyBle_disCount - CYBLE_SCDI_HIDS_REPORT].endHandle;
2945:Generated_Source\PSoC4/BLE_1_eventHandler.c ****             }
2946:Generated_Source\PSoC4/BLE_1_eventHandler.c ****         }
2947:Generated_Source\PSoC4/BLE_1_eventHandler.c ****     }
2948:Generated_Source\PSoC4/BLE_1_eventHandler.c **** #endif /* CYBLE_HIDS_CLIENT */
2949:Generated_Source\PSoC4/BLE_1_eventHandler.c **** #ifdef CYBLE_HPS_CLIENT
2950:Generated_Source\PSoC4/BLE_1_eventHandler.c ****     if(cyBle_disCount == (uint8) CYBLE_SCDI_HPS_STATUS_CODE)
2951:Generated_Source\PSoC4/BLE_1_eventHandler.c ****     {
2952:Generated_Source\PSoC4/BLE_1_eventHandler.c ****         charRange.startHandle = cyBle_hpsc.charInfo[CYBLE_HPS_HTTP_STATUS_CODE].valueHandle + 1u;
2953:Generated_Source\PSoC4/BLE_1_eventHandler.c ****         charRange.endHandle = cyBle_serverInfo[CYBLE_SRVI_HPS].range.endHandle;
2954:Generated_Source\PSoC4/BLE_1_eventHandler.c ****     }
2955:Generated_Source\PSoC4/BLE_1_eventHandler.c **** #endif /* CYBLE_HPS_CLIENT */
2956:Generated_Source\PSoC4/BLE_1_eventHandler.c **** #ifdef CYBLE_HRS_CLIENT
2957:Generated_Source\PSoC4/BLE_1_eventHandler.c ****     if(cyBle_disCount == (uint8) CYBLE_SCDI_HRS_HRM)
2958:Generated_Source\PSoC4/BLE_1_eventHandler.c ****     {
2959:Generated_Source\PSoC4/BLE_1_eventHandler.c ****         charRange.startHandle = cyBle_hrsc.charInfo[CYBLE_HRS_HRM].valueHandle + 1u;
2960:Generated_Source\PSoC4/BLE_1_eventHandler.c ****         charRange.endHandle = cyBle_serverInfo[CYBLE_SRVI_HRS].range.endHandle;
2961:Generated_Source\PSoC4/BLE_1_eventHandler.c ****     }
2962:Generated_Source\PSoC4/BLE_1_eventHandler.c **** #endif /* CYBLE_HRS_CLIENT */
2963:Generated_Source\PSoC4/BLE_1_eventHandler.c **** #ifdef CYBLE_HTS_CLIENT
2964:Generated_Source\PSoC4/BLE_1_eventHandler.c ****     if((cyBle_disCount >= (uint8) CYBLE_SCDI_HTS_TEMP_MEASURE) && (cyBle_disCount <= (uint8) CYBLE_
2965:Generated_Source\PSoC4/BLE_1_eventHandler.c ****     {
2966:Generated_Source\PSoC4/BLE_1_eventHandler.c ****         charRange.startHandle = cyBle_htsc.charInfo[cyBle_disCount - CYBLE_SCDI_HTS_TEMP_MEASURE].v
2967:Generated_Source\PSoC4/BLE_1_eventHandler.c ****         charRange.endHandle = cyBle_htsc.charInfo[cyBle_disCount - CYBLE_SCDI_HTS_TEMP_MEASURE].end
2968:Generated_Source\PSoC4/BLE_1_eventHandler.c ****     }
2969:Generated_Source\PSoC4/BLE_1_eventHandler.c **** #endif /* CYBLE_HTS_CLIENT */
2970:Generated_Source\PSoC4/BLE_1_eventHandler.c **** #ifdef CYBLE_LNS_CLIENT
2971:Generated_Source\PSoC4/BLE_1_eventHandler.c ****     if((cyBle_disCount >= (uint8) CYBLE_SCDI_LNS_LS) && (cyBle_disCount <= (uint8) CYBLE_SCDI_LNS_N
2972:Generated_Source\PSoC4/BLE_1_eventHandler.c ****     {
2973:Generated_Source\PSoC4/BLE_1_eventHandler.c ****         uint8 charIdx = (cyBle_disCount - CYBLE_SCDI_LNS_LS) + 1u;
2974:Generated_Source\PSoC4/BLE_1_eventHandler.c ****         if(charIdx > (uint8) CYBLE_SCDI_LNS_LS)
2975:Generated_Source\PSoC4/BLE_1_eventHandler.c ****         {
2976:Generated_Source\PSoC4/BLE_1_eventHandler.c ****             charIdx++;
2977:Generated_Source\PSoC4/BLE_1_eventHandler.c ****         }
2978:Generated_Source\PSoC4/BLE_1_eventHandler.c ****         charRange.startHandle = cyBle_lnsc.charInfo[charIdx].valueHandle + 1u;
2979:Generated_Source\PSoC4/BLE_1_eventHandler.c ****         charRange.endHandle = cyBle_lnsc.charInfo[charIdx].endHandle;
2980:Generated_Source\PSoC4/BLE_1_eventHandler.c ****     }
2981:Generated_Source\PSoC4/BLE_1_eventHandler.c **** #endif /* CYBLE_LNS_CLIENT */
2982:Generated_Source\PSoC4/BLE_1_eventHandler.c **** #ifdef CYBLE_PASS_CLIENT
2983:Generated_Source\PSoC4/BLE_1_eventHandler.c ****     if((cyBle_disCount == (uint8) CYBLE_SCDI_PASS_AS) || (cyBle_disCount == (uint8) CYBLE_SCDI_PASS
2984:Generated_Source\PSoC4/BLE_1_eventHandler.c ****     {
2985:Generated_Source\PSoC4/BLE_1_eventHandler.c ****         charRange.startHandle = cyBle_passc.charInfo[cyBle_disCount - CYBLE_SCDI_PASS_AS].valueHand
2986:Generated_Source\PSoC4/BLE_1_eventHandler.c ****         charRange.endHandle = cyBle_passc.charInfo[cyBle_disCount - CYBLE_SCDI_PASS_AS].endHandle;
2987:Generated_Source\PSoC4/BLE_1_eventHandler.c ****     }
2988:Generated_Source\PSoC4/BLE_1_eventHandler.c **** #endif /* CYBLE_PASS_CLIENT */
2989:Generated_Source\PSoC4/BLE_1_eventHandler.c **** #ifdef CYBLE_RSCS_CLIENT
2990:Generated_Source\PSoC4/BLE_1_eventHandler.c ****     if((cyBle_disCount >= (uint8) CYBLE_SCDI_RSCS_RSC_MEASUREMENT) && 
2991:Generated_Source\PSoC4/BLE_1_eventHandler.c ****        (cyBle_disCount <= (uint8) CYBLE_SCDI_RSCS_SC_CONTROL_POINT))
2992:Generated_Source\PSoC4/BLE_1_eventHandler.c ****     {
2993:Generated_Source\PSoC4/BLE_1_eventHandler.c ****         charRange.startHandle = 
2994:Generated_Source\PSoC4/BLE_1_eventHandler.c ****             cyBle_rscsc.characteristics[cyBle_disCount - CYBLE_SCDI_RSCS_RSC_MEASUREMENT].charInfo.
2995:Generated_Source\PSoC4/BLE_1_eventHandler.c ****         charRange.endHandle = cyBle_rscsc.characteristics[cyBle_disCount - CYBLE_SCDI_RSCS_RSC_MEAS
2996:Generated_Source\PSoC4/BLE_1_eventHandler.c ****     }
2997:Generated_Source\PSoC4/BLE_1_eventHandler.c **** #endif /* CYBLE_RSCS_CLIENT */
ARM GAS  C:\Users\Sarah\AppData\Local\Temp\ccqSJLdk.s 			page 112


2998:Generated_Source\PSoC4/BLE_1_eventHandler.c **** #ifdef CYBLE_SCPS_CLIENT
2999:Generated_Source\PSoC4/BLE_1_eventHandler.c ****     if(cyBle_disCount == (uint8) CYBLE_SCDI_SCPS_SCAN_REFRESH)
3000:Generated_Source\PSoC4/BLE_1_eventHandler.c ****     {
3001:Generated_Source\PSoC4/BLE_1_eventHandler.c ****         if(cyBle_scpsc.refreshChar.valueHandle != CYBLE_GATT_INVALID_ATTR_HANDLE_VALUE)
3002:Generated_Source\PSoC4/BLE_1_eventHandler.c ****         {
3003:Generated_Source\PSoC4/BLE_1_eventHandler.c ****             /* One descriptor is available per characteristic */
3004:Generated_Source\PSoC4/BLE_1_eventHandler.c ****             charRange.startHandle = cyBle_scpsc.refreshChar.valueHandle + 1u;
3005:Generated_Source\PSoC4/BLE_1_eventHandler.c ****             charRange.endHandle = cyBle_serverInfo[CYBLE_SRVI_SCPS].range.endHandle;
3006:Generated_Source\PSoC4/BLE_1_eventHandler.c ****         }
3007:Generated_Source\PSoC4/BLE_1_eventHandler.c ****     }
3008:Generated_Source\PSoC4/BLE_1_eventHandler.c **** #endif /* CYBLE_SCPS_CLIENT */
3009:Generated_Source\PSoC4/BLE_1_eventHandler.c **** #ifdef CYBLE_TPS_CLIENT
3010:Generated_Source\PSoC4/BLE_1_eventHandler.c ****     if(cyBle_disCount == (uint8) CYBLE_SCDI_TPS_TX_PWR_LEVEL)
3011:Generated_Source\PSoC4/BLE_1_eventHandler.c ****     {
3012:Generated_Source\PSoC4/BLE_1_eventHandler.c ****         if(cyBle_tpsc.txPowerLevelChar.valueHandle != CYBLE_GATT_INVALID_ATTR_HANDLE_VALUE)
3013:Generated_Source\PSoC4/BLE_1_eventHandler.c ****         {
3014:Generated_Source\PSoC4/BLE_1_eventHandler.c ****             /* One descriptor is available per service */
3015:Generated_Source\PSoC4/BLE_1_eventHandler.c ****             charRange.startHandle = cyBle_tpsc.txPowerLevelChar.valueHandle + 1u;
3016:Generated_Source\PSoC4/BLE_1_eventHandler.c ****             charRange.endHandle = cyBle_serverInfo[CYBLE_SRVI_TPS].range.endHandle;
3017:Generated_Source\PSoC4/BLE_1_eventHandler.c ****         }
3018:Generated_Source\PSoC4/BLE_1_eventHandler.c ****     }
3019:Generated_Source\PSoC4/BLE_1_eventHandler.c **** #endif /* CYBLE_TPS_CLIENT */
3020:Generated_Source\PSoC4/BLE_1_eventHandler.c **** #ifdef CYBLE_UDS_CLIENT
3021:Generated_Source\PSoC4/BLE_1_eventHandler.c ****     if((cyBle_disCount == (uint8) CYBLE_SCDI_UDS_DCI) || (cyBle_disCount == (uint8) CYBLE_SCDI_UDS_
3022:Generated_Source\PSoC4/BLE_1_eventHandler.c ****     {
3023:Generated_Source\PSoC4/BLE_1_eventHandler.c ****         uint8 charIdx;
3024:Generated_Source\PSoC4/BLE_1_eventHandler.c ****         if(cyBle_disCount == (uint8)CYBLE_SCDI_UDS_DCI)
3025:Generated_Source\PSoC4/BLE_1_eventHandler.c ****         {
3026:Generated_Source\PSoC4/BLE_1_eventHandler.c ****             charIdx = (uint8)CYBLE_UDS_DCI;
3027:Generated_Source\PSoC4/BLE_1_eventHandler.c ****         }
3028:Generated_Source\PSoC4/BLE_1_eventHandler.c ****         else
3029:Generated_Source\PSoC4/BLE_1_eventHandler.c ****         {
3030:Generated_Source\PSoC4/BLE_1_eventHandler.c ****             charIdx = (uint8)CYBLE_UDS_UCP;
3031:Generated_Source\PSoC4/BLE_1_eventHandler.c ****         }
3032:Generated_Source\PSoC4/BLE_1_eventHandler.c ****         
3033:Generated_Source\PSoC4/BLE_1_eventHandler.c ****         charRange.startHandle = cyBle_udsc.charInfo[charIdx].valueHandle + 1u;
3034:Generated_Source\PSoC4/BLE_1_eventHandler.c ****         charRange.endHandle = cyBle_udsc.charInfo[charIdx].endHandle;
3035:Generated_Source\PSoC4/BLE_1_eventHandler.c ****     }
3036:Generated_Source\PSoC4/BLE_1_eventHandler.c **** #endif /* CYBLE_UDS_CLIENT */
3037:Generated_Source\PSoC4/BLE_1_eventHandler.c **** #ifdef CYBLE_WPTS_CLIENT
3038:Generated_Source\PSoC4/BLE_1_eventHandler.c ****     if((cyBle_disCount == (uint8) CYBLE_SCDI_WPTS_PRU_ALERT))
3039:Generated_Source\PSoC4/BLE_1_eventHandler.c ****     {
3040:Generated_Source\PSoC4/BLE_1_eventHandler.c ****         charRange.startHandle = cyBle_wptsc.charInfo[CYBLE_WPTS_PRU_ALERT].valueHandle + 1u;
3041:Generated_Source\PSoC4/BLE_1_eventHandler.c ****         charRange.endHandle = cyBle_wptsc.charInfo[CYBLE_WPTS_PRU_ALERT].endHandle;
3042:Generated_Source\PSoC4/BLE_1_eventHandler.c ****     }
3043:Generated_Source\PSoC4/BLE_1_eventHandler.c **** #endif /* CYBLE_WPTS_CLIENT */
3044:Generated_Source\PSoC4/BLE_1_eventHandler.c **** #ifdef CYBLE_WSS_CLIENT
3045:Generated_Source\PSoC4/BLE_1_eventHandler.c ****     if((cyBle_disCount >= (uint8) CYBLE_SCDI_WSS_WEIGHT_SCALE_FEATURE) &&
3046:Generated_Source\PSoC4/BLE_1_eventHandler.c ****        (cyBle_disCount <= (uint8) CYBLE_SCDI_WSS_WEIGHT_WEIGHT_MEASUREMENT))
3047:Generated_Source\PSoC4/BLE_1_eventHandler.c ****     {
3048:Generated_Source\PSoC4/BLE_1_eventHandler.c ****         charRange.startHandle = cyBle_wssc.charInfo[cyBle_disCount-CYBLE_SCDI_WSS_WEIGHT_SCALE_FEAT
3049:Generated_Source\PSoC4/BLE_1_eventHandler.c ****         charRange.endHandle = cyBle_wssc.charInfo[cyBle_disCount-CYBLE_SCDI_WSS_WEIGHT_SCALE_FEATUR
3050:Generated_Source\PSoC4/BLE_1_eventHandler.c ****     }
3051:Generated_Source\PSoC4/BLE_1_eventHandler.c **** #endif /* CYBLE_WSS_CLIENT */
3052:Generated_Source\PSoC4/BLE_1_eventHandler.c **** 
3053:Generated_Source\PSoC4/BLE_1_eventHandler.c ****     return (charRange);
 3255              		.loc 1 3053 0
ARM GAS  C:\Users\Sarah\AppData\Local\Temp\ccqSJLdk.s 			page 113


 3256 002e 3B1D     		add	r3, r7, #4
 3257 0030 3A1C     		mov	r2, r7
 3258 0032 1268     		ldr	r2, [r2]
 3259 0034 1A60     		str	r2, [r3]
 3260 0036 3A1D     		add	r2, r7, #4
 3261 0038 0023     		mov	r3, #0
 3262 003a 1188     		ldrh	r1, [r2]
 3263 003c 0904     		lsl	r1, r1, #16
 3264 003e 090C     		lsr	r1, r1, #16
 3265 0040 1B0C     		lsr	r3, r3, #16
 3266 0042 1B04     		lsl	r3, r3, #16
 3267 0044 0B43     		orr	r3, r1
 3268 0046 5288     		ldrh	r2, [r2, #2]
 3269 0048 1204     		lsl	r2, r2, #16
 3270 004a 1B04     		lsl	r3, r3, #16
 3271 004c 1B0C     		lsr	r3, r3, #16
 3272 004e 1343     		orr	r3, r2
3054:Generated_Source\PSoC4/BLE_1_eventHandler.c **** }
 3273              		.loc 1 3054 0
 3274 0050 181C     		mov	r0, r3
 3275 0052 BD46     		mov	sp, r7
 3276 0054 02B0     		add	sp, sp, #8
 3277              		@ sp needed
 3278 0056 80BD     		pop	{r7, pc}
 3279              	.L210:
 3280              		.align	2
 3281              	.L209:
 3282 0058 00000000 		.word	cyBle_disCount
 3283 005c 00000000 		.word	cyBle_gattc
 3284 0060 00000000 		.word	cyBle_serverInfo
 3285              		.cfi_endproc
 3286              	.LFE21:
 3287              		.size	CyBle_GetCharRange, .-CyBle_GetCharRange
 3288              		.section	.text.CyBle_FindInfoEventHandler,"ax",%progbits
 3289              		.align	2
 3290              		.global	CyBle_FindInfoEventHandler
 3291              		.code	16
 3292              		.thumb_func
 3293              		.type	CyBle_FindInfoEventHandler, %function
 3294              	CyBle_FindInfoEventHandler:
 3295              	.LFB22:
3055:Generated_Source\PSoC4/BLE_1_eventHandler.c **** 
3056:Generated_Source\PSoC4/BLE_1_eventHandler.c **** 
3057:Generated_Source\PSoC4/BLE_1_eventHandler.c **** /****************************************************************************** 
3058:Generated_Source\PSoC4/BLE_1_eventHandler.c **** * Function Name: CyBle_FindInfoEventHandler
3059:Generated_Source\PSoC4/BLE_1_eventHandler.c **** ***************************************************************************//**
3060:Generated_Source\PSoC4/BLE_1_eventHandler.c **** *  Handles the Find Info Response Event during an automatic server discovery
3061:Generated_Source\PSoC4/BLE_1_eventHandler.c **** *  process.
3062:Generated_Source\PSoC4/BLE_1_eventHandler.c **** * 
3063:Generated_Source\PSoC4/BLE_1_eventHandler.c **** *  \param eventParam:  the event parameters for a Find Info Response
3064:Generated_Source\PSoC4/BLE_1_eventHandler.c **** * 
3065:Generated_Source\PSoC4/BLE_1_eventHandler.c **** * \return
3066:Generated_Source\PSoC4/BLE_1_eventHandler.c **** *  None.
3067:Generated_Source\PSoC4/BLE_1_eventHandler.c **** * 
3068:Generated_Source\PSoC4/BLE_1_eventHandler.c **** ******************************************************************************/
3069:Generated_Source\PSoC4/BLE_1_eventHandler.c **** void CyBle_FindInfoEventHandler(CYBLE_GATTC_FIND_INFO_RSP_PARAM_T *eventParam)
3070:Generated_Source\PSoC4/BLE_1_eventHandler.c **** {
ARM GAS  C:\Users\Sarah\AppData\Local\Temp\ccqSJLdk.s 			page 114


 3296              		.loc 1 3070 0
 3297              		.cfi_startproc
 3298 0000 80B5     		push	{r7, lr}
 3299              		.cfi_def_cfa_offset 8
 3300              		.cfi_offset 7, -8
 3301              		.cfi_offset 14, -4
 3302 0002 8AB0     		sub	sp, sp, #40
 3303              		.cfi_def_cfa_offset 48
 3304 0004 00AF     		add	r7, sp, #0
 3305              		.cfi_def_cfa_register 7
 3306 0006 7860     		str	r0, [r7, #4]
3071:Generated_Source\PSoC4/BLE_1_eventHandler.c ****     uint16 dataLength;
3072:Generated_Source\PSoC4/BLE_1_eventHandler.c ****     uint16 attrLength;
3073:Generated_Source\PSoC4/BLE_1_eventHandler.c ****     uint16 i;
3074:Generated_Source\PSoC4/BLE_1_eventHandler.c ****     uint8 *attrVal;
3075:Generated_Source\PSoC4/BLE_1_eventHandler.c **** 
3076:Generated_Source\PSoC4/BLE_1_eventHandler.c ****     /* Discovery descriptor information */
3077:Generated_Source\PSoC4/BLE_1_eventHandler.c ****     CYBLE_DISC_DESCR_INFO_T discDescrInfo;
3078:Generated_Source\PSoC4/BLE_1_eventHandler.c ****     discDescrInfo.descrHandle = CYBLE_GATT_INVALID_ATTR_HANDLE_VALUE;
 3307              		.loc 1 3078 0
 3308 0008 0823     		mov	r3, #8
 3309 000a FB18     		add	r3, r7, r3
 3310 000c 0022     		mov	r2, #0
 3311 000e 5A80     		strh	r2, [r3, #2]
3079:Generated_Source\PSoC4/BLE_1_eventHandler.c **** 
3080:Generated_Source\PSoC4/BLE_1_eventHandler.c ****     if((CyBle_GetClientState() == CYBLE_CLIENT_STATE_DESCR_DISCOVERING) 
 3312              		.loc 1 3080 0
 3313 0010 494B     		ldr	r3, .L221
 3314 0012 1B78     		ldrb	r3, [r3]
 3315 0014 042B     		cmp	r3, #4
 3316 0016 00D0     		beq	.LCB2805
 3317 0018 8BE0     		b	.L211	@long jump
 3318              	.LCB2805:
3081:Generated_Source\PSoC4/BLE_1_eventHandler.c ****             && ((cyBle_eventHandlerFlag & CYBLE_AUTO_DISCOVERY) != 0u))
 3319              		.loc 1 3081 0
 3320 001a 484B     		ldr	r3, .L221+4
 3321 001c 1B78     		ldrb	r3, [r3]
 3322 001e DBB2     		uxtb	r3, r3
 3323 0020 1A1C     		mov	r2, r3
 3324 0022 0223     		mov	r3, #2
 3325 0024 1340     		and	r3, r2
 3326 0026 00D1     		bne	.LCB2813
 3327 0028 83E0     		b	.L211	@long jump
 3328              	.LCB2813:
3082:Generated_Source\PSoC4/BLE_1_eventHandler.c ****     {
3083:Generated_Source\PSoC4/BLE_1_eventHandler.c ****         attrLength = eventParam->handleValueList.byteCount;    /* Number of elements on list in byt
 3329              		.loc 1 3083 0
 3330 002a 1E23     		mov	r3, #30
 3331 002c FB18     		add	r3, r7, r3
 3332 002e 7A68     		ldr	r2, [r7, #4]
 3333 0030 1289     		ldrh	r2, [r2, #8]
 3334 0032 1A80     		strh	r2, [r3]
3084:Generated_Source\PSoC4/BLE_1_eventHandler.c ****         discDescrInfo.uuidFormat = eventParam->uuidFormat;
 3335              		.loc 1 3084 0
 3336 0034 7B68     		ldr	r3, [r7, #4]
 3337 0036 1A7B     		ldrb	r2, [r3, #12]
 3338 0038 0823     		mov	r3, #8
ARM GAS  C:\Users\Sarah\AppData\Local\Temp\ccqSJLdk.s 			page 115


 3339 003a FB18     		add	r3, r7, r3
 3340 003c 1A75     		strb	r2, [r3, #20]
3085:Generated_Source\PSoC4/BLE_1_eventHandler.c ****         discDescrInfo.connHandle = eventParam->connHandle;
 3341              		.loc 1 3085 0
 3342 003e 0823     		mov	r3, #8
 3343 0040 FB18     		add	r3, r7, r3
 3344 0042 7A68     		ldr	r2, [r7, #4]
 3345 0044 1288     		ldrh	r2, [r2]
 3346 0046 1A80     		strh	r2, [r3]
3086:Generated_Source\PSoC4/BLE_1_eventHandler.c **** 
3087:Generated_Source\PSoC4/BLE_1_eventHandler.c ****         if(discDescrInfo.uuidFormat == CYBLE_GATT_16_BIT_UUID_FORMAT)
 3347              		.loc 1 3087 0
 3348 0048 0823     		mov	r3, #8
 3349 004a FB18     		add	r3, r7, r3
 3350 004c 1B7D     		ldrb	r3, [r3, #20]
 3351 004e 012B     		cmp	r3, #1
 3352 0050 04D1     		bne	.L213
3088:Generated_Source\PSoC4/BLE_1_eventHandler.c ****         {
3089:Generated_Source\PSoC4/BLE_1_eventHandler.c ****             dataLength = CYBLE_DB_ATTR_HANDLE_LEN + CYBLE_GATT_16_BIT_UUID_SIZE;
 3353              		.loc 1 3089 0
 3354 0052 2623     		mov	r3, #38
 3355 0054 FB18     		add	r3, r7, r3
 3356 0056 0422     		mov	r2, #4
 3357 0058 1A80     		strh	r2, [r3]
 3358 005a 03E0     		b	.L214
 3359              	.L213:
3090:Generated_Source\PSoC4/BLE_1_eventHandler.c ****         }
3091:Generated_Source\PSoC4/BLE_1_eventHandler.c ****         else
3092:Generated_Source\PSoC4/BLE_1_eventHandler.c ****         {
3093:Generated_Source\PSoC4/BLE_1_eventHandler.c ****             dataLength = CYBLE_DB_ATTR_HANDLE_LEN + CYBLE_GATT_128_BIT_UUID_SIZE;
 3360              		.loc 1 3093 0
 3361 005c 2623     		mov	r3, #38
 3362 005e FB18     		add	r3, r7, r3
 3363 0060 1222     		mov	r2, #18
 3364 0062 1A80     		strh	r2, [r3]
 3365              	.L214:
3094:Generated_Source\PSoC4/BLE_1_eventHandler.c ****         }
3095:Generated_Source\PSoC4/BLE_1_eventHandler.c ****         attrVal = eventParam->handleValueList.list;
 3366              		.loc 1 3095 0
 3367 0064 7B68     		ldr	r3, [r7, #4]
 3368 0066 5B68     		ldr	r3, [r3, #4]
 3369 0068 3B62     		str	r3, [r7, #32]
3096:Generated_Source\PSoC4/BLE_1_eventHandler.c **** 
3097:Generated_Source\PSoC4/BLE_1_eventHandler.c ****         for(i = 0u; i < attrLength; i += dataLength)
 3370              		.loc 1 3097 0
 3371 006a 2423     		mov	r3, #36
 3372 006c FB18     		add	r3, r7, r3
 3373 006e 0022     		mov	r2, #0
 3374 0070 1A80     		strh	r2, [r3]
 3375 0072 4EE0     		b	.L215
 3376              	.L220:
3098:Generated_Source\PSoC4/BLE_1_eventHandler.c ****         {
3099:Generated_Source\PSoC4/BLE_1_eventHandler.c ****             discDescrInfo.descrHandle = CyBle_Get16ByPtr(attrVal);
 3377              		.loc 1 3099 0
 3378 0074 3B6A     		ldr	r3, [r7, #32]
 3379 0076 181C     		mov	r0, r3
 3380 0078 FFF7FEFF 		bl	CyBle_Get16ByPtr
ARM GAS  C:\Users\Sarah\AppData\Local\Temp\ccqSJLdk.s 			page 116


 3381 007c 031C     		mov	r3, r0
 3382 007e 1A1C     		mov	r2, r3
 3383 0080 0823     		mov	r3, #8
 3384 0082 FB18     		add	r3, r7, r3
 3385 0084 5A80     		strh	r2, [r3, #2]
3100:Generated_Source\PSoC4/BLE_1_eventHandler.c ****             attrVal += CYBLE_DB_ATTR_HANDLE_LEN;
 3386              		.loc 1 3100 0
 3387 0086 3B6A     		ldr	r3, [r7, #32]
 3388 0088 0233     		add	r3, r3, #2
 3389 008a 3B62     		str	r3, [r7, #32]
3101:Generated_Source\PSoC4/BLE_1_eventHandler.c ****             if(discDescrInfo.uuidFormat == CYBLE_GATT_128_BIT_UUID_FORMAT)
 3390              		.loc 1 3101 0
 3391 008c 0823     		mov	r3, #8
 3392 008e FB18     		add	r3, r7, r3
 3393 0090 1B7D     		ldrb	r3, [r3, #20]
 3394 0092 022B     		cmp	r3, #2
 3395 0094 15D1     		bne	.L216
3102:Generated_Source\PSoC4/BLE_1_eventHandler.c ****             {
3103:Generated_Source\PSoC4/BLE_1_eventHandler.c ****                 (void)memcpy(&discDescrInfo.uuid.uuid128, attrVal, CYBLE_GATT_128_BIT_UUID_SIZE);
 3396              		.loc 1 3103 0
 3397 0096 0823     		mov	r3, #8
 3398 0098 FB18     		add	r3, r7, r3
 3399 009a 3A6A     		ldr	r2, [r7, #32]
 3400 009c 0433     		add	r3, r3, #4
 3401 009e 111C     		mov	r1, r2
 3402 00a0 1022     		mov	r2, #16
 3403 00a2 181C     		mov	r0, r3
 3404 00a4 FFF7FEFF 		bl	memcpy
3104:Generated_Source\PSoC4/BLE_1_eventHandler.c ****                 attrVal += CYBLE_GATT_128_BIT_UUID_SIZE;
 3405              		.loc 1 3104 0
 3406 00a8 3B6A     		ldr	r3, [r7, #32]
 3407 00aa 1033     		add	r3, r3, #16
 3408 00ac 3B62     		str	r3, [r7, #32]
3105:Generated_Source\PSoC4/BLE_1_eventHandler.c ****                 #ifdef CYBLE_CUSTOM_CLIENT
3106:Generated_Source\PSoC4/BLE_1_eventHandler.c ****                     if(cyBle_disCount == (uint8) CYBLE_SCDI_CUSTOM_CHARACTERISTICS)
 3409              		.loc 1 3106 0
 3410 00ae 244B     		ldr	r3, .L221+8
 3411 00b0 1B78     		ldrb	r3, [r3]
 3412 00b2 012B     		cmp	r3, #1
 3413 00b4 23D1     		bne	.L218
3107:Generated_Source\PSoC4/BLE_1_eventHandler.c ****                     {
3108:Generated_Source\PSoC4/BLE_1_eventHandler.c ****                         CyBle_CustomcDiscoverCharDescriptorsEventHandler(&discDescrInfo);
 3414              		.loc 1 3108 0
 3415 00b6 0823     		mov	r3, #8
 3416 00b8 FB18     		add	r3, r7, r3
 3417 00ba 181C     		mov	r0, r3
 3418 00bc FFF7FEFF 		bl	CyBle_CustomcDiscoverCharDescriptorsEventHandler
 3419 00c0 1DE0     		b	.L218
 3420              	.L216:
3109:Generated_Source\PSoC4/BLE_1_eventHandler.c ****                     }
3110:Generated_Source\PSoC4/BLE_1_eventHandler.c ****                 #endif /* CYBLE_CUSTOM_CLIENT */
3111:Generated_Source\PSoC4/BLE_1_eventHandler.c ****             }
3112:Generated_Source\PSoC4/BLE_1_eventHandler.c ****             else
3113:Generated_Source\PSoC4/BLE_1_eventHandler.c ****             {
3114:Generated_Source\PSoC4/BLE_1_eventHandler.c ****                 discDescrInfo.uuid.uuid16 = CyBle_Get16ByPtr(attrVal);
 3421              		.loc 1 3114 0
 3422 00c2 3B6A     		ldr	r3, [r7, #32]
ARM GAS  C:\Users\Sarah\AppData\Local\Temp\ccqSJLdk.s 			page 117


 3423 00c4 181C     		mov	r0, r3
 3424 00c6 FFF7FEFF 		bl	CyBle_Get16ByPtr
 3425 00ca 031C     		mov	r3, r0
 3426 00cc 1A1C     		mov	r2, r3
 3427 00ce 0823     		mov	r3, #8
 3428 00d0 FB18     		add	r3, r7, r3
 3429 00d2 9A80     		strh	r2, [r3, #4]
3115:Generated_Source\PSoC4/BLE_1_eventHandler.c ****                 attrVal += CYBLE_GATT_16_BIT_UUID_SIZE;
 3430              		.loc 1 3115 0
 3431 00d4 3B6A     		ldr	r3, [r7, #32]
 3432 00d6 0233     		add	r3, r3, #2
 3433 00d8 3B62     		str	r3, [r7, #32]
3116:Generated_Source\PSoC4/BLE_1_eventHandler.c ****                 
3117:Generated_Source\PSoC4/BLE_1_eventHandler.c ****                 if(cyBle_disCount == (uint8) CYBLE_SCDI_GATT_SERVICE_CHANGED)
 3434              		.loc 1 3117 0
 3435 00da 194B     		ldr	r3, .L221+8
 3436 00dc 1B78     		ldrb	r3, [r3]
 3437 00de 002B     		cmp	r3, #0
 3438 00e0 04D1     		bne	.L219
3118:Generated_Source\PSoC4/BLE_1_eventHandler.c ****                 {
3119:Generated_Source\PSoC4/BLE_1_eventHandler.c ****                     CyBle_GattcDiscoverCharDescriptorsEventHandler(&discDescrInfo);
 3439              		.loc 1 3119 0
 3440 00e2 0823     		mov	r3, #8
 3441 00e4 FB18     		add	r3, r7, r3
 3442 00e6 181C     		mov	r0, r3
 3443 00e8 FFF7FEFF 		bl	CyBle_GattcDiscoverCharDescriptorsEventHandler
 3444              	.L219:
3120:Generated_Source\PSoC4/BLE_1_eventHandler.c ****                 }
3121:Generated_Source\PSoC4/BLE_1_eventHandler.c ****                 
3122:Generated_Source\PSoC4/BLE_1_eventHandler.c ****                 
3123:Generated_Source\PSoC4/BLE_1_eventHandler.c ****                 #ifdef CYBLE_ANCS_CLIENT
3124:Generated_Source\PSoC4/BLE_1_eventHandler.c ****                     if((cyBle_disCount == (uint8) CYBLE_SCDI_ANCS_NS) ||
3125:Generated_Source\PSoC4/BLE_1_eventHandler.c ****                         (cyBle_disCount == (uint8) CYBLE_SCDI_ANCS_DS))
3126:Generated_Source\PSoC4/BLE_1_eventHandler.c ****                     {
3127:Generated_Source\PSoC4/BLE_1_eventHandler.c ****                         CyBle_AncscDiscoverCharDescriptorsEventHandler(&discDescrInfo);
3128:Generated_Source\PSoC4/BLE_1_eventHandler.c ****                     }
3129:Generated_Source\PSoC4/BLE_1_eventHandler.c ****                 #endif /* CYBLE_ANCS_CLIENT */
3130:Generated_Source\PSoC4/BLE_1_eventHandler.c ****                 
3131:Generated_Source\PSoC4/BLE_1_eventHandler.c ****                 #ifdef CYBLE_ANS_CLIENT
3132:Generated_Source\PSoC4/BLE_1_eventHandler.c ****                     if((cyBle_disCount >= (uint8) CYBLE_SCDI_ANS_SUPPORTED_NEW_ALERT_CAT) &&
3133:Generated_Source\PSoC4/BLE_1_eventHandler.c ****                         (cyBle_disCount <= (uint8) CYBLE_SCDI_ANS_ALERT_NTF_CONTROL_POINT))
3134:Generated_Source\PSoC4/BLE_1_eventHandler.c ****                     {
3135:Generated_Source\PSoC4/BLE_1_eventHandler.c ****                         CyBle_AnscDiscoverCharDescriptorsEventHandler(&discDescrInfo);
3136:Generated_Source\PSoC4/BLE_1_eventHandler.c ****                     }
3137:Generated_Source\PSoC4/BLE_1_eventHandler.c ****                 #endif /* CYBLE_ANS_CLIENT */
3138:Generated_Source\PSoC4/BLE_1_eventHandler.c ****                 
3139:Generated_Source\PSoC4/BLE_1_eventHandler.c ****                 #ifdef CYBLE_BAS_CLIENT
3140:Generated_Source\PSoC4/BLE_1_eventHandler.c ****                     if((cyBle_disCount >= (uint8) CYBLE_SCDI_BAS_LEVEL) &&
3141:Generated_Source\PSoC4/BLE_1_eventHandler.c ****                         (cyBle_disCount <= (uint8) CYBLE_SCDI_BAS_LEVEL_END))
3142:Generated_Source\PSoC4/BLE_1_eventHandler.c ****                     {
3143:Generated_Source\PSoC4/BLE_1_eventHandler.c ****                         CyBle_BascDiscoverCharDescriptorsEventHandler(cyBle_disCount - CYBLE_SCDI_B
3144:Generated_Source\PSoC4/BLE_1_eventHandler.c ****                                                                       &discDescrInfo);
3145:Generated_Source\PSoC4/BLE_1_eventHandler.c ****                     }
3146:Generated_Source\PSoC4/BLE_1_eventHandler.c ****                 #endif /* CYBLE_BAS_CLIENT */
3147:Generated_Source\PSoC4/BLE_1_eventHandler.c ****                 
3148:Generated_Source\PSoC4/BLE_1_eventHandler.c ****                 #ifdef CYBLE_BCS_CLIENT
3149:Generated_Source\PSoC4/BLE_1_eventHandler.c ****                     if((cyBle_disCount == (uint8) CYBLE_SCDI_BCS_BODY_COMPOSITION_FEATURE) ||
ARM GAS  C:\Users\Sarah\AppData\Local\Temp\ccqSJLdk.s 			page 118


3150:Generated_Source\PSoC4/BLE_1_eventHandler.c ****                         (cyBle_disCount == (uint8) CYBLE_SCDI_BCS_BODY_COMPOSITION_MEASUREMENT))
3151:Generated_Source\PSoC4/BLE_1_eventHandler.c ****                     {
3152:Generated_Source\PSoC4/BLE_1_eventHandler.c ****                         CyBle_BcscDiscoverCharDescriptorsEventHandler(&discDescrInfo);
3153:Generated_Source\PSoC4/BLE_1_eventHandler.c ****                     }
3154:Generated_Source\PSoC4/BLE_1_eventHandler.c ****                 #endif /* CYBLE_BCS_CLIENT */
3155:Generated_Source\PSoC4/BLE_1_eventHandler.c ****                 
3156:Generated_Source\PSoC4/BLE_1_eventHandler.c ****                 #ifdef CYBLE_BLS_CLIENT
3157:Generated_Source\PSoC4/BLE_1_eventHandler.c ****                     if((cyBle_disCount == (uint8) CYBLE_SCDI_BLS_BPM) || (cyBle_disCount == (uint8)
3158:Generated_Source\PSoC4/BLE_1_eventHandler.c ****                     {
3159:Generated_Source\PSoC4/BLE_1_eventHandler.c ****                         CyBle_BlscDiscoverCharDescriptorsEventHandler(&discDescrInfo);
3160:Generated_Source\PSoC4/BLE_1_eventHandler.c ****                     }
3161:Generated_Source\PSoC4/BLE_1_eventHandler.c ****                 #endif /* CYBLE_BLS_CLIENT */
3162:Generated_Source\PSoC4/BLE_1_eventHandler.c ****                 
3163:Generated_Source\PSoC4/BLE_1_eventHandler.c ****                 #ifdef CYBLE_BMS_CLIENT
3164:Generated_Source\PSoC4/BLE_1_eventHandler.c ****                     if(cyBle_disCount == (uint8) CYBLE_SCDI_BMS_BMCP)
3165:Generated_Source\PSoC4/BLE_1_eventHandler.c ****                     {
3166:Generated_Source\PSoC4/BLE_1_eventHandler.c ****                         CyBle_BmscDiscoverCharDescriptorsEventHandler(&discDescrInfo);
3167:Generated_Source\PSoC4/BLE_1_eventHandler.c ****                     }
3168:Generated_Source\PSoC4/BLE_1_eventHandler.c ****                 #endif /* CYBLE_BMS_CLIENT */
3169:Generated_Source\PSoC4/BLE_1_eventHandler.c ****                 
3170:Generated_Source\PSoC4/BLE_1_eventHandler.c ****                 #ifdef CYBLE_CGMS_CLIENT
3171:Generated_Source\PSoC4/BLE_1_eventHandler.c ****                     if((cyBle_disCount >= (uint8) CYBLE_SCDI_CGMS_CGMT) &&
3172:Generated_Source\PSoC4/BLE_1_eventHandler.c ****                         (cyBle_disCount <= (uint8) CYBLE_SCDI_CGMS_SOCP))
3173:Generated_Source\PSoC4/BLE_1_eventHandler.c ****                     {
3174:Generated_Source\PSoC4/BLE_1_eventHandler.c ****                         CyBle_CgmscDiscoverCharDescriptorsEventHandler(&discDescrInfo);
3175:Generated_Source\PSoC4/BLE_1_eventHandler.c ****                     }
3176:Generated_Source\PSoC4/BLE_1_eventHandler.c ****                 #endif /* CYBLE_CGMS_CLIENT */
3177:Generated_Source\PSoC4/BLE_1_eventHandler.c **** 
3178:Generated_Source\PSoC4/BLE_1_eventHandler.c ****                 #ifdef CYBLE_CPS_CLIENT
3179:Generated_Source\PSoC4/BLE_1_eventHandler.c ****                     if((cyBle_disCount >= (uint8) CYBLE_SCDI_CPS_POWER_MEASURE) &&
3180:Generated_Source\PSoC4/BLE_1_eventHandler.c ****                         (cyBle_disCount <= (uint8)CYBLE_SCDI_CPS_POWER_CP))
3181:Generated_Source\PSoC4/BLE_1_eventHandler.c ****                     {
3182:Generated_Source\PSoC4/BLE_1_eventHandler.c ****                         uint8 charIdx = cyBle_disCount - CYBLE_SCDI_CPS_POWER_MEASURE;
3183:Generated_Source\PSoC4/BLE_1_eventHandler.c ****                         CyBle_CpscDiscoverCharDescriptorsEventHandler((CYBLE_CPS_CHAR_INDEX_T)charI
3184:Generated_Source\PSoC4/BLE_1_eventHandler.c ****                     }
3185:Generated_Source\PSoC4/BLE_1_eventHandler.c ****                 #endif /* CYBLE_CPS_CLIENT */
3186:Generated_Source\PSoC4/BLE_1_eventHandler.c **** 
3187:Generated_Source\PSoC4/BLE_1_eventHandler.c ****                 #ifdef CYBLE_CSCS_CLIENT
3188:Generated_Source\PSoC4/BLE_1_eventHandler.c ****                     if((cyBle_disCount >= (uint8) CYBLE_SCDI_CSCS_CSC_MEASUREMENT) && 
3189:Generated_Source\PSoC4/BLE_1_eventHandler.c ****                        (cyBle_disCount <= (uint8) CYBLE_SCDI_CSCS_SC_CONTROL_POINT))
3190:Generated_Source\PSoC4/BLE_1_eventHandler.c ****                     {
3191:Generated_Source\PSoC4/BLE_1_eventHandler.c ****                         if(cyBle_disCount == (uint8) CYBLE_SCDI_CSCS_CSC_MEASUREMENT)
3192:Generated_Source\PSoC4/BLE_1_eventHandler.c ****                         {
3193:Generated_Source\PSoC4/BLE_1_eventHandler.c ****                             /* The CCC descriptor of CSC Measurement is currently discovering */
3194:Generated_Source\PSoC4/BLE_1_eventHandler.c ****                             CyBle_CscscDiscoverCharDescriptorsEventHandler(CYBLE_CSCS_CSC_MEASUREME
3195:Generated_Source\PSoC4/BLE_1_eventHandler.c ****                         }
3196:Generated_Source\PSoC4/BLE_1_eventHandler.c ****                         else if(cyBle_disCount == (uint8) CYBLE_SCDI_CSCS_SC_CONTROL_POINT)
3197:Generated_Source\PSoC4/BLE_1_eventHandler.c ****                         {
3198:Generated_Source\PSoC4/BLE_1_eventHandler.c ****                             /* The CCC descriptor of SC Control Point is currently discovering */
3199:Generated_Source\PSoC4/BLE_1_eventHandler.c ****                             CyBle_CscscDiscoverCharDescriptorsEventHandler(CYBLE_CSCS_SC_CONTROL_PO
3200:Generated_Source\PSoC4/BLE_1_eventHandler.c ****                         }
3201:Generated_Source\PSoC4/BLE_1_eventHandler.c ****                         else
3202:Generated_Source\PSoC4/BLE_1_eventHandler.c ****                         {
3203:Generated_Source\PSoC4/BLE_1_eventHandler.c ****                             /* No other descriptors are present for CSCS */
3204:Generated_Source\PSoC4/BLE_1_eventHandler.c ****                         }
3205:Generated_Source\PSoC4/BLE_1_eventHandler.c ****                     }
3206:Generated_Source\PSoC4/BLE_1_eventHandler.c ****                 #endif /* CYBLE_CSCS_CLIENT */
ARM GAS  C:\Users\Sarah\AppData\Local\Temp\ccqSJLdk.s 			page 119


3207:Generated_Source\PSoC4/BLE_1_eventHandler.c ****                 
3208:Generated_Source\PSoC4/BLE_1_eventHandler.c ****                 #ifdef CYBLE_CTS_CLIENT
3209:Generated_Source\PSoC4/BLE_1_eventHandler.c ****                     if(cyBle_disCount == (uint8) CYBLE_SCDI_CTS_CURRENT_TIME)
3210:Generated_Source\PSoC4/BLE_1_eventHandler.c ****                     {
3211:Generated_Source\PSoC4/BLE_1_eventHandler.c ****                         CyBle_CtscDiscoverCharDescriptorsEventHandler(&discDescrInfo);
3212:Generated_Source\PSoC4/BLE_1_eventHandler.c ****                     }
3213:Generated_Source\PSoC4/BLE_1_eventHandler.c ****                 #endif /* CYBLE_CTS_CLIENT */
3214:Generated_Source\PSoC4/BLE_1_eventHandler.c **** 
3215:Generated_Source\PSoC4/BLE_1_eventHandler.c ****                 #ifdef CYBLE_CUSTOM_CLIENT
3216:Generated_Source\PSoC4/BLE_1_eventHandler.c ****                     if(cyBle_disCount == (uint8) CYBLE_SCDI_CUSTOM_CHARACTERISTICS)
 3445              		.loc 1 3216 0
 3446 00ec 144B     		ldr	r3, .L221+8
 3447 00ee 1B78     		ldrb	r3, [r3]
 3448 00f0 012B     		cmp	r3, #1
 3449 00f2 04D1     		bne	.L218
3217:Generated_Source\PSoC4/BLE_1_eventHandler.c ****                     {
3218:Generated_Source\PSoC4/BLE_1_eventHandler.c ****                         CyBle_CustomcDiscoverCharDescriptorsEventHandler(&discDescrInfo);
 3450              		.loc 1 3218 0
 3451 00f4 0823     		mov	r3, #8
 3452 00f6 FB18     		add	r3, r7, r3
 3453 00f8 181C     		mov	r0, r3
 3454 00fa FFF7FEFF 		bl	CyBle_CustomcDiscoverCharDescriptorsEventHandler
 3455              	.L218:
3097:Generated_Source\PSoC4/BLE_1_eventHandler.c ****         {
 3456              		.loc 1 3097 0 discriminator 2
 3457 00fe 2423     		mov	r3, #36
 3458 0100 FB18     		add	r3, r7, r3
 3459 0102 2422     		mov	r2, #36
 3460 0104 B918     		add	r1, r7, r2
 3461 0106 2622     		mov	r2, #38
 3462 0108 BA18     		add	r2, r7, r2
 3463 010a 0988     		ldrh	r1, [r1]
 3464 010c 1288     		ldrh	r2, [r2]
 3465 010e 8A18     		add	r2, r1, r2
 3466 0110 1A80     		strh	r2, [r3]
 3467              	.L215:
3097:Generated_Source\PSoC4/BLE_1_eventHandler.c ****         {
 3468              		.loc 1 3097 0 is_stmt 0 discriminator 1
 3469 0112 2423     		mov	r3, #36
 3470 0114 FA18     		add	r2, r7, r3
 3471 0116 1E23     		mov	r3, #30
 3472 0118 FB18     		add	r3, r7, r3
 3473 011a 1288     		ldrh	r2, [r2]
 3474 011c 1B88     		ldrh	r3, [r3]
 3475 011e 9A42     		cmp	r2, r3
 3476 0120 A8D3     		bcc	.L220
3219:Generated_Source\PSoC4/BLE_1_eventHandler.c ****                     }
3220:Generated_Source\PSoC4/BLE_1_eventHandler.c ****                 #endif /* CYBLE_CUSTOM_CLIENT */
3221:Generated_Source\PSoC4/BLE_1_eventHandler.c ****                 
3222:Generated_Source\PSoC4/BLE_1_eventHandler.c ****                 #ifdef CYBLE_ESS_CLIENT
3223:Generated_Source\PSoC4/BLE_1_eventHandler.c ****                     if((cyBle_disCount >= (uint8) CYBLE_SCDI_ESS_DESCRIPTOR_VALUE_CHANGED) &&
3224:Generated_Source\PSoC4/BLE_1_eventHandler.c ****                         (cyBle_disCount <= (uint8) CYBLE_SCDI_ESS_END_CHAR))
3225:Generated_Source\PSoC4/BLE_1_eventHandler.c ****                     {
3226:Generated_Source\PSoC4/BLE_1_eventHandler.c ****                         CyBle_EsscDiscoverCharDescriptorsEventHandler(&discDescrInfo);
3227:Generated_Source\PSoC4/BLE_1_eventHandler.c ****                     }
3228:Generated_Source\PSoC4/BLE_1_eventHandler.c ****                 #endif /* CYBLE_ESS_CLIENT */
3229:Generated_Source\PSoC4/BLE_1_eventHandler.c **** 
ARM GAS  C:\Users\Sarah\AppData\Local\Temp\ccqSJLdk.s 			page 120


3230:Generated_Source\PSoC4/BLE_1_eventHandler.c ****                 #ifdef CYBLE_GLS_CLIENT
3231:Generated_Source\PSoC4/BLE_1_eventHandler.c ****                     if((cyBle_disCount >= (uint8) CYBLE_SCDI_GLS_GLMT) &&
3232:Generated_Source\PSoC4/BLE_1_eventHandler.c ****                         (cyBle_disCount <= (uint8) CYBLE_SCDI_GLS_RACP))
3233:Generated_Source\PSoC4/BLE_1_eventHandler.c ****                     {
3234:Generated_Source\PSoC4/BLE_1_eventHandler.c ****                         CyBle_GlscDiscoverCharDescriptorsEventHandler(&discDescrInfo);
3235:Generated_Source\PSoC4/BLE_1_eventHandler.c ****                     }
3236:Generated_Source\PSoC4/BLE_1_eventHandler.c ****                 #endif /* CYBLE_GLS_CLIENT */
3237:Generated_Source\PSoC4/BLE_1_eventHandler.c **** 
3238:Generated_Source\PSoC4/BLE_1_eventHandler.c ****                 #ifdef CYBLE_HIDS_CLIENT
3239:Generated_Source\PSoC4/BLE_1_eventHandler.c ****                     if((cyBle_disCount >= (uint8) CYBLE_SCDI_HIDS_REPORT_MAP) &&
3240:Generated_Source\PSoC4/BLE_1_eventHandler.c ****                         (cyBle_disCount <= (uint8) CYBLE_SCDI_HIDS_REPORT_END))
3241:Generated_Source\PSoC4/BLE_1_eventHandler.c ****                     {
3242:Generated_Source\PSoC4/BLE_1_eventHandler.c ****                         CyBle_HidscDiscoverCharDescriptorsEventHandler(disServiceIndex, cyBle_disCo
3243:Generated_Source\PSoC4/BLE_1_eventHandler.c ****                     }
3244:Generated_Source\PSoC4/BLE_1_eventHandler.c ****                 #endif /* CYBLE_HIDS_CLIENT */
3245:Generated_Source\PSoC4/BLE_1_eventHandler.c **** 
3246:Generated_Source\PSoC4/BLE_1_eventHandler.c ****                 #ifdef CYBLE_HPS_CLIENT
3247:Generated_Source\PSoC4/BLE_1_eventHandler.c ****                     if(cyBle_disCount == (uint8) CYBLE_SCDI_HPS_STATUS_CODE)
3248:Generated_Source\PSoC4/BLE_1_eventHandler.c ****                     {
3249:Generated_Source\PSoC4/BLE_1_eventHandler.c ****                         CyBle_HpscDiscoverCharDescriptorsEventHandler(&discDescrInfo);
3250:Generated_Source\PSoC4/BLE_1_eventHandler.c ****                     }
3251:Generated_Source\PSoC4/BLE_1_eventHandler.c ****                 #endif /* CYBLE_HPS_CLIENT */
3252:Generated_Source\PSoC4/BLE_1_eventHandler.c ****                 
3253:Generated_Source\PSoC4/BLE_1_eventHandler.c ****                 #ifdef CYBLE_HRS_CLIENT
3254:Generated_Source\PSoC4/BLE_1_eventHandler.c ****                     if(cyBle_disCount == (uint8) CYBLE_SCDI_HRS_HRM)
3255:Generated_Source\PSoC4/BLE_1_eventHandler.c ****                     {
3256:Generated_Source\PSoC4/BLE_1_eventHandler.c ****                         CyBle_HrscDiscoverCharDescriptorsEventHandler(&discDescrInfo);
3257:Generated_Source\PSoC4/BLE_1_eventHandler.c ****                     }
3258:Generated_Source\PSoC4/BLE_1_eventHandler.c ****                 #endif /* CYBLE_HRS_CLIENT */
3259:Generated_Source\PSoC4/BLE_1_eventHandler.c **** 
3260:Generated_Source\PSoC4/BLE_1_eventHandler.c ****                 #ifdef CYBLE_HTS_CLIENT
3261:Generated_Source\PSoC4/BLE_1_eventHandler.c ****                     if((cyBle_disCount >= (uint8) CYBLE_SCDI_HTS_TEMP_MEASURE) && 
3262:Generated_Source\PSoC4/BLE_1_eventHandler.c ****                        (cyBle_disCount <= (uint8) CYBLE_SCDI_HTS_MEASURE_INTERVAL))
3263:Generated_Source\PSoC4/BLE_1_eventHandler.c ****                     {
3264:Generated_Source\PSoC4/BLE_1_eventHandler.c ****                         uint8 charIdx = cyBle_disCount - CYBLE_SCDI_HTS_TEMP_MEASURE;
3265:Generated_Source\PSoC4/BLE_1_eventHandler.c ****                         CyBle_HtscDiscoverCharDescriptorsEventHandler((CYBLE_HTS_CHAR_INDEX_T)charI
3266:Generated_Source\PSoC4/BLE_1_eventHandler.c ****                     }
3267:Generated_Source\PSoC4/BLE_1_eventHandler.c ****                 #endif /* CYBLE_HTS_CLIENT */
3268:Generated_Source\PSoC4/BLE_1_eventHandler.c ****                 #ifdef CYBLE_IPS_CLIENT
3269:Generated_Source\PSoC4/BLE_1_eventHandler.c ****                         if((cyBle_disCount >= (uint8) CYBLE_SCDI_IPS_LATITUDE) && 
3270:Generated_Source\PSoC4/BLE_1_eventHandler.c ****                            (cyBle_disCount <= (uint8) CYBLE_SCDI_IPS_LOCATION_NAME))
3271:Generated_Source\PSoC4/BLE_1_eventHandler.c ****                         {
3272:Generated_Source\PSoC4/BLE_1_eventHandler.c ****                             uint8 charIdx = (cyBle_disCount - CYBLE_SCDI_IPS_LATITUDE) + 1u;
3273:Generated_Source\PSoC4/BLE_1_eventHandler.c ****                             CyBle_IpscDiscoverCharDescriptorsEventHandler((CYBLE_IPS_CHAR_INDEX_T)c
3274:Generated_Source\PSoC4/BLE_1_eventHandler.c ****                         }
3275:Generated_Source\PSoC4/BLE_1_eventHandler.c ****                 #endif /* CYBLE_IPS_CLIENT */
3276:Generated_Source\PSoC4/BLE_1_eventHandler.c ****                 #ifdef CYBLE_LNS_CLIENT
3277:Generated_Source\PSoC4/BLE_1_eventHandler.c ****                     if((cyBle_disCount >= (uint8) CYBLE_SCDI_LNS_LS) && 
3278:Generated_Source\PSoC4/BLE_1_eventHandler.c ****                        (cyBle_disCount <= (uint8) CYBLE_SCDI_LNS_NV))
3279:Generated_Source\PSoC4/BLE_1_eventHandler.c ****                     {
3280:Generated_Source\PSoC4/BLE_1_eventHandler.c ****                         CyBle_LnscDiscoverCharDescriptorsEventHandler(&discDescrInfo);
3281:Generated_Source\PSoC4/BLE_1_eventHandler.c ****                     }
3282:Generated_Source\PSoC4/BLE_1_eventHandler.c ****                 #endif /* CYBLE_LNS_CLIENT */
3283:Generated_Source\PSoC4/BLE_1_eventHandler.c ****                 
3284:Generated_Source\PSoC4/BLE_1_eventHandler.c ****                 #ifdef CYBLE_PASS_CLIENT
3285:Generated_Source\PSoC4/BLE_1_eventHandler.c ****                     if((cyBle_disCount == (uint8) CYBLE_SCDI_PASS_AS) || 
3286:Generated_Source\PSoC4/BLE_1_eventHandler.c ****                         (cyBle_disCount == (uint8) CYBLE_SCDI_PASS_RS))
ARM GAS  C:\Users\Sarah\AppData\Local\Temp\ccqSJLdk.s 			page 121


3287:Generated_Source\PSoC4/BLE_1_eventHandler.c ****                     {
3288:Generated_Source\PSoC4/BLE_1_eventHandler.c ****                         CyBle_PasscDiscoverCharDescriptorsEventHandler(&discDescrInfo);
3289:Generated_Source\PSoC4/BLE_1_eventHandler.c ****                     }
3290:Generated_Source\PSoC4/BLE_1_eventHandler.c ****                 #endif /* CYBLE_PASS_CLIENT */
3291:Generated_Source\PSoC4/BLE_1_eventHandler.c ****                 
3292:Generated_Source\PSoC4/BLE_1_eventHandler.c ****                 #ifdef CYBLE_PLXS_CLIENT
3293:Generated_Source\PSoC4/BLE_1_eventHandler.c ****                     if((cyBle_disCount == (uint8) CYBLE_SCDI_PLXS_SPOT_CHECK_MEASUREMENT) || 
3294:Generated_Source\PSoC4/BLE_1_eventHandler.c ****                        (cyBle_disCount == (uint8) CYBLE_SCDI_PLXS_CONTINUOUS_MEASUREMENT) || 
3295:Generated_Source\PSoC4/BLE_1_eventHandler.c ****                        (cyBle_disCount == (uint8) CYBLE_SCDI_PLXS_RECORD_ACCESS_CONTROL_POINT) )
3296:Generated_Source\PSoC4/BLE_1_eventHandler.c ****                     {
3297:Generated_Source\PSoC4/BLE_1_eventHandler.c ****                         CyBle_PasscDiscoverCharDescriptorsEventHandler(&discDescrInfo);
3298:Generated_Source\PSoC4/BLE_1_eventHandler.c ****                     }
3299:Generated_Source\PSoC4/BLE_1_eventHandler.c ****                 #endif /* CYBLE_PLXS_CLIENT */
3300:Generated_Source\PSoC4/BLE_1_eventHandler.c **** 
3301:Generated_Source\PSoC4/BLE_1_eventHandler.c ****                 #ifdef CYBLE_RSCS_CLIENT
3302:Generated_Source\PSoC4/BLE_1_eventHandler.c ****                     if((cyBle_disCount >= (uint8) CYBLE_SCDI_RSCS_RSC_MEASUREMENT) && 
3303:Generated_Source\PSoC4/BLE_1_eventHandler.c ****                        (cyBle_disCount <= (uint8) CYBLE_SCDI_RSCS_SC_CONTROL_POINT))
3304:Generated_Source\PSoC4/BLE_1_eventHandler.c ****                     {
3305:Generated_Source\PSoC4/BLE_1_eventHandler.c ****                         if(cyBle_disCount == (uint8) CYBLE_SCDI_RSCS_RSC_MEASUREMENT)
3306:Generated_Source\PSoC4/BLE_1_eventHandler.c ****                         {
3307:Generated_Source\PSoC4/BLE_1_eventHandler.c ****                             /* The CCC descriptor of RSC Measurement is currently discovering */
3308:Generated_Source\PSoC4/BLE_1_eventHandler.c ****                             CyBle_RscscDiscoverCharDescriptorsEventHandler(CYBLE_RSCS_RSC_MEASUREME
3309:Generated_Source\PSoC4/BLE_1_eventHandler.c ****                         }
3310:Generated_Source\PSoC4/BLE_1_eventHandler.c ****                         else if(cyBle_disCount == (uint8) CYBLE_SCDI_RSCS_SC_CONTROL_POINT)
3311:Generated_Source\PSoC4/BLE_1_eventHandler.c ****                         {
3312:Generated_Source\PSoC4/BLE_1_eventHandler.c ****                             /* The CCC descriptor of SC Control Point is currently discovering */
3313:Generated_Source\PSoC4/BLE_1_eventHandler.c ****                             CyBle_RscscDiscoverCharDescriptorsEventHandler(CYBLE_RSCS_SC_CONTROL_PO
3314:Generated_Source\PSoC4/BLE_1_eventHandler.c ****                         }
3315:Generated_Source\PSoC4/BLE_1_eventHandler.c ****                         else
3316:Generated_Source\PSoC4/BLE_1_eventHandler.c ****                         {
3317:Generated_Source\PSoC4/BLE_1_eventHandler.c ****                             /* No other descriptors are present for RSCS */
3318:Generated_Source\PSoC4/BLE_1_eventHandler.c ****                         }
3319:Generated_Source\PSoC4/BLE_1_eventHandler.c ****                     }
3320:Generated_Source\PSoC4/BLE_1_eventHandler.c ****                 #endif /* CYBLE_RSCS_CLIENT */
3321:Generated_Source\PSoC4/BLE_1_eventHandler.c **** 
3322:Generated_Source\PSoC4/BLE_1_eventHandler.c ****                 #ifdef CYBLE_SCPS_CLIENT
3323:Generated_Source\PSoC4/BLE_1_eventHandler.c ****                     if(cyBle_disCount == (uint8) CYBLE_SCDI_SCPS_SCAN_REFRESH)
3324:Generated_Source\PSoC4/BLE_1_eventHandler.c ****                     {
3325:Generated_Source\PSoC4/BLE_1_eventHandler.c ****                         CyBle_ScpscDiscoverCharDescriptorsEventHandler(&discDescrInfo);
3326:Generated_Source\PSoC4/BLE_1_eventHandler.c ****                     }
3327:Generated_Source\PSoC4/BLE_1_eventHandler.c ****                 #endif /* CYBLE_SCPS_CLIENT */
3328:Generated_Source\PSoC4/BLE_1_eventHandler.c ****                 
3329:Generated_Source\PSoC4/BLE_1_eventHandler.c ****                 #ifdef CYBLE_TPS_CLIENT
3330:Generated_Source\PSoC4/BLE_1_eventHandler.c ****                     if(cyBle_disCount == (uint8) CYBLE_SCDI_TPS_TX_PWR_LEVEL)
3331:Generated_Source\PSoC4/BLE_1_eventHandler.c ****                     {
3332:Generated_Source\PSoC4/BLE_1_eventHandler.c ****                         CyBle_TpscDiscoverCharDescriptorsEventHandler(&discDescrInfo);
3333:Generated_Source\PSoC4/BLE_1_eventHandler.c ****                     }
3334:Generated_Source\PSoC4/BLE_1_eventHandler.c ****                 #endif /* CYBLE_TPS_CLIENT */
3335:Generated_Source\PSoC4/BLE_1_eventHandler.c ****                 
3336:Generated_Source\PSoC4/BLE_1_eventHandler.c ****                 #ifdef CYBLE_UDS_CLIENT
3337:Generated_Source\PSoC4/BLE_1_eventHandler.c ****                     if((cyBle_disCount == (uint8) CYBLE_SCDI_UDS_DCI) || 
3338:Generated_Source\PSoC4/BLE_1_eventHandler.c ****                         (cyBle_disCount == (uint8) CYBLE_SCDI_UDS_UCP))
3339:Generated_Source\PSoC4/BLE_1_eventHandler.c ****                     {
3340:Generated_Source\PSoC4/BLE_1_eventHandler.c ****                         CyBle_UdscDiscoverCharDescriptorsEventHandler(&discDescrInfo);
3341:Generated_Source\PSoC4/BLE_1_eventHandler.c ****                     }
3342:Generated_Source\PSoC4/BLE_1_eventHandler.c ****                 #endif /* CYBLE_UDS_CLIENT */
3343:Generated_Source\PSoC4/BLE_1_eventHandler.c ****                 #ifdef CYBLE_WPTS_CLIENT
ARM GAS  C:\Users\Sarah\AppData\Local\Temp\ccqSJLdk.s 			page 122


3344:Generated_Source\PSoC4/BLE_1_eventHandler.c ****                     if(cyBle_disCount == (uint8) CYBLE_SCDI_WPTS_PRU_ALERT)
3345:Generated_Source\PSoC4/BLE_1_eventHandler.c ****                     {
3346:Generated_Source\PSoC4/BLE_1_eventHandler.c ****                         CyBle_WptscDiscoverCharDescriptorsEventHandler(&discDescrInfo);
3347:Generated_Source\PSoC4/BLE_1_eventHandler.c ****                     }
3348:Generated_Source\PSoC4/BLE_1_eventHandler.c ****                 #endif /* CYBLE_WPTS_CLIENT */
3349:Generated_Source\PSoC4/BLE_1_eventHandler.c ****                 #ifdef CYBLE_WSS_CLIENT
3350:Generated_Source\PSoC4/BLE_1_eventHandler.c ****                     if((cyBle_disCount >= (uint8) CYBLE_SCDI_WSS_WEIGHT_SCALE_FEATURE) &&
3351:Generated_Source\PSoC4/BLE_1_eventHandler.c ****                         (cyBle_disCount <= (uint8) CYBLE_SCDI_WSS_WEIGHT_WEIGHT_MEASUREMENT))
3352:Generated_Source\PSoC4/BLE_1_eventHandler.c ****                     {
3353:Generated_Source\PSoC4/BLE_1_eventHandler.c ****                         CyBle_WsscDiscoverCharDescriptorsEventHandler(&discDescrInfo);
3354:Generated_Source\PSoC4/BLE_1_eventHandler.c ****                     }
3355:Generated_Source\PSoC4/BLE_1_eventHandler.c ****                 #endif /* CYBLE_WSS_CLIENT */
3356:Generated_Source\PSoC4/BLE_1_eventHandler.c ****             }
3357:Generated_Source\PSoC4/BLE_1_eventHandler.c ****         }
3358:Generated_Source\PSoC4/BLE_1_eventHandler.c ****         /* The sub-procedure is complete when an Error Response is received and the
3359:Generated_Source\PSoC4/BLE_1_eventHandler.c ****            Error Code is set to an Attribute Not Found or the Find Information Response has
3360:Generated_Source\PSoC4/BLE_1_eventHandler.c ****            an Attribute Handle that is equal to the Ending Handle of the request in this
3361:Generated_Source\PSoC4/BLE_1_eventHandler.c ****            case CYBLE_EVT_GATTC_LONG_PROCEDURE_END event is generated by stack. */
3362:Generated_Source\PSoC4/BLE_1_eventHandler.c ****         
3363:Generated_Source\PSoC4/BLE_1_eventHandler.c ****         cyBle_eventHandlerFlag &= (uint8)~CYBLE_CALLBACK;
 3477              		.loc 1 3363 0 is_stmt 1
 3478 0122 064B     		ldr	r3, .L221+4
 3479 0124 1B78     		ldrb	r3, [r3]
 3480 0126 DBB2     		uxtb	r3, r3
 3481 0128 0122     		mov	r2, #1
 3482 012a 9343     		bic	r3, r2
 3483 012c DAB2     		uxtb	r2, r3
 3484 012e 034B     		ldr	r3, .L221+4
 3485 0130 1A70     		strb	r2, [r3]
 3486              	.L211:
3364:Generated_Source\PSoC4/BLE_1_eventHandler.c ****     }
3365:Generated_Source\PSoC4/BLE_1_eventHandler.c **** }
 3487              		.loc 1 3365 0
 3488 0132 BD46     		mov	sp, r7
 3489 0134 0AB0     		add	sp, sp, #40
 3490              		@ sp needed
 3491 0136 80BD     		pop	{r7, pc}
 3492              	.L222:
 3493              		.align	2
 3494              	.L221:
 3495 0138 00000000 		.word	cyBle_clientState
 3496 013c 00000000 		.word	cyBle_eventHandlerFlag
 3497 0140 00000000 		.word	cyBle_disCount
 3498              		.cfi_endproc
 3499              	.LFE22:
 3500              		.size	CyBle_FindInfoEventHandler, .-CyBle_FindInfoEventHandler
 3501              		.section	.text.CyBle_NextCharDscrDiscovery,"ax",%progbits
 3502              		.align	2
 3503              		.global	CyBle_NextCharDscrDiscovery
 3504              		.code	16
 3505              		.thumb_func
 3506              		.type	CyBle_NextCharDscrDiscovery, %function
 3507              	CyBle_NextCharDscrDiscovery:
 3508              	.LFB23:
3366:Generated_Source\PSoC4/BLE_1_eventHandler.c **** 
3367:Generated_Source\PSoC4/BLE_1_eventHandler.c **** 
3368:Generated_Source\PSoC4/BLE_1_eventHandler.c **** /****************************************************************************** 
ARM GAS  C:\Users\Sarah\AppData\Local\Temp\ccqSJLdk.s 			page 123


3369:Generated_Source\PSoC4/BLE_1_eventHandler.c **** * Function Name: CyBle_NextCharDscrDiscovery
3370:Generated_Source\PSoC4/BLE_1_eventHandler.c **** ***************************************************************************//**
3371:Generated_Source\PSoC4/BLE_1_eventHandler.c **** *  Looks for a handle range for the current descriptor (pointed by
3372:Generated_Source\PSoC4/BLE_1_eventHandler.c **** *   cyBle_disCount). If the current range is invalid (any of start or end
3373:Generated_Source\PSoC4/BLE_1_eventHandler.c **** *   handles is invalid), then increment the cyBle_disCount and check
3374:Generated_Source\PSoC4/BLE_1_eventHandler.c **** *   the next descriptor range and does so until a valid range is caught or the 
3375:Generated_Source\PSoC4/BLE_1_eventHandler.c **** *   end of the descriptor set is reached.
3376:Generated_Source\PSoC4/BLE_1_eventHandler.c **** * 
3377:Generated_Source\PSoC4/BLE_1_eventHandler.c **** *  \param incrementIndex: Not zero value indicates that characteristic index should be 
3378:Generated_Source\PSoC4/BLE_1_eventHandler.c **** *                         incremented.
3379:Generated_Source\PSoC4/BLE_1_eventHandler.c **** * 
3380:Generated_Source\PSoC4/BLE_1_eventHandler.c **** * \return
3381:Generated_Source\PSoC4/BLE_1_eventHandler.c **** *  None.
3382:Generated_Source\PSoC4/BLE_1_eventHandler.c **** * 
3383:Generated_Source\PSoC4/BLE_1_eventHandler.c **** ******************************************************************************/
3384:Generated_Source\PSoC4/BLE_1_eventHandler.c **** void CyBle_NextCharDscrDiscovery(uint8 incrementIndex)
3385:Generated_Source\PSoC4/BLE_1_eventHandler.c **** {
 3509              		.loc 1 3385 0
 3510              		.cfi_startproc
 3511 0000 80B5     		push	{r7, lr}
 3512              		.cfi_def_cfa_offset 8
 3513              		.cfi_offset 7, -8
 3514              		.cfi_offset 14, -4
 3515 0002 84B0     		sub	sp, sp, #16
 3516              		.cfi_def_cfa_offset 24
 3517 0004 00AF     		add	r7, sp, #0
 3518              		.cfi_def_cfa_register 7
 3519 0006 021C     		mov	r2, r0
 3520 0008 FB1D     		add	r3, r7, #7
 3521 000a 1A70     		strb	r2, [r3]
3386:Generated_Source\PSoC4/BLE_1_eventHandler.c ****     CYBLE_GATTC_FIND_INFO_REQ_T charRange = {CYBLE_GATT_INVALID_ATTR_HANDLE_VALUE, CYBLE_GATT_INVAL
 3522              		.loc 1 3386 0
 3523 000c 0C23     		mov	r3, #12
 3524 000e FB18     		add	r3, r7, r3
 3525 0010 0022     		mov	r2, #0
 3526 0012 1A80     		strh	r2, [r3]
 3527 0014 0C23     		mov	r3, #12
 3528 0016 FB18     		add	r3, r7, r3
 3529 0018 0022     		mov	r2, #0
 3530 001a 5A80     		strh	r2, [r3, #2]
 3531              	.L231:
3387:Generated_Source\PSoC4/BLE_1_eventHandler.c **** 
3388:Generated_Source\PSoC4/BLE_1_eventHandler.c ****     do
3389:Generated_Source\PSoC4/BLE_1_eventHandler.c ****     {
3390:Generated_Source\PSoC4/BLE_1_eventHandler.c ****     #ifdef CYBLE_CUSTOM_CLIENT
3391:Generated_Source\PSoC4/BLE_1_eventHandler.c ****         /* Do not increment main index until custom service is discovered */
3392:Generated_Source\PSoC4/BLE_1_eventHandler.c ****         if(cyBle_disCount != ((uint8)CYBLE_SCDI_CUSTOM_CHARACTERISTICS))
 3532              		.loc 1 3392 0
 3533 001c 494B     		ldr	r3, .L235
 3534 001e 1B78     		ldrb	r3, [r3]
 3535 0020 012B     		cmp	r3, #1
 3536 0022 17D0     		beq	.L224
3393:Generated_Source\PSoC4/BLE_1_eventHandler.c ****     #endif /* CYBLE_CUSTOM_CLIENT */
3394:Generated_Source\PSoC4/BLE_1_eventHandler.c ****         {
3395:Generated_Source\PSoC4/BLE_1_eventHandler.c ****             if(incrementIndex != CYBLE_DISCOVERY_INIT)
 3537              		.loc 1 3395 0
 3538 0024 FB1D     		add	r3, r7, #7
ARM GAS  C:\Users\Sarah\AppData\Local\Temp\ccqSJLdk.s 			page 124


 3539 0026 1B78     		ldrb	r3, [r3]
 3540 0028 002B     		cmp	r3, #0
 3541 002a 0DD0     		beq	.L225
3396:Generated_Source\PSoC4/BLE_1_eventHandler.c ****             {
3397:Generated_Source\PSoC4/BLE_1_eventHandler.c ****             #ifdef CYBLE_HIDS_CLIENT
3398:Generated_Source\PSoC4/BLE_1_eventHandler.c ****                 #if(CYBLE_HIDSC_SERVICE_COUNT > 1u)
3399:Generated_Source\PSoC4/BLE_1_eventHandler.c ****                     if((cyBle_disCount == CYBLE_SCDI_HIDS_REPORT_END) && 
3400:Generated_Source\PSoC4/BLE_1_eventHandler.c ****                        (disServiceIndex < (CYBLE_HIDSC_SERVICE_COUNT - 1u)))
3401:Generated_Source\PSoC4/BLE_1_eventHandler.c ****                     {
3402:Generated_Source\PSoC4/BLE_1_eventHandler.c ****                         disServiceIndex++;      /* Discover descriptors for next HID service */
3403:Generated_Source\PSoC4/BLE_1_eventHandler.c ****                         /* Set characteristic index to first characteristic of HID service */
3404:Generated_Source\PSoC4/BLE_1_eventHandler.c ****                         cyBle_disCount = CYBLE_SCDI_HIDS_REPORT_MAP;
3405:Generated_Source\PSoC4/BLE_1_eventHandler.c ****                     }
3406:Generated_Source\PSoC4/BLE_1_eventHandler.c ****                     else
3407:Generated_Source\PSoC4/BLE_1_eventHandler.c ****                     {
3408:Generated_Source\PSoC4/BLE_1_eventHandler.c ****                         cyBle_disCount++;
3409:Generated_Source\PSoC4/BLE_1_eventHandler.c ****                     }
3410:Generated_Source\PSoC4/BLE_1_eventHandler.c ****                 #else
3411:Generated_Source\PSoC4/BLE_1_eventHandler.c ****                     cyBle_disCount++;
3412:Generated_Source\PSoC4/BLE_1_eventHandler.c ****                 #endif /* CYBLE_HIDSC_SERVICE_COUNT > 1u) */
3413:Generated_Source\PSoC4/BLE_1_eventHandler.c ****             #else
3414:Generated_Source\PSoC4/BLE_1_eventHandler.c ****                 cyBle_disCount++;
 3542              		.loc 1 3414 0
 3543 002c 454B     		ldr	r3, .L235
 3544 002e 1B78     		ldrb	r3, [r3]
 3545 0030 0133     		add	r3, r3, #1
 3546 0032 DAB2     		uxtb	r2, r3
 3547 0034 434B     		ldr	r3, .L235
 3548 0036 1A70     		strb	r2, [r3]
3415:Generated_Source\PSoC4/BLE_1_eventHandler.c ****             #endif /* CYBLE_HIDS_CLIENT */
3416:Generated_Source\PSoC4/BLE_1_eventHandler.c ****             #ifdef CYBLE_CUSTOM_CLIENT
3417:Generated_Source\PSoC4/BLE_1_eventHandler.c ****                 if(cyBle_disCount == ((uint8)CYBLE_SCDI_CUSTOM_CHARACTERISTICS))
 3549              		.loc 1 3417 0
 3550 0038 424B     		ldr	r3, .L235
 3551 003a 1B78     		ldrb	r3, [r3]
 3552 003c 012B     		cmp	r3, #1
 3553 003e 09D1     		bne	.L224
3418:Generated_Source\PSoC4/BLE_1_eventHandler.c ****                 {   /* Start descriptors discovery for custom service */
3419:Generated_Source\PSoC4/BLE_1_eventHandler.c ****                     incrementIndex = CYBLE_DISCOVERY_INIT;
 3554              		.loc 1 3419 0
 3555 0040 FB1D     		add	r3, r7, #7
 3556 0042 0022     		mov	r2, #0
 3557 0044 1A70     		strb	r2, [r3]
 3558 0046 05E0     		b	.L224
 3559              	.L225:
3420:Generated_Source\PSoC4/BLE_1_eventHandler.c ****                 }
3421:Generated_Source\PSoC4/BLE_1_eventHandler.c ****             #endif /* CYBLE_CUSTOM_CLIENT */
3422:Generated_Source\PSoC4/BLE_1_eventHandler.c ****             }
3423:Generated_Source\PSoC4/BLE_1_eventHandler.c ****             else    /* Increment index in following loop */
3424:Generated_Source\PSoC4/BLE_1_eventHandler.c ****             {
3425:Generated_Source\PSoC4/BLE_1_eventHandler.c ****                 cyBle_disCount = 0u;
 3560              		.loc 1 3425 0
 3561 0048 3E4B     		ldr	r3, .L235
 3562 004a 0022     		mov	r2, #0
 3563 004c 1A70     		strb	r2, [r3]
3426:Generated_Source\PSoC4/BLE_1_eventHandler.c ****                 incrementIndex = 1u;
 3564              		.loc 1 3426 0
ARM GAS  C:\Users\Sarah\AppData\Local\Temp\ccqSJLdk.s 			page 125


 3565 004e FB1D     		add	r3, r7, #7
 3566 0050 0122     		mov	r2, #1
 3567 0052 1A70     		strb	r2, [r3]
 3568              	.L224:
3427:Generated_Source\PSoC4/BLE_1_eventHandler.c ****             }
3428:Generated_Source\PSoC4/BLE_1_eventHandler.c ****         }
3429:Generated_Source\PSoC4/BLE_1_eventHandler.c ****     #ifdef CYBLE_CUSTOM_CLIENT
3430:Generated_Source\PSoC4/BLE_1_eventHandler.c ****         if(cyBle_disCount == ((uint8)CYBLE_SCDI_CUSTOM_CHARACTERISTICS))
 3569              		.loc 1 3430 0
 3570 0054 3B4B     		ldr	r3, .L235
 3571 0056 1B78     		ldrb	r3, [r3]
 3572 0058 012B     		cmp	r3, #1
 3573 005a 0CD1     		bne	.L227
3431:Generated_Source\PSoC4/BLE_1_eventHandler.c ****         {
3432:Generated_Source\PSoC4/BLE_1_eventHandler.c ****             charRange = CyBle_CustomcGetCharRange(incrementIndex);
 3574              		.loc 1 3432 0
 3575 005c FB1D     		add	r3, r7, #7
 3576 005e 1B78     		ldrb	r3, [r3]
 3577 0060 181C     		mov	r0, r3
 3578 0062 FFF7FEFF 		bl	CyBle_CustomcGetCharRange
 3579 0066 031C     		mov	r3, r0
 3580 0068 1A1C     		mov	r2, r3
 3581 006a 0C23     		mov	r3, #12
 3582 006c FB18     		add	r3, r7, r3
 3583 006e 1A60     		str	r2, [r3]
3433:Generated_Source\PSoC4/BLE_1_eventHandler.c ****             incrementIndex = CYBLE_DISCOVERY_CONTINUE;
 3584              		.loc 1 3433 0
 3585 0070 FB1D     		add	r3, r7, #7
 3586 0072 0122     		mov	r2, #1
 3587 0074 1A70     		strb	r2, [r3]
 3588              	.L227:
3434:Generated_Source\PSoC4/BLE_1_eventHandler.c ****         }
3435:Generated_Source\PSoC4/BLE_1_eventHandler.c ****         /* When custom service is done cyBle_disCount will be incremented */
3436:Generated_Source\PSoC4/BLE_1_eventHandler.c ****         if(cyBle_disCount != ((uint8)CYBLE_SCDI_CUSTOM_CHARACTERISTICS))
 3589              		.loc 1 3436 0
 3590 0076 334B     		ldr	r3, .L235
 3591 0078 1B78     		ldrb	r3, [r3]
 3592 007a 012B     		cmp	r3, #1
 3593 007c 06D0     		beq	.L228
3437:Generated_Source\PSoC4/BLE_1_eventHandler.c ****     #endif /* CYBLE_CUSTOM_CLIENT */
3438:Generated_Source\PSoC4/BLE_1_eventHandler.c ****         {
3439:Generated_Source\PSoC4/BLE_1_eventHandler.c ****             charRange = CyBle_GetCharRange();
 3594              		.loc 1 3439 0
 3595 007e FFF7FEFF 		bl	CyBle_GetCharRange
 3596 0082 031C     		mov	r3, r0
 3597 0084 1A1C     		mov	r2, r3
 3598 0086 0C23     		mov	r3, #12
 3599 0088 FB18     		add	r3, r7, r3
 3600 008a 1A60     		str	r2, [r3]
 3601              	.L228:
3440:Generated_Source\PSoC4/BLE_1_eventHandler.c ****         }
3441:Generated_Source\PSoC4/BLE_1_eventHandler.c ****     /* Skip not existing characteristics and characteristics out of discovery range */
3442:Generated_Source\PSoC4/BLE_1_eventHandler.c ****     }while(((charRange.startHandle <= cyBle_gattcDiscoveryRange.startHandle) || 
 3602              		.loc 1 3442 0
 3603 008c 0C23     		mov	r3, #12
 3604 008e FB18     		add	r3, r7, r3
 3605 0090 1A88     		ldrh	r2, [r3]
ARM GAS  C:\Users\Sarah\AppData\Local\Temp\ccqSJLdk.s 			page 126


 3606 0092 2D4B     		ldr	r3, .L235+4
 3607 0094 1B88     		ldrh	r3, [r3]
3443:Generated_Source\PSoC4/BLE_1_eventHandler.c ****             (charRange.startHandle > cyBle_gattcDiscoveryRange.endHandle) ||
3444:Generated_Source\PSoC4/BLE_1_eventHandler.c ****             (charRange.endHandle < cyBle_gattcDiscoveryRange.startHandle) ||
3445:Generated_Source\PSoC4/BLE_1_eventHandler.c ****             (charRange.startHandle > charRange.endHandle)) && (cyBle_disCount < (uint8) CYBLE_SCDI_
 3608              		.loc 1 3445 0
 3609 0096 9A42     		cmp	r2, r3
 3610 0098 15D9     		bls	.L229
3443:Generated_Source\PSoC4/BLE_1_eventHandler.c ****             (charRange.startHandle > cyBle_gattcDiscoveryRange.endHandle) ||
 3611              		.loc 1 3443 0
 3612 009a 0C23     		mov	r3, #12
 3613 009c FB18     		add	r3, r7, r3
 3614 009e 1A88     		ldrh	r2, [r3]
 3615 00a0 294B     		ldr	r3, .L235+4
 3616 00a2 5B88     		ldrh	r3, [r3, #2]
3442:Generated_Source\PSoC4/BLE_1_eventHandler.c ****             (charRange.startHandle > cyBle_gattcDiscoveryRange.endHandle) ||
 3617              		.loc 1 3442 0
 3618 00a4 9A42     		cmp	r2, r3
 3619 00a6 0ED8     		bhi	.L229
3444:Generated_Source\PSoC4/BLE_1_eventHandler.c ****             (charRange.startHandle > charRange.endHandle)) && (cyBle_disCount < (uint8) CYBLE_SCDI_
 3620              		.loc 1 3444 0
 3621 00a8 0C23     		mov	r3, #12
 3622 00aa FB18     		add	r3, r7, r3
 3623 00ac 5A88     		ldrh	r2, [r3, #2]
 3624 00ae 264B     		ldr	r3, .L235+4
 3625 00b0 1B88     		ldrh	r3, [r3]
3443:Generated_Source\PSoC4/BLE_1_eventHandler.c ****             (charRange.startHandle > cyBle_gattcDiscoveryRange.endHandle) ||
 3626              		.loc 1 3443 0
 3627 00b2 9A42     		cmp	r2, r3
 3628 00b4 07D3     		bcc	.L229
 3629              		.loc 1 3445 0
 3630 00b6 0C23     		mov	r3, #12
 3631 00b8 FB18     		add	r3, r7, r3
 3632 00ba 1A88     		ldrh	r2, [r3]
 3633 00bc 0C23     		mov	r3, #12
 3634 00be FB18     		add	r3, r7, r3
 3635 00c0 5B88     		ldrh	r3, [r3, #2]
3444:Generated_Source\PSoC4/BLE_1_eventHandler.c ****             (charRange.startHandle > charRange.endHandle)) && (cyBle_disCount < (uint8) CYBLE_SCDI_
 3636              		.loc 1 3444 0
 3637 00c2 9A42     		cmp	r2, r3
 3638 00c4 03D9     		bls	.L230
 3639              	.L229:
 3640              		.loc 1 3445 0 discriminator 1
 3641 00c6 1F4B     		ldr	r3, .L235
 3642 00c8 1B78     		ldrb	r3, [r3]
 3643 00ca 012B     		cmp	r3, #1
 3644 00cc A6D9     		bls	.L231
 3645              	.L230:
3446:Generated_Source\PSoC4/BLE_1_eventHandler.c **** 
3447:Generated_Source\PSoC4/BLE_1_eventHandler.c ****     if(cyBle_disCount < (uint8) CYBLE_SCDI_COUNT)
 3646              		.loc 1 3447 0
 3647 00ce 1D4B     		ldr	r3, .L235
 3648 00d0 1B78     		ldrb	r3, [r3]
 3649 00d2 012B     		cmp	r3, #1
 3650 00d4 21D8     		bhi	.L232
3448:Generated_Source\PSoC4/BLE_1_eventHandler.c ****     {
3449:Generated_Source\PSoC4/BLE_1_eventHandler.c ****         if(CYBLE_ERROR_OK != CyBle_GattcDiscoverAllCharacteristicDescriptors(cyBle_connHandle, &cha
ARM GAS  C:\Users\Sarah\AppData\Local\Temp\ccqSJLdk.s 			page 127


 3651              		.loc 1 3449 0
 3652 00d6 1D4B     		ldr	r3, .L235+8
 3653 00d8 0C22     		mov	r2, #12
 3654 00da B918     		add	r1, r7, r2
 3655 00dc 1A78     		ldrb	r2, [r3]
 3656 00de 5B78     		ldrb	r3, [r3, #1]
 3657 00e0 1B02     		lsl	r3, r3, #8
 3658 00e2 1A43     		orr	r2, r3
 3659 00e4 0023     		mov	r3, #0
 3660 00e6 1204     		lsl	r2, r2, #16
 3661 00e8 120C     		lsr	r2, r2, #16
 3662 00ea 1B0C     		lsr	r3, r3, #16
 3663 00ec 1B04     		lsl	r3, r3, #16
 3664 00ee 1343     		orr	r3, r2
 3665 00f0 181C     		mov	r0, r3
 3666 00f2 FFF7FEFF 		bl	CyBle_GattcDiscoverAllCharacteristicDescriptors
 3667 00f6 031E     		sub	r3, r0, #0
 3668 00f8 21D0     		beq	.L223
3450:Generated_Source\PSoC4/BLE_1_eventHandler.c ****         {
3451:Generated_Source\PSoC4/BLE_1_eventHandler.c ****             CyBle_ApplCallback(CYBLE_EVT_GATTC_DESCR_DISCOVERY_FAILED, NULL);
 3669              		.loc 1 3451 0
 3670 00fa 154B     		ldr	r3, .L235+12
 3671 00fc 1B68     		ldr	r3, [r3]
 3672 00fe 8522     		mov	r2, #133
 3673 0100 5200     		lsl	r2, r2, #1
 3674 0102 101C     		mov	r0, r2
 3675 0104 0021     		mov	r1, #0
 3676 0106 9847     		blx	r3
3452:Generated_Source\PSoC4/BLE_1_eventHandler.c ****             cyBle_eventHandlerFlag &= (uint8)~CYBLE_AUTO_DISCOVERY;
 3677              		.loc 1 3452 0
 3678 0108 124B     		ldr	r3, .L235+16
 3679 010a 1B78     		ldrb	r3, [r3]
 3680 010c DBB2     		uxtb	r3, r3
 3681 010e 0222     		mov	r2, #2
 3682 0110 9343     		bic	r3, r2
 3683 0112 DAB2     		uxtb	r2, r3
 3684 0114 0F4B     		ldr	r3, .L235+16
 3685 0116 1A70     		strb	r2, [r3]
 3686 0118 11E0     		b	.L223
 3687              	.L232:
3453:Generated_Source\PSoC4/BLE_1_eventHandler.c ****         }
3454:Generated_Source\PSoC4/BLE_1_eventHandler.c ****     }
3455:Generated_Source\PSoC4/BLE_1_eventHandler.c ****     else /* Discovery done */
3456:Generated_Source\PSoC4/BLE_1_eventHandler.c ****     {
3457:Generated_Source\PSoC4/BLE_1_eventHandler.c ****         CyBle_SetClientState(CYBLE_CLIENT_STATE_DISCOVERED);
 3688              		.loc 1 3457 0
 3689 011a 0F4B     		ldr	r3, .L235+20
 3690 011c 0522     		mov	r2, #5
 3691 011e 1A70     		strb	r2, [r3]
3458:Generated_Source\PSoC4/BLE_1_eventHandler.c ****         CyBle_ApplCallback(CYBLE_EVT_GATTC_DISCOVERY_COMPLETE, NULL);
 3692              		.loc 1 3458 0
 3693 0120 0B4B     		ldr	r3, .L235+12
 3694 0122 1B68     		ldr	r3, [r3]
 3695 0124 1222     		mov	r2, #18
 3696 0126 FF32     		add	r2, r2, #255
 3697 0128 101C     		mov	r0, r2
 3698 012a 0021     		mov	r1, #0
ARM GAS  C:\Users\Sarah\AppData\Local\Temp\ccqSJLdk.s 			page 128


 3699 012c 9847     		blx	r3
3459:Generated_Source\PSoC4/BLE_1_eventHandler.c ****         cyBle_eventHandlerFlag &= (uint8)~CYBLE_AUTO_DISCOVERY;
 3700              		.loc 1 3459 0
 3701 012e 094B     		ldr	r3, .L235+16
 3702 0130 1B78     		ldrb	r3, [r3]
 3703 0132 DBB2     		uxtb	r3, r3
 3704 0134 0222     		mov	r2, #2
 3705 0136 9343     		bic	r3, r2
 3706 0138 DAB2     		uxtb	r2, r3
 3707 013a 064B     		ldr	r3, .L235+16
 3708 013c 1A70     		strb	r2, [r3]
 3709              	.L223:
3460:Generated_Source\PSoC4/BLE_1_eventHandler.c ****     }
3461:Generated_Source\PSoC4/BLE_1_eventHandler.c **** }
 3710              		.loc 1 3461 0
 3711 013e BD46     		mov	sp, r7
 3712 0140 04B0     		add	sp, sp, #16
 3713              		@ sp needed
 3714 0142 80BD     		pop	{r7, pc}
 3715              	.L236:
 3716              		.align	2
 3717              	.L235:
 3718 0144 00000000 		.word	cyBle_disCount
 3719 0148 00000000 		.word	cyBle_gattcDiscoveryRange
 3720 014c 00000000 		.word	cyBle_connHandle
 3721 0150 00000000 		.word	CyBle_ApplCallback
 3722 0154 00000000 		.word	cyBle_eventHandlerFlag
 3723 0158 00000000 		.word	cyBle_clientState
 3724              		.cfi_endproc
 3725              	.LFE23:
 3726              		.size	CyBle_NextCharDscrDiscovery, .-CyBle_NextCharDscrDiscovery
 3727              		.section	.text.CyBle_LongProcedureEndEventHandler,"ax",%progbits
 3728              		.align	2
 3729              		.global	CyBle_LongProcedureEndEventHandler
 3730              		.code	16
 3731              		.thumb_func
 3732              		.type	CyBle_LongProcedureEndEventHandler, %function
 3733              	CyBle_LongProcedureEndEventHandler:
 3734              	.LFB24:
3462:Generated_Source\PSoC4/BLE_1_eventHandler.c **** 
3463:Generated_Source\PSoC4/BLE_1_eventHandler.c **** 
3464:Generated_Source\PSoC4/BLE_1_eventHandler.c **** /****************************************************************************** 
3465:Generated_Source\PSoC4/BLE_1_eventHandler.c **** * Function Name: CyBle_LongProcedureEndEventHandler
3466:Generated_Source\PSoC4/BLE_1_eventHandler.c **** ***************************************************************************//**
3467:Generated_Source\PSoC4/BLE_1_eventHandler.c **** * 
3468:Generated_Source\PSoC4/BLE_1_eventHandler.c **** *  Handles the Long Procedure End Event during an automatic server discovery
3469:Generated_Source\PSoC4/BLE_1_eventHandler.c **** *  process.
3470:Generated_Source\PSoC4/BLE_1_eventHandler.c **** * 
3471:Generated_Source\PSoC4/BLE_1_eventHandler.c **** *   \param eventParam:  the event parameters for an Error Response
3472:Generated_Source\PSoC4/BLE_1_eventHandler.c **** * 
3473:Generated_Source\PSoC4/BLE_1_eventHandler.c **** * \return
3474:Generated_Source\PSoC4/BLE_1_eventHandler.c **** *  None
3475:Generated_Source\PSoC4/BLE_1_eventHandler.c **** * 
3476:Generated_Source\PSoC4/BLE_1_eventHandler.c **** ******************************************************************************/
3477:Generated_Source\PSoC4/BLE_1_eventHandler.c **** void CyBle_LongProcedureEndEventHandler(void)
3478:Generated_Source\PSoC4/BLE_1_eventHandler.c **** {
 3735              		.loc 1 3478 0
ARM GAS  C:\Users\Sarah\AppData\Local\Temp\ccqSJLdk.s 			page 129


 3736              		.cfi_startproc
 3737 0000 80B5     		push	{r7, lr}
 3738              		.cfi_def_cfa_offset 8
 3739              		.cfi_offset 7, -8
 3740              		.cfi_offset 14, -4
 3741 0002 00AF     		add	r7, sp, #0
 3742              		.cfi_def_cfa_register 7
3479:Generated_Source\PSoC4/BLE_1_eventHandler.c ****     if((cyBle_eventHandlerFlag & CYBLE_AUTO_DISCOVERY) != 0u)
 3743              		.loc 1 3479 0
 3744 0004 244B     		ldr	r3, .L245
 3745 0006 1B78     		ldrb	r3, [r3]
 3746 0008 DBB2     		uxtb	r3, r3
 3747 000a 1A1C     		mov	r2, r3
 3748 000c 0223     		mov	r3, #2
 3749 000e 1340     		and	r3, r2
 3750 0010 3FD0     		beq	.L237
3480:Generated_Source\PSoC4/BLE_1_eventHandler.c ****     {
3481:Generated_Source\PSoC4/BLE_1_eventHandler.c ****         switch(CyBle_GetClientState())
 3751              		.loc 1 3481 0
 3752 0012 224B     		ldr	r3, .L245+4
 3753 0014 1B78     		ldrb	r3, [r3]
 3754 0016 022B     		cmp	r3, #2
 3755 0018 17D0     		beq	.L240
 3756 001a 02DC     		bgt	.L241
 3757 001c 012B     		cmp	r3, #1
 3758 001e 05D0     		beq	.L242
3482:Generated_Source\PSoC4/BLE_1_eventHandler.c ****         {
3483:Generated_Source\PSoC4/BLE_1_eventHandler.c ****         case CYBLE_CLIENT_STATE_SRVC_DISCOVERING:
3484:Generated_Source\PSoC4/BLE_1_eventHandler.c ****         #if(CYBLE_STACK_MODE_DEBUG)
3485:Generated_Source\PSoC4/BLE_1_eventHandler.c ****             CyBle_ApplCallback(CYBLE_EVT_GATTC_SRVC_DISCOVERY_COMPLETE, NULL);
3486:Generated_Source\PSoC4/BLE_1_eventHandler.c ****         #endif /* CYBLE_STACK_MODE_DEBUG */            
3487:Generated_Source\PSoC4/BLE_1_eventHandler.c ****             CyBle_SetClientState(CYBLE_CLIENT_STATE_INCL_DISCOVERING);
3488:Generated_Source\PSoC4/BLE_1_eventHandler.c ****             CyBle_NextInclDiscovery(CYBLE_DISCOVERY_INIT);
3489:Generated_Source\PSoC4/BLE_1_eventHandler.c ****             /* Do not propagate this event to application level during automatic discovery procedur
3490:Generated_Source\PSoC4/BLE_1_eventHandler.c ****             cyBle_eventHandlerFlag &= (uint8)~CYBLE_CALLBACK;
3491:Generated_Source\PSoC4/BLE_1_eventHandler.c ****             break;
3492:Generated_Source\PSoC4/BLE_1_eventHandler.c **** 
3493:Generated_Source\PSoC4/BLE_1_eventHandler.c ****         case CYBLE_CLIENT_STATE_INCL_DISCOVERING:
3494:Generated_Source\PSoC4/BLE_1_eventHandler.c ****             CyBle_NextInclDiscovery(CYBLE_DISCOVERY_CONTINUE);
3495:Generated_Source\PSoC4/BLE_1_eventHandler.c ****             cyBle_eventHandlerFlag &= (uint8)~CYBLE_CALLBACK;
3496:Generated_Source\PSoC4/BLE_1_eventHandler.c ****             break;
3497:Generated_Source\PSoC4/BLE_1_eventHandler.c **** 
3498:Generated_Source\PSoC4/BLE_1_eventHandler.c ****         case CYBLE_CLIENT_STATE_CHAR_DISCOVERING:
3499:Generated_Source\PSoC4/BLE_1_eventHandler.c ****             CyBle_NextCharDiscovery(CYBLE_DISCOVERY_CONTINUE);
3500:Generated_Source\PSoC4/BLE_1_eventHandler.c ****             cyBle_eventHandlerFlag &= (uint8)~CYBLE_CALLBACK;
3501:Generated_Source\PSoC4/BLE_1_eventHandler.c ****             break;
3502:Generated_Source\PSoC4/BLE_1_eventHandler.c **** 
3503:Generated_Source\PSoC4/BLE_1_eventHandler.c ****         case CYBLE_CLIENT_STATE_DESCR_DISCOVERING:
3504:Generated_Source\PSoC4/BLE_1_eventHandler.c ****             CyBle_NextCharDscrDiscovery(CYBLE_DISCOVERY_CONTINUE);
3505:Generated_Source\PSoC4/BLE_1_eventHandler.c ****             cyBle_eventHandlerFlag &= (uint8)~CYBLE_CALLBACK;
3506:Generated_Source\PSoC4/BLE_1_eventHandler.c ****             break;
3507:Generated_Source\PSoC4/BLE_1_eventHandler.c ****             
3508:Generated_Source\PSoC4/BLE_1_eventHandler.c ****         default:
3509:Generated_Source\PSoC4/BLE_1_eventHandler.c ****             break;
 3759              		.loc 1 3509 0
 3760 0020 37E0     		b	.L237
 3761              	.L241:
ARM GAS  C:\Users\Sarah\AppData\Local\Temp\ccqSJLdk.s 			page 130


3481:Generated_Source\PSoC4/BLE_1_eventHandler.c ****         {
 3762              		.loc 1 3481 0
 3763 0022 032B     		cmp	r3, #3
 3764 0024 1DD0     		beq	.L243
 3765 0026 042B     		cmp	r3, #4
 3766 0028 27D0     		beq	.L244
 3767              		.loc 1 3509 0
 3768 002a 32E0     		b	.L237
 3769              	.L242:
3487:Generated_Source\PSoC4/BLE_1_eventHandler.c ****             CyBle_NextInclDiscovery(CYBLE_DISCOVERY_INIT);
 3770              		.loc 1 3487 0
 3771 002c 1B4B     		ldr	r3, .L245+4
 3772 002e 0222     		mov	r2, #2
 3773 0030 1A70     		strb	r2, [r3]
3488:Generated_Source\PSoC4/BLE_1_eventHandler.c ****             /* Do not propagate this event to application level during automatic discovery procedur
 3774              		.loc 1 3488 0
 3775 0032 0020     		mov	r0, #0
 3776 0034 FFF7FEFF 		bl	CyBle_NextInclDiscovery
3490:Generated_Source\PSoC4/BLE_1_eventHandler.c ****             break;
 3777              		.loc 1 3490 0
 3778 0038 174B     		ldr	r3, .L245
 3779 003a 1B78     		ldrb	r3, [r3]
 3780 003c DBB2     		uxtb	r3, r3
 3781 003e 0122     		mov	r2, #1
 3782 0040 9343     		bic	r3, r2
 3783 0042 DAB2     		uxtb	r2, r3
 3784 0044 144B     		ldr	r3, .L245
 3785 0046 1A70     		strb	r2, [r3]
3491:Generated_Source\PSoC4/BLE_1_eventHandler.c **** 
 3786              		.loc 1 3491 0
 3787 0048 23E0     		b	.L237
 3788              	.L240:
3494:Generated_Source\PSoC4/BLE_1_eventHandler.c ****             cyBle_eventHandlerFlag &= (uint8)~CYBLE_CALLBACK;
 3789              		.loc 1 3494 0
 3790 004a 0120     		mov	r0, #1
 3791 004c FFF7FEFF 		bl	CyBle_NextInclDiscovery
3495:Generated_Source\PSoC4/BLE_1_eventHandler.c ****             break;
 3792              		.loc 1 3495 0
 3793 0050 114B     		ldr	r3, .L245
 3794 0052 1B78     		ldrb	r3, [r3]
 3795 0054 DBB2     		uxtb	r3, r3
 3796 0056 0122     		mov	r2, #1
 3797 0058 9343     		bic	r3, r2
 3798 005a DAB2     		uxtb	r2, r3
 3799 005c 0E4B     		ldr	r3, .L245
 3800 005e 1A70     		strb	r2, [r3]
3496:Generated_Source\PSoC4/BLE_1_eventHandler.c **** 
 3801              		.loc 1 3496 0
 3802 0060 17E0     		b	.L237
 3803              	.L243:
3499:Generated_Source\PSoC4/BLE_1_eventHandler.c ****             cyBle_eventHandlerFlag &= (uint8)~CYBLE_CALLBACK;
 3804              		.loc 1 3499 0
 3805 0062 0120     		mov	r0, #1
 3806 0064 FFF7FEFF 		bl	CyBle_NextCharDiscovery
3500:Generated_Source\PSoC4/BLE_1_eventHandler.c ****             break;
 3807              		.loc 1 3500 0
 3808 0068 0B4B     		ldr	r3, .L245
ARM GAS  C:\Users\Sarah\AppData\Local\Temp\ccqSJLdk.s 			page 131


 3809 006a 1B78     		ldrb	r3, [r3]
 3810 006c DBB2     		uxtb	r3, r3
 3811 006e 0122     		mov	r2, #1
 3812 0070 9343     		bic	r3, r2
 3813 0072 DAB2     		uxtb	r2, r3
 3814 0074 084B     		ldr	r3, .L245
 3815 0076 1A70     		strb	r2, [r3]
3501:Generated_Source\PSoC4/BLE_1_eventHandler.c **** 
 3816              		.loc 1 3501 0
 3817 0078 0BE0     		b	.L237
 3818              	.L244:
3504:Generated_Source\PSoC4/BLE_1_eventHandler.c ****             cyBle_eventHandlerFlag &= (uint8)~CYBLE_CALLBACK;
 3819              		.loc 1 3504 0
 3820 007a 0120     		mov	r0, #1
 3821 007c FFF7FEFF 		bl	CyBle_NextCharDscrDiscovery
3505:Generated_Source\PSoC4/BLE_1_eventHandler.c ****             break;
 3822              		.loc 1 3505 0
 3823 0080 054B     		ldr	r3, .L245
 3824 0082 1B78     		ldrb	r3, [r3]
 3825 0084 DBB2     		uxtb	r3, r3
 3826 0086 0122     		mov	r2, #1
 3827 0088 9343     		bic	r3, r2
 3828 008a DAB2     		uxtb	r2, r3
 3829 008c 024B     		ldr	r3, .L245
 3830 008e 1A70     		strb	r2, [r3]
3506:Generated_Source\PSoC4/BLE_1_eventHandler.c ****             
 3831              		.loc 1 3506 0
 3832 0090 C046     		mov	r8, r8
 3833              	.L237:
3510:Generated_Source\PSoC4/BLE_1_eventHandler.c ****         }
3511:Generated_Source\PSoC4/BLE_1_eventHandler.c ****     }
3512:Generated_Source\PSoC4/BLE_1_eventHandler.c **** }
 3834              		.loc 1 3512 0
 3835 0092 BD46     		mov	sp, r7
 3836              		@ sp needed
 3837 0094 80BD     		pop	{r7, pc}
 3838              	.L246:
 3839 0096 C046     		.align	2
 3840              	.L245:
 3841 0098 00000000 		.word	cyBle_eventHandlerFlag
 3842 009c 00000000 		.word	cyBle_clientState
 3843              		.cfi_endproc
 3844              	.LFE24:
 3845              		.size	CyBle_LongProcedureEndEventHandler, .-CyBle_LongProcedureEndEventHandler
 3846              		.section	.text.CyBle_ErrorResponseEventHandler,"ax",%progbits
 3847              		.align	2
 3848              		.global	CyBle_ErrorResponseEventHandler
 3849              		.code	16
 3850              		.thumb_func
 3851              		.type	CyBle_ErrorResponseEventHandler, %function
 3852              	CyBle_ErrorResponseEventHandler:
 3853              	.LFB25:
3513:Generated_Source\PSoC4/BLE_1_eventHandler.c **** 
3514:Generated_Source\PSoC4/BLE_1_eventHandler.c **** 
3515:Generated_Source\PSoC4/BLE_1_eventHandler.c **** /****************************************************************************** 
3516:Generated_Source\PSoC4/BLE_1_eventHandler.c **** * Function Name: CyBle_ErrorResponseEventHandler
3517:Generated_Source\PSoC4/BLE_1_eventHandler.c **** ***************************************************************************//**
ARM GAS  C:\Users\Sarah\AppData\Local\Temp\ccqSJLdk.s 			page 132


3518:Generated_Source\PSoC4/BLE_1_eventHandler.c **** * 
3519:Generated_Source\PSoC4/BLE_1_eventHandler.c **** *  Handles the Error Response Event during an automatic server discovery
3520:Generated_Source\PSoC4/BLE_1_eventHandler.c **** *  process.
3521:Generated_Source\PSoC4/BLE_1_eventHandler.c **** * 
3522:Generated_Source\PSoC4/BLE_1_eventHandler.c **** *   \param eventParam:  the event parameters for an Error Response
3523:Generated_Source\PSoC4/BLE_1_eventHandler.c **** * 
3524:Generated_Source\PSoC4/BLE_1_eventHandler.c **** * \return
3525:Generated_Source\PSoC4/BLE_1_eventHandler.c **** *  None
3526:Generated_Source\PSoC4/BLE_1_eventHandler.c **** * 
3527:Generated_Source\PSoC4/BLE_1_eventHandler.c **** ******************************************************************************/
3528:Generated_Source\PSoC4/BLE_1_eventHandler.c **** void CyBle_ErrorResponseEventHandler(const CYBLE_GATTC_ERR_RSP_PARAM_T *eventParam)
3529:Generated_Source\PSoC4/BLE_1_eventHandler.c **** {
 3854              		.loc 1 3529 0
 3855              		.cfi_startproc
 3856 0000 80B5     		push	{r7, lr}
 3857              		.cfi_def_cfa_offset 8
 3858              		.cfi_offset 7, -8
 3859              		.cfi_offset 14, -4
 3860 0002 82B0     		sub	sp, sp, #8
 3861              		.cfi_def_cfa_offset 16
 3862 0004 00AF     		add	r7, sp, #0
 3863              		.cfi_def_cfa_register 7
 3864 0006 7860     		str	r0, [r7, #4]
3530:Generated_Source\PSoC4/BLE_1_eventHandler.c ****     if(((cyBle_eventHandlerFlag & CYBLE_AUTO_DISCOVERY) != 0u) &&
 3865              		.loc 1 3530 0
 3866 0008 074B     		ldr	r3, .L249
 3867 000a 1B78     		ldrb	r3, [r3]
 3868 000c DBB2     		uxtb	r3, r3
 3869 000e 1A1C     		mov	r2, r3
 3870 0010 0223     		mov	r3, #2
 3871 0012 1340     		and	r3, r2
 3872 0014 05D0     		beq	.L247
3531:Generated_Source\PSoC4/BLE_1_eventHandler.c ****         (eventParam->errorCode == CYBLE_GATT_ERR_ATTRIBUTE_NOT_FOUND))
 3873              		.loc 1 3531 0 discriminator 1
 3874 0016 7B68     		ldr	r3, [r7, #4]
 3875 0018 9B79     		ldrb	r3, [r3, #6]
3530:Generated_Source\PSoC4/BLE_1_eventHandler.c ****     if(((cyBle_eventHandlerFlag & CYBLE_AUTO_DISCOVERY) != 0u) &&
 3876              		.loc 1 3530 0 discriminator 1
 3877 001a 0A2B     		cmp	r3, #10
 3878 001c 01D1     		bne	.L247
3532:Generated_Source\PSoC4/BLE_1_eventHandler.c ****     {
3533:Generated_Source\PSoC4/BLE_1_eventHandler.c ****         CyBle_LongProcedureEndEventHandler();
 3879              		.loc 1 3533 0
 3880 001e FFF7FEFF 		bl	CyBle_LongProcedureEndEventHandler
 3881              	.L247:
3534:Generated_Source\PSoC4/BLE_1_eventHandler.c ****     }
3535:Generated_Source\PSoC4/BLE_1_eventHandler.c ****     else
3536:Generated_Source\PSoC4/BLE_1_eventHandler.c ****     {
3537:Generated_Source\PSoC4/BLE_1_eventHandler.c ****         #ifdef CYBLE_ANCS_CLIENT
3538:Generated_Source\PSoC4/BLE_1_eventHandler.c ****             CyBle_AncscErrorResponseEventHandler(eventParam);
3539:Generated_Source\PSoC4/BLE_1_eventHandler.c ****         #endif /* CYBLE_ANCS_CLIENT */    
3540:Generated_Source\PSoC4/BLE_1_eventHandler.c ****         #ifdef CYBLE_ANS_CLIENT
3541:Generated_Source\PSoC4/BLE_1_eventHandler.c ****             if((cyBle_eventHandlerFlag & CYBLE_CALLBACK) != 0u)
3542:Generated_Source\PSoC4/BLE_1_eventHandler.c ****             {
3543:Generated_Source\PSoC4/BLE_1_eventHandler.c ****                 CyBle_AnscErrorResponseEventHandler(eventParam);
3544:Generated_Source\PSoC4/BLE_1_eventHandler.c ****             }
3545:Generated_Source\PSoC4/BLE_1_eventHandler.c ****         #endif /* CYBLE_ANS_CLIENT */
ARM GAS  C:\Users\Sarah\AppData\Local\Temp\ccqSJLdk.s 			page 133


3546:Generated_Source\PSoC4/BLE_1_eventHandler.c ****         #ifdef CYBLE_BAS_CLIENT
3547:Generated_Source\PSoC4/BLE_1_eventHandler.c ****             if((cyBle_eventHandlerFlag & CYBLE_CALLBACK) != 0u)
3548:Generated_Source\PSoC4/BLE_1_eventHandler.c ****             {
3549:Generated_Source\PSoC4/BLE_1_eventHandler.c ****                 CyBle_BascErrorResponseEventHandler(eventParam);
3550:Generated_Source\PSoC4/BLE_1_eventHandler.c ****             }
3551:Generated_Source\PSoC4/BLE_1_eventHandler.c ****         #endif /* CYBLE_BAS_CLIENT */
3552:Generated_Source\PSoC4/BLE_1_eventHandler.c ****         #ifdef CYBLE_BLS_CLIENT
3553:Generated_Source\PSoC4/BLE_1_eventHandler.c ****             if((cyBle_eventHandlerFlag & CYBLE_CALLBACK) != 0u)
3554:Generated_Source\PSoC4/BLE_1_eventHandler.c ****             {
3555:Generated_Source\PSoC4/BLE_1_eventHandler.c ****                 CyBle_BlscErrorResponseEventHandler(eventParam);
3556:Generated_Source\PSoC4/BLE_1_eventHandler.c ****             }
3557:Generated_Source\PSoC4/BLE_1_eventHandler.c ****         #endif /* CYBLE_BLS_CLIENT */
3558:Generated_Source\PSoC4/BLE_1_eventHandler.c ****         #ifdef CYBLE_BMS_CLIENT
3559:Generated_Source\PSoC4/BLE_1_eventHandler.c ****             if((cyBle_eventHandlerFlag & CYBLE_CALLBACK) != 0u)
3560:Generated_Source\PSoC4/BLE_1_eventHandler.c ****             {
3561:Generated_Source\PSoC4/BLE_1_eventHandler.c ****                 CyBle_BmscErrorResponseEventHandler(eventParam);
3562:Generated_Source\PSoC4/BLE_1_eventHandler.c ****             }
3563:Generated_Source\PSoC4/BLE_1_eventHandler.c ****         #endif /* CYBLE_BMS_CLIENT */
3564:Generated_Source\PSoC4/BLE_1_eventHandler.c ****         #ifdef CYBLE_CGMS_CLIENT
3565:Generated_Source\PSoC4/BLE_1_eventHandler.c ****             if((cyBle_eventHandlerFlag & CYBLE_CALLBACK) != 0u)
3566:Generated_Source\PSoC4/BLE_1_eventHandler.c ****             {
3567:Generated_Source\PSoC4/BLE_1_eventHandler.c ****                 CyBle_CgmscErrorResponseEventHandler(eventParam);
3568:Generated_Source\PSoC4/BLE_1_eventHandler.c ****             }
3569:Generated_Source\PSoC4/BLE_1_eventHandler.c ****         #endif /* CYBLE_CGMS_CLIENT */
3570:Generated_Source\PSoC4/BLE_1_eventHandler.c ****         #ifdef CYBLE_CPS_CLIENT
3571:Generated_Source\PSoC4/BLE_1_eventHandler.c ****             if((cyBle_eventHandlerFlag & CYBLE_CALLBACK) != 0u)
3572:Generated_Source\PSoC4/BLE_1_eventHandler.c ****             {
3573:Generated_Source\PSoC4/BLE_1_eventHandler.c ****                 CyBle_CpscErrorResponseEventHandler(eventParam);
3574:Generated_Source\PSoC4/BLE_1_eventHandler.c ****             }
3575:Generated_Source\PSoC4/BLE_1_eventHandler.c ****         #endif /* CYBLE_CPS_CLIENT */
3576:Generated_Source\PSoC4/BLE_1_eventHandler.c ****         #ifdef CYBLE_CSCS_CLIENT
3577:Generated_Source\PSoC4/BLE_1_eventHandler.c ****             if((cyBle_eventHandlerFlag & CYBLE_CALLBACK) != 0u)
3578:Generated_Source\PSoC4/BLE_1_eventHandler.c ****             {
3579:Generated_Source\PSoC4/BLE_1_eventHandler.c ****                 CyBle_CscscErrorResponseEventHandler(eventParam);
3580:Generated_Source\PSoC4/BLE_1_eventHandler.c ****             }
3581:Generated_Source\PSoC4/BLE_1_eventHandler.c ****         #endif /* CYBLE_CSCS_CLIENT */
3582:Generated_Source\PSoC4/BLE_1_eventHandler.c ****         #ifdef CYBLE_CTS_CLIENT
3583:Generated_Source\PSoC4/BLE_1_eventHandler.c ****             if((cyBle_eventHandlerFlag & CYBLE_CALLBACK) != 0u)
3584:Generated_Source\PSoC4/BLE_1_eventHandler.c ****             {
3585:Generated_Source\PSoC4/BLE_1_eventHandler.c ****                 CyBle_CtscErrorResponseEventHandler(eventParam);
3586:Generated_Source\PSoC4/BLE_1_eventHandler.c ****             }
3587:Generated_Source\PSoC4/BLE_1_eventHandler.c ****         #endif /* CYBLE_CTS_CLIENT */
3588:Generated_Source\PSoC4/BLE_1_eventHandler.c ****         #ifdef CYBLE_DIS_CLIENT
3589:Generated_Source\PSoC4/BLE_1_eventHandler.c ****             if((cyBle_eventHandlerFlag & CYBLE_CALLBACK) != 0u)
3590:Generated_Source\PSoC4/BLE_1_eventHandler.c ****             {
3591:Generated_Source\PSoC4/BLE_1_eventHandler.c ****                 CyBle_DiscErrorResponseEventHandler(eventParam);
3592:Generated_Source\PSoC4/BLE_1_eventHandler.c ****             }
3593:Generated_Source\PSoC4/BLE_1_eventHandler.c ****         #endif /* CYBLE_DIS_CLIENT */
3594:Generated_Source\PSoC4/BLE_1_eventHandler.c ****         #ifdef CYBLE_ESS_CLIENT
3595:Generated_Source\PSoC4/BLE_1_eventHandler.c ****             if((cyBle_eventHandlerFlag & CYBLE_CALLBACK) != 0u)
3596:Generated_Source\PSoC4/BLE_1_eventHandler.c ****             {
3597:Generated_Source\PSoC4/BLE_1_eventHandler.c ****                 CyBle_EsscErrorResponseEventHandler(eventParam);
3598:Generated_Source\PSoC4/BLE_1_eventHandler.c ****             }
3599:Generated_Source\PSoC4/BLE_1_eventHandler.c ****         #endif /* CYBLE_ESS_CLIENT */
3600:Generated_Source\PSoC4/BLE_1_eventHandler.c ****         #ifdef CYBLE_GLS_CLIENT
3601:Generated_Source\PSoC4/BLE_1_eventHandler.c ****             if((cyBle_eventHandlerFlag & CYBLE_CALLBACK) != 0u)
3602:Generated_Source\PSoC4/BLE_1_eventHandler.c ****             {
ARM GAS  C:\Users\Sarah\AppData\Local\Temp\ccqSJLdk.s 			page 134


3603:Generated_Source\PSoC4/BLE_1_eventHandler.c ****                 CyBle_GlscErrorResponseEventHandler(eventParam);
3604:Generated_Source\PSoC4/BLE_1_eventHandler.c ****             }
3605:Generated_Source\PSoC4/BLE_1_eventHandler.c ****         #endif /* CYBLE_GLS_CLIENT */
3606:Generated_Source\PSoC4/BLE_1_eventHandler.c ****         #ifdef CYBLE_HIDS_CLIENT
3607:Generated_Source\PSoC4/BLE_1_eventHandler.c ****             if((cyBle_eventHandlerFlag & CYBLE_CALLBACK) != 0u)
3608:Generated_Source\PSoC4/BLE_1_eventHandler.c ****             {
3609:Generated_Source\PSoC4/BLE_1_eventHandler.c ****                 CyBle_HidscErrorResponseEventHandler(eventParam);
3610:Generated_Source\PSoC4/BLE_1_eventHandler.c ****             }
3611:Generated_Source\PSoC4/BLE_1_eventHandler.c ****         #endif /* CYBLE_HIDS_CLIENT */
3612:Generated_Source\PSoC4/BLE_1_eventHandler.c ****         #ifdef CYBLE_HPS_CLIENT
3613:Generated_Source\PSoC4/BLE_1_eventHandler.c ****             if((cyBle_eventHandlerFlag & CYBLE_CALLBACK) != 0u)
3614:Generated_Source\PSoC4/BLE_1_eventHandler.c ****             {
3615:Generated_Source\PSoC4/BLE_1_eventHandler.c ****                 CyBle_HpscErrorResponseEventHandler(eventParam);
3616:Generated_Source\PSoC4/BLE_1_eventHandler.c ****             }
3617:Generated_Source\PSoC4/BLE_1_eventHandler.c ****         #endif /* CYBLE_HPS_CLIENT */
3618:Generated_Source\PSoC4/BLE_1_eventHandler.c ****         #ifdef CYBLE_HRS_CLIENT
3619:Generated_Source\PSoC4/BLE_1_eventHandler.c ****             if((cyBle_eventHandlerFlag & CYBLE_CALLBACK) != 0u)
3620:Generated_Source\PSoC4/BLE_1_eventHandler.c ****             {
3621:Generated_Source\PSoC4/BLE_1_eventHandler.c ****                 CyBle_HrscErrorResponseEventHandler(eventParam);
3622:Generated_Source\PSoC4/BLE_1_eventHandler.c ****             }
3623:Generated_Source\PSoC4/BLE_1_eventHandler.c ****         #endif /* CYBLE_HRS_CLIENT */
3624:Generated_Source\PSoC4/BLE_1_eventHandler.c ****         #ifdef CYBLE_HTS_CLIENT
3625:Generated_Source\PSoC4/BLE_1_eventHandler.c ****             if((cyBle_eventHandlerFlag & CYBLE_CALLBACK) != 0u)
3626:Generated_Source\PSoC4/BLE_1_eventHandler.c ****             {
3627:Generated_Source\PSoC4/BLE_1_eventHandler.c ****                 CyBle_HtscErrorResponseEventHandler(eventParam);
3628:Generated_Source\PSoC4/BLE_1_eventHandler.c ****             }
3629:Generated_Source\PSoC4/BLE_1_eventHandler.c ****         #endif /* CYBLE_HTS_CLIENT */
3630:Generated_Source\PSoC4/BLE_1_eventHandler.c ****         #ifdef CYBLE_IPS_CLIENT
3631:Generated_Source\PSoC4/BLE_1_eventHandler.c ****             if((cyBle_eventHandlerFlag & CYBLE_CALLBACK) != 0u)
3632:Generated_Source\PSoC4/BLE_1_eventHandler.c ****             {
3633:Generated_Source\PSoC4/BLE_1_eventHandler.c ****                 CyBle_IpscErrorResponseEventHandler(eventParam);
3634:Generated_Source\PSoC4/BLE_1_eventHandler.c ****             }
3635:Generated_Source\PSoC4/BLE_1_eventHandler.c ****         #endif /* CYBLE_IPS_CLIENT */
3636:Generated_Source\PSoC4/BLE_1_eventHandler.c ****         #ifdef CYBLE_RSCS_CLIENT
3637:Generated_Source\PSoC4/BLE_1_eventHandler.c ****             if((cyBle_eventHandlerFlag & CYBLE_CALLBACK) != 0u)
3638:Generated_Source\PSoC4/BLE_1_eventHandler.c ****             {
3639:Generated_Source\PSoC4/BLE_1_eventHandler.c ****                 CyBle_RscscErrorResponseEventHandler(eventParam);
3640:Generated_Source\PSoC4/BLE_1_eventHandler.c ****             }
3641:Generated_Source\PSoC4/BLE_1_eventHandler.c ****         #endif /* CYBLE_RSCS_CLIENT */
3642:Generated_Source\PSoC4/BLE_1_eventHandler.c ****         #ifdef CYBLE_SCPS_CLIENT
3643:Generated_Source\PSoC4/BLE_1_eventHandler.c ****             if((cyBle_eventHandlerFlag & CYBLE_CALLBACK) != 0u)
3644:Generated_Source\PSoC4/BLE_1_eventHandler.c ****             {
3645:Generated_Source\PSoC4/BLE_1_eventHandler.c ****                 CyBle_ScpscErrorResponseEventHandler(eventParam);
3646:Generated_Source\PSoC4/BLE_1_eventHandler.c ****             }
3647:Generated_Source\PSoC4/BLE_1_eventHandler.c ****         #endif /* CYBLE_SCPS_CLIENT */
3648:Generated_Source\PSoC4/BLE_1_eventHandler.c ****         #ifdef CYBLE_LLS_CLIENT
3649:Generated_Source\PSoC4/BLE_1_eventHandler.c ****             if((cyBle_eventHandlerFlag & CYBLE_CALLBACK) != 0u)
3650:Generated_Source\PSoC4/BLE_1_eventHandler.c ****             {
3651:Generated_Source\PSoC4/BLE_1_eventHandler.c ****                 CyBle_LlscErrorResponseEventHandler(eventParam);
3652:Generated_Source\PSoC4/BLE_1_eventHandler.c ****             }
3653:Generated_Source\PSoC4/BLE_1_eventHandler.c ****         #endif /* CYBLE_LLS_CLIENT */
3654:Generated_Source\PSoC4/BLE_1_eventHandler.c ****         #ifdef CYBLE_LNS_CLIENT
3655:Generated_Source\PSoC4/BLE_1_eventHandler.c ****             if((cyBle_eventHandlerFlag & CYBLE_CALLBACK) != 0u)
3656:Generated_Source\PSoC4/BLE_1_eventHandler.c ****             {
3657:Generated_Source\PSoC4/BLE_1_eventHandler.c ****                 CyBle_LnscErrorResponseEventHandler(eventParam);
3658:Generated_Source\PSoC4/BLE_1_eventHandler.c ****             }
3659:Generated_Source\PSoC4/BLE_1_eventHandler.c ****         #endif /* CYBLE_LNS_CLIENT */
ARM GAS  C:\Users\Sarah\AppData\Local\Temp\ccqSJLdk.s 			page 135


3660:Generated_Source\PSoC4/BLE_1_eventHandler.c ****         #ifdef CYBLE_PASS_CLIENT
3661:Generated_Source\PSoC4/BLE_1_eventHandler.c ****             if((cyBle_eventHandlerFlag & CYBLE_CALLBACK) != 0u)
3662:Generated_Source\PSoC4/BLE_1_eventHandler.c ****             {
3663:Generated_Source\PSoC4/BLE_1_eventHandler.c ****                 CyBle_PasscErrorResponseEventHandler(eventParam);
3664:Generated_Source\PSoC4/BLE_1_eventHandler.c ****             }
3665:Generated_Source\PSoC4/BLE_1_eventHandler.c ****         #endif /* CYBLE_PASS_CLIENT */
3666:Generated_Source\PSoC4/BLE_1_eventHandler.c ****         #ifdef CYBLE_TPS_CLIENT
3667:Generated_Source\PSoC4/BLE_1_eventHandler.c ****             if((cyBle_eventHandlerFlag & CYBLE_CALLBACK) != 0u)
3668:Generated_Source\PSoC4/BLE_1_eventHandler.c ****             {
3669:Generated_Source\PSoC4/BLE_1_eventHandler.c ****                 CyBle_TpscErrorResponseEventHandler(eventParam);
3670:Generated_Source\PSoC4/BLE_1_eventHandler.c ****             }
3671:Generated_Source\PSoC4/BLE_1_eventHandler.c ****         #endif /* CYBLE_TPS_CLIENT */
3672:Generated_Source\PSoC4/BLE_1_eventHandler.c ****         #ifdef CYBLE_UDS_CLIENT
3673:Generated_Source\PSoC4/BLE_1_eventHandler.c ****             if((cyBle_eventHandlerFlag & CYBLE_CALLBACK) != 0u)
3674:Generated_Source\PSoC4/BLE_1_eventHandler.c ****             {
3675:Generated_Source\PSoC4/BLE_1_eventHandler.c ****                 CyBle_UdscErrorResponseEventHandler(eventParam);
3676:Generated_Source\PSoC4/BLE_1_eventHandler.c ****             }
3677:Generated_Source\PSoC4/BLE_1_eventHandler.c ****         #endif /* CYBLE_UDS_CLIENT */
3678:Generated_Source\PSoC4/BLE_1_eventHandler.c ****         #ifdef CYBLE_WPTS_CLIENT
3679:Generated_Source\PSoC4/BLE_1_eventHandler.c ****             if((cyBle_eventHandlerFlag & CYBLE_CALLBACK) != 0u)
3680:Generated_Source\PSoC4/BLE_1_eventHandler.c ****             {
3681:Generated_Source\PSoC4/BLE_1_eventHandler.c ****                 CyBle_WptscErrorResponseEventHandler(eventParam);
3682:Generated_Source\PSoC4/BLE_1_eventHandler.c ****             }
3683:Generated_Source\PSoC4/BLE_1_eventHandler.c ****         #endif /* CYBLE_WPTS_CLIENT */
3684:Generated_Source\PSoC4/BLE_1_eventHandler.c ****         #ifdef CYBLE_WSS_CLIENT
3685:Generated_Source\PSoC4/BLE_1_eventHandler.c ****             if((cyBle_eventHandlerFlag & CYBLE_CALLBACK) != 0u)
3686:Generated_Source\PSoC4/BLE_1_eventHandler.c ****             {
3687:Generated_Source\PSoC4/BLE_1_eventHandler.c ****                 CyBle_WsscErrorResponseEventHandler(eventParam);
3688:Generated_Source\PSoC4/BLE_1_eventHandler.c ****             }
3689:Generated_Source\PSoC4/BLE_1_eventHandler.c ****         #endif /* CYBLE_WSS_CLIENT */
3690:Generated_Source\PSoC4/BLE_1_eventHandler.c ****     }
3691:Generated_Source\PSoC4/BLE_1_eventHandler.c **** }
 3882              		.loc 1 3691 0
 3883 0022 BD46     		mov	sp, r7
 3884 0024 02B0     		add	sp, sp, #8
 3885              		@ sp needed
 3886 0026 80BD     		pop	{r7, pc}
 3887              	.L250:
 3888              		.align	2
 3889              	.L249:
 3890 0028 00000000 		.word	cyBle_eventHandlerFlag
 3891              		.cfi_endproc
 3892              	.LFE25:
 3893              		.size	CyBle_ErrorResponseEventHandler, .-CyBle_ErrorResponseEventHandler
 3894              		.bss
 3895              		.align	2
 3896              	gPrepWriteReqMem.6598:
 3897 0018 00000000 		.space	8
 3897      00000000 
 3898              		.text
 3899              	.Letext0:
 3900              		.file 2 "Generated_Source\\PSoC4\\cytypes.h"
 3901              		.file 3 "Generated_Source\\PSoC4\\BLE_1_Stack.h"
 3902              		.file 4 "Generated_Source\\PSoC4\\BLE_1_StackHostMain.h"
 3903              		.file 5 "Generated_Source\\PSoC4\\BLE_1_StackGap.h"
 3904              		.file 6 "Generated_Source\\PSoC4\\BLE_1_StackGatt.h"
 3905              		.file 7 "Generated_Source\\PSoC4\\BLE_1_StackGattServer.h"
ARM GAS  C:\Users\Sarah\AppData\Local\Temp\ccqSJLdk.s 			page 136


 3906              		.file 8 "Generated_Source\\PSoC4\\BLE_1_StackGattClient.h"
 3907              		.file 9 "Generated_Source\\PSoC4\\BLE_1.h"
 3908              		.file 10 "Generated_Source\\PSoC4\\BLE_1_gatt.h"
 3909              		.file 11 "Generated_Source\\PSoC4\\BLE_1_eventHandler.h"
 3910              		.section	.debug_info,"",%progbits
 3911              	.Ldebug_info0:
 3912 0000 051E0000 		.4byte	0x1e05
 3913 0004 0400     		.2byte	0x4
 3914 0006 00000000 		.4byte	.Ldebug_abbrev0
 3915 000a 04       		.byte	0x4
 3916 000b 01       		.uleb128 0x1
 3917 000c B33B0000 		.4byte	.LASF703
 3918 0010 01       		.byte	0x1
 3919 0011 3D380000 		.4byte	.LASF704
 3920 0015 8F390000 		.4byte	.LASF705
 3921 0019 00000000 		.4byte	.Ldebug_ranges0+0
 3922 001d 00000000 		.4byte	0
 3923 0021 00000000 		.4byte	.Ldebug_line0
 3924 0025 02       		.uleb128 0x2
 3925 0026 01       		.byte	0x1
 3926 0027 06       		.byte	0x6
 3927 0028 63110000 		.4byte	.LASF0
 3928 002c 02       		.uleb128 0x2
 3929 002d 01       		.byte	0x1
 3930 002e 08       		.byte	0x8
 3931 002f 1F130000 		.4byte	.LASF1
 3932 0033 02       		.uleb128 0x2
 3933 0034 02       		.byte	0x2
 3934 0035 05       		.byte	0x5
 3935 0036 50420000 		.4byte	.LASF2
 3936 003a 02       		.uleb128 0x2
 3937 003b 02       		.byte	0x2
 3938 003c 07       		.byte	0x7
 3939 003d A64B0000 		.4byte	.LASF3
 3940 0041 02       		.uleb128 0x2
 3941 0042 04       		.byte	0x4
 3942 0043 05       		.byte	0x5
 3943 0044 5A0D0000 		.4byte	.LASF4
 3944 0048 02       		.uleb128 0x2
 3945 0049 04       		.byte	0x4
 3946 004a 07       		.byte	0x7
 3947 004b 98220000 		.4byte	.LASF5
 3948 004f 02       		.uleb128 0x2
 3949 0050 08       		.byte	0x8
 3950 0051 05       		.byte	0x5
 3951 0052 46290000 		.4byte	.LASF6
 3952 0056 02       		.uleb128 0x2
 3953 0057 08       		.byte	0x8
 3954 0058 07       		.byte	0x7
 3955 0059 08380000 		.4byte	.LASF7
 3956 005d 03       		.uleb128 0x3
 3957 005e 04       		.byte	0x4
 3958 005f 05       		.byte	0x5
 3959 0060 696E7400 		.ascii	"int\000"
 3960 0064 02       		.uleb128 0x2
 3961 0065 04       		.byte	0x4
 3962 0066 07       		.byte	0x7
ARM GAS  C:\Users\Sarah\AppData\Local\Temp\ccqSJLdk.s 			page 137


 3963 0067 A32E0000 		.4byte	.LASF8
 3964 006b 04       		.uleb128 0x4
 3965 006c 90410000 		.4byte	.LASF9
 3966 0070 02       		.byte	0x2
 3967 0071 B901     		.2byte	0x1b9
 3968 0073 2C000000 		.4byte	0x2c
 3969 0077 04       		.uleb128 0x4
 3970 0078 CE4E0000 		.4byte	.LASF10
 3971 007c 02       		.byte	0x2
 3972 007d BA01     		.2byte	0x1ba
 3973 007f 3A000000 		.4byte	0x3a
 3974 0083 04       		.uleb128 0x4
 3975 0084 AC030000 		.4byte	.LASF11
 3976 0088 02       		.byte	0x2
 3977 0089 BB01     		.2byte	0x1bb
 3978 008b 48000000 		.4byte	0x48
 3979 008f 02       		.uleb128 0x2
 3980 0090 04       		.byte	0x4
 3981 0091 04       		.byte	0x4
 3982 0092 032D0000 		.4byte	.LASF12
 3983 0096 02       		.uleb128 0x2
 3984 0097 08       		.byte	0x8
 3985 0098 04       		.byte	0x4
 3986 0099 A72A0000 		.4byte	.LASF13
 3987 009d 02       		.uleb128 0x2
 3988 009e 01       		.byte	0x1
 3989 009f 08       		.byte	0x8
 3990 00a0 21160000 		.4byte	.LASF14
 3991 00a4 05       		.uleb128 0x5
 3992 00a5 6B000000 		.4byte	0x6b
 3993 00a9 02       		.uleb128 0x2
 3994 00aa 04       		.byte	0x4
 3995 00ab 07       		.byte	0x7
 3996 00ac D1000000 		.4byte	.LASF15
 3997 00b0 06       		.uleb128 0x6
 3998 00b1 04       		.byte	0x4
 3999 00b2 07       		.uleb128 0x7
 4000 00b3 04       		.byte	0x4
 4001 00b4 B8000000 		.4byte	0xb8
 4002 00b8 08       		.uleb128 0x8
 4003 00b9 C8000000 		.4byte	0xc8
 4004 00bd 09       		.uleb128 0x9
 4005 00be 83000000 		.4byte	0x83
 4006 00c2 09       		.uleb128 0x9
 4007 00c3 B0000000 		.4byte	0xb0
 4008 00c7 00       		.byte	0
 4009 00c8 0A       		.uleb128 0xa
 4010 00c9 01       		.byte	0x1
 4011 00ca 03       		.byte	0x3
 4012 00cb 3101     		.2byte	0x131
 4013 00cd 97020000 		.4byte	0x297
 4014 00d1 0B       		.uleb128 0xb
 4015 00d2 24170000 		.4byte	.LASF16
 4016 00d6 00       		.sleb128 0
 4017 00d7 0B       		.uleb128 0xb
 4018 00d8 5B0E0000 		.4byte	.LASF17
 4019 00dc 01       		.sleb128 1
ARM GAS  C:\Users\Sarah\AppData\Local\Temp\ccqSJLdk.s 			page 138


 4020 00dd 0B       		.uleb128 0xb
 4021 00de 69380000 		.4byte	.LASF18
 4022 00e2 02       		.sleb128 2
 4023 00e3 0B       		.uleb128 0xb
 4024 00e4 0E120000 		.4byte	.LASF19
 4025 00e8 03       		.sleb128 3
 4026 00e9 0B       		.uleb128 0xb
 4027 00ea D84C0000 		.4byte	.LASF20
 4028 00ee 04       		.sleb128 4
 4029 00ef 0B       		.uleb128 0xb
 4030 00f0 88490000 		.4byte	.LASF21
 4031 00f4 05       		.sleb128 5
 4032 00f5 0B       		.uleb128 0xb
 4033 00f6 C5340000 		.4byte	.LASF22
 4034 00fa 06       		.sleb128 6
 4035 00fb 0B       		.uleb128 0xb
 4036 00fc C9440000 		.4byte	.LASF23
 4037 0100 20       		.sleb128 32
 4038 0101 0B       		.uleb128 0xb
 4039 0102 4C090000 		.4byte	.LASF24
 4040 0106 21       		.sleb128 33
 4041 0107 0B       		.uleb128 0xb
 4042 0108 79270000 		.4byte	.LASF25
 4043 010c 22       		.sleb128 34
 4044 010d 0B       		.uleb128 0xb
 4045 010e 88320000 		.4byte	.LASF26
 4046 0112 23       		.sleb128 35
 4047 0113 0B       		.uleb128 0xb
 4048 0114 ED200000 		.4byte	.LASF27
 4049 0118 24       		.sleb128 36
 4050 0119 0B       		.uleb128 0xb
 4051 011a 6D210000 		.4byte	.LASF28
 4052 011e 25       		.sleb128 37
 4053 011f 0B       		.uleb128 0xb
 4054 0120 BF400000 		.4byte	.LASF29
 4055 0124 26       		.sleb128 38
 4056 0125 0B       		.uleb128 0xb
 4057 0126 0A030000 		.4byte	.LASF30
 4058 012a 27       		.sleb128 39
 4059 012b 0B       		.uleb128 0xb
 4060 012c 1C4E0000 		.4byte	.LASF31
 4061 0130 28       		.sleb128 40
 4062 0131 0B       		.uleb128 0xb
 4063 0132 97350000 		.4byte	.LASF32
 4064 0136 29       		.sleb128 41
 4065 0137 0B       		.uleb128 0xb
 4066 0138 17260000 		.4byte	.LASF33
 4067 013c 2A       		.sleb128 42
 4068 013d 0B       		.uleb128 0xb
 4069 013e 7A310000 		.4byte	.LASF34
 4070 0142 2B       		.sleb128 43
 4071 0143 0B       		.uleb128 0xb
 4072 0144 214A0000 		.4byte	.LASF35
 4073 0148 2C       		.sleb128 44
 4074 0149 0B       		.uleb128 0xb
 4075 014a C3010000 		.4byte	.LASF36
 4076 014e 2D       		.sleb128 45
ARM GAS  C:\Users\Sarah\AppData\Local\Temp\ccqSJLdk.s 			page 139


 4077 014f 0B       		.uleb128 0xb
 4078 0150 C7410000 		.4byte	.LASF37
 4079 0154 2E       		.sleb128 46
 4080 0155 0B       		.uleb128 0xb
 4081 0156 CA0A0000 		.4byte	.LASF38
 4082 015a 2F       		.sleb128 47
 4083 015b 0B       		.uleb128 0xb
 4084 015c DB150000 		.4byte	.LASF39
 4085 0160 30       		.sleb128 48
 4086 0161 0B       		.uleb128 0xb
 4087 0162 E12B0000 		.4byte	.LASF40
 4088 0166 31       		.sleb128 49
 4089 0167 0B       		.uleb128 0xb
 4090 0168 74170000 		.4byte	.LASF41
 4091 016c 32       		.sleb128 50
 4092 016d 0B       		.uleb128 0xb
 4093 016e 62140000 		.4byte	.LASF42
 4094 0172 33       		.sleb128 51
 4095 0173 0B       		.uleb128 0xb
 4096 0174 89140000 		.4byte	.LASF43
 4097 0178 34       		.sleb128 52
 4098 0179 0B       		.uleb128 0xb
 4099 017a 79460000 		.4byte	.LASF44
 4100 017e 35       		.sleb128 53
 4101 017f 0B       		.uleb128 0xb
 4102 0180 5F0A0000 		.4byte	.LASF45
 4103 0184 36       		.sleb128 54
 4104 0185 0B       		.uleb128 0xb
 4105 0186 3C430000 		.4byte	.LASF46
 4106 018a C000     		.sleb128 64
 4107 018c 0B       		.uleb128 0xb
 4108 018d 4A030000 		.4byte	.LASF47
 4109 0191 C100     		.sleb128 65
 4110 0193 0B       		.uleb128 0xb
 4111 0194 ED4C0000 		.4byte	.LASF48
 4112 0198 C200     		.sleb128 66
 4113 019a 0B       		.uleb128 0xb
 4114 019b 30360000 		.4byte	.LASF49
 4115 019f C300     		.sleb128 67
 4116 01a1 0B       		.uleb128 0xb
 4117 01a2 2D130000 		.4byte	.LASF50
 4118 01a6 C400     		.sleb128 68
 4119 01a8 0B       		.uleb128 0xb
 4120 01a9 8F120000 		.4byte	.LASF51
 4121 01ad C500     		.sleb128 69
 4122 01af 0B       		.uleb128 0xb
 4123 01b0 0E3E0000 		.4byte	.LASF52
 4124 01b4 C600     		.sleb128 70
 4125 01b6 0B       		.uleb128 0xb
 4126 01b7 F03D0000 		.4byte	.LASF53
 4127 01bb C700     		.sleb128 71
 4128 01bd 0B       		.uleb128 0xb
 4129 01be 8F150000 		.4byte	.LASF54
 4130 01c2 C800     		.sleb128 72
 4131 01c4 0B       		.uleb128 0xb
 4132 01c5 FD320000 		.4byte	.LASF55
 4133 01c9 C900     		.sleb128 73
ARM GAS  C:\Users\Sarah\AppData\Local\Temp\ccqSJLdk.s 			page 140


 4134 01cb 0B       		.uleb128 0xb
 4135 01cc EE170000 		.4byte	.LASF56
 4136 01d0 CA00     		.sleb128 74
 4137 01d2 0B       		.uleb128 0xb
 4138 01d3 97160000 		.4byte	.LASF57
 4139 01d7 CB00     		.sleb128 75
 4140 01d9 0B       		.uleb128 0xb
 4141 01da 18320000 		.4byte	.LASF58
 4142 01de CC00     		.sleb128 76
 4143 01e0 0B       		.uleb128 0xb
 4144 01e1 B93F0000 		.4byte	.LASF59
 4145 01e5 CD00     		.sleb128 77
 4146 01e7 0B       		.uleb128 0xb
 4147 01e8 D40C0000 		.4byte	.LASF60
 4148 01ec CE00     		.sleb128 78
 4149 01ee 0B       		.uleb128 0xb
 4150 01ef B02E0000 		.4byte	.LASF61
 4151 01f3 CF00     		.sleb128 79
 4152 01f5 0B       		.uleb128 0xb
 4153 01f6 AA440000 		.4byte	.LASF62
 4154 01fa D000     		.sleb128 80
 4155 01fc 0B       		.uleb128 0xb
 4156 01fd 77180000 		.4byte	.LASF63
 4157 0201 D100     		.sleb128 81
 4158 0203 0B       		.uleb128 0xb
 4159 0204 2B090000 		.4byte	.LASF64
 4160 0208 D200     		.sleb128 82
 4161 020a 0B       		.uleb128 0xb
 4162 020b FE480000 		.4byte	.LASF65
 4163 020f D300     		.sleb128 83
 4164 0211 0B       		.uleb128 0xb
 4165 0212 5E4E0000 		.4byte	.LASF66
 4166 0216 D400     		.sleb128 84
 4167 0218 0B       		.uleb128 0xb
 4168 0219 F3060000 		.4byte	.LASF67
 4169 021d D500     		.sleb128 85
 4170 021f 0B       		.uleb128 0xb
 4171 0220 E7190000 		.4byte	.LASF68
 4172 0224 D600     		.sleb128 86
 4173 0226 0B       		.uleb128 0xb
 4174 0227 AF2D0000 		.4byte	.LASF69
 4175 022b D700     		.sleb128 87
 4176 022d 0B       		.uleb128 0xb
 4177 022e DD4D0000 		.4byte	.LASF70
 4178 0232 D800     		.sleb128 88
 4179 0234 0B       		.uleb128 0xb
 4180 0235 BC4A0000 		.4byte	.LASF71
 4181 0239 F000     		.sleb128 112
 4182 023b 0B       		.uleb128 0xb
 4183 023c 621F0000 		.4byte	.LASF72
 4184 0240 F100     		.sleb128 113
 4185 0242 0B       		.uleb128 0xb
 4186 0243 C9100000 		.4byte	.LASF73
 4187 0247 F200     		.sleb128 114
 4188 0249 0B       		.uleb128 0xb
 4189 024a 8C440000 		.4byte	.LASF74
 4190 024e F300     		.sleb128 115
ARM GAS  C:\Users\Sarah\AppData\Local\Temp\ccqSJLdk.s 			page 141


 4191 0250 0B       		.uleb128 0xb
 4192 0251 6A330000 		.4byte	.LASF75
 4193 0255 F400     		.sleb128 116
 4194 0257 0B       		.uleb128 0xb
 4195 0258 B2260000 		.4byte	.LASF76
 4196 025c F500     		.sleb128 117
 4197 025e 0B       		.uleb128 0xb
 4198 025f 6E150000 		.4byte	.LASF77
 4199 0263 F600     		.sleb128 118
 4200 0265 0B       		.uleb128 0xb
 4201 0266 3A390000 		.4byte	.LASF78
 4202 026a F700     		.sleb128 119
 4203 026c 0B       		.uleb128 0xb
 4204 026d 17070000 		.4byte	.LASF79
 4205 0271 F800     		.sleb128 120
 4206 0273 0B       		.uleb128 0xb
 4207 0274 370D0000 		.4byte	.LASF80
 4208 0278 F900     		.sleb128 121
 4209 027a 0B       		.uleb128 0xb
 4210 027b 514D0000 		.4byte	.LASF81
 4211 027f FA00     		.sleb128 122
 4212 0281 0B       		.uleb128 0xb
 4213 0282 F32A0000 		.4byte	.LASF82
 4214 0286 FA01     		.sleb128 250
 4215 0288 0B       		.uleb128 0xb
 4216 0289 0E480000 		.4byte	.LASF83
 4217 028d FB01     		.sleb128 251
 4218 028f 0B       		.uleb128 0xb
 4219 0290 6C310000 		.4byte	.LASF84
 4220 0294 FF01     		.sleb128 255
 4221 0296 00       		.byte	0
 4222 0297 0A       		.uleb128 0xa
 4223 0298 02       		.byte	0x2
 4224 0299 03       		.byte	0x3
 4225 029a D203     		.2byte	0x3d2
 4226 029c 67030000 		.4byte	0x367
 4227 02a0 0B       		.uleb128 0xb
 4228 02a1 3A120000 		.4byte	.LASF85
 4229 02a5 00       		.sleb128 0
 4230 02a6 0B       		.uleb128 0xb
 4231 02a7 611B0000 		.4byte	.LASF86
 4232 02ab 01       		.sleb128 1
 4233 02ac 0B       		.uleb128 0xb
 4234 02ad BA4C0000 		.4byte	.LASF87
 4235 02b1 02       		.sleb128 2
 4236 02b2 0B       		.uleb128 0xb
 4237 02b3 1B1D0000 		.4byte	.LASF88
 4238 02b7 03       		.sleb128 3
 4239 02b8 0B       		.uleb128 0xb
 4240 02b9 EF210000 		.4byte	.LASF89
 4241 02bd 04       		.sleb128 4
 4242 02be 0B       		.uleb128 0xb
 4243 02bf 662A0000 		.4byte	.LASF90
 4244 02c3 05       		.sleb128 5
 4245 02c4 0B       		.uleb128 0xb
 4246 02c5 A5470000 		.4byte	.LASF91
 4247 02c9 06       		.sleb128 6
ARM GAS  C:\Users\Sarah\AppData\Local\Temp\ccqSJLdk.s 			page 142


 4248 02ca 0B       		.uleb128 0xb
 4249 02cb D1170000 		.4byte	.LASF92
 4250 02cf 07       		.sleb128 7
 4251 02d0 0B       		.uleb128 0xb
 4252 02d1 6C2C0000 		.4byte	.LASF93
 4253 02d5 08       		.sleb128 8
 4254 02d6 0B       		.uleb128 0xb
 4255 02d7 BF450000 		.4byte	.LASF94
 4256 02db 09       		.sleb128 9
 4257 02dc 0B       		.uleb128 0xb
 4258 02dd F94E0000 		.4byte	.LASF95
 4259 02e1 0A       		.sleb128 10
 4260 02e2 0B       		.uleb128 0xb
 4261 02e3 C2090000 		.4byte	.LASF96
 4262 02e7 0B       		.sleb128 11
 4263 02e8 0B       		.uleb128 0xb
 4264 02e9 71490000 		.4byte	.LASF97
 4265 02ed 0C       		.sleb128 12
 4266 02ee 0B       		.uleb128 0xb
 4267 02ef 80300000 		.4byte	.LASF98
 4268 02f3 0D       		.sleb128 13
 4269 02f4 0B       		.uleb128 0xb
 4270 02f5 80240000 		.4byte	.LASF99
 4271 02f9 0E       		.sleb128 14
 4272 02fa 0B       		.uleb128 0xb
 4273 02fb 412A0000 		.4byte	.LASF100
 4274 02ff 0F       		.sleb128 15
 4275 0300 0B       		.uleb128 0xb
 4276 0301 26060000 		.4byte	.LASF101
 4277 0305 10       		.sleb128 16
 4278 0306 0B       		.uleb128 0xb
 4279 0307 482C0000 		.4byte	.LASF102
 4280 030b 11       		.sleb128 17
 4281 030c 0B       		.uleb128 0xb
 4282 030d 6E0E0000 		.4byte	.LASF103
 4283 0311 12       		.sleb128 18
 4284 0312 0B       		.uleb128 0xb
 4285 0313 3B110000 		.4byte	.LASF104
 4286 0317 13       		.sleb128 19
 4287 0318 0B       		.uleb128 0xb
 4288 0319 AE2A0000 		.4byte	.LASF105
 4289 031d 27       		.sleb128 39
 4290 031e 0B       		.uleb128 0xb
 4291 031f 642D0000 		.4byte	.LASF106
 4292 0323 28       		.sleb128 40
 4293 0324 0B       		.uleb128 0xb
 4294 0325 9C060000 		.4byte	.LASF107
 4295 0329 29       		.sleb128 41
 4296 032a 0B       		.uleb128 0xb
 4297 032b A6420000 		.4byte	.LASF108
 4298 032f 2A       		.sleb128 42
 4299 0330 0B       		.uleb128 0xb
 4300 0331 3E230000 		.4byte	.LASF109
 4301 0335 2B       		.sleb128 43
 4302 0336 0B       		.uleb128 0xb
 4303 0337 B93A0000 		.4byte	.LASF110
 4304 033b 2C       		.sleb128 44
ARM GAS  C:\Users\Sarah\AppData\Local\Temp\ccqSJLdk.s 			page 143


 4305 033c 0B       		.uleb128 0xb
 4306 033d 451B0000 		.4byte	.LASF111
 4307 0341 FE01     		.sleb128 254
 4308 0343 0B       		.uleb128 0xb
 4309 0344 2F1F0000 		.4byte	.LASF112
 4310 0348 FF01     		.sleb128 255
 4311 034a 0B       		.uleb128 0xb
 4312 034b C7320000 		.4byte	.LASF113
 4313 034f 8002     		.sleb128 256
 4314 0351 0B       		.uleb128 0xb
 4315 0352 AE320000 		.4byte	.LASF114
 4316 0356 8102     		.sleb128 257
 4317 0358 0B       		.uleb128 0xb
 4318 0359 D50F0000 		.4byte	.LASF115
 4319 035d 8202     		.sleb128 258
 4320 035f 0B       		.uleb128 0xb
 4321 0360 DF380000 		.4byte	.LASF116
 4322 0364 8302     		.sleb128 259
 4323 0366 00       		.byte	0
 4324 0367 0A       		.uleb128 0xa
 4325 0368 01       		.byte	0x1
 4326 0369 03       		.byte	0x3
 4327 036a 7704     		.2byte	0x477
 4328 036c A7030000 		.4byte	0x3a7
 4329 0370 0B       		.uleb128 0xb
 4330 0371 6F110000 		.4byte	.LASF117
 4331 0375 01       		.sleb128 1
 4332 0376 0B       		.uleb128 0xb
 4333 0377 290C0000 		.4byte	.LASF118
 4334 037b 02       		.sleb128 2
 4335 037c 0B       		.uleb128 0xb
 4336 037d 6C340000 		.4byte	.LASF119
 4337 0381 03       		.sleb128 3
 4338 0382 0B       		.uleb128 0xb
 4339 0383 A20A0000 		.4byte	.LASF120
 4340 0387 04       		.sleb128 4
 4341 0388 0B       		.uleb128 0xb
 4342 0389 26160000 		.4byte	.LASF121
 4343 038d 05       		.sleb128 5
 4344 038e 0B       		.uleb128 0xb
 4345 038f 23230000 		.4byte	.LASF122
 4346 0393 06       		.sleb128 6
 4347 0394 0B       		.uleb128 0xb
 4348 0395 BF470000 		.4byte	.LASF123
 4349 0399 07       		.sleb128 7
 4350 039a 0B       		.uleb128 0xb
 4351 039b 81220000 		.4byte	.LASF124
 4352 039f 08       		.sleb128 8
 4353 03a0 0B       		.uleb128 0xb
 4354 03a1 3A2B0000 		.4byte	.LASF125
 4355 03a5 09       		.sleb128 9
 4356 03a6 00       		.byte	0
 4357 03a7 04       		.uleb128 0x4
 4358 03a8 C5270000 		.4byte	.LASF126
 4359 03ac 03       		.byte	0x3
 4360 03ad 8E04     		.2byte	0x48e
 4361 03af 67030000 		.4byte	0x367
ARM GAS  C:\Users\Sarah\AppData\Local\Temp\ccqSJLdk.s 			page 144


 4362 03b3 0A       		.uleb128 0xa
 4363 03b4 01       		.byte	0x1
 4364 03b5 03       		.byte	0x3
 4365 03b6 9204     		.2byte	0x492
 4366 03b8 CF030000 		.4byte	0x3cf
 4367 03bc 0B       		.uleb128 0xb
 4368 03bd D6470000 		.4byte	.LASF127
 4369 03c1 00       		.sleb128 0
 4370 03c2 0B       		.uleb128 0xb
 4371 03c3 5E2F0000 		.4byte	.LASF128
 4372 03c7 01       		.sleb128 1
 4373 03c8 0B       		.uleb128 0xb
 4374 03c9 A74A0000 		.4byte	.LASF129
 4375 03cd 02       		.sleb128 2
 4376 03ce 00       		.byte	0
 4377 03cf 04       		.uleb128 0x4
 4378 03d0 49120000 		.4byte	.LASF130
 4379 03d4 03       		.byte	0x3
 4380 03d5 9904     		.2byte	0x499
 4381 03d7 B3030000 		.4byte	0x3b3
 4382 03db 0C       		.uleb128 0xc
 4383 03dc 02       		.byte	0x2
 4384 03dd 03       		.byte	0x3
 4385 03de 9C04     		.2byte	0x49c
 4386 03e0 FF030000 		.4byte	0x3ff
 4387 03e4 0D       		.uleb128 0xd
 4388 03e5 3D040000 		.4byte	.LASF131
 4389 03e9 03       		.byte	0x3
 4390 03ea 9F04     		.2byte	0x49f
 4391 03ec A7030000 		.4byte	0x3a7
 4392 03f0 00       		.byte	0
 4393 03f1 0D       		.uleb128 0xd
 4394 03f2 80100000 		.4byte	.LASF132
 4395 03f6 03       		.byte	0x3
 4396 03f7 A104     		.2byte	0x4a1
 4397 03f9 CF030000 		.4byte	0x3cf
 4398 03fd 01       		.byte	0x1
 4399 03fe 00       		.byte	0
 4400 03ff 04       		.uleb128 0x4
 4401 0400 874A0000 		.4byte	.LASF133
 4402 0404 03       		.byte	0x3
 4403 0405 A204     		.2byte	0x4a2
 4404 0407 DB030000 		.4byte	0x3db
 4405 040b 0A       		.uleb128 0xa
 4406 040c 01       		.byte	0x1
 4407 040d 03       		.byte	0x3
 4408 040e CC04     		.2byte	0x4cc
 4409 0410 21040000 		.4byte	0x421
 4410 0414 0B       		.uleb128 0xb
 4411 0415 69370000 		.4byte	.LASF134
 4412 0419 00       		.sleb128 0
 4413 041a 0B       		.uleb128 0xb
 4414 041b 71230000 		.4byte	.LASF135
 4415 041f 01       		.sleb128 1
 4416 0420 00       		.byte	0
 4417 0421 04       		.uleb128 0x4
 4418 0422 244B0000 		.4byte	.LASF136
ARM GAS  C:\Users\Sarah\AppData\Local\Temp\ccqSJLdk.s 			page 145


 4419 0426 03       		.byte	0x3
 4420 0427 D304     		.2byte	0x4d3
 4421 0429 0B040000 		.4byte	0x40b
 4422 042d 0C       		.uleb128 0xc
 4423 042e 08       		.byte	0x8
 4424 042f 03       		.byte	0x3
 4425 0430 D604     		.2byte	0x4d6
 4426 0432 5E040000 		.4byte	0x45e
 4427 0436 0D       		.uleb128 0xd
 4428 0437 87020000 		.4byte	.LASF137
 4429 043b 03       		.byte	0x3
 4430 043c D904     		.2byte	0x4d9
 4431 043e 21040000 		.4byte	0x421
 4432 0442 00       		.byte	0
 4433 0443 0D       		.uleb128 0xd
 4434 0444 A4210000 		.4byte	.LASF138
 4435 0448 03       		.byte	0x3
 4436 0449 DE04     		.2byte	0x4de
 4437 044b 6B000000 		.4byte	0x6b
 4438 044f 01       		.byte	0x1
 4439 0450 0D       		.uleb128 0xd
 4440 0451 3F150000 		.4byte	.LASF139
 4441 0455 03       		.byte	0x3
 4442 0456 E604     		.2byte	0x4e6
 4443 0458 B0000000 		.4byte	0xb0
 4444 045c 04       		.byte	0x4
 4445 045d 00       		.byte	0
 4446 045e 04       		.uleb128 0x4
 4447 045f 97290000 		.4byte	.LASF140
 4448 0463 03       		.byte	0x3
 4449 0464 E804     		.2byte	0x4e8
 4450 0466 2D040000 		.4byte	0x42d
 4451 046a 0C       		.uleb128 0xc
 4452 046b 07       		.byte	0x7
 4453 046c 03       		.byte	0x3
 4454 046d 0C05     		.2byte	0x50c
 4455 046f 8E040000 		.4byte	0x48e
 4456 0473 0D       		.uleb128 0xd
 4457 0474 F4460000 		.4byte	.LASF141
 4458 0478 03       		.byte	0x3
 4459 0479 0F05     		.2byte	0x50f
 4460 047b 8E040000 		.4byte	0x48e
 4461 047f 00       		.byte	0
 4462 0480 0D       		.uleb128 0xd
 4463 0481 D2070000 		.4byte	.LASF142
 4464 0485 03       		.byte	0x3
 4465 0486 1105     		.2byte	0x511
 4466 0488 6B000000 		.4byte	0x6b
 4467 048c 06       		.byte	0x6
 4468 048d 00       		.byte	0
 4469 048e 0E       		.uleb128 0xe
 4470 048f 6B000000 		.4byte	0x6b
 4471 0493 9E040000 		.4byte	0x49e
 4472 0497 0F       		.uleb128 0xf
 4473 0498 A9000000 		.4byte	0xa9
 4474 049c 05       		.byte	0x5
 4475 049d 00       		.byte	0
ARM GAS  C:\Users\Sarah\AppData\Local\Temp\ccqSJLdk.s 			page 146


 4476 049e 04       		.uleb128 0x4
 4477 049f 863B0000 		.4byte	.LASF143
 4478 04a3 03       		.byte	0x3
 4479 04a4 1205     		.2byte	0x512
 4480 04a6 6A040000 		.4byte	0x46a
 4481 04aa 07       		.uleb128 0x7
 4482 04ab 04       		.byte	0x4
 4483 04ac 6B000000 		.4byte	0x6b
 4484 04b0 10       		.uleb128 0x10
 4485 04b1 01       		.byte	0x1
 4486 04b2 04       		.byte	0x4
 4487 04b3 2C       		.byte	0x2c
 4488 04b4 D1040000 		.4byte	0x4d1
 4489 04b8 0B       		.uleb128 0xb
 4490 04b9 0B300000 		.4byte	.LASF144
 4491 04bd 01       		.sleb128 1
 4492 04be 0B       		.uleb128 0xb
 4493 04bf F43A0000 		.4byte	.LASF145
 4494 04c3 02       		.sleb128 2
 4495 04c4 0B       		.uleb128 0xb
 4496 04c5 194D0000 		.4byte	.LASF146
 4497 04c9 03       		.sleb128 3
 4498 04ca 0B       		.uleb128 0xb
 4499 04cb 7C3D0000 		.4byte	.LASF147
 4500 04cf 04       		.sleb128 4
 4501 04d0 00       		.byte	0
 4502 04d1 11       		.uleb128 0x11
 4503 04d2 D7070000 		.4byte	.LASF148
 4504 04d6 04       		.byte	0x4
 4505 04d7 39       		.byte	0x39
 4506 04d8 B0040000 		.4byte	0x4b0
 4507 04dc 10       		.uleb128 0x10
 4508 04dd 01       		.byte	0x1
 4509 04de 05       		.byte	0x5
 4510 04df F7       		.byte	0xf7
 4511 04e0 03050000 		.4byte	0x503
 4512 04e4 0B       		.uleb128 0xb
 4513 04e5 E10D0000 		.4byte	.LASF149
 4514 04e9 00       		.sleb128 0
 4515 04ea 0B       		.uleb128 0xb
 4516 04eb F70D0000 		.4byte	.LASF150
 4517 04ef 01       		.sleb128 1
 4518 04f0 0B       		.uleb128 0xb
 4519 04f1 0D0E0000 		.4byte	.LASF151
 4520 04f5 02       		.sleb128 2
 4521 04f6 0B       		.uleb128 0xb
 4522 04f7 230E0000 		.4byte	.LASF152
 4523 04fb 03       		.sleb128 3
 4524 04fc 0B       		.uleb128 0xb
 4525 04fd 9D190000 		.4byte	.LASF153
 4526 0501 0F       		.sleb128 15
 4527 0502 00       		.byte	0
 4528 0503 0A       		.uleb128 0xa
 4529 0504 01       		.byte	0x1
 4530 0505 05       		.byte	0x5
 4531 0506 1601     		.2byte	0x116
 4532 0508 2B050000 		.4byte	0x52b
ARM GAS  C:\Users\Sarah\AppData\Local\Temp\ccqSJLdk.s 			page 147


 4533 050c 0B       		.uleb128 0xb
 4534 050d 190A0000 		.4byte	.LASF154
 4535 0511 00       		.sleb128 0
 4536 0512 0B       		.uleb128 0xb
 4537 0513 DF490000 		.4byte	.LASF155
 4538 0517 01       		.sleb128 1
 4539 0518 0B       		.uleb128 0xb
 4540 0519 EF160000 		.4byte	.LASF156
 4541 051d 02       		.sleb128 2
 4542 051e 0B       		.uleb128 0xb
 4543 051f 29030000 		.4byte	.LASF157
 4544 0523 03       		.sleb128 3
 4545 0524 0B       		.uleb128 0xb
 4546 0525 56430000 		.4byte	.LASF158
 4547 0529 04       		.sleb128 4
 4548 052a 00       		.byte	0
 4549 052b 0A       		.uleb128 0xa
 4550 052c 01       		.byte	0x1
 4551 052d 05       		.byte	0x5
 4552 052e 2C01     		.2byte	0x12c
 4553 0530 A1050000 		.4byte	0x5a1
 4554 0534 0B       		.uleb128 0xb
 4555 0535 7D350000 		.4byte	.LASF159
 4556 0539 00       		.sleb128 0
 4557 053a 0B       		.uleb128 0xb
 4558 053b 8C0B0000 		.4byte	.LASF160
 4559 053f 01       		.sleb128 1
 4560 0540 0B       		.uleb128 0xb
 4561 0541 B0360000 		.4byte	.LASF161
 4562 0545 02       		.sleb128 2
 4563 0546 0B       		.uleb128 0xb
 4564 0547 D5230000 		.4byte	.LASF162
 4565 054b 03       		.sleb128 3
 4566 054c 0B       		.uleb128 0xb
 4567 054d A80F0000 		.4byte	.LASF163
 4568 0551 04       		.sleb128 4
 4569 0552 0B       		.uleb128 0xb
 4570 0553 2E3D0000 		.4byte	.LASF164
 4571 0557 05       		.sleb128 5
 4572 0558 0B       		.uleb128 0xb
 4573 0559 84280000 		.4byte	.LASF165
 4574 055d 06       		.sleb128 6
 4575 055e 0B       		.uleb128 0xb
 4576 055f AA230000 		.4byte	.LASF166
 4577 0563 07       		.sleb128 7
 4578 0564 0B       		.uleb128 0xb
 4579 0565 5F080000 		.4byte	.LASF167
 4580 0569 08       		.sleb128 8
 4581 056a 0B       		.uleb128 0xb
 4582 056b 8B260000 		.4byte	.LASF168
 4583 056f 09       		.sleb128 9
 4584 0570 0B       		.uleb128 0xb
 4585 0571 0C150000 		.4byte	.LASF169
 4586 0575 0A       		.sleb128 10
 4587 0576 0B       		.uleb128 0xb
 4588 0577 9D270000 		.4byte	.LASF170
 4589 057b 0B       		.sleb128 11
ARM GAS  C:\Users\Sarah\AppData\Local\Temp\ccqSJLdk.s 			page 148


 4590 057c 0B       		.uleb128 0xb
 4591 057d B0490000 		.4byte	.LASF171
 4592 0581 0C       		.sleb128 12
 4593 0582 0B       		.uleb128 0xb
 4594 0583 EB1C0000 		.4byte	.LASF172
 4595 0587 0D       		.sleb128 13
 4596 0588 0B       		.uleb128 0xb
 4597 0589 B6120000 		.4byte	.LASF173
 4598 058d 0E       		.sleb128 14
 4599 058e 0B       		.uleb128 0xb
 4600 058f 8F020000 		.4byte	.LASF174
 4601 0593 0F       		.sleb128 15
 4602 0594 0B       		.uleb128 0xb
 4603 0595 11080000 		.4byte	.LASF175
 4604 0599 15       		.sleb128 21
 4605 059a 0B       		.uleb128 0xb
 4606 059b 881F0000 		.4byte	.LASF176
 4607 059f 18       		.sleb128 24
 4608 05a0 00       		.byte	0
 4609 05a1 04       		.uleb128 0x4
 4610 05a2 F9310000 		.4byte	.LASF177
 4611 05a6 05       		.byte	0x5
 4612 05a7 6B01     		.2byte	0x16b
 4613 05a9 2B050000 		.4byte	0x52b
 4614 05ad 0C       		.uleb128 0xc
 4615 05ae 05       		.byte	0x5
 4616 05af 05       		.byte	0x5
 4617 05b0 B401     		.2byte	0x1b4
 4618 05b2 F8050000 		.4byte	0x5f8
 4619 05b6 0D       		.uleb128 0xd
 4620 05b7 AE290000 		.4byte	.LASF178
 4621 05bb 05       		.byte	0x5
 4622 05bc BE01     		.2byte	0x1be
 4623 05be 6B000000 		.4byte	0x6b
 4624 05c2 00       		.byte	0
 4625 05c3 0D       		.uleb128 0xd
 4626 05c4 782E0000 		.4byte	.LASF179
 4627 05c8 05       		.byte	0x5
 4628 05c9 C401     		.2byte	0x1c4
 4629 05cb 6B000000 		.4byte	0x6b
 4630 05cf 01       		.byte	0x1
 4631 05d0 0D       		.uleb128 0xd
 4632 05d1 3A010000 		.4byte	.LASF180
 4633 05d5 05       		.byte	0x5
 4634 05d6 CB01     		.2byte	0x1cb
 4635 05d8 6B000000 		.4byte	0x6b
 4636 05dc 02       		.byte	0x2
 4637 05dd 0D       		.uleb128 0xd
 4638 05de 5A420000 		.4byte	.LASF181
 4639 05e2 05       		.byte	0x5
 4640 05e3 CF01     		.2byte	0x1cf
 4641 05e5 A1050000 		.4byte	0x5a1
 4642 05e9 03       		.byte	0x3
 4643 05ea 0D       		.uleb128 0xd
 4644 05eb A73F0000 		.4byte	.LASF182
 4645 05ef 05       		.byte	0x5
 4646 05f0 D901     		.2byte	0x1d9
ARM GAS  C:\Users\Sarah\AppData\Local\Temp\ccqSJLdk.s 			page 149


 4647 05f2 6B000000 		.4byte	0x6b
 4648 05f6 04       		.byte	0x4
 4649 05f7 00       		.byte	0
 4650 05f8 04       		.uleb128 0x4
 4651 05f9 D9160000 		.4byte	.LASF183
 4652 05fd 05       		.byte	0x5
 4653 05fe DB01     		.2byte	0x1db
 4654 0600 AD050000 		.4byte	0x5ad
 4655 0604 0E       		.uleb128 0xe
 4656 0605 6B000000 		.4byte	0x6b
 4657 0609 14060000 		.4byte	0x614
 4658 060d 0F       		.uleb128 0xf
 4659 060e A9000000 		.4byte	0xa9
 4660 0612 0F       		.byte	0xf
 4661 0613 00       		.byte	0
 4662 0614 0C       		.uleb128 0xc
 4663 0615 08       		.byte	0x8
 4664 0616 05       		.byte	0x5
 4665 0617 5503     		.2byte	0x355
 4666 0619 52060000 		.4byte	0x652
 4667 061d 0D       		.uleb128 0xd
 4668 061e 1C230000 		.4byte	.LASF184
 4669 0622 05       		.byte	0x5
 4670 0623 5B03     		.2byte	0x35b
 4671 0625 6B000000 		.4byte	0x6b
 4672 0629 00       		.byte	0
 4673 062a 0D       		.uleb128 0xd
 4674 062b 9D4B0000 		.4byte	.LASF185
 4675 062f 05       		.byte	0x5
 4676 0630 6103     		.2byte	0x361
 4677 0632 77000000 		.4byte	0x77
 4678 0636 02       		.byte	0x2
 4679 0637 0D       		.uleb128 0xd
 4680 0638 A4490000 		.4byte	.LASF186
 4681 063c 05       		.byte	0x5
 4682 063d 6603     		.2byte	0x366
 4683 063f 77000000 		.4byte	0x77
 4684 0643 04       		.byte	0x4
 4685 0644 0D       		.uleb128 0xd
 4686 0645 0B4D0000 		.4byte	.LASF187
 4687 0649 05       		.byte	0x5
 4688 064a 6C03     		.2byte	0x36c
 4689 064c 77000000 		.4byte	0x77
 4690 0650 06       		.byte	0x6
 4691 0651 00       		.byte	0
 4692 0652 04       		.uleb128 0x4
 4693 0653 AA370000 		.4byte	.LASF188
 4694 0657 05       		.byte	0x5
 4695 0658 6E03     		.2byte	0x36e
 4696 065a 14060000 		.4byte	0x614
 4697 065e 10       		.uleb128 0x10
 4698 065f 01       		.byte	0x1
 4699 0660 06       		.byte	0x6
 4700 0661 47       		.byte	0x47
 4701 0662 18070000 		.4byte	0x718
 4702 0666 0B       		.uleb128 0xb
 4703 0667 301B0000 		.4byte	.LASF189
ARM GAS  C:\Users\Sarah\AppData\Local\Temp\ccqSJLdk.s 			page 150


 4704 066b 01       		.sleb128 1
 4705 066c 0B       		.uleb128 0xb
 4706 066d B8170000 		.4byte	.LASF190
 4707 0671 02       		.sleb128 2
 4708 0672 0B       		.uleb128 0xb
 4709 0673 750C0000 		.4byte	.LASF191
 4710 0677 03       		.sleb128 3
 4711 0678 0B       		.uleb128 0xb
 4712 0679 F5110000 		.4byte	.LASF192
 4713 067d 04       		.sleb128 4
 4714 067e 0B       		.uleb128 0xb
 4715 067f 97360000 		.4byte	.LASF193
 4716 0683 05       		.sleb128 5
 4717 0684 0B       		.uleb128 0xb
 4718 0685 35340000 		.4byte	.LASF194
 4719 0689 06       		.sleb128 6
 4720 068a 0B       		.uleb128 0xb
 4721 068b 390E0000 		.4byte	.LASF195
 4722 068f 07       		.sleb128 7
 4723 0690 0B       		.uleb128 0xb
 4724 0691 4E330000 		.4byte	.LASF196
 4725 0695 08       		.sleb128 8
 4726 0696 0B       		.uleb128 0xb
 4727 0697 A3080000 		.4byte	.LASF197
 4728 069b 09       		.sleb128 9
 4729 069c 0B       		.uleb128 0xb
 4730 069d AA220000 		.4byte	.LASF198
 4731 06a1 0A       		.sleb128 10
 4732 06a2 0B       		.uleb128 0xb
 4733 06a3 6E470000 		.4byte	.LASF199
 4734 06a7 0B       		.sleb128 11
 4735 06a8 0B       		.uleb128 0xb
 4736 06a9 9A3B0000 		.4byte	.LASF200
 4737 06ad 0C       		.sleb128 12
 4738 06ae 0B       		.uleb128 0xb
 4739 06af E5100000 		.4byte	.LASF201
 4740 06b3 0D       		.sleb128 13
 4741 06b4 0B       		.uleb128 0xb
 4742 06b5 E0320000 		.4byte	.LASF202
 4743 06b9 0E       		.sleb128 14
 4744 06ba 0B       		.uleb128 0xb
 4745 06bb 9B070000 		.4byte	.LASF203
 4746 06bf 0F       		.sleb128 15
 4747 06c0 0B       		.uleb128 0xb
 4748 06c1 504C0000 		.4byte	.LASF204
 4749 06c5 10       		.sleb128 16
 4750 06c6 0B       		.uleb128 0xb
 4751 06c7 D2210000 		.4byte	.LASF205
 4752 06cb 11       		.sleb128 17
 4753 06cc 0B       		.uleb128 0xb
 4754 06cd 3B420000 		.4byte	.LASF206
 4755 06d1 12       		.sleb128 18
 4756 06d2 0B       		.uleb128 0xb
 4757 06d3 5D160000 		.4byte	.LASF207
 4758 06d7 13       		.sleb128 19
 4759 06d8 0B       		.uleb128 0xb
 4760 06d9 97030000 		.4byte	.LASF208
ARM GAS  C:\Users\Sarah\AppData\Local\Temp\ccqSJLdk.s 			page 151


 4761 06dd D200     		.sleb128 82
 4762 06df 0B       		.uleb128 0xb
 4763 06e0 E3050000 		.4byte	.LASF209
 4764 06e4 16       		.sleb128 22
 4765 06e5 0B       		.uleb128 0xb
 4766 06e6 A5300000 		.4byte	.LASF210
 4767 06ea 17       		.sleb128 23
 4768 06eb 0B       		.uleb128 0xb
 4769 06ec 454A0000 		.4byte	.LASF211
 4770 06f0 18       		.sleb128 24
 4771 06f1 0B       		.uleb128 0xb
 4772 06f2 121F0000 		.4byte	.LASF212
 4773 06f6 19       		.sleb128 25
 4774 06f7 0B       		.uleb128 0xb
 4775 06f8 1C240000 		.4byte	.LASF213
 4776 06fc 1B       		.sleb128 27
 4777 06fd 0B       		.uleb128 0xb
 4778 06fe 6F130000 		.4byte	.LASF214
 4779 0702 1D       		.sleb128 29
 4780 0703 0B       		.uleb128 0xb
 4781 0704 62010000 		.4byte	.LASF215
 4782 0708 1E       		.sleb128 30
 4783 0709 0B       		.uleb128 0xb
 4784 070a 641E0000 		.4byte	.LASF216
 4785 070e D201     		.sleb128 210
 4786 0710 0B       		.uleb128 0xb
 4787 0711 B4380000 		.4byte	.LASF217
 4788 0715 FF01     		.sleb128 255
 4789 0717 00       		.byte	0
 4790 0718 11       		.uleb128 0x11
 4791 0719 AC0D0000 		.4byte	.LASF218
 4792 071d 06       		.byte	0x6
 4793 071e 9F       		.byte	0x9f
 4794 071f 5E060000 		.4byte	0x65e
 4795 0723 10       		.uleb128 0x10
 4796 0724 01       		.byte	0x1
 4797 0725 06       		.byte	0x6
 4798 0726 A3       		.byte	0xa3
 4799 0727 24080000 		.4byte	0x824
 4800 072b 0B       		.uleb128 0xb
 4801 072c 59390000 		.4byte	.LASF219
 4802 0730 00       		.sleb128 0
 4803 0731 0B       		.uleb128 0xb
 4804 0732 1F380000 		.4byte	.LASF220
 4805 0736 01       		.sleb128 1
 4806 0737 0B       		.uleb128 0xb
 4807 0738 9C050000 		.4byte	.LASF221
 4808 073c 02       		.sleb128 2
 4809 073d 0B       		.uleb128 0xb
 4810 073e 674B0000 		.4byte	.LASF222
 4811 0742 03       		.sleb128 3
 4812 0743 0B       		.uleb128 0xb
 4813 0744 8D0F0000 		.4byte	.LASF223
 4814 0748 04       		.sleb128 4
 4815 0749 0B       		.uleb128 0xb
 4816 074a CF2E0000 		.4byte	.LASF224
 4817 074e 05       		.sleb128 5
ARM GAS  C:\Users\Sarah\AppData\Local\Temp\ccqSJLdk.s 			page 152


 4818 074f 0B       		.uleb128 0xb
 4819 0750 17430000 		.4byte	.LASF225
 4820 0754 06       		.sleb128 6
 4821 0755 0B       		.uleb128 0xb
 4822 0756 30330000 		.4byte	.LASF226
 4823 075a 07       		.sleb128 7
 4824 075b 0B       		.uleb128 0xb
 4825 075c 032E0000 		.4byte	.LASF227
 4826 0760 08       		.sleb128 8
 4827 0761 0B       		.uleb128 0xb
 4828 0762 F7290000 		.4byte	.LASF228
 4829 0766 09       		.sleb128 9
 4830 0767 0B       		.uleb128 0xb
 4831 0768 F8300000 		.4byte	.LASF229
 4832 076c 0A       		.sleb128 10
 4833 076d 0B       		.uleb128 0xb
 4834 076e F0180000 		.4byte	.LASF230
 4835 0772 0B       		.sleb128 11
 4836 0773 0B       		.uleb128 0xb
 4837 0774 112B0000 		.4byte	.LASF231
 4838 0778 0C       		.sleb128 12
 4839 0779 0B       		.uleb128 0xb
 4840 077a FE100000 		.4byte	.LASF232
 4841 077e 0D       		.sleb128 13
 4842 077f 0B       		.uleb128 0xb
 4843 0780 56170000 		.4byte	.LASF233
 4844 0784 0E       		.sleb128 14
 4845 0785 0B       		.uleb128 0xb
 4846 0786 B94B0000 		.4byte	.LASF234
 4847 078a 0F       		.sleb128 15
 4848 078b 0B       		.uleb128 0xb
 4849 078c 00060000 		.4byte	.LASF235
 4850 0790 10       		.sleb128 16
 4851 0791 0B       		.uleb128 0xb
 4852 0792 BE050000 		.4byte	.LASF236
 4853 0796 11       		.sleb128 17
 4854 0797 0B       		.uleb128 0xb
 4855 0798 96180000 		.4byte	.LASF237
 4856 079c 8001     		.sleb128 128
 4857 079e 0B       		.uleb128 0xb
 4858 079f A5200000 		.4byte	.LASF238
 4859 07a3 8001     		.sleb128 128
 4860 07a5 0B       		.uleb128 0xb
 4861 07a6 C3420000 		.4byte	.LASF239
 4862 07aa 8001     		.sleb128 128
 4863 07ac 0B       		.uleb128 0xb
 4864 07ad 063B0000 		.4byte	.LASF240
 4865 07b1 8001     		.sleb128 128
 4866 07b3 0B       		.uleb128 0xb
 4867 07b4 DD2F0000 		.4byte	.LASF241
 4868 07b8 8001     		.sleb128 128
 4869 07ba 0B       		.uleb128 0xb
 4870 07bb 38220000 		.4byte	.LASF242
 4871 07bf 8001     		.sleb128 128
 4872 07c1 0B       		.uleb128 0xb
 4873 07c2 3B170000 		.4byte	.LASF243
 4874 07c6 8001     		.sleb128 128
ARM GAS  C:\Users\Sarah\AppData\Local\Temp\ccqSJLdk.s 			page 153


 4875 07c8 0B       		.uleb128 0xb
 4876 07c9 C41E0000 		.4byte	.LASF244
 4877 07cd 8101     		.sleb128 129
 4878 07cf 0B       		.uleb128 0xb
 4879 07d0 9C3E0000 		.4byte	.LASF245
 4880 07d4 8101     		.sleb128 129
 4881 07d6 0B       		.uleb128 0xb
 4882 07d7 76000000 		.4byte	.LASF246
 4883 07db 8101     		.sleb128 129
 4884 07dd 0B       		.uleb128 0xb
 4885 07de 220F0000 		.4byte	.LASF247
 4886 07e2 8101     		.sleb128 129
 4887 07e4 0B       		.uleb128 0xb
 4888 07e5 220B0000 		.4byte	.LASF248
 4889 07e9 8201     		.sleb128 130
 4890 07eb 0B       		.uleb128 0xb
 4891 07ec FB460000 		.4byte	.LASF249
 4892 07f0 A001     		.sleb128 160
 4893 07f2 0B       		.uleb128 0xb
 4894 07f3 E0240000 		.4byte	.LASF250
 4895 07f7 A001     		.sleb128 160
 4896 07f9 0B       		.uleb128 0xb
 4897 07fa B60B0000 		.4byte	.LASF251
 4898 07fe A101     		.sleb128 161
 4899 0800 0B       		.uleb128 0xb
 4900 0801 99450000 		.4byte	.LASF252
 4901 0805 A201     		.sleb128 162
 4902 0807 0B       		.uleb128 0xb
 4903 0808 531A0000 		.4byte	.LASF253
 4904 080c A301     		.sleb128 163
 4905 080e 0B       		.uleb128 0xb
 4906 080f 65120000 		.4byte	.LASF254
 4907 0813 FD01     		.sleb128 253
 4908 0815 0B       		.uleb128 0xb
 4909 0816 902B0000 		.4byte	.LASF255
 4910 081a FE01     		.sleb128 254
 4911 081c 0B       		.uleb128 0xb
 4912 081d E8330000 		.4byte	.LASF256
 4913 0821 FF01     		.sleb128 255
 4914 0823 00       		.byte	0
 4915 0824 04       		.uleb128 0x4
 4916 0825 79450000 		.4byte	.LASF257
 4917 0829 06       		.byte	0x6
 4918 082a 5A01     		.2byte	0x15a
 4919 082c 23070000 		.4byte	0x723
 4920 0830 04       		.uleb128 0x4
 4921 0831 70260000 		.4byte	.LASF258
 4922 0835 06       		.byte	0x6
 4923 0836 6801     		.2byte	0x168
 4924 0838 77000000 		.4byte	0x77
 4925 083c 0C       		.uleb128 0xc
 4926 083d 10       		.byte	0x10
 4927 083e 06       		.byte	0x6
 4928 083f 6B01     		.2byte	0x16b
 4929 0841 53080000 		.4byte	0x853
 4930 0845 0D       		.uleb128 0xd
 4931 0846 6D390000 		.4byte	.LASF259
ARM GAS  C:\Users\Sarah\AppData\Local\Temp\ccqSJLdk.s 			page 154


 4932 084a 06       		.byte	0x6
 4933 084b 6E01     		.2byte	0x16e
 4934 084d 04060000 		.4byte	0x604
 4935 0851 00       		.byte	0
 4936 0852 00       		.byte	0
 4937 0853 04       		.uleb128 0x4
 4938 0854 A9240000 		.4byte	.LASF260
 4939 0858 06       		.byte	0x6
 4940 0859 6F01     		.2byte	0x16f
 4941 085b 3C080000 		.4byte	0x83c
 4942 085f 12       		.uleb128 0x12
 4943 0860 10       		.byte	0x10
 4944 0861 06       		.byte	0x6
 4945 0862 7201     		.2byte	0x172
 4946 0864 81080000 		.4byte	0x881
 4947 0868 13       		.uleb128 0x13
 4948 0869 303A0000 		.4byte	.LASF261
 4949 086d 06       		.byte	0x6
 4950 086e 7501     		.2byte	0x175
 4951 0870 30080000 		.4byte	0x830
 4952 0874 13       		.uleb128 0x13
 4953 0875 B4350000 		.4byte	.LASF262
 4954 0879 06       		.byte	0x6
 4955 087a 7801     		.2byte	0x178
 4956 087c 53080000 		.4byte	0x853
 4957 0880 00       		.byte	0
 4958 0881 04       		.uleb128 0x4
 4959 0882 384F0000 		.4byte	.LASF263
 4960 0886 06       		.byte	0x6
 4961 0887 7A01     		.2byte	0x17a
 4962 0889 5F080000 		.4byte	0x85f
 4963 088d 04       		.uleb128 0x4
 4964 088e F9380000 		.4byte	.LASF264
 4965 0892 06       		.byte	0x6
 4966 0893 8401     		.2byte	0x184
 4967 0895 77000000 		.4byte	0x77
 4968 0899 0C       		.uleb128 0xc
 4969 089a 02       		.byte	0x2
 4970 089b 06       		.byte	0x6
 4971 089c 8E01     		.2byte	0x18e
 4972 089e BD080000 		.4byte	0x8bd
 4973 08a2 0D       		.uleb128 0xd
 4974 08a3 FF0A0000 		.4byte	.LASF265
 4975 08a7 06       		.byte	0x6
 4976 08a8 9501     		.2byte	0x195
 4977 08aa 6B000000 		.4byte	0x6b
 4978 08ae 00       		.byte	0
 4979 08af 0D       		.uleb128 0xd
 4980 08b0 B44C0000 		.4byte	.LASF266
 4981 08b4 06       		.byte	0x6
 4982 08b5 9B01     		.2byte	0x19b
 4983 08b7 6B000000 		.4byte	0x6b
 4984 08bb 01       		.byte	0x1
 4985 08bc 00       		.byte	0
 4986 08bd 04       		.uleb128 0x4
 4987 08be 8B090000 		.4byte	.LASF267
 4988 08c2 06       		.byte	0x6
ARM GAS  C:\Users\Sarah\AppData\Local\Temp\ccqSJLdk.s 			page 155


 4989 08c3 9D01     		.2byte	0x19d
 4990 08c5 99080000 		.4byte	0x899
 4991 08c9 0C       		.uleb128 0xc
 4992 08ca 08       		.byte	0x8
 4993 08cb 06       		.byte	0x6
 4994 08cc B901     		.2byte	0x1b9
 4995 08ce FA080000 		.4byte	0x8fa
 4996 08d2 14       		.uleb128 0x14
 4997 08d3 76616C00 		.ascii	"val\000"
 4998 08d7 06       		.byte	0x6
 4999 08d8 BC01     		.2byte	0x1bc
 5000 08da AA040000 		.4byte	0x4aa
 5001 08de 00       		.byte	0
 5002 08df 14       		.uleb128 0x14
 5003 08e0 6C656E00 		.ascii	"len\000"
 5004 08e4 06       		.byte	0x6
 5005 08e5 BF01     		.2byte	0x1bf
 5006 08e7 77000000 		.4byte	0x77
 5007 08eb 04       		.byte	0x4
 5008 08ec 0D       		.uleb128 0xd
 5009 08ed 3B4C0000 		.4byte	.LASF268
 5010 08f1 06       		.byte	0x6
 5011 08f2 C601     		.2byte	0x1c6
 5012 08f4 77000000 		.4byte	0x77
 5013 08f8 06       		.byte	0x6
 5014 08f9 00       		.byte	0
 5015 08fa 04       		.uleb128 0x4
 5016 08fb 3A070000 		.4byte	.LASF269
 5017 08ff 06       		.byte	0x6
 5018 0900 C801     		.2byte	0x1c8
 5019 0902 C9080000 		.4byte	0x8c9
 5020 0906 0C       		.uleb128 0xc
 5021 0907 0C       		.byte	0xc
 5022 0908 06       		.byte	0x6
 5023 0909 CB01     		.2byte	0x1cb
 5024 090b 2A090000 		.4byte	0x92a
 5025 090f 0D       		.uleb128 0xd
 5026 0910 6D390000 		.4byte	.LASF259
 5027 0914 06       		.byte	0x6
 5028 0915 CE01     		.2byte	0x1ce
 5029 0917 FA080000 		.4byte	0x8fa
 5030 091b 00       		.byte	0
 5031 091c 0D       		.uleb128 0xd
 5032 091d 2D2E0000 		.4byte	.LASF270
 5033 0921 06       		.byte	0x6
 5034 0922 D101     		.2byte	0x1d1
 5035 0924 8D080000 		.4byte	0x88d
 5036 0928 08       		.byte	0x8
 5037 0929 00       		.byte	0
 5038 092a 04       		.uleb128 0x4
 5039 092b 2E100000 		.4byte	.LASF271
 5040 092f 06       		.byte	0x6
 5041 0930 D301     		.2byte	0x1d3
 5042 0932 06090000 		.4byte	0x906
 5043 0936 0C       		.uleb128 0xc
 5044 0937 04       		.byte	0x4
 5045 0938 06       		.byte	0x6
ARM GAS  C:\Users\Sarah\AppData\Local\Temp\ccqSJLdk.s 			page 156


 5046 0939 D601     		.2byte	0x1d6
 5047 093b 5A090000 		.4byte	0x95a
 5048 093f 0D       		.uleb128 0xd
 5049 0940 99200000 		.4byte	.LASF272
 5050 0944 06       		.byte	0x6
 5051 0945 D901     		.2byte	0x1d9
 5052 0947 8D080000 		.4byte	0x88d
 5053 094b 00       		.byte	0
 5054 094c 0D       		.uleb128 0xd
 5055 094d 2D480000 		.4byte	.LASF273
 5056 0951 06       		.byte	0x6
 5057 0952 DC01     		.2byte	0x1dc
 5058 0954 8D080000 		.4byte	0x88d
 5059 0958 02       		.byte	0x2
 5060 0959 00       		.byte	0
 5061 095a 04       		.uleb128 0x4
 5062 095b 77430000 		.4byte	.LASF274
 5063 095f 06       		.byte	0x6
 5064 0960 DE01     		.2byte	0x1de
 5065 0962 36090000 		.4byte	0x936
 5066 0966 0C       		.uleb128 0xc
 5067 0967 04       		.byte	0x4
 5068 0968 06       		.byte	0x6
 5069 0969 E101     		.2byte	0x1e1
 5070 096b 8A090000 		.4byte	0x98a
 5071 096f 0D       		.uleb128 0xd
 5072 0970 9A3C0000 		.4byte	.LASF275
 5073 0974 06       		.byte	0x6
 5074 0975 E401     		.2byte	0x1e4
 5075 0977 BD080000 		.4byte	0x8bd
 5076 097b 00       		.byte	0
 5077 097c 14       		.uleb128 0x14
 5078 097d 6D747500 		.ascii	"mtu\000"
 5079 0981 06       		.byte	0x6
 5080 0982 E701     		.2byte	0x1e7
 5081 0984 77000000 		.4byte	0x77
 5082 0988 02       		.byte	0x2
 5083 0989 00       		.byte	0
 5084 098a 04       		.uleb128 0x4
 5085 098b 1F2F0000 		.4byte	.LASF276
 5086 098f 06       		.byte	0x6
 5087 0990 E901     		.2byte	0x1e9
 5088 0992 66090000 		.4byte	0x966
 5089 0996 0C       		.uleb128 0xc
 5090 0997 08       		.byte	0x8
 5091 0998 06       		.byte	0x6
 5092 0999 F701     		.2byte	0x1f7
 5093 099b C7090000 		.4byte	0x9c7
 5094 099f 0D       		.uleb128 0xd
 5095 09a0 01360000 		.4byte	.LASF277
 5096 09a4 06       		.byte	0x6
 5097 09a5 FC01     		.2byte	0x1fc
 5098 09a7 AA040000 		.4byte	0x4aa
 5099 09ab 00       		.byte	0
 5100 09ac 0D       		.uleb128 0xd
 5101 09ad 25390000 		.4byte	.LASF278
 5102 09b1 06       		.byte	0x6
ARM GAS  C:\Users\Sarah\AppData\Local\Temp\ccqSJLdk.s 			page 157


 5103 09b2 0102     		.2byte	0x201
 5104 09b4 77000000 		.4byte	0x77
 5105 09b8 04       		.byte	0x4
 5106 09b9 0D       		.uleb128 0xd
 5107 09ba 401D0000 		.4byte	.LASF279
 5108 09be 06       		.byte	0x6
 5109 09bf 0802     		.2byte	0x208
 5110 09c1 77000000 		.4byte	0x77
 5111 09c5 06       		.byte	0x6
 5112 09c6 00       		.byte	0
 5113 09c7 04       		.uleb128 0x4
 5114 09c8 CF250000 		.4byte	.LASF280
 5115 09cc 06       		.byte	0x6
 5116 09cd 0A02     		.2byte	0x20a
 5117 09cf 96090000 		.4byte	0x996
 5118 09d3 15       		.uleb128 0x15
 5119 09d4 04       		.byte	0x4
 5120 09d5 07       		.byte	0x7
 5121 09d6 37       		.byte	0x37
 5122 09d7 000A0000 		.4byte	0xa00
 5123 09db 16       		.uleb128 0x16
 5124 09dc 2D2E0000 		.4byte	.LASF270
 5125 09e0 07       		.byte	0x7
 5126 09e1 3A       		.byte	0x3a
 5127 09e2 8D080000 		.4byte	0x88d
 5128 09e6 00       		.byte	0
 5129 09e7 16       		.uleb128 0x16
 5130 09e8 FC2D0000 		.4byte	.LASF281
 5131 09ec 07       		.byte	0x7
 5132 09ed 40       		.byte	0x40
 5133 09ee 6B000000 		.4byte	0x6b
 5134 09f2 02       		.byte	0x2
 5135 09f3 16       		.uleb128 0x16
 5136 09f4 EF140000 		.4byte	.LASF282
 5137 09f8 07       		.byte	0x7
 5138 09f9 43       		.byte	0x43
 5139 09fa 24080000 		.4byte	0x824
 5140 09fe 03       		.byte	0x3
 5141 09ff 00       		.byte	0
 5142 0a00 11       		.uleb128 0x11
 5143 0a01 07130000 		.4byte	.LASF283
 5144 0a05 07       		.byte	0x7
 5145 0a06 45       		.byte	0x45
 5146 0a07 D3090000 		.4byte	0x9d3
 5147 0a0b 15       		.uleb128 0x15
 5148 0a0c 10       		.byte	0x10
 5149 0a0d 07       		.byte	0x7
 5150 0a0e 87       		.byte	0x87
 5151 0a0f 2C0A0000 		.4byte	0xa2c
 5152 0a13 16       		.uleb128 0x16
 5153 0a14 9A3C0000 		.4byte	.LASF275
 5154 0a18 07       		.byte	0x7
 5155 0a19 8A       		.byte	0x8a
 5156 0a1a BD080000 		.4byte	0x8bd
 5157 0a1e 00       		.byte	0
 5158 0a1f 16       		.uleb128 0x16
 5159 0a20 663C0000 		.4byte	.LASF284
ARM GAS  C:\Users\Sarah\AppData\Local\Temp\ccqSJLdk.s 			page 158


 5160 0a24 07       		.byte	0x7
 5161 0a25 8D       		.byte	0x8d
 5162 0a26 2A090000 		.4byte	0x92a
 5163 0a2a 04       		.byte	0x4
 5164 0a2b 00       		.byte	0
 5165 0a2c 11       		.uleb128 0x11
 5166 0a2d 852E0000 		.4byte	.LASF285
 5167 0a31 07       		.byte	0x7
 5168 0a32 8F       		.byte	0x8f
 5169 0a33 0B0A0000 		.4byte	0xa0b
 5170 0a37 15       		.uleb128 0x15
 5171 0a38 08       		.byte	0x8
 5172 0a39 08       		.byte	0x8
 5173 0a3a 2D       		.byte	0x2d
 5174 0a3b 700A0000 		.4byte	0xa70
 5175 0a3f 16       		.uleb128 0x16
 5176 0a40 9A3C0000 		.4byte	.LASF275
 5177 0a44 08       		.byte	0x8
 5178 0a45 30       		.byte	0x30
 5179 0a46 BD080000 		.4byte	0x8bd
 5180 0a4a 00       		.byte	0
 5181 0a4b 16       		.uleb128 0x16
 5182 0a4c 892B0000 		.4byte	.LASF286
 5183 0a50 08       		.byte	0x8
 5184 0a51 33       		.byte	0x33
 5185 0a52 18070000 		.4byte	0x718
 5186 0a56 02       		.byte	0x2
 5187 0a57 16       		.uleb128 0x16
 5188 0a58 2D2E0000 		.4byte	.LASF270
 5189 0a5c 08       		.byte	0x8
 5190 0a5d 36       		.byte	0x36
 5191 0a5e 8D080000 		.4byte	0x88d
 5192 0a62 04       		.byte	0x4
 5193 0a63 16       		.uleb128 0x16
 5194 0a64 EF140000 		.4byte	.LASF282
 5195 0a68 08       		.byte	0x8
 5196 0a69 39       		.byte	0x39
 5197 0a6a 24080000 		.4byte	0x824
 5198 0a6e 06       		.byte	0x6
 5199 0a6f 00       		.byte	0
 5200 0a70 11       		.uleb128 0x11
 5201 0a71 9D3A0000 		.4byte	.LASF287
 5202 0a75 08       		.byte	0x8
 5203 0a76 3B       		.byte	0x3b
 5204 0a77 370A0000 		.4byte	0xa37
 5205 0a7b 11       		.uleb128 0x11
 5206 0a7c A3480000 		.4byte	.LASF288
 5207 0a80 08       		.byte	0x8
 5208 0a81 4F       		.byte	0x4f
 5209 0a82 5A090000 		.4byte	0x95a
 5210 0a86 15       		.uleb128 0x15
 5211 0a87 0C       		.byte	0xc
 5212 0a88 08       		.byte	0x8
 5213 0a89 7D       		.byte	0x7d
 5214 0a8a A70A0000 		.4byte	0xaa7
 5215 0a8e 16       		.uleb128 0x16
 5216 0a8f 9A3C0000 		.4byte	.LASF275
ARM GAS  C:\Users\Sarah\AppData\Local\Temp\ccqSJLdk.s 			page 159


 5217 0a93 08       		.byte	0x8
 5218 0a94 80       		.byte	0x80
 5219 0a95 BD080000 		.4byte	0x8bd
 5220 0a99 00       		.byte	0
 5221 0a9a 16       		.uleb128 0x16
 5222 0a9b 6D390000 		.4byte	.LASF259
 5223 0a9f 08       		.byte	0x8
 5224 0aa0 83       		.byte	0x83
 5225 0aa1 FA080000 		.4byte	0x8fa
 5226 0aa5 04       		.byte	0x4
 5227 0aa6 00       		.byte	0
 5228 0aa7 11       		.uleb128 0x11
 5229 0aa8 B9430000 		.4byte	.LASF289
 5230 0aac 08       		.byte	0x8
 5231 0aad 85       		.byte	0x85
 5232 0aae 860A0000 		.4byte	0xa86
 5233 0ab2 15       		.uleb128 0x15
 5234 0ab3 10       		.byte	0x10
 5235 0ab4 08       		.byte	0x8
 5236 0ab5 88       		.byte	0x88
 5237 0ab6 D30A0000 		.4byte	0xad3
 5238 0aba 16       		.uleb128 0x16
 5239 0abb 9A3C0000 		.4byte	.LASF275
 5240 0abf 08       		.byte	0x8
 5241 0ac0 8B       		.byte	0x8b
 5242 0ac1 BD080000 		.4byte	0x8bd
 5243 0ac5 00       		.byte	0
 5244 0ac6 16       		.uleb128 0x16
 5245 0ac7 663C0000 		.4byte	.LASF284
 5246 0acb 08       		.byte	0x8
 5247 0acc 8E       		.byte	0x8e
 5248 0acd 2A090000 		.4byte	0x92a
 5249 0ad1 04       		.byte	0x4
 5250 0ad2 00       		.byte	0
 5251 0ad3 11       		.uleb128 0x11
 5252 0ad4 06090000 		.4byte	.LASF290
 5253 0ad8 08       		.byte	0x8
 5254 0ad9 90       		.byte	0x90
 5255 0ada B20A0000 		.4byte	0xab2
 5256 0ade 11       		.uleb128 0x11
 5257 0adf EF390000 		.4byte	.LASF291
 5258 0ae3 08       		.byte	0x8
 5259 0ae4 93       		.byte	0x93
 5260 0ae5 D30A0000 		.4byte	0xad3
 5261 0ae9 15       		.uleb128 0x15
 5262 0aea 08       		.byte	0x8
 5263 0aeb 08       		.byte	0x8
 5264 0aec 96       		.byte	0x96
 5265 0aed 160B0000 		.4byte	0xb16
 5266 0af1 16       		.uleb128 0x16
 5267 0af2 EB1D0000 		.4byte	.LASF292
 5268 0af6 08       		.byte	0x8
 5269 0af7 99       		.byte	0x99
 5270 0af8 AA040000 		.4byte	0x4aa
 5271 0afc 00       		.byte	0
 5272 0afd 16       		.uleb128 0x16
 5273 0afe 9E380000 		.4byte	.LASF293
ARM GAS  C:\Users\Sarah\AppData\Local\Temp\ccqSJLdk.s 			page 160


 5274 0b02 08       		.byte	0x8
 5275 0b03 9C       		.byte	0x9c
 5276 0b04 77000000 		.4byte	0x77
 5277 0b08 04       		.byte	0x4
 5278 0b09 16       		.uleb128 0x16
 5279 0b0a 9F4A0000 		.4byte	.LASF294
 5280 0b0e 08       		.byte	0x8
 5281 0b0f 9F       		.byte	0x9f
 5282 0b10 77000000 		.4byte	0x77
 5283 0b14 06       		.byte	0x6
 5284 0b15 00       		.byte	0
 5285 0b16 11       		.uleb128 0x11
 5286 0b17 272C0000 		.4byte	.LASF295
 5287 0b1b 08       		.byte	0x8
 5288 0b1c A0       		.byte	0xa0
 5289 0b1d E90A0000 		.4byte	0xae9
 5290 0b21 15       		.uleb128 0x15
 5291 0b22 0C       		.byte	0xc
 5292 0b23 08       		.byte	0x8
 5293 0b24 A4       		.byte	0xa4
 5294 0b25 420B0000 		.4byte	0xb42
 5295 0b29 16       		.uleb128 0x16
 5296 0b2a 9A3C0000 		.4byte	.LASF275
 5297 0b2e 08       		.byte	0x8
 5298 0b2f A7       		.byte	0xa7
 5299 0b30 BD080000 		.4byte	0x8bd
 5300 0b34 00       		.byte	0
 5301 0b35 16       		.uleb128 0x16
 5302 0b36 EE260000 		.4byte	.LASF296
 5303 0b3a 08       		.byte	0x8
 5304 0b3b AA       		.byte	0xaa
 5305 0b3c 160B0000 		.4byte	0xb16
 5306 0b40 04       		.byte	0x4
 5307 0b41 00       		.byte	0
 5308 0b42 11       		.uleb128 0x11
 5309 0b43 AE210000 		.4byte	.LASF297
 5310 0b47 08       		.byte	0x8
 5311 0b48 AC       		.byte	0xac
 5312 0b49 210B0000 		.4byte	0xb21
 5313 0b4d 11       		.uleb128 0x11
 5314 0b4e D33F0000 		.4byte	.LASF298
 5315 0b52 08       		.byte	0x8
 5316 0b53 AF       		.byte	0xaf
 5317 0b54 420B0000 		.4byte	0xb42
 5318 0b58 15       		.uleb128 0x15
 5319 0b59 08       		.byte	0x8
 5320 0b5a 08       		.byte	0x8
 5321 0b5b C0       		.byte	0xc0
 5322 0b5c 790B0000 		.4byte	0xb79
 5323 0b60 16       		.uleb128 0x16
 5324 0b61 4F310000 		.4byte	.LASF299
 5325 0b65 08       		.byte	0x8
 5326 0b66 C4       		.byte	0xc4
 5327 0b67 AA040000 		.4byte	0x4aa
 5328 0b6b 00       		.byte	0
 5329 0b6c 16       		.uleb128 0x16
 5330 0b6d D3200000 		.4byte	.LASF300
ARM GAS  C:\Users\Sarah\AppData\Local\Temp\ccqSJLdk.s 			page 161


 5331 0b71 08       		.byte	0x8
 5332 0b72 C7       		.byte	0xc7
 5333 0b73 77000000 		.4byte	0x77
 5334 0b77 04       		.byte	0x4
 5335 0b78 00       		.byte	0
 5336 0b79 11       		.uleb128 0x11
 5337 0b7a F6130000 		.4byte	.LASF301
 5338 0b7e 08       		.byte	0x8
 5339 0b7f C9       		.byte	0xc9
 5340 0b80 580B0000 		.4byte	0xb58
 5341 0b84 15       		.uleb128 0x15
 5342 0b85 10       		.byte	0x10
 5343 0b86 08       		.byte	0x8
 5344 0b87 CC       		.byte	0xcc
 5345 0b88 B10B0000 		.4byte	0xbb1
 5346 0b8c 16       		.uleb128 0x16
 5347 0b8d 9A3C0000 		.4byte	.LASF275
 5348 0b91 08       		.byte	0x8
 5349 0b92 CF       		.byte	0xcf
 5350 0b93 BD080000 		.4byte	0x8bd
 5351 0b97 00       		.byte	0
 5352 0b98 16       		.uleb128 0x16
 5353 0b99 CF380000 		.4byte	.LASF302
 5354 0b9d 08       		.byte	0x8
 5355 0b9e D2       		.byte	0xd2
 5356 0b9f 790B0000 		.4byte	0xb79
 5357 0ba3 04       		.byte	0x4
 5358 0ba4 16       		.uleb128 0x16
 5359 0ba5 34150000 		.4byte	.LASF303
 5360 0ba9 08       		.byte	0x8
 5361 0baa D5       		.byte	0xd5
 5362 0bab 6B000000 		.4byte	0x6b
 5363 0baf 0C       		.byte	0xc
 5364 0bb0 00       		.byte	0
 5365 0bb1 11       		.uleb128 0x11
 5366 0bb2 87340000 		.4byte	.LASF304
 5367 0bb6 08       		.byte	0x8
 5368 0bb7 D7       		.byte	0xd7
 5369 0bb8 840B0000 		.4byte	0xb84
 5370 0bbc 04       		.uleb128 0x4
 5371 0bbd BF080000 		.4byte	.LASF305
 5372 0bc1 09       		.byte	0x9
 5373 0bc2 E401     		.2byte	0x1e4
 5374 0bc4 B2000000 		.4byte	0xb2
 5375 0bc8 15       		.uleb128 0x15
 5376 0bc9 06       		.byte	0x6
 5377 0bca 0A       		.byte	0xa
 5378 0bcb 4F       		.byte	0x4f
 5379 0bcc E90B0000 		.4byte	0xbe9
 5380 0bd0 16       		.uleb128 0x16
 5381 0bd1 A0420000 		.4byte	.LASF306
 5382 0bd5 0A       		.byte	0xa
 5383 0bd6 51       		.byte	0x51
 5384 0bd7 5A090000 		.4byte	0x95a
 5385 0bdb 00       		.byte	0
 5386 0bdc 16       		.uleb128 0x16
 5387 0bdd 802E0000 		.4byte	.LASF307
ARM GAS  C:\Users\Sarah\AppData\Local\Temp\ccqSJLdk.s 			page 162


 5388 0be1 0A       		.byte	0xa
 5389 0be2 52       		.byte	0x52
 5390 0be3 77000000 		.4byte	0x77
 5391 0be7 04       		.byte	0x4
 5392 0be8 00       		.byte	0
 5393 0be9 11       		.uleb128 0x11
 5394 0bea C62F0000 		.4byte	.LASF308
 5395 0bee 0A       		.byte	0xa
 5396 0bef 53       		.byte	0x53
 5397 0bf0 C80B0000 		.4byte	0xbc8
 5398 0bf4 15       		.uleb128 0x15
 5399 0bf5 14       		.byte	0x14
 5400 0bf6 0A       		.byte	0xa
 5401 0bf7 56       		.byte	0x56
 5402 0bf8 150C0000 		.4byte	0xc15
 5403 0bfc 16       		.uleb128 0x16
 5404 0bfd A0420000 		.4byte	.LASF306
 5405 0c01 0A       		.byte	0xa
 5406 0c02 58       		.byte	0x58
 5407 0c03 5A090000 		.4byte	0x95a
 5408 0c07 00       		.byte	0
 5409 0c08 16       		.uleb128 0x16
 5410 0c09 802E0000 		.4byte	.LASF307
 5411 0c0d 0A       		.byte	0xa
 5412 0c0e 59       		.byte	0x59
 5413 0c0f 81080000 		.4byte	0x881
 5414 0c13 04       		.byte	0x4
 5415 0c14 00       		.byte	0
 5416 0c15 11       		.uleb128 0x11
 5417 0c16 080B0000 		.4byte	.LASF309
 5418 0c1a 0A       		.byte	0xa
 5419 0c1b 5A       		.byte	0x5a
 5420 0c1c F40B0000 		.4byte	0xbf4
 5421 0c20 15       		.uleb128 0x15
 5422 0c21 18       		.byte	0x18
 5423 0c22 0A       		.byte	0xa
 5424 0c23 5D       		.byte	0x5d
 5425 0c24 590C0000 		.4byte	0xc59
 5426 0c28 16       		.uleb128 0x16
 5427 0c29 D9190000 		.4byte	.LASF310
 5428 0c2d 0A       		.byte	0xa
 5429 0c2e 5F       		.byte	0x5f
 5430 0c2f 8D080000 		.4byte	0x88d
 5431 0c33 00       		.byte	0
 5432 0c34 16       		.uleb128 0x16
 5433 0c35 D81A0000 		.4byte	.LASF311
 5434 0c39 0A       		.byte	0xa
 5435 0c3a 60       		.byte	0x60
 5436 0c3b 5A090000 		.4byte	0x95a
 5437 0c3f 02       		.byte	0x2
 5438 0c40 16       		.uleb128 0x16
 5439 0c41 802E0000 		.4byte	.LASF307
 5440 0c45 0A       		.byte	0xa
 5441 0c46 61       		.byte	0x61
 5442 0c47 81080000 		.4byte	0x881
 5443 0c4b 06       		.byte	0x6
 5444 0c4c 16       		.uleb128 0x16
ARM GAS  C:\Users\Sarah\AppData\Local\Temp\ccqSJLdk.s 			page 163


 5445 0c4d 34150000 		.4byte	.LASF303
 5446 0c51 0A       		.byte	0xa
 5447 0c52 62       		.byte	0x62
 5448 0c53 6B000000 		.4byte	0x6b
 5449 0c57 16       		.byte	0x16
 5450 0c58 00       		.byte	0
 5451 0c59 11       		.uleb128 0x11
 5452 0c5a 6A200000 		.4byte	.LASF312
 5453 0c5e 0A       		.byte	0xa
 5454 0c5f 63       		.byte	0x63
 5455 0c60 200C0000 		.4byte	0xc20
 5456 0c64 15       		.uleb128 0x15
 5457 0c65 18       		.byte	0x18
 5458 0c66 0A       		.byte	0xa
 5459 0c67 66       		.byte	0x66
 5460 0c68 A90C0000 		.4byte	0xca9
 5461 0c6c 16       		.uleb128 0x16
 5462 0c6d A5380000 		.4byte	.LASF313
 5463 0c71 0A       		.byte	0xa
 5464 0c72 68       		.byte	0x68
 5465 0c73 8D080000 		.4byte	0x88d
 5466 0c77 00       		.byte	0
 5467 0c78 16       		.uleb128 0x16
 5468 0c79 BF3C0000 		.4byte	.LASF314
 5469 0c7d 0A       		.byte	0xa
 5470 0c7e 69       		.byte	0x69
 5471 0c7f 6B000000 		.4byte	0x6b
 5472 0c83 02       		.byte	0x2
 5473 0c84 16       		.uleb128 0x16
 5474 0c85 A94F0000 		.4byte	.LASF315
 5475 0c89 0A       		.byte	0xa
 5476 0c8a 6A       		.byte	0x6a
 5477 0c8b 8D080000 		.4byte	0x88d
 5478 0c8f 04       		.byte	0x4
 5479 0c90 16       		.uleb128 0x16
 5480 0c91 802E0000 		.4byte	.LASF307
 5481 0c95 0A       		.byte	0xa
 5482 0c96 6B       		.byte	0x6b
 5483 0c97 81080000 		.4byte	0x881
 5484 0c9b 06       		.byte	0x6
 5485 0c9c 16       		.uleb128 0x16
 5486 0c9d 34150000 		.4byte	.LASF303
 5487 0ca1 0A       		.byte	0xa
 5488 0ca2 6C       		.byte	0x6c
 5489 0ca3 6B000000 		.4byte	0x6b
 5490 0ca7 16       		.byte	0x16
 5491 0ca8 00       		.byte	0
 5492 0ca9 11       		.uleb128 0x11
 5493 0caa 1E340000 		.4byte	.LASF316
 5494 0cae 0A       		.byte	0xa
 5495 0caf 6D       		.byte	0x6d
 5496 0cb0 640C0000 		.4byte	0xc64
 5497 0cb4 15       		.uleb128 0x15
 5498 0cb5 04       		.byte	0x4
 5499 0cb6 0A       		.byte	0xa
 5500 0cb7 70       		.byte	0x70
 5501 0cb8 D50C0000 		.4byte	0xcd5
ARM GAS  C:\Users\Sarah\AppData\Local\Temp\ccqSJLdk.s 			page 164


 5502 0cbc 16       		.uleb128 0x16
 5503 0cbd BF3C0000 		.4byte	.LASF314
 5504 0cc1 0A       		.byte	0xa
 5505 0cc2 73       		.byte	0x73
 5506 0cc3 6B000000 		.4byte	0x6b
 5507 0cc7 00       		.byte	0
 5508 0cc8 16       		.uleb128 0x16
 5509 0cc9 A94F0000 		.4byte	.LASF315
 5510 0ccd 0A       		.byte	0xa
 5511 0cce 76       		.byte	0x76
 5512 0ccf 8D080000 		.4byte	0x88d
 5513 0cd3 02       		.byte	0x2
 5514 0cd4 00       		.byte	0
 5515 0cd5 11       		.uleb128 0x11
 5516 0cd6 05240000 		.4byte	.LASF317
 5517 0cda 0A       		.byte	0xa
 5518 0cdb 77       		.byte	0x77
 5519 0cdc B40C0000 		.4byte	0xcb4
 5520 0ce0 15       		.uleb128 0x15
 5521 0ce1 16       		.byte	0x16
 5522 0ce2 0A       		.byte	0xa
 5523 0ce3 7A       		.byte	0x7a
 5524 0ce4 190D0000 		.4byte	0xd19
 5525 0ce8 16       		.uleb128 0x16
 5526 0ce9 9A3C0000 		.4byte	.LASF275
 5527 0ced 0A       		.byte	0xa
 5528 0cee 7C       		.byte	0x7c
 5529 0cef BD080000 		.4byte	0x8bd
 5530 0cf3 00       		.byte	0
 5531 0cf4 16       		.uleb128 0x16
 5532 0cf5 F30A0000 		.4byte	.LASF318
 5533 0cf9 0A       		.byte	0xa
 5534 0cfa 7D       		.byte	0x7d
 5535 0cfb 8D080000 		.4byte	0x88d
 5536 0cff 02       		.byte	0x2
 5537 0d00 16       		.uleb128 0x16
 5538 0d01 802E0000 		.4byte	.LASF307
 5539 0d05 0A       		.byte	0xa
 5540 0d06 7E       		.byte	0x7e
 5541 0d07 81080000 		.4byte	0x881
 5542 0d0b 04       		.byte	0x4
 5543 0d0c 16       		.uleb128 0x16
 5544 0d0d 34150000 		.4byte	.LASF303
 5545 0d11 0A       		.byte	0xa
 5546 0d12 7F       		.byte	0x7f
 5547 0d13 6B000000 		.4byte	0x6b
 5548 0d17 14       		.byte	0x14
 5549 0d18 00       		.byte	0
 5550 0d19 11       		.uleb128 0x11
 5551 0d1a 81200000 		.4byte	.LASF319
 5552 0d1e 0A       		.byte	0xa
 5553 0d1f 80       		.byte	0x80
 5554 0d20 E00C0000 		.4byte	0xce0
 5555 0d24 15       		.uleb128 0x15
 5556 0d25 06       		.byte	0x6
 5557 0d26 0A       		.byte	0xa
 5558 0d27 92       		.byte	0x92
ARM GAS  C:\Users\Sarah\AppData\Local\Temp\ccqSJLdk.s 			page 165


 5559 0d28 450D0000 		.4byte	0xd45
 5560 0d2c 16       		.uleb128 0x16
 5561 0d2d 88030000 		.4byte	.LASF320
 5562 0d31 0A       		.byte	0xa
 5563 0d32 94       		.byte	0x94
 5564 0d33 D50C0000 		.4byte	0xcd5
 5565 0d37 00       		.byte	0
 5566 0d38 16       		.uleb128 0x16
 5567 0d39 454C0000 		.4byte	.LASF321
 5568 0d3d 0A       		.byte	0xa
 5569 0d3e 95       		.byte	0x95
 5570 0d3f 8D080000 		.4byte	0x88d
 5571 0d43 04       		.byte	0x4
 5572 0d44 00       		.byte	0
 5573 0d45 11       		.uleb128 0x11
 5574 0d46 C6140000 		.4byte	.LASF322
 5575 0d4a 0A       		.byte	0xa
 5576 0d4b 96       		.byte	0x96
 5577 0d4c 240D0000 		.4byte	0xd24
 5578 0d50 17       		.uleb128 0x17
 5579 0d51 8502     		.2byte	0x285
 5580 0d53 0A       		.byte	0xa
 5581 0d54 9C       		.byte	0x9c
 5582 0d55 8D0D0000 		.4byte	0xd8d
 5583 0d59 16       		.uleb128 0x16
 5584 0d5a F71F0000 		.4byte	.LASF323
 5585 0d5e 0A       		.byte	0xa
 5586 0d5f 9F       		.byte	0x9f
 5587 0d60 8D0D0000 		.4byte	0xd8d
 5588 0d64 00       		.byte	0
 5589 0d65 18       		.uleb128 0x18
 5590 0d66 D21D0000 		.4byte	.LASF324
 5591 0d6a 0A       		.byte	0xa
 5592 0d6b A2       		.byte	0xa2
 5593 0d6c 9E0D0000 		.4byte	0xd9e
 5594 0d70 7902     		.2byte	0x279
 5595 0d72 18       		.uleb128 0x18
 5596 0d73 8F450000 		.4byte	.LASF325
 5597 0d77 0A       		.byte	0xa
 5598 0d78 A5       		.byte	0xa5
 5599 0d79 6B000000 		.4byte	0x6b
 5600 0d7d 8302     		.2byte	0x283
 5601 0d7f 18       		.uleb128 0x18
 5602 0d80 2A1C0000 		.4byte	.LASF326
 5603 0d84 0A       		.byte	0xa
 5604 0d85 A8       		.byte	0xa8
 5605 0d86 6B000000 		.4byte	0x6b
 5606 0d8a 8402     		.2byte	0x284
 5607 0d8c 00       		.byte	0
 5608 0d8d 0E       		.uleb128 0xe
 5609 0d8e 6B000000 		.4byte	0x6b
 5610 0d92 9E0D0000 		.4byte	0xd9e
 5611 0d96 19       		.uleb128 0x19
 5612 0d97 A9000000 		.4byte	0xa9
 5613 0d9b 7802     		.2byte	0x278
 5614 0d9d 00       		.byte	0
 5615 0d9e 0E       		.uleb128 0xe
ARM GAS  C:\Users\Sarah\AppData\Local\Temp\ccqSJLdk.s 			page 166


 5616 0d9f 6B000000 		.4byte	0x6b
 5617 0da3 B40D0000 		.4byte	0xdb4
 5618 0da7 0F       		.uleb128 0xf
 5619 0da8 A9000000 		.4byte	0xa9
 5620 0dac 04       		.byte	0x4
 5621 0dad 0F       		.uleb128 0xf
 5622 0dae A9000000 		.4byte	0xa9
 5623 0db2 01       		.byte	0x1
 5624 0db3 00       		.byte	0
 5625 0db4 11       		.uleb128 0x11
 5626 0db5 DB270000 		.4byte	.LASF327
 5627 0db9 0A       		.byte	0xa
 5628 0dba A9       		.byte	0xa9
 5629 0dbb 500D0000 		.4byte	0xd50
 5630 0dbf 10       		.uleb128 0x10
 5631 0dc0 02       		.byte	0x2
 5632 0dc1 0B       		.byte	0xb
 5633 0dc2 AE       		.byte	0xae
 5634 0dc3 63150000 		.4byte	0x1563
 5635 0dc7 0B       		.uleb128 0xb
 5636 0dc8 43300000 		.4byte	.LASF328
 5637 0dcc 8002     		.sleb128 256
 5638 0dce 0B       		.uleb128 0xb
 5639 0dcf 754D0000 		.4byte	.LASF329
 5640 0dd3 8102     		.sleb128 257
 5641 0dd5 0B       		.uleb128 0xb
 5642 0dd6 194C0000 		.4byte	.LASF330
 5643 0dda 8202     		.sleb128 258
 5644 0ddc 0B       		.uleb128 0xb
 5645 0ddd 2B4D0000 		.4byte	.LASF331
 5646 0de1 8302     		.sleb128 259
 5647 0de3 0B       		.uleb128 0xb
 5648 0de4 E5370000 		.4byte	.LASF332
 5649 0de8 8402     		.sleb128 260
 5650 0dea 0B       		.uleb128 0xb
 5651 0deb 7C420000 		.4byte	.LASF333
 5652 0def 8502     		.sleb128 261
 5653 0df1 0B       		.uleb128 0xb
 5654 0df2 D4140000 		.4byte	.LASF334
 5655 0df6 8602     		.sleb128 262
 5656 0df8 0B       		.uleb128 0xb
 5657 0df9 19440000 		.4byte	.LASF335
 5658 0dfd 8702     		.sleb128 263
 5659 0dff 0B       		.uleb128 0xb
 5660 0e00 414B0000 		.4byte	.LASF336
 5661 0e04 8802     		.sleb128 264
 5662 0e06 0B       		.uleb128 0xb
 5663 0e07 CD060000 		.4byte	.LASF337
 5664 0e0b 8902     		.sleb128 265
 5665 0e0d 0B       		.uleb128 0xb
 5666 0e0e B3030000 		.4byte	.LASF338
 5667 0e12 8A02     		.sleb128 266
 5668 0e14 0B       		.uleb128 0xb
 5669 0e15 263B0000 		.4byte	.LASF339
 5670 0e19 8B02     		.sleb128 267
 5671 0e1b 0B       		.uleb128 0xb
 5672 0e1c 160D0000 		.4byte	.LASF340
ARM GAS  C:\Users\Sarah\AppData\Local\Temp\ccqSJLdk.s 			page 167


 5673 0e20 8C02     		.sleb128 268
 5674 0e22 0B       		.uleb128 0xb
 5675 0e23 DF350000 		.4byte	.LASF341
 5676 0e27 8D02     		.sleb128 269
 5677 0e29 0B       		.uleb128 0xb
 5678 0e2a 93040000 		.4byte	.LASF342
 5679 0e2e 8E02     		.sleb128 270
 5680 0e30 0B       		.uleb128 0xb
 5681 0e31 9B010000 		.4byte	.LASF343
 5682 0e35 8F02     		.sleb128 271
 5683 0e37 0B       		.uleb128 0xb
 5684 0e38 63090000 		.4byte	.LASF344
 5685 0e3c 9002     		.sleb128 272
 5686 0e3e 0B       		.uleb128 0xb
 5687 0e3f 80480000 		.4byte	.LASF345
 5688 0e43 9102     		.sleb128 273
 5689 0e45 0B       		.uleb128 0xb
 5690 0e46 B6150000 		.4byte	.LASF346
 5691 0e4a 9202     		.sleb128 274
 5692 0e4c 0B       		.uleb128 0xb
 5693 0e4d 743C0000 		.4byte	.LASF347
 5694 0e51 9302     		.sleb128 275
 5695 0e53 0B       		.uleb128 0xb
 5696 0e54 D6040000 		.4byte	.LASF348
 5697 0e58 9402     		.sleb128 276
 5698 0e5a 0B       		.uleb128 0xb
 5699 0e5b 2F410000 		.4byte	.LASF349
 5700 0e5f 9502     		.sleb128 277
 5701 0e61 0B       		.uleb128 0xb
 5702 0e62 D54E0000 		.4byte	.LASF350
 5703 0e66 9602     		.sleb128 278
 5704 0e68 0B       		.uleb128 0xb
 5705 0e69 D82D0000 		.4byte	.LASF351
 5706 0e6d 9702     		.sleb128 279
 5707 0e6f 0B       		.uleb128 0xb
 5708 0e70 991B0000 		.4byte	.LASF352
 5709 0e74 9802     		.sleb128 280
 5710 0e76 0B       		.uleb128 0xb
 5711 0e77 D6430000 		.4byte	.LASF353
 5712 0e7b 9902     		.sleb128 281
 5713 0e7d 0B       		.uleb128 0xb
 5714 0e7e B4310000 		.4byte	.LASF354
 5715 0e82 9A02     		.sleb128 282
 5716 0e84 0B       		.uleb128 0xb
 5717 0e85 6A4F0000 		.4byte	.LASF355
 5718 0e89 9B02     		.sleb128 283
 5719 0e8b 0B       		.uleb128 0xb
 5720 0e8c 61440000 		.4byte	.LASF356
 5721 0e90 9C02     		.sleb128 284
 5722 0e92 0B       		.uleb128 0xb
 5723 0e93 004E0000 		.4byte	.LASF357
 5724 0e97 9D02     		.sleb128 285
 5725 0e99 0B       		.uleb128 0xb
 5726 0e9a 5E240000 		.4byte	.LASF358
 5727 0e9e 9E02     		.sleb128 286
 5728 0ea0 0B       		.uleb128 0xb
 5729 0ea1 AF1F0000 		.4byte	.LASF359
ARM GAS  C:\Users\Sarah\AppData\Local\Temp\ccqSJLdk.s 			page 168


 5730 0ea5 9F02     		.sleb128 287
 5731 0ea7 0B       		.uleb128 0xb
 5732 0ea8 79050000 		.4byte	.LASF360
 5733 0eac A002     		.sleb128 288
 5734 0eae 0B       		.uleb128 0xb
 5735 0eaf 23370000 		.4byte	.LASF361
 5736 0eb3 A102     		.sleb128 289
 5737 0eb5 0B       		.uleb128 0xb
 5738 0eb6 04250000 		.4byte	.LASF362
 5739 0eba A202     		.sleb128 290
 5740 0ebc 0B       		.uleb128 0xb
 5741 0ebd CA3C0000 		.4byte	.LASF363
 5742 0ec1 A302     		.sleb128 291
 5743 0ec3 0B       		.uleb128 0xb
 5744 0ec4 61350000 		.4byte	.LASF364
 5745 0ec8 A402     		.sleb128 292
 5746 0eca 0B       		.uleb128 0xb
 5747 0ecb B6460000 		.4byte	.LASF365
 5748 0ecf A502     		.sleb128 293
 5749 0ed1 0B       		.uleb128 0xb
 5750 0ed2 D2110000 		.4byte	.LASF366
 5751 0ed6 A602     		.sleb128 294
 5752 0ed8 0B       		.uleb128 0xb
 5753 0ed9 F5430000 		.4byte	.LASF367
 5754 0edd A702     		.sleb128 295
 5755 0edf 0B       		.uleb128 0xb
 5756 0ee0 A21E0000 		.4byte	.LASF368
 5757 0ee4 A802     		.sleb128 296
 5758 0ee6 0B       		.uleb128 0xb
 5759 0ee7 A40E0000 		.4byte	.LASF369
 5760 0eeb A902     		.sleb128 297
 5761 0eed 0B       		.uleb128 0xb
 5762 0eee FF030000 		.4byte	.LASF370
 5763 0ef2 AA02     		.sleb128 298
 5764 0ef4 0B       		.uleb128 0xb
 5765 0ef5 23040000 		.4byte	.LASF371
 5766 0ef9 AB02     		.sleb128 299
 5767 0efb 0B       		.uleb128 0xb
 5768 0efc DA000000 		.4byte	.LASF372
 5769 0f00 AC02     		.sleb128 300
 5770 0f02 0B       		.uleb128 0xb
 5771 0f03 8B110000 		.4byte	.LASF373
 5772 0f07 AD02     		.sleb128 301
 5773 0f09 0B       		.uleb128 0xb
 5774 0f0a 974D0000 		.4byte	.LASF374
 5775 0f0e AE02     		.sleb128 302
 5776 0f10 0B       		.uleb128 0xb
 5777 0f11 3D080000 		.4byte	.LASF375
 5778 0f15 AF02     		.sleb128 303
 5779 0f17 0B       		.uleb128 0xb
 5780 0f18 3B2F0000 		.4byte	.LASF376
 5781 0f1c B002     		.sleb128 304
 5782 0f1e 0B       		.uleb128 0xb
 5783 0f1f E7400000 		.4byte	.LASF377
 5784 0f23 B102     		.sleb128 305
 5785 0f25 0B       		.uleb128 0xb
 5786 0f26 E81A0000 		.4byte	.LASF378
ARM GAS  C:\Users\Sarah\AppData\Local\Temp\ccqSJLdk.s 			page 169


 5787 0f2a B202     		.sleb128 306
 5788 0f2c 0B       		.uleb128 0xb
 5789 0f2d C2300000 		.4byte	.LASF379
 5790 0f31 B302     		.sleb128 307
 5791 0f33 0B       		.uleb128 0xb
 5792 0f34 F51D0000 		.4byte	.LASF380
 5793 0f38 B402     		.sleb128 308
 5794 0f3a 0B       		.uleb128 0xb
 5795 0f3b 87080000 		.4byte	.LASF381
 5796 0f3f B502     		.sleb128 309
 5797 0f41 0B       		.uleb128 0xb
 5798 0f42 E8020000 		.4byte	.LASF382
 5799 0f46 B602     		.sleb128 310
 5800 0f48 0B       		.uleb128 0xb
 5801 0f49 060C0000 		.4byte	.LASF383
 5802 0f4d B702     		.sleb128 311
 5803 0f4f 0B       		.uleb128 0xb
 5804 0f50 6C410000 		.4byte	.LASF384
 5805 0f54 B802     		.sleb128 312
 5806 0f56 0B       		.uleb128 0xb
 5807 0f57 62420000 		.4byte	.LASF385
 5808 0f5b B902     		.sleb128 313
 5809 0f5d 0B       		.uleb128 0xb
 5810 0f5e 800A0000 		.4byte	.LASF386
 5811 0f62 BA02     		.sleb128 314
 5812 0f64 0B       		.uleb128 0xb
 5813 0f65 88330000 		.4byte	.LASF387
 5814 0f69 BB02     		.sleb128 315
 5815 0f6b 0B       		.uleb128 0xb
 5816 0f6c EB470000 		.4byte	.LASF388
 5817 0f70 BC02     		.sleb128 316
 5818 0f72 0B       		.uleb128 0xb
 5819 0f73 842A0000 		.4byte	.LASF389
 5820 0f77 BD02     		.sleb128 317
 5821 0f79 0B       		.uleb128 0xb
 5822 0f7a 37480000 		.4byte	.LASF390
 5823 0f7e BE02     		.sleb128 318
 5824 0f80 0B       		.uleb128 0xb
 5825 0f81 480B0000 		.4byte	.LASF391
 5826 0f85 BF02     		.sleb128 319
 5827 0f87 0B       		.uleb128 0xb
 5828 0f88 A1140000 		.4byte	.LASF392
 5829 0f8c C002     		.sleb128 320
 5830 0f8e 0B       		.uleb128 0xb
 5831 0f8f E24A0000 		.4byte	.LASF393
 5832 0f93 C102     		.sleb128 321
 5833 0f95 0B       		.uleb128 0xb
 5834 0f96 BF480000 		.4byte	.LASF394
 5835 0f9a C202     		.sleb128 322
 5836 0f9c 0B       		.uleb128 0xb
 5837 0f9d FC000000 		.4byte	.LASF395
 5838 0fa1 C302     		.sleb128 323
 5839 0fa3 0B       		.uleb128 0xb
 5840 0fa4 FA420000 		.4byte	.LASF396
 5841 0fa8 C402     		.sleb128 324
 5842 0faa 0B       		.uleb128 0xb
 5843 0fab 40260000 		.4byte	.LASF397
ARM GAS  C:\Users\Sarah\AppData\Local\Temp\ccqSJLdk.s 			page 170


 5844 0faf C502     		.sleb128 325
 5845 0fb1 0B       		.uleb128 0xb
 5846 0fb2 4D070000 		.4byte	.LASF398
 5847 0fb6 C602     		.sleb128 326
 5848 0fb8 0B       		.uleb128 0xb
 5849 0fb9 553E0000 		.4byte	.LASF399
 5850 0fbd C702     		.sleb128 327
 5851 0fbf 0B       		.uleb128 0xb
 5852 0fc0 454F0000 		.4byte	.LASF400
 5853 0fc4 C802     		.sleb128 328
 5854 0fc6 0B       		.uleb128 0xb
 5855 0fc7 0A3D0000 		.4byte	.LASF401
 5856 0fcb C902     		.sleb128 329
 5857 0fcd 0B       		.uleb128 0xb
 5858 0fce 8B130000 		.4byte	.LASF402
 5859 0fd2 CA02     		.sleb128 330
 5860 0fd4 0B       		.uleb128 0xb
 5861 0fd5 8E0C0000 		.4byte	.LASF403
 5862 0fd9 CB02     		.sleb128 331
 5863 0fdb 0B       		.uleb128 0xb
 5864 0fdc 520C0000 		.4byte	.LASF404
 5865 0fe0 CC02     		.sleb128 332
 5866 0fe2 0B       		.uleb128 0xb
 5867 0fe3 4B130000 		.4byte	.LASF405
 5868 0fe7 CD02     		.sleb128 333
 5869 0fe9 0B       		.uleb128 0xb
 5870 0fea F0270000 		.4byte	.LASF406
 5871 0fee CE02     		.sleb128 334
 5872 0ff0 0B       		.uleb128 0xb
 5873 0ff1 924C0000 		.4byte	.LASF407
 5874 0ff5 CF02     		.sleb128 335
 5875 0ff7 0B       		.uleb128 0xb
 5876 0ff8 141A0000 		.4byte	.LASF408
 5877 0ffc D002     		.sleb128 336
 5878 0ffe 0B       		.uleb128 0xb
 5879 0fff 73390000 		.4byte	.LASF409
 5880 1003 D102     		.sleb128 337
 5881 1005 0B       		.uleb128 0xb
 5882 1006 16330000 		.4byte	.LASF410
 5883 100a D202     		.sleb128 338
 5884 100c 0B       		.uleb128 0xb
 5885 100d 0E020000 		.4byte	.LASF411
 5886 1011 D302     		.sleb128 339
 5887 1013 0B       		.uleb128 0xb
 5888 1014 88250000 		.4byte	.LASF412
 5889 1018 D402     		.sleb128 340
 5890 101a 0B       		.uleb128 0xb
 5891 101b 17010000 		.4byte	.LASF413
 5892 101f D502     		.sleb128 341
 5893 1021 0B       		.uleb128 0xb
 5894 1022 F20C0000 		.4byte	.LASF414
 5895 1026 D602     		.sleb128 342
 5896 1028 0B       		.uleb128 0xb
 5897 1029 1F490000 		.4byte	.LASF415
 5898 102d D702     		.sleb128 343
 5899 102f 0B       		.uleb128 0xb
 5900 1030 931D0000 		.4byte	.LASF416
ARM GAS  C:\Users\Sarah\AppData\Local\Temp\ccqSJLdk.s 			page 171


 5901 1034 D802     		.sleb128 344
 5902 1036 0B       		.uleb128 0xb
 5903 1037 3A1C0000 		.4byte	.LASF417
 5904 103b D902     		.sleb128 345
 5905 103d 0B       		.uleb128 0xb
 5906 103e 71070000 		.4byte	.LASF418
 5907 1042 DA02     		.sleb128 346
 5908 1044 0B       		.uleb128 0xb
 5909 1045 880D0000 		.4byte	.LASF419
 5910 1049 DB02     		.sleb128 347
 5911 104b 0B       		.uleb128 0xb
 5912 104c 42200000 		.4byte	.LASF420
 5913 1050 DC02     		.sleb128 348
 5914 1052 0B       		.uleb128 0xb
 5915 1053 D3260000 		.4byte	.LASF421
 5916 1057 DD02     		.sleb128 349
 5917 1059 0B       		.uleb128 0xb
 5918 105a E2090000 		.4byte	.LASF422
 5919 105e DE02     		.sleb128 350
 5920 1060 0B       		.uleb128 0xb
 5921 1061 D0080000 		.4byte	.LASF423
 5922 1065 DF02     		.sleb128 351
 5923 1067 0B       		.uleb128 0xb
 5924 1068 30020000 		.4byte	.LASF424
 5925 106c E002     		.sleb128 352
 5926 106e 0B       		.uleb128 0xb
 5927 106f DF2C0000 		.4byte	.LASF425
 5928 1073 E102     		.sleb128 353
 5929 1075 0B       		.uleb128 0xb
 5930 1076 AA4E0000 		.4byte	.LASF426
 5931 107a E202     		.sleb128 354
 5932 107c 0B       		.uleb128 0xb
 5933 107d 36190000 		.4byte	.LASF427
 5934 1081 E302     		.sleb128 355
 5935 1083 0B       		.uleb128 0xb
 5936 1084 601C0000 		.4byte	.LASF428
 5937 1088 E402     		.sleb128 356
 5938 108a 0B       		.uleb128 0xb
 5939 108b FA2E0000 		.4byte	.LASF429
 5940 108f E502     		.sleb128 357
 5941 1091 0B       		.uleb128 0xb
 5942 1092 21450000 		.4byte	.LASF430
 5943 1096 E602     		.sleb128 358
 5944 1098 0B       		.uleb128 0xb
 5945 1099 813A0000 		.4byte	.LASF431
 5946 109d E702     		.sleb128 359
 5947 109f 0B       		.uleb128 0xb
 5948 10a0 71040000 		.4byte	.LASF432
 5949 10a4 E802     		.sleb128 360
 5950 10a6 0B       		.uleb128 0xb
 5951 10a7 7B380000 		.4byte	.LASF433
 5952 10ab E902     		.sleb128 361
 5953 10ad 0B       		.uleb128 0xb
 5954 10ae 12190000 		.4byte	.LASF434
 5955 10b2 EA02     		.sleb128 362
 5956 10b4 0B       		.uleb128 0xb
 5957 10b5 4A250000 		.4byte	.LASF435
ARM GAS  C:\Users\Sarah\AppData\Local\Temp\ccqSJLdk.s 			page 172


 5958 10b9 EB02     		.sleb128 363
 5959 10bb 0B       		.uleb128 0xb
 5960 10bc 28250000 		.4byte	.LASF436
 5961 10c0 EC02     		.sleb128 364
 5962 10c2 0B       		.uleb128 0xb
 5963 10c3 55460000 		.4byte	.LASF437
 5964 10c7 ED02     		.sleb128 365
 5965 10c9 0B       		.uleb128 0xb
 5966 10ca 751A0000 		.4byte	.LASF438
 5967 10ce EE02     		.sleb128 366
 5968 10d0 0B       		.uleb128 0xb
 5969 10d1 A52C0000 		.4byte	.LASF439
 5970 10d5 EF02     		.sleb128 367
 5971 10d7 0B       		.uleb128 0xb
 5972 10d8 D02A0000 		.4byte	.LASF440
 5973 10dc F002     		.sleb128 368
 5974 10de 0B       		.uleb128 0xb
 5975 10df 9A2F0000 		.4byte	.LASF441
 5976 10e3 F102     		.sleb128 369
 5977 10e5 0B       		.uleb128 0xb
 5978 10e6 8D3F0000 		.4byte	.LASF442
 5979 10ea F202     		.sleb128 370
 5980 10ec 0B       		.uleb128 0xb
 5981 10ed 8A2C0000 		.4byte	.LASF443
 5982 10f1 F302     		.sleb128 371
 5983 10f3 0B       		.uleb128 0xb
 5984 10f4 482D0000 		.4byte	.LASF444
 5985 10f8 F402     		.sleb128 372
 5986 10fa 0B       		.uleb128 0xb
 5987 10fb 7F1B0000 		.4byte	.LASF445
 5988 10ff F502     		.sleb128 373
 5989 1101 0B       		.uleb128 0xb
 5990 1102 8A100000 		.4byte	.LASF446
 5991 1106 F602     		.sleb128 374
 5992 1108 0B       		.uleb128 0xb
 5993 1109 96430000 		.4byte	.LASF447
 5994 110d F702     		.sleb128 375
 5995 110f 0B       		.uleb128 0xb
 5996 1110 4A210000 		.4byte	.LASF448
 5997 1114 F802     		.sleb128 376
 5998 1116 0B       		.uleb128 0xb
 5999 1117 FE0E0000 		.4byte	.LASF449
 6000 111b F902     		.sleb128 377
 6001 111d 0B       		.uleb128 0xb
 6002 111e 3F440000 		.4byte	.LASF450
 6003 1122 FA02     		.sleb128 378
 6004 1124 0B       		.uleb128 0xb
 6005 1125 D13A0000 		.4byte	.LASF451
 6006 1129 FB02     		.sleb128 379
 6007 112b 0B       		.uleb128 0xb
 6008 112c 86370000 		.4byte	.LASF452
 6009 1130 FC02     		.sleb128 380
 6010 1132 0B       		.uleb128 0xb
 6011 1133 4D100000 		.4byte	.LASF453
 6012 1137 FD02     		.sleb128 381
 6013 1139 0B       		.uleb128 0xb
 6014 113a B8020000 		.4byte	.LASF454
ARM GAS  C:\Users\Sarah\AppData\Local\Temp\ccqSJLdk.s 			page 173


 6015 113e FE02     		.sleb128 382
 6016 1140 0B       		.uleb128 0xb
 6017 1141 04340000 		.4byte	.LASF455
 6018 1145 FF02     		.sleb128 383
 6019 1147 0B       		.uleb128 0xb
 6020 1148 784C0000 		.4byte	.LASF456
 6021 114c 8003     		.sleb128 384
 6022 114e 0B       		.uleb128 0xb
 6023 114f D8460000 		.4byte	.LASF457
 6024 1153 8103     		.sleb128 385
 6025 1155 0B       		.uleb128 0xb
 6026 1156 11400000 		.4byte	.LASF458
 6027 115a 8203     		.sleb128 386
 6028 115c 0B       		.uleb128 0xb
 6029 115d 65030000 		.4byte	.LASF459
 6030 1161 8303     		.sleb128 387
 6031 1163 0B       		.uleb128 0xb
 6032 1164 95170000 		.4byte	.LASF460
 6033 1168 8403     		.sleb128 388
 6034 116a 0B       		.uleb128 0xb
 6035 116b DA480000 		.4byte	.LASF461
 6036 116f 8503     		.sleb128 389
 6037 1171 0B       		.uleb128 0xb
 6038 1172 B54F0000 		.4byte	.LASF462
 6039 1176 8603     		.sleb128 390
 6040 1178 0B       		.uleb128 0xb
 6041 1179 892D0000 		.4byte	.LASF463
 6042 117d 8703     		.sleb128 391
 6043 117f 0B       		.uleb128 0xb
 6044 1180 3E4E0000 		.4byte	.LASF464
 6045 1184 8803     		.sleb128 392
 6046 1186 0B       		.uleb128 0xb
 6047 1187 262D0000 		.4byte	.LASF465
 6048 118b 8903     		.sleb128 393
 6049 118d 0B       		.uleb128 0xb
 6050 118e 23110000 		.4byte	.LASF466
 6051 1192 8A03     		.sleb128 394
 6052 1194 0B       		.uleb128 0xb
 6053 1195 87210000 		.4byte	.LASF467
 6054 1199 8B03     		.sleb128 395
 6055 119b 0B       		.uleb128 0xb
 6056 119c 801E0000 		.4byte	.LASF468
 6057 11a0 8C03     		.sleb128 396
 6058 11a2 0B       		.uleb128 0xb
 6059 11a3 AC100000 		.4byte	.LASF469
 6060 11a7 8D03     		.sleb128 397
 6061 11a9 0B       		.uleb128 0xb
 6062 11aa 793E0000 		.4byte	.LASF470
 6063 11ae 8E03     		.sleb128 398
 6064 11b0 0B       		.uleb128 0xb
 6065 11b1 5D220000 		.4byte	.LASF471
 6066 11b5 8F03     		.sleb128 399
 6067 11b7 0B       		.uleb128 0xb
 6068 11b8 1B350000 		.4byte	.LASF472
 6069 11bc 9003     		.sleb128 400
 6070 11be 0B       		.uleb128 0xb
 6071 11bf 30050000 		.4byte	.LASF473
ARM GAS  C:\Users\Sarah\AppData\Local\Temp\ccqSJLdk.s 			page 174


 6072 11c3 9103     		.sleb128 401
 6073 11c5 0B       		.uleb128 0xb
 6074 11c6 06290000 		.4byte	.LASF474
 6075 11ca 9203     		.sleb128 402
 6076 11cc 0B       		.uleb128 0xb
 6077 11cd 4E360000 		.4byte	.LASF475
 6078 11d1 9303     		.sleb128 403
 6079 11d3 0B       		.uleb128 0xb
 6080 11d4 0F1E0000 		.4byte	.LASF476
 6081 11d8 9403     		.sleb128 404
 6082 11da 0B       		.uleb128 0xb
 6083 11db 5D450000 		.4byte	.LASF477
 6084 11df 9503     		.sleb128 405
 6085 11e1 0B       		.uleb128 0xb
 6086 11e2 1F2A0000 		.4byte	.LASF478
 6087 11e6 9603     		.sleb128 406
 6088 11e8 0B       		.uleb128 0xb
 6089 11e9 FE440000 		.4byte	.LASF479
 6090 11ed 9703     		.sleb128 407
 6091 11ef 0B       		.uleb128 0xb
 6092 11f0 0C1B0000 		.4byte	.LASF480
 6093 11f4 9803     		.sleb128 408
 6094 11f6 0B       		.uleb128 0xb
 6095 11f7 B6160000 		.4byte	.LASF481
 6096 11fb 9903     		.sleb128 409
 6097 11fd 0B       		.uleb128 0xb
 6098 11fe 2E1A0000 		.4byte	.LASF482
 6099 1202 9A03     		.sleb128 410
 6100 1204 0B       		.uleb128 0xb
 6101 1205 061C0000 		.4byte	.LASF483
 6102 1209 9B03     		.sleb128 411
 6103 120b 0B       		.uleb128 0xb
 6104 120c 48500000 		.4byte	.LASF484
 6105 1210 9C03     		.sleb128 412
 6106 1212 0B       		.uleb128 0xb
 6107 1213 A9340000 		.4byte	.LASF485
 6108 1217 9D03     		.sleb128 413
 6109 1219 0B       		.uleb128 0xb
 6110 121a 3F350000 		.4byte	.LASF486
 6111 121e 9E03     		.sleb128 414
 6112 1220 0B       		.uleb128 0xb
 6113 1221 9F090000 		.4byte	.LASF487
 6114 1225 9F03     		.sleb128 415
 6115 1227 0B       		.uleb128 0xb
 6116 1228 561D0000 		.4byte	.LASF488
 6117 122c A003     		.sleb128 416
 6118 122e 0B       		.uleb128 0xb
 6119 122f 4F3F0000 		.4byte	.LASF489
 6120 1233 A103     		.sleb128 417
 6121 1235 0B       		.uleb128 0xb
 6122 1236 690F0000 		.4byte	.LASF490
 6123 123a A203     		.sleb128 418
 6124 123c 0B       		.uleb128 0xb
 6125 123d 51000000 		.4byte	.LASF491
 6126 1241 A303     		.sleb128 419
 6127 1243 0B       		.uleb128 0xb
 6128 1244 D4450000 		.4byte	.LASF492
ARM GAS  C:\Users\Sarah\AppData\Local\Temp\ccqSJLdk.s 			page 175


 6129 1248 A403     		.sleb128 420
 6130 124a 0B       		.uleb128 0xb
 6131 124b 0C180000 		.4byte	.LASF493
 6132 124f A503     		.sleb128 421
 6133 1251 0B       		.uleb128 0xb
 6134 1252 FF4F0000 		.4byte	.LASF494
 6135 1256 A603     		.sleb128 422
 6136 1258 0B       		.uleb128 0xb
 6137 1259 C6240000 		.4byte	.LASF495
 6138 125d A703     		.sleb128 423
 6139 125f 0B       		.uleb128 0xb
 6140 1260 2A290000 		.4byte	.LASF496
 6141 1264 A803     		.sleb128 424
 6142 1266 0B       		.uleb128 0xb
 6143 1267 8F4F0000 		.4byte	.LASF497
 6144 126b A903     		.sleb128 425
 6145 126d 0B       		.uleb128 0xb
 6146 126e 96410000 		.4byte	.LASF498
 6147 1272 AA03     		.sleb128 426
 6148 1274 0B       		.uleb128 0xb
 6149 1275 1B310000 		.4byte	.LASF499
 6150 1279 AB03     		.sleb128 427
 6151 127b 0B       		.uleb128 0xb
 6152 127c AB330000 		.4byte	.LASF500
 6153 1280 AC03     		.sleb128 428
 6154 1282 0B       		.uleb128 0xb
 6155 1283 FD490000 		.4byte	.LASF501
 6156 1287 AD03     		.sleb128 429
 6157 1289 0B       		.uleb128 0xb
 6158 128a FE220000 		.4byte	.LASF502
 6159 128e AE03     		.sleb128 430
 6160 1290 0B       		.uleb128 0xb
 6161 1291 360A0000 		.4byte	.LASF503
 6162 1295 AF03     		.sleb128 431
 6163 1297 0B       		.uleb128 0xb
 6164 1298 4C150000 		.4byte	.LASF504
 6165 129c B003     		.sleb128 432
 6166 129e 0B       		.uleb128 0xb
 6167 129f 7F4E0000 		.4byte	.LASF505
 6168 12a3 B103     		.sleb128 433
 6169 12a5 0B       		.uleb128 0xb
 6170 12a6 460F0000 		.4byte	.LASF506
 6171 12aa B203     		.sleb128 434
 6172 12ac 0B       		.uleb128 0xb
 6173 12ad BE220000 		.4byte	.LASF507
 6174 12b1 B303     		.sleb128 435
 6175 12b3 0B       		.uleb128 0xb
 6176 12b4 60280000 		.4byte	.LASF508
 6177 12b8 B403     		.sleb128 436
 6178 12ba 0B       		.uleb128 0xb
 6179 12bb 7F190000 		.4byte	.LASF509
 6180 12bf B503     		.sleb128 437
 6181 12c1 0B       		.uleb128 0xb
 6182 12c2 09210000 		.4byte	.LASF510
 6183 12c6 B603     		.sleb128 438
 6184 12c8 0B       		.uleb128 0xb
 6185 12c9 53020000 		.4byte	.LASF511
ARM GAS  C:\Users\Sarah\AppData\Local\Temp\ccqSJLdk.s 			page 176


 6186 12cd B703     		.sleb128 439
 6187 12cf 0B       		.uleb128 0xb
 6188 12d0 052C0000 		.4byte	.LASF512
 6189 12d4 B803     		.sleb128 440
 6190 12d6 0B       		.uleb128 0xb
 6191 12d7 82470000 		.4byte	.LASF513
 6192 12db B903     		.sleb128 441
 6193 12dd 0B       		.uleb128 0xb
 6194 12de 643B0000 		.4byte	.LASF514
 6195 12e2 BA03     		.sleb128 442
 6196 12e4 0B       		.uleb128 0xb
 6197 12e5 4E040000 		.4byte	.LASF515
 6198 12e9 BB03     		.sleb128 443
 6199 12eb 0B       		.uleb128 0xb
 6200 12ec DC360000 		.4byte	.LASF516
 6201 12f0 BC03     		.sleb128 444
 6202 12f2 0B       		.uleb128 0xb
 6203 12f3 B00C0000 		.4byte	.LASF517
 6204 12f7 BD03     		.sleb128 445
 6205 12f9 0B       		.uleb128 0xb
 6206 12fa 630D0000 		.4byte	.LASF518
 6207 12fe BE03     		.sleb128 446
 6208 1300 0B       		.uleb128 0xb
 6209 1301 733F0000 		.4byte	.LASF519
 6210 1305 BF03     		.sleb128 447
 6211 1307 0B       		.uleb128 0xb
 6212 1308 B8070000 		.4byte	.LASF520
 6213 130c C003     		.sleb128 448
 6214 130e 0B       		.uleb128 0xb
 6215 130f 143A0000 		.4byte	.LASF521
 6216 1313 C103     		.sleb128 449
 6217 1315 0B       		.uleb128 0xb
 6218 1316 47370000 		.4byte	.LASF522
 6219 131a C203     		.sleb128 450
 6220 131c 0B       		.uleb128 0xb
 6221 131d 3F1F0000 		.4byte	.LASF523
 6222 1321 C303     		.sleb128 451
 6223 1323 0B       		.uleb128 0xb
 6224 1324 E04B0000 		.4byte	.LASF524
 6225 1328 C403     		.sleb128 452
 6226 132a 0B       		.uleb128 0xb
 6227 132b BD2B0000 		.4byte	.LASF525
 6228 132f C503     		.sleb128 453
 6229 1331 0B       		.uleb128 0xb
 6230 1332 BC350000 		.4byte	.LASF526
 6231 1336 C603     		.sleb128 454
 6232 1338 0B       		.uleb128 0xb
 6233 1339 413C0000 		.4byte	.LASF527
 6234 133d C703     		.sleb128 455
 6235 133f 0B       		.uleb128 0xb
 6236 1340 2F3E0000 		.4byte	.LASF528
 6237 1344 C803     		.sleb128 456
 6238 1346 0B       		.uleb128 0xb
 6239 1347 6D250000 		.4byte	.LASF529
 6240 134b C903     		.sleb128 457
 6241 134d 0B       		.uleb128 0xb
 6242 134e 91000000 		.4byte	.LASF530
ARM GAS  C:\Users\Sarah\AppData\Local\Temp\ccqSJLdk.s 			page 177


 6243 1352 CA03     		.sleb128 458
 6244 1354 0B       		.uleb128 0xb
 6245 1355 EE070000 		.4byte	.LASF531
 6246 1359 CB03     		.sleb128 459
 6247 135b 0B       		.uleb128 0xb
 6248 135c 26210000 		.4byte	.LASF532
 6249 1360 CC03     		.sleb128 460
 6250 1362 0B       		.uleb128 0xb
 6251 1363 EB410000 		.4byte	.LASF533
 6252 1367 CD03     		.sleb128 461
 6253 1369 0B       		.uleb128 0xb
 6254 136a EF3C0000 		.4byte	.LASF534
 6255 136e CE03     		.sleb128 462
 6256 1370 0B       		.uleb128 0xb
 6257 1371 72160000 		.4byte	.LASF535
 6258 1375 CF03     		.sleb128 463
 6259 1377 0B       		.uleb128 0xb
 6260 1378 38240000 		.4byte	.LASF536
 6261 137c D003     		.sleb128 464
 6262 137e 0B       		.uleb128 0xb
 6263 137f AE000000 		.4byte	.LASF537
 6264 1383 D103     		.sleb128 465
 6265 1385 0B       		.uleb128 0xb
 6266 1386 17270000 		.4byte	.LASF538
 6267 138a D203     		.sleb128 466
 6268 138c 0B       		.uleb128 0xb
 6269 138d DF280000 		.4byte	.LASF539
 6270 1391 D303     		.sleb128 467
 6271 1393 0B       		.uleb128 0xb
 6272 1394 34000000 		.4byte	.LASF540
 6273 1398 D403     		.sleb128 468
 6274 139a 0B       		.uleb128 0xb
 6275 139b F1040000 		.4byte	.LASF541
 6276 139f D503     		.sleb128 469
 6277 13a1 0B       		.uleb128 0xb
 6278 13a2 1F200000 		.4byte	.LASF542
 6279 13a6 D603     		.sleb128 470
 6280 13a8 0B       		.uleb128 0xb
 6281 13a9 AB250000 		.4byte	.LASF543
 6282 13ad D703     		.sleb128 471
 6283 13af 0B       		.uleb128 0xb
 6284 13b0 78060000 		.4byte	.LASF544
 6285 13b4 D803     		.sleb128 472
 6286 13b6 0B       		.uleb128 0xb
 6287 13b7 BA280000 		.4byte	.LASF545
 6288 13bb D903     		.sleb128 473
 6289 13bd 0B       		.uleb128 0xb
 6290 13be 134F0000 		.4byte	.LASF546
 6291 13c2 DA03     		.sleb128 474
 6292 13c4 0B       		.uleb128 0xb
 6293 13c5 12220000 		.4byte	.LASF547
 6294 13c9 DB03     		.sleb128 475
 6295 13cb 0B       		.uleb128 0xb
 6296 13cc 0D360000 		.4byte	.LASF548
 6297 13d0 DC03     		.sleb128 476
 6298 13d2 0B       		.uleb128 0xb
 6299 13d3 AC1C0000 		.4byte	.LASF549
ARM GAS  C:\Users\Sarah\AppData\Local\Temp\ccqSJLdk.s 			page 178


 6300 13d7 DD03     		.sleb128 477
 6301 13d9 0B       		.uleb128 0xb
 6302 13da DE340000 		.4byte	.LASF550
 6303 13de DE03     		.sleb128 478
 6304 13e0 0B       		.uleb128 0xb
 6305 13e1 BB040000 		.4byte	.LASF551
 6306 13e5 DF03     		.sleb128 479
 6307 13e7 0B       		.uleb128 0xb
 6308 13e8 A2400000 		.4byte	.LASF552
 6309 13ec E003     		.sleb128 480
 6310 13ee 0B       		.uleb128 0xb
 6311 13ef DB130000 		.4byte	.LASF553
 6312 13f3 E103     		.sleb128 481
 6313 13f5 0B       		.uleb128 0xb
 6314 13f6 3B270000 		.4byte	.LASF554
 6315 13fa E203     		.sleb128 482
 6316 13fc 0B       		.uleb128 0xb
 6317 13fd E21B0000 		.4byte	.LASF555
 6318 1401 E303     		.sleb128 483
 6319 1403 0B       		.uleb128 0xb
 6320 1404 43490000 		.4byte	.LASF556
 6321 1408 E403     		.sleb128 484
 6322 140a 0B       		.uleb128 0xb
 6323 140b DA030000 		.4byte	.LASF557
 6324 140f E503     		.sleb128 485
 6325 1411 0B       		.uleb128 0xb
 6326 1412 43010000 		.4byte	.LASF558
 6327 1416 E603     		.sleb128 486
 6328 1418 0B       		.uleb128 0xb
 6329 1419 2F180000 		.4byte	.LASF559
 6330 141d E703     		.sleb128 487
 6331 141f 0B       		.uleb128 0xb
 6332 1420 DA4F0000 		.4byte	.LASF560
 6333 1424 E803     		.sleb128 488
 6334 1426 0B       		.uleb128 0xb
 6335 1427 742F0000 		.4byte	.LASF561
 6336 142b E903     		.sleb128 489
 6337 142d 0B       		.uleb128 0xb
 6338 142e 2D470000 		.4byte	.LASF562
 6339 1432 EA03     		.sleb128 490
 6340 1434 0B       		.uleb128 0xb
 6341 1435 092D0000 		.4byte	.LASF563
 6342 1439 EB03     		.sleb128 491
 6343 143b 0B       		.uleb128 0xb
 6344 143c 2B3F0000 		.4byte	.LASF564
 6345 1440 EC03     		.sleb128 492
 6346 1442 0B       		.uleb128 0xb
 6347 1443 FC150000 		.4byte	.LASF565
 6348 1447 ED03     		.sleb128 493
 6349 1449 0B       		.uleb128 0xb
 6350 144a 55050000 		.4byte	.LASF566
 6351 144e EE03     		.sleb128 494
 6352 1450 0B       		.uleb128 0xb
 6353 1451 063F0000 		.4byte	.LASF567
 6354 1455 EF03     		.sleb128 495
 6355 1457 0B       		.uleb128 0xb
 6356 1458 41160000 		.4byte	.LASF568
ARM GAS  C:\Users\Sarah\AppData\Local\Temp\ccqSJLdk.s 			page 179


 6357 145c F003     		.sleb128 496
 6358 145e 0B       		.uleb128 0xb
 6359 145f 75290000 		.4byte	.LASF569
 6360 1463 F103     		.sleb128 497
 6361 1465 0B       		.uleb128 0xb
 6362 1466 593D0000 		.4byte	.LASF570
 6363 146a F203     		.sleb128 498
 6364 146c 0B       		.uleb128 0xb
 6365 146d BE1B0000 		.4byte	.LASF571
 6366 1471 F303     		.sleb128 499
 6367 1473 0B       		.uleb128 0xb
 6368 1474 3B450000 		.4byte	.LASF572
 6369 1478 F403     		.sleb128 500
 6370 147a 0B       		.uleb128 0xb
 6371 147b B6190000 		.4byte	.LASF573
 6372 147f F503     		.sleb128 501
 6373 1481 0B       		.uleb128 0xb
 6374 1482 BD0D0000 		.4byte	.LASF574
 6375 1486 F603     		.sleb128 502
 6376 1488 0B       		.uleb128 0xb
 6377 1489 73360000 		.4byte	.LASF575
 6378 148d F703     		.sleb128 503
 6379 148f 0B       		.uleb128 0xb
 6380 1490 D21F0000 		.4byte	.LASF576
 6381 1494 F803     		.sleb128 504
 6382 1496 0B       		.uleb128 0xb
 6383 1497 09100000 		.4byte	.LASF577
 6384 149b F903     		.sleb128 505
 6385 149d 0B       		.uleb128 0xb
 6386 149e 05200000 		.4byte	.LASF578
 6387 14a2 FA03     		.sleb128 506
 6388 14a4 0B       		.uleb128 0xb
 6389 14a5 FF090000 		.4byte	.LASF579
 6390 14a9 FB03     		.sleb128 507
 6391 14ab 0B       		.uleb128 0xb
 6392 14ac 382E0000 		.4byte	.LASF580
 6393 14b0 FC03     		.sleb128 508
 6394 14b2 0B       		.uleb128 0xb
 6395 14b3 12000000 		.4byte	.LASF581
 6396 14b7 FD03     		.sleb128 509
 6397 14b9 0B       		.uleb128 0xb
 6398 14ba 32320000 		.4byte	.LASF582
 6399 14be FE03     		.sleb128 510
 6400 14c0 0B       		.uleb128 0xb
 6401 14c1 32460000 		.4byte	.LASF583
 6402 14c5 FF03     		.sleb128 511
 6403 14c7 0B       		.uleb128 0xb
 6404 14c8 0C050000 		.4byte	.LASF584
 6405 14cc 8004     		.sleb128 512
 6406 14ce 0B       		.uleb128 0xb
 6407 14cf D23D0000 		.4byte	.LASF585
 6408 14d3 8104     		.sleb128 513
 6409 14d5 0B       		.uleb128 0xb
 6410 14d6 4F2B0000 		.4byte	.LASF586
 6411 14da 8204     		.sleb128 514
 6412 14dc 0B       		.uleb128 0xb
 6413 14dd 9A1A0000 		.4byte	.LASF587
ARM GAS  C:\Users\Sarah\AppData\Local\Temp\ccqSJLdk.s 			page 180


 6414 14e1 8304     		.sleb128 515
 6415 14e3 0B       		.uleb128 0xb
 6416 14e4 87230000 		.4byte	.LASF588
 6417 14e8 8404     		.sleb128 516
 6418 14ea 0B       		.uleb128 0xb
 6419 14eb 3E140000 		.4byte	.LASF589
 6420 14ef 8504     		.sleb128 517
 6421 14f1 0B       		.uleb128 0xb
 6422 14f2 23500000 		.4byte	.LASF590
 6423 14f6 8604     		.sleb128 518
 6424 14f8 0B       		.uleb128 0xb
 6425 14f9 D01C0000 		.4byte	.LASF591
 6426 14fd 8704     		.sleb128 519
 6427 14ff 0B       		.uleb128 0xb
 6428 1500 7E010000 		.4byte	.LASF592
 6429 1504 8804     		.sleb128 520
 6430 1506 0B       		.uleb128 0xb
 6431 1507 6D320000 		.4byte	.LASF593
 6432 150b 8904     		.sleb128 521
 6433 150d 0B       		.uleb128 0xb
 6434 150e 542E0000 		.4byte	.LASF594
 6435 1512 8A04     		.sleb128 522
 6436 1514 0B       		.uleb128 0xb
 6437 1515 EF1E0000 		.4byte	.LASF595
 6438 1519 8B04     		.sleb128 523
 6439 151b 0B       		.uleb128 0xb
 6440 151c 0B410000 		.4byte	.LASF596
 6441 1520 8C04     		.sleb128 524
 6442 1522 0B       		.uleb128 0xb
 6443 1523 624A0000 		.4byte	.LASF597
 6444 1527 8D04     		.sleb128 525
 6445 1529 0B       		.uleb128 0xb
 6446 152a EC010000 		.4byte	.LASF598
 6447 152e 8E04     		.sleb128 526
 6448 1530 0B       		.uleb128 0xb
 6449 1531 00370000 		.4byte	.LASF599
 6450 1535 8F04     		.sleb128 527
 6451 1537 0B       		.uleb128 0xb
 6452 1538 CC180000 		.4byte	.LASF600
 6453 153c 9004     		.sleb128 528
 6454 153e 0B       		.uleb128 0xb
 6455 153f 66300000 		.4byte	.LASF601
 6456 1543 9104     		.sleb128 529
 6457 1545 0B       		.uleb128 0xb
 6458 1546 BB4D0000 		.4byte	.LASF602
 6459 154a 9204     		.sleb128 530
 6460 154c 0B       		.uleb128 0xb
 6461 154d 1B140000 		.4byte	.LASF603
 6462 1551 9304     		.sleb128 531
 6463 1553 0B       		.uleb128 0xb
 6464 1554 AE110000 		.4byte	.LASF604
 6465 1558 9404     		.sleb128 532
 6466 155a 0B       		.uleb128 0xb
 6467 155b CE330000 		.4byte	.LASF605
 6468 155f 80C003   		.sleb128 57344
 6469 1562 00       		.byte	0
 6470 1563 0A       		.uleb128 0xa
ARM GAS  C:\Users\Sarah\AppData\Local\Temp\ccqSJLdk.s 			page 181


 6471 1564 01       		.byte	0x1
 6472 1565 0B       		.byte	0xb
 6473 1566 F607     		.2byte	0x7f6
 6474 1568 91150000 		.4byte	0x1591
 6475 156c 0B       		.uleb128 0xb
 6476 156d F3120000 		.4byte	.LASF606
 6477 1571 00       		.sleb128 0
 6478 1572 0B       		.uleb128 0xb
 6479 1573 55470000 		.4byte	.LASF607
 6480 1577 01       		.sleb128 1
 6481 1578 0B       		.uleb128 0xb
 6482 1579 034C0000 		.4byte	.LASF608
 6483 157d 02       		.sleb128 2
 6484 157e 0B       		.uleb128 0xb
 6485 157f B8060000 		.4byte	.LASF609
 6486 1583 03       		.sleb128 3
 6487 1584 0B       		.uleb128 0xb
 6488 1585 0D170000 		.4byte	.LASF610
 6489 1589 04       		.sleb128 4
 6490 158a 0B       		.uleb128 0xb
 6491 158b F83F0000 		.4byte	.LASF611
 6492 158f 05       		.sleb128 5
 6493 1590 00       		.byte	0
 6494 1591 04       		.uleb128 0x4
 6495 1592 D7370000 		.4byte	.LASF612
 6496 1596 0B       		.byte	0xb
 6497 1597 0408     		.2byte	0x804
 6498 1599 63150000 		.4byte	0x1563
 6499 159d 0A       		.uleb128 0xa
 6500 159e 01       		.byte	0x1
 6501 159f 0B       		.byte	0xb
 6502 15a0 0A08     		.2byte	0x80a
 6503 15a2 DD150000 		.4byte	0x15dd
 6504 15a6 0B       		.uleb128 0xb
 6505 15a7 473B0000 		.4byte	.LASF613
 6506 15ab 00       		.sleb128 0
 6507 15ac 0B       		.uleb128 0xb
 6508 15ad 5B190000 		.4byte	.LASF614
 6509 15b1 01       		.sleb128 1
 6510 15b2 0B       		.uleb128 0xb
 6511 15b3 3A400000 		.4byte	.LASF615
 6512 15b7 02       		.sleb128 2
 6513 15b8 0B       		.uleb128 0xb
 6514 15b9 54060000 		.4byte	.LASF616
 6515 15bd 03       		.sleb128 3
 6516 15be 0B       		.uleb128 0xb
 6517 15bf E13E0000 		.4byte	.LASF617
 6518 15c3 04       		.sleb128 4
 6519 15c4 0B       		.uleb128 0xb
 6520 15c5 8D3D0000 		.4byte	.LASF618
 6521 15c9 05       		.sleb128 5
 6522 15ca 0B       		.uleb128 0xb
 6523 15cb D8310000 		.4byte	.LASF619
 6524 15cf 06       		.sleb128 6
 6525 15d0 0B       		.uleb128 0xb
 6526 15d1 B0130000 		.4byte	.LASF620
 6527 15d5 07       		.sleb128 7
ARM GAS  C:\Users\Sarah\AppData\Local\Temp\ccqSJLdk.s 			page 182


 6528 15d6 0B       		.uleb128 0xb
 6529 15d7 F7260000 		.4byte	.LASF621
 6530 15db 08       		.sleb128 8
 6531 15dc 00       		.byte	0
 6532 15dd 04       		.uleb128 0x4
 6533 15de 57340000 		.4byte	.LASF622
 6534 15e2 0B       		.byte	0xb
 6535 15e3 1408     		.2byte	0x814
 6536 15e5 9D150000 		.4byte	0x159d
 6537 15e9 0C       		.uleb128 0xc
 6538 15ea 0C       		.byte	0xc
 6539 15eb 0B       		.byte	0xb
 6540 15ec 1E08     		.2byte	0x81e
 6541 15ee 41160000 		.4byte	0x1641
 6542 15f2 0D       		.uleb128 0xd
 6543 15f3 742B0000 		.4byte	.LASF623
 6544 15f7 0B       		.byte	0xb
 6545 15f8 2108     		.2byte	0x821
 6546 15fa 8D080000 		.4byte	0x88d
 6547 15fe 00       		.byte	0
 6548 15ff 0D       		.uleb128 0xd
 6549 1600 06350000 		.4byte	.LASF624
 6550 1604 0B       		.byte	0xb
 6551 1605 2308     		.2byte	0x823
 6552 1607 8D080000 		.4byte	0x88d
 6553 160b 02       		.byte	0x2
 6554 160c 0D       		.uleb128 0xd
 6555 160d C01A0000 		.4byte	.LASF625
 6556 1611 0B       		.byte	0xb
 6557 1612 2508     		.2byte	0x825
 6558 1614 8D080000 		.4byte	0x88d
 6559 1618 04       		.byte	0x4
 6560 1619 0D       		.uleb128 0xd
 6561 161a DB0E0000 		.4byte	.LASF626
 6562 161e 0B       		.byte	0xb
 6563 161f 2708     		.2byte	0x827
 6564 1621 8D080000 		.4byte	0x88d
 6565 1625 06       		.byte	0x6
 6566 1626 0D       		.uleb128 0xd
 6567 1627 55320000 		.4byte	.LASF627
 6568 162b 0B       		.byte	0xb
 6569 162c 2A08     		.2byte	0x82a
 6570 162e 8D080000 		.4byte	0x88d
 6571 1632 08       		.byte	0x8
 6572 1633 0D       		.uleb128 0xd
 6573 1634 96460000 		.4byte	.LASF628
 6574 1638 0B       		.byte	0xb
 6575 1639 2C08     		.2byte	0x82c
 6576 163b 8D080000 		.4byte	0x88d
 6577 163f 0A       		.byte	0xa
 6578 1640 00       		.byte	0
 6579 1641 04       		.uleb128 0x4
 6580 1642 450C0000 		.4byte	.LASF629
 6581 1646 0B       		.byte	0xb
 6582 1647 2D08     		.2byte	0x82d
 6583 1649 E9150000 		.4byte	0x15e9
 6584 164d 0A       		.uleb128 0xa
ARM GAS  C:\Users\Sarah\AppData\Local\Temp\ccqSJLdk.s 			page 183


 6585 164e 01       		.byte	0x1
 6586 164f 0B       		.byte	0xb
 6587 1650 3308     		.2byte	0x833
 6588 1652 75160000 		.4byte	0x1675
 6589 1656 0B       		.uleb128 0xb
 6590 1657 AB3D0000 		.4byte	.LASF630
 6591 165b 00       		.sleb128 0
 6592 165c 0B       		.uleb128 0xb
 6593 165d DD200000 		.4byte	.LASF631
 6594 1661 01       		.sleb128 1
 6595 1662 0B       		.uleb128 0xb
 6596 1663 8A4B0000 		.4byte	.LASF632
 6597 1667 02       		.sleb128 2
 6598 1668 0B       		.uleb128 0xb
 6599 1669 573A0000 		.4byte	.LASF633
 6600 166d 02       		.sleb128 2
 6601 166e 0B       		.uleb128 0xb
 6602 166f 7B440000 		.4byte	.LASF634
 6603 1673 03       		.sleb128 3
 6604 1674 00       		.byte	0
 6605 1675 0A       		.uleb128 0xa
 6606 1676 01       		.byte	0x1
 6607 1677 0B       		.byte	0xb
 6608 1678 A208     		.2byte	0x8a2
 6609 167a 91160000 		.4byte	0x1691
 6610 167e 0B       		.uleb128 0xb
 6611 167f 2D280000 		.4byte	.LASF635
 6612 1683 00       		.sleb128 0
 6613 1684 0B       		.uleb128 0xb
 6614 1685 DA0B0000 		.4byte	.LASF636
 6615 1689 01       		.sleb128 1
 6616 168a 0B       		.uleb128 0xb
 6617 168b F80F0000 		.4byte	.LASF637
 6618 168f 02       		.sleb128 2
 6619 1690 00       		.byte	0
 6620 1691 1A       		.uleb128 0x1a
 6621 1692 71020000 		.4byte	.LASF640
 6622 1696 01       		.byte	0x1
 6623 1697 EC       		.byte	0xec
 6624 1698 00000000 		.4byte	.LFB2
 6625 169c 70000000 		.4byte	.LFE2-.LFB2
 6626 16a0 01       		.uleb128 0x1
 6627 16a1 9C       		.byte	0x9c
 6628 16a2 DC160000 		.4byte	0x16dc
 6629 16a6 1B       		.uleb128 0x1b
 6630 16a7 DD020000 		.4byte	.LASF642
 6631 16ab 01       		.byte	0x1
 6632 16ac EC       		.byte	0xec
 6633 16ad DC160000 		.4byte	0x16dc
 6634 16b1 02       		.uleb128 0x2
 6635 16b2 91       		.byte	0x91
 6636 16b3 64       		.sleb128 -28
 6637 16b4 1C       		.uleb128 0x1c
 6638 16b5 394B0000 		.4byte	.LASF638
 6639 16b9 01       		.byte	0x1
 6640 16ba EE       		.byte	0xee
 6641 16bb 24080000 		.4byte	0x824
ARM GAS  C:\Users\Sarah\AppData\Local\Temp\ccqSJLdk.s 			page 184


 6642 16bf 02       		.uleb128 0x2
 6643 16c0 91       		.byte	0x91
 6644 16c1 6F       		.sleb128 -17
 6645 16c2 1D       		.uleb128 0x1d
 6646 16c3 30000000 		.4byte	.LBB2
 6647 16c7 2C000000 		.4byte	.LBE2-.LBB2
 6648 16cb 1E       		.uleb128 0x1e
 6649 16cc 39300000 		.4byte	.LASF639
 6650 16d0 01       		.byte	0x1
 6651 16d1 A201     		.2byte	0x1a2
 6652 16d3 000A0000 		.4byte	0xa00
 6653 16d7 02       		.uleb128 0x2
 6654 16d8 91       		.byte	0x91
 6655 16d9 68       		.sleb128 -24
 6656 16da 00       		.byte	0
 6657 16db 00       		.byte	0
 6658 16dc 07       		.uleb128 0x7
 6659 16dd 04       		.byte	0x4
 6660 16de 2C0A0000 		.4byte	0xa2c
 6661 16e2 1F       		.uleb128 0x1f
 6662 16e3 C72C0000 		.4byte	.LASF641
 6663 16e7 01       		.byte	0x1
 6664 16e8 BF01     		.2byte	0x1bf
 6665 16ea 00000000 		.4byte	.LFB3
 6666 16ee 0E000000 		.4byte	.LFE3-.LFB3
 6667 16f2 01       		.uleb128 0x1
 6668 16f3 9C       		.byte	0x9c
 6669 16f4 08170000 		.4byte	0x1708
 6670 16f8 20       		.uleb128 0x20
 6671 16f9 DD020000 		.4byte	.LASF642
 6672 16fd 01       		.byte	0x1
 6673 16fe BF01     		.2byte	0x1bf
 6674 1700 08170000 		.4byte	0x1708
 6675 1704 02       		.uleb128 0x2
 6676 1705 91       		.byte	0x91
 6677 1706 74       		.sleb128 -12
 6678 1707 00       		.byte	0
 6679 1708 07       		.uleb128 0x7
 6680 1709 04       		.byte	0x4
 6681 170a 0E170000 		.4byte	0x170e
 6682 170e 21       		.uleb128 0x21
 6683 170f BD080000 		.4byte	0x8bd
 6684 1713 1F       		.uleb128 0x1f
 6685 1714 7D400000 		.4byte	.LASF643
 6686 1718 01       		.byte	0x1
 6687 1719 2D02     		.2byte	0x22d
 6688 171b 00000000 		.4byte	.LFB4
 6689 171f 0E000000 		.4byte	.LFE4-.LFB4
 6690 1723 01       		.uleb128 0x1
 6691 1724 9C       		.byte	0x9c
 6692 1725 39170000 		.4byte	0x1739
 6693 1729 20       		.uleb128 0x20
 6694 172a DD020000 		.4byte	.LASF642
 6695 172e 01       		.byte	0x1
 6696 172f 2D02     		.2byte	0x22d
 6697 1731 08170000 		.4byte	0x1708
 6698 1735 02       		.uleb128 0x2
ARM GAS  C:\Users\Sarah\AppData\Local\Temp\ccqSJLdk.s 			page 185


 6699 1736 91       		.byte	0x91
 6700 1737 74       		.sleb128 -12
 6701 1738 00       		.byte	0
 6702 1739 1F       		.uleb128 0x1f
 6703 173a 5E400000 		.4byte	.LASF644
 6704 173e 01       		.byte	0x1
 6705 173f F502     		.2byte	0x2f5
 6706 1741 00000000 		.4byte	.LFB5
 6707 1745 0E000000 		.4byte	.LFE5-.LFB5
 6708 1749 01       		.uleb128 0x1
 6709 174a 9C       		.byte	0x9c
 6710 174b 5F170000 		.4byte	0x175f
 6711 174f 20       		.uleb128 0x20
 6712 1750 DD020000 		.4byte	.LASF642
 6713 1754 01       		.byte	0x1
 6714 1755 F502     		.2byte	0x2f5
 6715 1757 5F170000 		.4byte	0x175f
 6716 175b 02       		.uleb128 0x2
 6717 175c 91       		.byte	0x91
 6718 175d 74       		.sleb128 -12
 6719 175e 00       		.byte	0
 6720 175f 07       		.uleb128 0x7
 6721 1760 04       		.byte	0x4
 6722 1761 D30A0000 		.4byte	0xad3
 6723 1765 1F       		.uleb128 0x1f
 6724 1766 E1220000 		.4byte	.LASF645
 6725 176a 01       		.byte	0x1
 6726 176b 8103     		.2byte	0x381
 6727 176d 00000000 		.4byte	.LFB6
 6728 1771 0E000000 		.4byte	.LFE6-.LFB6
 6729 1775 01       		.uleb128 0x1
 6730 1776 9C       		.byte	0x9c
 6731 1777 8B170000 		.4byte	0x178b
 6732 177b 20       		.uleb128 0x20
 6733 177c DD020000 		.4byte	.LASF642
 6734 1780 01       		.byte	0x1
 6735 1781 8103     		.2byte	0x381
 6736 1783 8B170000 		.4byte	0x178b
 6737 1787 02       		.uleb128 0x2
 6738 1788 91       		.byte	0x91
 6739 1789 74       		.sleb128 -12
 6740 178a 00       		.byte	0
 6741 178b 07       		.uleb128 0x7
 6742 178c 04       		.byte	0x4
 6743 178d DE0A0000 		.4byte	0xade
 6744 1791 22       		.uleb128 0x22
 6745 1792 6D0B0000 		.4byte	.LASF646
 6746 1796 01       		.byte	0x1
 6747 1797 E103     		.2byte	0x3e1
 6748 1799 00000000 		.4byte	.LFB7
 6749 179d 0C010000 		.4byte	.LFE7-.LFB7
 6750 17a1 01       		.uleb128 0x1
 6751 17a2 9C       		.byte	0x9c
 6752 17a3 D0170000 		.4byte	0x17d0
 6753 17a7 20       		.uleb128 0x20
 6754 17a8 DD020000 		.4byte	.LASF642
 6755 17ac 01       		.byte	0x1
ARM GAS  C:\Users\Sarah\AppData\Local\Temp\ccqSJLdk.s 			page 186


 6756 17ad E103     		.2byte	0x3e1
 6757 17af D0170000 		.4byte	0x17d0
 6758 17b3 02       		.uleb128 0x2
 6759 17b4 91       		.byte	0x91
 6760 17b5 54       		.sleb128 -44
 6761 17b6 1D       		.uleb128 0x1d
 6762 17b7 18000000 		.4byte	.LBB3
 6763 17bb D0000000 		.4byte	.LBE3-.LBB3
 6764 17bf 1E       		.uleb128 0x1e
 6765 17c0 D43E0000 		.4byte	.LASF647
 6766 17c4 01       		.byte	0x1
 6767 17c5 E803     		.2byte	0x3e8
 6768 17c7 150C0000 		.4byte	0xc15
 6769 17cb 02       		.uleb128 0x2
 6770 17cc 91       		.byte	0x91
 6771 17cd 5C       		.sleb128 -36
 6772 17ce 00       		.byte	0
 6773 17cf 00       		.byte	0
 6774 17d0 07       		.uleb128 0x7
 6775 17d1 04       		.byte	0x4
 6776 17d2 A70A0000 		.4byte	0xaa7
 6777 17d6 22       		.uleb128 0x22
 6778 17d7 0B460000 		.4byte	.LASF648
 6779 17db 01       		.byte	0x1
 6780 17dc CA04     		.2byte	0x4ca
 6781 17de 00000000 		.4byte	.LFB8
 6782 17e2 0C010000 		.4byte	.LFE8-.LFB8
 6783 17e6 01       		.uleb128 0x1
 6784 17e7 9C       		.byte	0x9c
 6785 17e8 15180000 		.4byte	0x1815
 6786 17ec 20       		.uleb128 0x20
 6787 17ed DD020000 		.4byte	.LASF642
 6788 17f1 01       		.byte	0x1
 6789 17f2 CA04     		.2byte	0x4ca
 6790 17f4 D0170000 		.4byte	0x17d0
 6791 17f8 02       		.uleb128 0x2
 6792 17f9 91       		.byte	0x91
 6793 17fa 54       		.sleb128 -44
 6794 17fb 1D       		.uleb128 0x1d
 6795 17fc 18000000 		.4byte	.LBB4
 6796 1800 D0000000 		.4byte	.LBE4-.LBB4
 6797 1804 1E       		.uleb128 0x1e
 6798 1805 D43E0000 		.4byte	.LASF647
 6799 1809 01       		.byte	0x1
 6800 180a D104     		.2byte	0x4d1
 6801 180c 150C0000 		.4byte	0xc15
 6802 1810 02       		.uleb128 0x2
 6803 1811 91       		.byte	0x91
 6804 1812 5C       		.sleb128 -36
 6805 1813 00       		.byte	0
 6806 1814 00       		.byte	0
 6807 1815 23       		.uleb128 0x23
 6808 1816 54290000 		.4byte	.LASF650
 6809 181a 01       		.byte	0x1
 6810 181b 0705     		.2byte	0x507
 6811 181d 00000000 		.4byte	.LFB9
 6812 1821 34000000 		.4byte	.LFE9-.LFB9
ARM GAS  C:\Users\Sarah\AppData\Local\Temp\ccqSJLdk.s 			page 187


 6813 1825 01       		.uleb128 0x1
 6814 1826 9C       		.byte	0x9c
 6815 1827 22       		.uleb128 0x22
 6816 1828 A53C0000 		.4byte	.LASF649
 6817 182c 01       		.byte	0x1
 6818 182d 3F05     		.2byte	0x53f
 6819 182f 00000000 		.4byte	.LFB10
 6820 1833 B8000000 		.4byte	.LFE10-.LFB10
 6821 1837 01       		.uleb128 0x1
 6822 1838 9C       		.byte	0x9c
 6823 1839 4D180000 		.4byte	0x184d
 6824 183d 20       		.uleb128 0x20
 6825 183e DD020000 		.4byte	.LASF642
 6826 1842 01       		.byte	0x1
 6827 1843 3F05     		.2byte	0x53f
 6828 1845 4D180000 		.4byte	0x184d
 6829 1849 02       		.uleb128 0x2
 6830 184a 91       		.byte	0x91
 6831 184b 74       		.sleb128 -12
 6832 184c 00       		.byte	0
 6833 184d 07       		.uleb128 0x7
 6834 184e 04       		.byte	0x4
 6835 184f 53180000 		.4byte	0x1853
 6836 1853 21       		.uleb128 0x21
 6837 1854 D1040000 		.4byte	0x4d1
 6838 1858 23       		.uleb128 0x23
 6839 1859 11280000 		.4byte	.LASF651
 6840 185d 01       		.byte	0x1
 6841 185e 7705     		.2byte	0x577
 6842 1860 00000000 		.4byte	.LFB11
 6843 1864 08000000 		.4byte	.LFE11-.LFB11
 6844 1868 01       		.uleb128 0x1
 6845 1869 9C       		.byte	0x9c
 6846 186a 24       		.uleb128 0x24
 6847 186b 99310000 		.4byte	.LASF706
 6848 186f 01       		.byte	0x1
 6849 1870 A305     		.2byte	0x5a3
 6850 1872 6B000000 		.4byte	0x6b
 6851 1876 00000000 		.4byte	.LFB12
 6852 187a 60000000 		.4byte	.LFE12-.LFB12
 6853 187e 01       		.uleb128 0x1
 6854 187f 9C       		.byte	0x9c
 6855 1880 B0180000 		.4byte	0x18b0
 6856 1884 20       		.uleb128 0x20
 6857 1885 52180000 		.4byte	.LASF652
 6858 1889 01       		.byte	0x1
 6859 188a A305     		.2byte	0x5a3
 6860 188c B0180000 		.4byte	0x18b0
 6861 1890 02       		.uleb128 0x2
 6862 1891 91       		.byte	0x91
 6863 1892 6C       		.sleb128 -20
 6864 1893 25       		.uleb128 0x25
 6865 1894 6900     		.ascii	"i\000"
 6866 1896 01       		.byte	0x1
 6867 1897 A505     		.2byte	0x5a5
 6868 1899 6B000000 		.4byte	0x6b
 6869 189d 02       		.uleb128 0x2
ARM GAS  C:\Users\Sarah\AppData\Local\Temp\ccqSJLdk.s 			page 188


 6870 189e 91       		.byte	0x91
 6871 189f 77       		.sleb128 -9
 6872 18a0 1E       		.uleb128 0x1e
 6873 18a1 BD0A0000 		.4byte	.LASF653
 6874 18a5 01       		.byte	0x1
 6875 18a6 A605     		.2byte	0x5a6
 6876 18a8 6B000000 		.4byte	0x6b
 6877 18ac 02       		.uleb128 0x2
 6878 18ad 91       		.byte	0x91
 6879 18ae 76       		.sleb128 -10
 6880 18af 00       		.byte	0
 6881 18b0 07       		.uleb128 0x7
 6882 18b1 04       		.byte	0x4
 6883 18b2 B6180000 		.4byte	0x18b6
 6884 18b6 21       		.uleb128 0x21
 6885 18b7 9E040000 		.4byte	0x49e
 6886 18bb 1F       		.uleb128 0x1f
 6887 18bc 10420000 		.4byte	.LASF654
 6888 18c0 01       		.byte	0x1
 6889 18c1 C705     		.2byte	0x5c7
 6890 18c3 00000000 		.4byte	.LFB13
 6891 18c7 12000000 		.4byte	.LFE13-.LFB13
 6892 18cb 01       		.uleb128 0x1
 6893 18cc 9C       		.byte	0x9c
 6894 18cd E1180000 		.4byte	0x18e1
 6895 18d1 20       		.uleb128 0x20
 6896 18d2 24470000 		.4byte	.LASF655
 6897 18d6 01       		.byte	0x1
 6898 18d7 C705     		.2byte	0x5c7
 6899 18d9 77000000 		.4byte	0x77
 6900 18dd 02       		.uleb128 0x2
 6901 18de 91       		.byte	0x91
 6902 18df 76       		.sleb128 -10
 6903 18e0 00       		.byte	0
 6904 18e1 1F       		.uleb128 0x1f
 6905 18e2 841C0000 		.4byte	.LASF656
 6906 18e6 01       		.byte	0x1
 6907 18e7 E105     		.2byte	0x5e1
 6908 18e9 00000000 		.4byte	.LFB14
 6909 18ed 0E000000 		.4byte	.LFE14-.LFB14
 6910 18f1 01       		.uleb128 0x1
 6911 18f2 9C       		.byte	0x9c
 6912 18f3 07190000 		.4byte	0x1907
 6913 18f7 20       		.uleb128 0x20
 6914 18f8 DD020000 		.4byte	.LASF642
 6915 18fc 01       		.byte	0x1
 6916 18fd E105     		.2byte	0x5e1
 6917 18ff 07190000 		.4byte	0x1907
 6918 1903 02       		.uleb128 0x2
 6919 1904 91       		.byte	0x91
 6920 1905 74       		.sleb128 -12
 6921 1906 00       		.byte	0
 6922 1907 07       		.uleb128 0x7
 6923 1908 04       		.byte	0x4
 6924 1909 0D190000 		.4byte	0x190d
 6925 190d 21       		.uleb128 0x21
 6926 190e 52060000 		.4byte	0x652
ARM GAS  C:\Users\Sarah\AppData\Local\Temp\ccqSJLdk.s 			page 189


 6927 1912 26       		.uleb128 0x26
 6928 1913 27120000 		.4byte	.LASF663
 6929 1917 01       		.byte	0x1
 6930 1918 FB05     		.2byte	0x5fb
 6931 191a 00000000 		.4byte	.LFB15
 6932 191e B4030000 		.4byte	.LFE15-.LFB15
 6933 1922 01       		.uleb128 0x1
 6934 1923 9C       		.byte	0x9c
 6935 1924 D3190000 		.4byte	0x19d3
 6936 1928 20       		.uleb128 0x20
 6937 1929 67490000 		.4byte	.LASF657
 6938 192d 01       		.byte	0x1
 6939 192e FB05     		.2byte	0x5fb
 6940 1930 6B000000 		.4byte	0x6b
 6941 1934 02       		.uleb128 0x2
 6942 1935 91       		.byte	0x91
 6943 1936 67       		.sleb128 -25
 6944 1937 20       		.uleb128 0x20
 6945 1938 DD020000 		.4byte	.LASF642
 6946 193c 01       		.byte	0x1
 6947 193d FB05     		.2byte	0x5fb
 6948 193f B0000000 		.4byte	0xb0
 6949 1943 02       		.uleb128 0x2
 6950 1944 91       		.byte	0x91
 6951 1945 60       		.sleb128 -32
 6952 1946 27       		.uleb128 0x27
 6953 1947 32000000 		.4byte	.LBB5
 6954 194b 34000000 		.4byte	.LBE5-.LBB5
 6955 194f 63190000 		.4byte	0x1963
 6956 1953 1E       		.uleb128 0x1e
 6957 1954 15390000 		.4byte	.LASF658
 6958 1958 01       		.byte	0x1
 6959 1959 0806     		.2byte	0x608
 6960 195b FF030000 		.4byte	0x3ff
 6961 195f 02       		.uleb128 0x2
 6962 1960 91       		.byte	0x91
 6963 1961 6C       		.sleb128 -20
 6964 1962 00       		.byte	0
 6965 1963 27       		.uleb128 0x27
 6966 1964 8E000000 		.4byte	.LBB6
 6967 1968 1A000000 		.4byte	.LBE6-.LBB6
 6968 196c 80190000 		.4byte	0x1980
 6969 1970 1E       		.uleb128 0x1e
 6970 1971 33400000 		.4byte	.LASF659
 6971 1975 01       		.byte	0x1
 6972 1976 3A06     		.2byte	0x63a
 6973 1978 D3190000 		.4byte	0x19d3
 6974 197c 02       		.uleb128 0x2
 6975 197d 91       		.byte	0x91
 6976 197e 68       		.sleb128 -24
 6977 197f 00       		.byte	0
 6978 1980 27       		.uleb128 0x27
 6979 1981 C4000000 		.4byte	.LBB7
 6980 1985 3C000000 		.4byte	.LBE7-.LBB7
 6981 1989 B9190000 		.4byte	0x19b9
 6982 198d 1E       		.uleb128 0x1e
 6983 198e 94070000 		.4byte	.LASF660
ARM GAS  C:\Users\Sarah\AppData\Local\Temp\ccqSJLdk.s 			page 190


 6984 1992 01       		.byte	0x1
 6985 1993 5206     		.2byte	0x652
 6986 1995 E3190000 		.4byte	0x19e3
 6987 1999 02       		.uleb128 0x2
 6988 199a 91       		.byte	0x91
 6989 199b 70       		.sleb128 -16
 6990 199c 1D       		.uleb128 0x1d
 6991 199d D8000000 		.4byte	.LBB8
 6992 19a1 18000000 		.4byte	.LBE8-.LBB8
 6993 19a5 1E       		.uleb128 0x1e
 6994 19a6 E7300000 		.4byte	.LASF661
 6995 19aa 01       		.byte	0x1
 6996 19ab 5906     		.2byte	0x659
 6997 19ad C7090000 		.4byte	0x9c7
 6998 19b1 05       		.uleb128 0x5
 6999 19b2 03       		.byte	0x3
 7000 19b3 18000000 		.4byte	gPrepWriteReqMem.6598
 7001 19b7 00       		.byte	0
 7002 19b8 00       		.byte	0
 7003 19b9 1D       		.uleb128 0x1d
 7004 19ba 50020000 		.4byte	.LBB9
 7005 19be 38000000 		.4byte	.LBE9-.LBB9
 7006 19c2 1E       		.uleb128 0x1e
 7007 19c3 7D260000 		.4byte	.LASF662
 7008 19c7 01       		.byte	0x1
 7009 19c8 3807     		.2byte	0x738
 7010 19ca 77000000 		.4byte	0x77
 7011 19ce 02       		.uleb128 0x2
 7012 19cf 91       		.byte	0x91
 7013 19d0 76       		.sleb128 -10
 7014 19d1 00       		.byte	0
 7015 19d2 00       		.byte	0
 7016 19d3 0E       		.uleb128 0xe
 7017 19d4 6B000000 		.4byte	0x6b
 7018 19d8 E3190000 		.4byte	0x19e3
 7019 19dc 0F       		.uleb128 0xf
 7020 19dd A9000000 		.4byte	0xa9
 7021 19e1 01       		.byte	0x1
 7022 19e2 00       		.byte	0
 7023 19e3 07       		.uleb128 0x7
 7024 19e4 04       		.byte	0x4
 7025 19e5 5E040000 		.4byte	0x45e
 7026 19e9 26       		.uleb128 0x26
 7027 19ea 291E0000 		.4byte	.LASF664
 7028 19ee 01       		.byte	0x1
 7029 19ef 4608     		.2byte	0x846
 7030 19f1 00000000 		.4byte	.LFB16
 7031 19f5 C8010000 		.4byte	.LFE16-.LFB16
 7032 19f9 01       		.uleb128 0x1
 7033 19fa 9C       		.byte	0x9c
 7034 19fb 651A0000 		.4byte	0x1a65
 7035 19ff 20       		.uleb128 0x20
 7036 1a00 DD020000 		.4byte	.LASF642
 7037 1a04 01       		.byte	0x1
 7038 1a05 4608     		.2byte	0x846
 7039 1a07 651A0000 		.4byte	0x1a65
 7040 1a0b 02       		.uleb128 0x2
ARM GAS  C:\Users\Sarah\AppData\Local\Temp\ccqSJLdk.s 			page 191


 7041 1a0c 91       		.byte	0x91
 7042 1a0d 64       		.sleb128 -28
 7043 1a0e 25       		.uleb128 0x25
 7044 1a0f 6A00     		.ascii	"j\000"
 7045 1a11 01       		.byte	0x1
 7046 1a12 4808     		.2byte	0x848
 7047 1a14 77000000 		.4byte	0x77
 7048 1a18 02       		.uleb128 0x2
 7049 1a19 91       		.byte	0x91
 7050 1a1a 76       		.sleb128 -10
 7051 1a1b 1E       		.uleb128 0x1e
 7052 1a1c 6D4C0000 		.4byte	.LASF665
 7053 1a20 01       		.byte	0x1
 7054 1a21 4908     		.2byte	0x849
 7055 1a23 77000000 		.4byte	0x77
 7056 1a27 02       		.uleb128 0x2
 7057 1a28 91       		.byte	0x91
 7058 1a29 6A       		.sleb128 -22
 7059 1a2a 1E       		.uleb128 0x1e
 7060 1a2b BD3E0000 		.4byte	.LASF666
 7061 1a2f 01       		.byte	0x1
 7062 1a30 4A08     		.2byte	0x84a
 7063 1a32 77000000 		.4byte	0x77
 7064 1a36 02       		.uleb128 0x2
 7065 1a37 91       		.byte	0x91
 7066 1a38 68       		.sleb128 -24
 7067 1a39 25       		.uleb128 0x25
 7068 1a3a 6900     		.ascii	"i\000"
 7069 1a3c 01       		.byte	0x1
 7070 1a3d 4B08     		.2byte	0x84b
 7071 1a3f 77000000 		.4byte	0x77
 7072 1a43 02       		.uleb128 0x2
 7073 1a44 91       		.byte	0x91
 7074 1a45 74       		.sleb128 -12
 7075 1a46 1E       		.uleb128 0x1e
 7076 1a47 D43E0000 		.4byte	.LASF647
 7077 1a4b 01       		.byte	0x1
 7078 1a4c 4C08     		.2byte	0x84c
 7079 1a4e 6B1A0000 		.4byte	0x1a6b
 7080 1a52 02       		.uleb128 0x2
 7081 1a53 91       		.byte	0x91
 7082 1a54 6C       		.sleb128 -20
 7083 1a55 1E       		.uleb128 0x1e
 7084 1a56 C12F0000 		.4byte	.LASF667
 7085 1a5a 01       		.byte	0x1
 7086 1a5b 4D08     		.2byte	0x84d
 7087 1a5d 6B000000 		.4byte	0x6b
 7088 1a61 02       		.uleb128 0x2
 7089 1a62 91       		.byte	0x91
 7090 1a63 73       		.sleb128 -13
 7091 1a64 00       		.byte	0
 7092 1a65 07       		.uleb128 0x7
 7093 1a66 04       		.byte	0x4
 7094 1a67 420B0000 		.4byte	0xb42
 7095 1a6b 07       		.uleb128 0x7
 7096 1a6c 04       		.byte	0x4
 7097 1a6d 150C0000 		.4byte	0xc15
ARM GAS  C:\Users\Sarah\AppData\Local\Temp\ccqSJLdk.s 			page 192


 7098 1a71 26       		.uleb128 0x26
 7099 1a72 21300000 		.4byte	.LASF668
 7100 1a76 01       		.byte	0x1
 7101 1a77 9D08     		.2byte	0x89d
 7102 1a79 00000000 		.4byte	.LFB17
 7103 1a7d 04010000 		.4byte	.LFE17-.LFB17
 7104 1a81 01       		.uleb128 0x1
 7105 1a82 9C       		.byte	0x9c
 7106 1a83 971A0000 		.4byte	0x1a97
 7107 1a87 20       		.uleb128 0x20
 7108 1a88 71100000 		.4byte	.LASF669
 7109 1a8c 01       		.byte	0x1
 7110 1a8d 9D08     		.2byte	0x89d
 7111 1a8f 6B000000 		.4byte	0x6b
 7112 1a93 02       		.uleb128 0x2
 7113 1a94 91       		.byte	0x91
 7114 1a95 77       		.sleb128 -9
 7115 1a96 00       		.byte	0
 7116 1a97 22       		.uleb128 0x22
 7117 1a98 B7290000 		.4byte	.LASF670
 7118 1a9c 01       		.byte	0x1
 7119 1a9d D508     		.2byte	0x8d5
 7120 1a9f 00000000 		.4byte	.LFB18
 7121 1aa3 34010000 		.4byte	.LFE18-.LFB18
 7122 1aa7 01       		.uleb128 0x1
 7123 1aa8 9C       		.byte	0x9c
 7124 1aa9 BD1A0000 		.4byte	0x1abd
 7125 1aad 20       		.uleb128 0x20
 7126 1aae 63260000 		.4byte	.LASF671
 7127 1ab2 01       		.byte	0x1
 7128 1ab3 D508     		.2byte	0x8d5
 7129 1ab5 BD1A0000 		.4byte	0x1abd
 7130 1ab9 02       		.uleb128 0x2
 7131 1aba 91       		.byte	0x91
 7132 1abb 74       		.sleb128 -12
 7133 1abc 00       		.byte	0
 7134 1abd 07       		.uleb128 0x7
 7135 1abe 04       		.byte	0x4
 7136 1abf A90C0000 		.4byte	0xca9
 7137 1ac3 26       		.uleb128 0x26
 7138 1ac4 471E0000 		.4byte	.LASF672
 7139 1ac8 01       		.byte	0x1
 7140 1ac9 0309     		.2byte	0x903
 7141 1acb 00000000 		.4byte	.LFB19
 7142 1acf BC030000 		.4byte	.LFE19-.LFB19
 7143 1ad3 01       		.uleb128 0x1
 7144 1ad4 9C       		.byte	0x9c
 7145 1ad5 681B0000 		.4byte	0x1b68
 7146 1ad9 20       		.uleb128 0x20
 7147 1ada DD020000 		.4byte	.LASF642
 7148 1ade 01       		.byte	0x1
 7149 1adf 0309     		.2byte	0x903
 7150 1ae1 681B0000 		.4byte	0x1b68
 7151 1ae5 03       		.uleb128 0x3
 7152 1ae6 91       		.byte	0x91
 7153 1ae7 AC7F     		.sleb128 -84
 7154 1ae9 1E       		.uleb128 0x1e
ARM GAS  C:\Users\Sarah\AppData\Local\Temp\ccqSJLdk.s 			page 193


 7155 1aea 6D4C0000 		.4byte	.LASF665
 7156 1aee 01       		.byte	0x1
 7157 1aef 0509     		.2byte	0x905
 7158 1af1 77000000 		.4byte	0x77
 7159 1af5 02       		.uleb128 0x2
 7160 1af6 91       		.byte	0x91
 7161 1af7 66       		.sleb128 -26
 7162 1af8 1E       		.uleb128 0x1e
 7163 1af9 BD3E0000 		.4byte	.LASF666
 7164 1afd 01       		.byte	0x1
 7165 1afe 0609     		.2byte	0x906
 7166 1b00 77000000 		.4byte	0x77
 7167 1b04 02       		.uleb128 0x2
 7168 1b05 91       		.byte	0x91
 7169 1b06 64       		.sleb128 -28
 7170 1b07 25       		.uleb128 0x25
 7171 1b08 6900     		.ascii	"i\000"
 7172 1b0a 01       		.byte	0x1
 7173 1b0b 0709     		.2byte	0x907
 7174 1b0d 77000000 		.4byte	0x77
 7175 1b11 02       		.uleb128 0x2
 7176 1b12 91       		.byte	0x91
 7177 1b13 6E       		.sleb128 -18
 7178 1b14 25       		.uleb128 0x25
 7179 1b15 6A00     		.ascii	"j\000"
 7180 1b17 01       		.byte	0x1
 7181 1b18 0709     		.2byte	0x907
 7182 1b1a 77000000 		.4byte	0x77
 7183 1b1e 02       		.uleb128 0x2
 7184 1b1f 91       		.byte	0x91
 7185 1b20 6C       		.sleb128 -20
 7186 1b21 1E       		.uleb128 0x1e
 7187 1b22 64410000 		.4byte	.LASF673
 7188 1b26 01       		.byte	0x1
 7189 1b27 0809     		.2byte	0x908
 7190 1b29 AA040000 		.4byte	0x4aa
 7191 1b2d 02       		.uleb128 0x2
 7192 1b2e 91       		.byte	0x91
 7193 1b2f 68       		.sleb128 -24
 7194 1b30 27       		.uleb128 0x27
 7195 1b31 3C000000 		.4byte	.LBB10
 7196 1b35 84010000 		.4byte	.LBE10-.LBB10
 7197 1b39 4D1B0000 		.4byte	0x1b4d
 7198 1b3d 1E       		.uleb128 0x1e
 7199 1b3e 63260000 		.4byte	.LASF671
 7200 1b42 01       		.byte	0x1
 7201 1b43 1309     		.2byte	0x913
 7202 1b45 A90C0000 		.4byte	0xca9
 7203 1b49 02       		.uleb128 0x2
 7204 1b4a 91       		.byte	0x91
 7205 1b4b 4C       		.sleb128 -52
 7206 1b4c 00       		.byte	0
 7207 1b4d 1D       		.uleb128 0x1d
 7208 1b4e CC010000 		.4byte	.LBB11
 7209 1b52 E4010000 		.4byte	.LBE11-.LBB11
 7210 1b56 1E       		.uleb128 0x1e
 7211 1b57 B9240000 		.4byte	.LASF674
ARM GAS  C:\Users\Sarah\AppData\Local\Temp\ccqSJLdk.s 			page 194


 7212 1b5b 01       		.byte	0x1
 7213 1b5c FB09     		.2byte	0x9fb
 7214 1b5e 590C0000 		.4byte	0xc59
 7215 1b62 03       		.uleb128 0x3
 7216 1b63 91       		.byte	0x91
 7217 1b64 B47F     		.sleb128 -76
 7218 1b66 00       		.byte	0
 7219 1b67 00       		.byte	0
 7220 1b68 07       		.uleb128 0x7
 7221 1b69 04       		.byte	0x4
 7222 1b6a 4D0B0000 		.4byte	0xb4d
 7223 1b6e 26       		.uleb128 0x26
 7224 1b6f 4C410000 		.4byte	.LASF675
 7225 1b73 01       		.byte	0x1
 7226 1b74 650A     		.2byte	0xa65
 7227 1b76 00000000 		.4byte	.LFB20
 7228 1b7a 08010000 		.4byte	.LFE20-.LFB20
 7229 1b7e 01       		.uleb128 0x1
 7230 1b7f 9C       		.byte	0x9c
 7231 1b80 941B0000 		.4byte	0x1b94
 7232 1b84 20       		.uleb128 0x20
 7233 1b85 71100000 		.4byte	.LASF669
 7234 1b89 01       		.byte	0x1
 7235 1b8a 650A     		.2byte	0xa65
 7236 1b8c 6B000000 		.4byte	0x6b
 7237 1b90 02       		.uleb128 0x2
 7238 1b91 91       		.byte	0x91
 7239 1b92 77       		.sleb128 -9
 7240 1b93 00       		.byte	0
 7241 1b94 28       		.uleb128 0x28
 7242 1b95 F9140000 		.4byte	.LASF707
 7243 1b99 01       		.byte	0x1
 7244 1b9a 9B0A     		.2byte	0xa9b
 7245 1b9c 5A090000 		.4byte	0x95a
 7246 1ba0 00000000 		.4byte	.LFB21
 7247 1ba4 64000000 		.4byte	.LFE21-.LFB21
 7248 1ba8 01       		.uleb128 0x1
 7249 1ba9 9C       		.byte	0x9c
 7250 1baa BE1B0000 		.4byte	0x1bbe
 7251 1bae 1E       		.uleb128 0x1e
 7252 1baf FC0B0000 		.4byte	.LASF676
 7253 1bb3 01       		.byte	0x1
 7254 1bb4 9D0A     		.2byte	0xa9d
 7255 1bb6 5A090000 		.4byte	0x95a
 7256 1bba 02       		.uleb128 0x2
 7257 1bbb 91       		.byte	0x91
 7258 1bbc 70       		.sleb128 -16
 7259 1bbd 00       		.byte	0
 7260 1bbe 26       		.uleb128 0x26
 7261 1bbf 5E270000 		.4byte	.LASF677
 7262 1bc3 01       		.byte	0x1
 7263 1bc4 FD0B     		.2byte	0xbfd
 7264 1bc6 00000000 		.4byte	.LFB22
 7265 1bca 44010000 		.4byte	.LFE22-.LFB22
 7266 1bce 01       		.uleb128 0x1
 7267 1bcf 9C       		.byte	0x9c
 7268 1bd0 2D1C0000 		.4byte	0x1c2d
ARM GAS  C:\Users\Sarah\AppData\Local\Temp\ccqSJLdk.s 			page 195


 7269 1bd4 20       		.uleb128 0x20
 7270 1bd5 DD020000 		.4byte	.LASF642
 7271 1bd9 01       		.byte	0x1
 7272 1bda FD0B     		.2byte	0xbfd
 7273 1bdc 2D1C0000 		.4byte	0x1c2d
 7274 1be0 02       		.uleb128 0x2
 7275 1be1 91       		.byte	0x91
 7276 1be2 54       		.sleb128 -44
 7277 1be3 1E       		.uleb128 0x1e
 7278 1be4 6D4C0000 		.4byte	.LASF665
 7279 1be8 01       		.byte	0x1
 7280 1be9 FF0B     		.2byte	0xbff
 7281 1beb 77000000 		.4byte	0x77
 7282 1bef 02       		.uleb128 0x2
 7283 1bf0 91       		.byte	0x91
 7284 1bf1 76       		.sleb128 -10
 7285 1bf2 1E       		.uleb128 0x1e
 7286 1bf3 BD3E0000 		.4byte	.LASF666
 7287 1bf7 01       		.byte	0x1
 7288 1bf8 000C     		.2byte	0xc00
 7289 1bfa 77000000 		.4byte	0x77
 7290 1bfe 02       		.uleb128 0x2
 7291 1bff 91       		.byte	0x91
 7292 1c00 6E       		.sleb128 -18
 7293 1c01 25       		.uleb128 0x25
 7294 1c02 6900     		.ascii	"i\000"
 7295 1c04 01       		.byte	0x1
 7296 1c05 010C     		.2byte	0xc01
 7297 1c07 77000000 		.4byte	0x77
 7298 1c0b 02       		.uleb128 0x2
 7299 1c0c 91       		.byte	0x91
 7300 1c0d 74       		.sleb128 -12
 7301 1c0e 1E       		.uleb128 0x1e
 7302 1c0f 64410000 		.4byte	.LASF673
 7303 1c13 01       		.byte	0x1
 7304 1c14 020C     		.2byte	0xc02
 7305 1c16 AA040000 		.4byte	0x4aa
 7306 1c1a 02       		.uleb128 0x2
 7307 1c1b 91       		.byte	0x91
 7308 1c1c 70       		.sleb128 -16
 7309 1c1d 1E       		.uleb128 0x1e
 7310 1c1e F00E0000 		.4byte	.LASF678
 7311 1c22 01       		.byte	0x1
 7312 1c23 050C     		.2byte	0xc05
 7313 1c25 190D0000 		.4byte	0xd19
 7314 1c29 02       		.uleb128 0x2
 7315 1c2a 91       		.byte	0x91
 7316 1c2b 58       		.sleb128 -40
 7317 1c2c 00       		.byte	0
 7318 1c2d 07       		.uleb128 0x7
 7319 1c2e 04       		.byte	0x4
 7320 1c2f B10B0000 		.4byte	0xbb1
 7321 1c33 26       		.uleb128 0x26
 7322 1c34 084B0000 		.4byte	.LASF679
 7323 1c38 01       		.byte	0x1
 7324 1c39 380D     		.2byte	0xd38
 7325 1c3b 00000000 		.4byte	.LFB23
ARM GAS  C:\Users\Sarah\AppData\Local\Temp\ccqSJLdk.s 			page 196


 7326 1c3f 5C010000 		.4byte	.LFE23-.LFB23
 7327 1c43 01       		.uleb128 0x1
 7328 1c44 9C       		.byte	0x9c
 7329 1c45 681C0000 		.4byte	0x1c68
 7330 1c49 20       		.uleb128 0x20
 7331 1c4a 71100000 		.4byte	.LASF669
 7332 1c4e 01       		.byte	0x1
 7333 1c4f 380D     		.2byte	0xd38
 7334 1c51 6B000000 		.4byte	0x6b
 7335 1c55 02       		.uleb128 0x2
 7336 1c56 91       		.byte	0x91
 7337 1c57 6F       		.sleb128 -17
 7338 1c58 1E       		.uleb128 0x1e
 7339 1c59 FC0B0000 		.4byte	.LASF676
 7340 1c5d 01       		.byte	0x1
 7341 1c5e 3A0D     		.2byte	0xd3a
 7342 1c60 7B0A0000 		.4byte	0xa7b
 7343 1c64 02       		.uleb128 0x2
 7344 1c65 91       		.byte	0x91
 7345 1c66 74       		.sleb128 -12
 7346 1c67 00       		.byte	0
 7347 1c68 29       		.uleb128 0x29
 7348 1c69 F4250000 		.4byte	.LASF708
 7349 1c6d 01       		.byte	0x1
 7350 1c6e 950D     		.2byte	0xd95
 7351 1c70 00000000 		.4byte	.LFB24
 7352 1c74 A0000000 		.4byte	.LFE24-.LFB24
 7353 1c78 01       		.uleb128 0x1
 7354 1c79 9C       		.byte	0x9c
 7355 1c7a 26       		.uleb128 0x26
 7356 1c7b 373A0000 		.4byte	.LASF680
 7357 1c7f 01       		.byte	0x1
 7358 1c80 C80D     		.2byte	0xdc8
 7359 1c82 00000000 		.4byte	.LFB25
 7360 1c86 2C000000 		.4byte	.LFE25-.LFB25
 7361 1c8a 01       		.uleb128 0x1
 7362 1c8b 9C       		.byte	0x9c
 7363 1c8c A01C0000 		.4byte	0x1ca0
 7364 1c90 20       		.uleb128 0x20
 7365 1c91 DD020000 		.4byte	.LASF642
 7366 1c95 01       		.byte	0x1
 7367 1c96 C80D     		.2byte	0xdc8
 7368 1c98 A01C0000 		.4byte	0x1ca0
 7369 1c9c 02       		.uleb128 0x2
 7370 1c9d 91       		.byte	0x91
 7371 1c9e 74       		.sleb128 -12
 7372 1c9f 00       		.byte	0
 7373 1ca0 07       		.uleb128 0x7
 7374 1ca1 04       		.byte	0x4
 7375 1ca2 A61C0000 		.4byte	0x1ca6
 7376 1ca6 21       		.uleb128 0x21
 7377 1ca7 700A0000 		.4byte	0xa70
 7378 1cab 1C       		.uleb128 0x1c
 7379 1cac 910E0000 		.4byte	.LASF681
 7380 1cb0 01       		.byte	0x1
 7381 1cb1 55       		.byte	0x55
 7382 1cb2 590C0000 		.4byte	0xc59
ARM GAS  C:\Users\Sarah\AppData\Local\Temp\ccqSJLdk.s 			page 197


 7383 1cb6 05       		.uleb128 0x5
 7384 1cb7 03       		.byte	0x3
 7385 1cb8 00000000 		.4byte	cyBle_discInclInfo
 7386 1cbc 2A       		.uleb128 0x2a
 7387 1cbd 6E3A0000 		.4byte	.LASF682
 7388 1cc1 09       		.byte	0x9
 7389 1cc2 7D02     		.2byte	0x27d
 7390 1cc4 BC0B0000 		.4byte	0xbbc
 7391 1cc8 0E       		.uleb128 0xe
 7392 1cc9 6B000000 		.4byte	0x6b
 7393 1ccd D91C0000 		.4byte	0x1cd9
 7394 1cd1 19       		.uleb128 0x19
 7395 1cd2 A9000000 		.4byte	0xa9
 7396 1cd6 DF0A     		.2byte	0xadf
 7397 1cd8 00       		.byte	0
 7398 1cd9 2A       		.uleb128 0x2a
 7399 1cda F6450000 		.4byte	.LASF683
 7400 1cde 09       		.byte	0x9
 7401 1cdf 8202     		.2byte	0x282
 7402 1ce1 C81C0000 		.4byte	0x1cc8
 7403 1ce5 2B       		.uleb128 0x2b
 7404 1ce6 60180000 		.4byte	.LASF684
 7405 1cea 01       		.byte	0x1
 7406 1ceb 3D       		.byte	0x3d
 7407 1cec A4000000 		.4byte	0xa4
 7408 1cf0 05       		.uleb128 0x5
 7409 1cf1 03       		.byte	0x3
 7410 1cf2 00000000 		.4byte	cyBle_eventHandlerFlag
 7411 1cf6 2A       		.uleb128 0x2a
 7412 1cf7 C70E0000 		.4byte	.LASF685
 7413 1cfb 09       		.byte	0x9
 7414 1cfc 8502     		.2byte	0x285
 7415 1cfe 9E040000 		.4byte	0x49e
 7416 1d02 2A       		.uleb128 0x2a
 7417 1d03 791D0000 		.4byte	.LASF686
 7418 1d07 09       		.byte	0x9
 7419 1d08 8602     		.2byte	0x286
 7420 1d0a 0E1D0000 		.4byte	0x1d0e
 7421 1d0e 07       		.uleb128 0x7
 7422 1d0f 04       		.byte	0x4
 7423 1d10 9E040000 		.4byte	0x49e
 7424 1d14 2B       		.uleb128 0x2b
 7425 1d15 B8410000 		.4byte	.LASF687
 7426 1d19 01       		.byte	0x1
 7427 1d1a D4       		.byte	0xd4
 7428 1d1b F8050000 		.4byte	0x5f8
 7429 1d1f 05       		.uleb128 0x5
 7430 1d20 03       		.byte	0x3
 7431 1d21 00000000 		.4byte	cyBle_authInfo
 7432 1d25 2A       		.uleb128 0x2a
 7433 1d26 54310000 		.4byte	.LASF688
 7434 1d2a 09       		.byte	0x9
 7435 1d2b 8F02     		.2byte	0x28f
 7436 1d2d 77000000 		.4byte	0x77
 7437 1d31 2A       		.uleb128 0x2a
 7438 1d32 BA3D0000 		.4byte	.LASF689
 7439 1d36 09       		.byte	0x9
ARM GAS  C:\Users\Sarah\AppData\Local\Temp\ccqSJLdk.s 			page 198


 7440 1d37 A302     		.2byte	0x2a3
 7441 1d39 6B000000 		.4byte	0x6b
 7442 1d3d 2A       		.uleb128 0x2a
 7443 1d3e 00000000 		.4byte	.LASF690
 7444 1d42 09       		.byte	0x9
 7445 1d43 A902     		.2byte	0x2a9
 7446 1d45 6B000000 		.4byte	0x6b
 7447 1d49 2C       		.uleb128 0x2c
 7448 1d4a 6C480000 		.4byte	.LASF691
 7449 1d4e 0A       		.byte	0xa
 7450 1d4f EC       		.byte	0xec
 7451 1d50 D3190000 		.4byte	0x19d3
 7452 1d54 2C       		.uleb128 0x2c
 7453 1d55 4D280000 		.4byte	.LASF692
 7454 1d59 0A       		.byte	0xa
 7455 1d5a F4       		.byte	0xf4
 7456 1d5b 5F1D0000 		.4byte	0x1d5f
 7457 1d5f 21       		.uleb128 0x21
 7458 1d60 B40D0000 		.4byte	0xdb4
 7459 1d64 2C       		.uleb128 0x2c
 7460 1d65 22100000 		.4byte	.LASF693
 7461 1d69 0A       		.byte	0xa
 7462 1d6a F9       		.byte	0xf9
 7463 1d6b 450D0000 		.4byte	0xd45
 7464 1d6f 2C       		.uleb128 0x2c
 7465 1d70 B81D0000 		.4byte	.LASF694
 7466 1d74 0A       		.byte	0xa
 7467 1d75 FA       		.byte	0xfa
 7468 1d76 5A090000 		.4byte	0x95a
 7469 1d7a 2A       		.uleb128 0x2a
 7470 1d7b C83E0000 		.4byte	.LASF695
 7471 1d7f 0B       		.byte	0xb
 7472 1d80 2A0A     		.2byte	0xa2a
 7473 1d82 91150000 		.4byte	0x1591
 7474 1d86 2B       		.uleb128 0x2b
 7475 1d87 ED440000 		.4byte	.LASF696
 7476 1d8b 01       		.byte	0x1
 7477 1d8c 3B       		.byte	0x3b
 7478 1d8d BD080000 		.4byte	0x8bd
 7479 1d91 05       		.uleb128 0x5
 7480 1d92 03       		.byte	0x3
 7481 1d93 00000000 		.4byte	cyBle_connHandle
 7482 1d97 2B       		.uleb128 0x2b
 7483 1d98 5B480000 		.4byte	.LASF697
 7484 1d9c 01       		.byte	0x1
 7485 1d9d 3E       		.byte	0x3e
 7486 1d9e A4000000 		.4byte	0xa4
 7487 1da2 05       		.uleb128 0x5
 7488 1da3 03       		.byte	0x3
 7489 1da4 00000000 		.4byte	cyBle_busyStatus
 7490 1da8 2B       		.uleb128 0x2b
 7491 1da9 EB080000 		.4byte	.LASF698
 7492 1dad 01       		.byte	0x1
 7493 1dae 45       		.byte	0x45
 7494 1daf 6B000000 		.4byte	0x6b
 7495 1db3 05       		.uleb128 0x5
 7496 1db4 03       		.byte	0x3
ARM GAS  C:\Users\Sarah\AppData\Local\Temp\ccqSJLdk.s 			page 199


 7497 1db5 00000000 		.4byte	cyBle_scanningIntervalType
 7498 1db9 2A       		.uleb128 0x2a
 7499 1dba E5290000 		.4byte	.LASF699
 7500 1dbe 0B       		.byte	0xb
 7501 1dbf 3D0A     		.2byte	0xa3d
 7502 1dc1 DD150000 		.4byte	0x15dd
 7503 1dc5 2B       		.uleb128 0x2b
 7504 1dc6 500A0000 		.4byte	.LASF700
 7505 1dca 01       		.byte	0x1
 7506 1dcb 4F       		.byte	0x4f
 7507 1dcc 6B000000 		.4byte	0x6b
 7508 1dd0 05       		.uleb128 0x5
 7509 1dd1 03       		.byte	0x3
 7510 1dd2 00000000 		.4byte	cyBle_disCount
 7511 1dd6 2B       		.uleb128 0x2b
 7512 1dd7 091A0000 		.4byte	.LASF701
 7513 1ddb 01       		.byte	0x1
 7514 1ddc CF       		.byte	0xcf
 7515 1ddd 41160000 		.4byte	0x1641
 7516 1de1 05       		.uleb128 0x5
 7517 1de2 03       		.byte	0x3
 7518 1de3 00000000 		.4byte	cyBle_gapc
 7519 1de7 0E       		.uleb128 0xe
 7520 1de8 E90B0000 		.4byte	0xbe9
 7521 1dec F71D0000 		.4byte	0x1df7
 7522 1df0 0F       		.uleb128 0xf
 7523 1df1 A9000000 		.4byte	0xa9
 7524 1df5 02       		.byte	0x2
 7525 1df6 00       		.byte	0
 7526 1df7 2B       		.uleb128 0x2b
 7527 1df8 3E310000 		.4byte	.LASF702
 7528 1dfc 01       		.byte	0x1
 7529 1dfd 5C       		.byte	0x5c
 7530 1dfe E71D0000 		.4byte	0x1de7
 7531 1e02 05       		.uleb128 0x5
 7532 1e03 03       		.byte	0x3
 7533 1e04 00000000 		.4byte	cyBle_serverInfo
 7534 1e08 00       		.byte	0
 7535              		.section	.debug_abbrev,"",%progbits
 7536              	.Ldebug_abbrev0:
 7537 0000 01       		.uleb128 0x1
 7538 0001 11       		.uleb128 0x11
 7539 0002 01       		.byte	0x1
 7540 0003 25       		.uleb128 0x25
 7541 0004 0E       		.uleb128 0xe
 7542 0005 13       		.uleb128 0x13
 7543 0006 0B       		.uleb128 0xb
 7544 0007 03       		.uleb128 0x3
 7545 0008 0E       		.uleb128 0xe
 7546 0009 1B       		.uleb128 0x1b
 7547 000a 0E       		.uleb128 0xe
 7548 000b 55       		.uleb128 0x55
 7549 000c 17       		.uleb128 0x17
 7550 000d 11       		.uleb128 0x11
 7551 000e 01       		.uleb128 0x1
 7552 000f 10       		.uleb128 0x10
 7553 0010 17       		.uleb128 0x17
ARM GAS  C:\Users\Sarah\AppData\Local\Temp\ccqSJLdk.s 			page 200


 7554 0011 00       		.byte	0
 7555 0012 00       		.byte	0
 7556 0013 02       		.uleb128 0x2
 7557 0014 24       		.uleb128 0x24
 7558 0015 00       		.byte	0
 7559 0016 0B       		.uleb128 0xb
 7560 0017 0B       		.uleb128 0xb
 7561 0018 3E       		.uleb128 0x3e
 7562 0019 0B       		.uleb128 0xb
 7563 001a 03       		.uleb128 0x3
 7564 001b 0E       		.uleb128 0xe
 7565 001c 00       		.byte	0
 7566 001d 00       		.byte	0
 7567 001e 03       		.uleb128 0x3
 7568 001f 24       		.uleb128 0x24
 7569 0020 00       		.byte	0
 7570 0021 0B       		.uleb128 0xb
 7571 0022 0B       		.uleb128 0xb
 7572 0023 3E       		.uleb128 0x3e
 7573 0024 0B       		.uleb128 0xb
 7574 0025 03       		.uleb128 0x3
 7575 0026 08       		.uleb128 0x8
 7576 0027 00       		.byte	0
 7577 0028 00       		.byte	0
 7578 0029 04       		.uleb128 0x4
 7579 002a 16       		.uleb128 0x16
 7580 002b 00       		.byte	0
 7581 002c 03       		.uleb128 0x3
 7582 002d 0E       		.uleb128 0xe
 7583 002e 3A       		.uleb128 0x3a
 7584 002f 0B       		.uleb128 0xb
 7585 0030 3B       		.uleb128 0x3b
 7586 0031 05       		.uleb128 0x5
 7587 0032 49       		.uleb128 0x49
 7588 0033 13       		.uleb128 0x13
 7589 0034 00       		.byte	0
 7590 0035 00       		.byte	0
 7591 0036 05       		.uleb128 0x5
 7592 0037 35       		.uleb128 0x35
 7593 0038 00       		.byte	0
 7594 0039 49       		.uleb128 0x49
 7595 003a 13       		.uleb128 0x13
 7596 003b 00       		.byte	0
 7597 003c 00       		.byte	0
 7598 003d 06       		.uleb128 0x6
 7599 003e 0F       		.uleb128 0xf
 7600 003f 00       		.byte	0
 7601 0040 0B       		.uleb128 0xb
 7602 0041 0B       		.uleb128 0xb
 7603 0042 00       		.byte	0
 7604 0043 00       		.byte	0
 7605 0044 07       		.uleb128 0x7
 7606 0045 0F       		.uleb128 0xf
 7607 0046 00       		.byte	0
 7608 0047 0B       		.uleb128 0xb
 7609 0048 0B       		.uleb128 0xb
 7610 0049 49       		.uleb128 0x49
ARM GAS  C:\Users\Sarah\AppData\Local\Temp\ccqSJLdk.s 			page 201


 7611 004a 13       		.uleb128 0x13
 7612 004b 00       		.byte	0
 7613 004c 00       		.byte	0
 7614 004d 08       		.uleb128 0x8
 7615 004e 15       		.uleb128 0x15
 7616 004f 01       		.byte	0x1
 7617 0050 27       		.uleb128 0x27
 7618 0051 19       		.uleb128 0x19
 7619 0052 01       		.uleb128 0x1
 7620 0053 13       		.uleb128 0x13
 7621 0054 00       		.byte	0
 7622 0055 00       		.byte	0
 7623 0056 09       		.uleb128 0x9
 7624 0057 05       		.uleb128 0x5
 7625 0058 00       		.byte	0
 7626 0059 49       		.uleb128 0x49
 7627 005a 13       		.uleb128 0x13
 7628 005b 00       		.byte	0
 7629 005c 00       		.byte	0
 7630 005d 0A       		.uleb128 0xa
 7631 005e 04       		.uleb128 0x4
 7632 005f 01       		.byte	0x1
 7633 0060 0B       		.uleb128 0xb
 7634 0061 0B       		.uleb128 0xb
 7635 0062 3A       		.uleb128 0x3a
 7636 0063 0B       		.uleb128 0xb
 7637 0064 3B       		.uleb128 0x3b
 7638 0065 05       		.uleb128 0x5
 7639 0066 01       		.uleb128 0x1
 7640 0067 13       		.uleb128 0x13
 7641 0068 00       		.byte	0
 7642 0069 00       		.byte	0
 7643 006a 0B       		.uleb128 0xb
 7644 006b 28       		.uleb128 0x28
 7645 006c 00       		.byte	0
 7646 006d 03       		.uleb128 0x3
 7647 006e 0E       		.uleb128 0xe
 7648 006f 1C       		.uleb128 0x1c
 7649 0070 0D       		.uleb128 0xd
 7650 0071 00       		.byte	0
 7651 0072 00       		.byte	0
 7652 0073 0C       		.uleb128 0xc
 7653 0074 13       		.uleb128 0x13
 7654 0075 01       		.byte	0x1
 7655 0076 0B       		.uleb128 0xb
 7656 0077 0B       		.uleb128 0xb
 7657 0078 3A       		.uleb128 0x3a
 7658 0079 0B       		.uleb128 0xb
 7659 007a 3B       		.uleb128 0x3b
 7660 007b 05       		.uleb128 0x5
 7661 007c 01       		.uleb128 0x1
 7662 007d 13       		.uleb128 0x13
 7663 007e 00       		.byte	0
 7664 007f 00       		.byte	0
 7665 0080 0D       		.uleb128 0xd
 7666 0081 0D       		.uleb128 0xd
 7667 0082 00       		.byte	0
ARM GAS  C:\Users\Sarah\AppData\Local\Temp\ccqSJLdk.s 			page 202


 7668 0083 03       		.uleb128 0x3
 7669 0084 0E       		.uleb128 0xe
 7670 0085 3A       		.uleb128 0x3a
 7671 0086 0B       		.uleb128 0xb
 7672 0087 3B       		.uleb128 0x3b
 7673 0088 05       		.uleb128 0x5
 7674 0089 49       		.uleb128 0x49
 7675 008a 13       		.uleb128 0x13
 7676 008b 38       		.uleb128 0x38
 7677 008c 0B       		.uleb128 0xb
 7678 008d 00       		.byte	0
 7679 008e 00       		.byte	0
 7680 008f 0E       		.uleb128 0xe
 7681 0090 01       		.uleb128 0x1
 7682 0091 01       		.byte	0x1
 7683 0092 49       		.uleb128 0x49
 7684 0093 13       		.uleb128 0x13
 7685 0094 01       		.uleb128 0x1
 7686 0095 13       		.uleb128 0x13
 7687 0096 00       		.byte	0
 7688 0097 00       		.byte	0
 7689 0098 0F       		.uleb128 0xf
 7690 0099 21       		.uleb128 0x21
 7691 009a 00       		.byte	0
 7692 009b 49       		.uleb128 0x49
 7693 009c 13       		.uleb128 0x13
 7694 009d 2F       		.uleb128 0x2f
 7695 009e 0B       		.uleb128 0xb
 7696 009f 00       		.byte	0
 7697 00a0 00       		.byte	0
 7698 00a1 10       		.uleb128 0x10
 7699 00a2 04       		.uleb128 0x4
 7700 00a3 01       		.byte	0x1
 7701 00a4 0B       		.uleb128 0xb
 7702 00a5 0B       		.uleb128 0xb
 7703 00a6 3A       		.uleb128 0x3a
 7704 00a7 0B       		.uleb128 0xb
 7705 00a8 3B       		.uleb128 0x3b
 7706 00a9 0B       		.uleb128 0xb
 7707 00aa 01       		.uleb128 0x1
 7708 00ab 13       		.uleb128 0x13
 7709 00ac 00       		.byte	0
 7710 00ad 00       		.byte	0
 7711 00ae 11       		.uleb128 0x11
 7712 00af 16       		.uleb128 0x16
 7713 00b0 00       		.byte	0
 7714 00b1 03       		.uleb128 0x3
 7715 00b2 0E       		.uleb128 0xe
 7716 00b3 3A       		.uleb128 0x3a
 7717 00b4 0B       		.uleb128 0xb
 7718 00b5 3B       		.uleb128 0x3b
 7719 00b6 0B       		.uleb128 0xb
 7720 00b7 49       		.uleb128 0x49
 7721 00b8 13       		.uleb128 0x13
 7722 00b9 00       		.byte	0
 7723 00ba 00       		.byte	0
 7724 00bb 12       		.uleb128 0x12
ARM GAS  C:\Users\Sarah\AppData\Local\Temp\ccqSJLdk.s 			page 203


 7725 00bc 17       		.uleb128 0x17
 7726 00bd 01       		.byte	0x1
 7727 00be 0B       		.uleb128 0xb
 7728 00bf 0B       		.uleb128 0xb
 7729 00c0 3A       		.uleb128 0x3a
 7730 00c1 0B       		.uleb128 0xb
 7731 00c2 3B       		.uleb128 0x3b
 7732 00c3 05       		.uleb128 0x5
 7733 00c4 01       		.uleb128 0x1
 7734 00c5 13       		.uleb128 0x13
 7735 00c6 00       		.byte	0
 7736 00c7 00       		.byte	0
 7737 00c8 13       		.uleb128 0x13
 7738 00c9 0D       		.uleb128 0xd
 7739 00ca 00       		.byte	0
 7740 00cb 03       		.uleb128 0x3
 7741 00cc 0E       		.uleb128 0xe
 7742 00cd 3A       		.uleb128 0x3a
 7743 00ce 0B       		.uleb128 0xb
 7744 00cf 3B       		.uleb128 0x3b
 7745 00d0 05       		.uleb128 0x5
 7746 00d1 49       		.uleb128 0x49
 7747 00d2 13       		.uleb128 0x13
 7748 00d3 00       		.byte	0
 7749 00d4 00       		.byte	0
 7750 00d5 14       		.uleb128 0x14
 7751 00d6 0D       		.uleb128 0xd
 7752 00d7 00       		.byte	0
 7753 00d8 03       		.uleb128 0x3
 7754 00d9 08       		.uleb128 0x8
 7755 00da 3A       		.uleb128 0x3a
 7756 00db 0B       		.uleb128 0xb
 7757 00dc 3B       		.uleb128 0x3b
 7758 00dd 05       		.uleb128 0x5
 7759 00de 49       		.uleb128 0x49
 7760 00df 13       		.uleb128 0x13
 7761 00e0 38       		.uleb128 0x38
 7762 00e1 0B       		.uleb128 0xb
 7763 00e2 00       		.byte	0
 7764 00e3 00       		.byte	0
 7765 00e4 15       		.uleb128 0x15
 7766 00e5 13       		.uleb128 0x13
 7767 00e6 01       		.byte	0x1
 7768 00e7 0B       		.uleb128 0xb
 7769 00e8 0B       		.uleb128 0xb
 7770 00e9 3A       		.uleb128 0x3a
 7771 00ea 0B       		.uleb128 0xb
 7772 00eb 3B       		.uleb128 0x3b
 7773 00ec 0B       		.uleb128 0xb
 7774 00ed 01       		.uleb128 0x1
 7775 00ee 13       		.uleb128 0x13
 7776 00ef 00       		.byte	0
 7777 00f0 00       		.byte	0
 7778 00f1 16       		.uleb128 0x16
 7779 00f2 0D       		.uleb128 0xd
 7780 00f3 00       		.byte	0
 7781 00f4 03       		.uleb128 0x3
ARM GAS  C:\Users\Sarah\AppData\Local\Temp\ccqSJLdk.s 			page 204


 7782 00f5 0E       		.uleb128 0xe
 7783 00f6 3A       		.uleb128 0x3a
 7784 00f7 0B       		.uleb128 0xb
 7785 00f8 3B       		.uleb128 0x3b
 7786 00f9 0B       		.uleb128 0xb
 7787 00fa 49       		.uleb128 0x49
 7788 00fb 13       		.uleb128 0x13
 7789 00fc 38       		.uleb128 0x38
 7790 00fd 0B       		.uleb128 0xb
 7791 00fe 00       		.byte	0
 7792 00ff 00       		.byte	0
 7793 0100 17       		.uleb128 0x17
 7794 0101 13       		.uleb128 0x13
 7795 0102 01       		.byte	0x1
 7796 0103 0B       		.uleb128 0xb
 7797 0104 05       		.uleb128 0x5
 7798 0105 3A       		.uleb128 0x3a
 7799 0106 0B       		.uleb128 0xb
 7800 0107 3B       		.uleb128 0x3b
 7801 0108 0B       		.uleb128 0xb
 7802 0109 01       		.uleb128 0x1
 7803 010a 13       		.uleb128 0x13
 7804 010b 00       		.byte	0
 7805 010c 00       		.byte	0
 7806 010d 18       		.uleb128 0x18
 7807 010e 0D       		.uleb128 0xd
 7808 010f 00       		.byte	0
 7809 0110 03       		.uleb128 0x3
 7810 0111 0E       		.uleb128 0xe
 7811 0112 3A       		.uleb128 0x3a
 7812 0113 0B       		.uleb128 0xb
 7813 0114 3B       		.uleb128 0x3b
 7814 0115 0B       		.uleb128 0xb
 7815 0116 49       		.uleb128 0x49
 7816 0117 13       		.uleb128 0x13
 7817 0118 38       		.uleb128 0x38
 7818 0119 05       		.uleb128 0x5
 7819 011a 00       		.byte	0
 7820 011b 00       		.byte	0
 7821 011c 19       		.uleb128 0x19
 7822 011d 21       		.uleb128 0x21
 7823 011e 00       		.byte	0
 7824 011f 49       		.uleb128 0x49
 7825 0120 13       		.uleb128 0x13
 7826 0121 2F       		.uleb128 0x2f
 7827 0122 05       		.uleb128 0x5
 7828 0123 00       		.byte	0
 7829 0124 00       		.byte	0
 7830 0125 1A       		.uleb128 0x1a
 7831 0126 2E       		.uleb128 0x2e
 7832 0127 01       		.byte	0x1
 7833 0128 03       		.uleb128 0x3
 7834 0129 0E       		.uleb128 0xe
 7835 012a 3A       		.uleb128 0x3a
 7836 012b 0B       		.uleb128 0xb
 7837 012c 3B       		.uleb128 0x3b
 7838 012d 0B       		.uleb128 0xb
ARM GAS  C:\Users\Sarah\AppData\Local\Temp\ccqSJLdk.s 			page 205


 7839 012e 27       		.uleb128 0x27
 7840 012f 19       		.uleb128 0x19
 7841 0130 11       		.uleb128 0x11
 7842 0131 01       		.uleb128 0x1
 7843 0132 12       		.uleb128 0x12
 7844 0133 06       		.uleb128 0x6
 7845 0134 40       		.uleb128 0x40
 7846 0135 18       		.uleb128 0x18
 7847 0136 9642     		.uleb128 0x2116
 7848 0138 19       		.uleb128 0x19
 7849 0139 01       		.uleb128 0x1
 7850 013a 13       		.uleb128 0x13
 7851 013b 00       		.byte	0
 7852 013c 00       		.byte	0
 7853 013d 1B       		.uleb128 0x1b
 7854 013e 05       		.uleb128 0x5
 7855 013f 00       		.byte	0
 7856 0140 03       		.uleb128 0x3
 7857 0141 0E       		.uleb128 0xe
 7858 0142 3A       		.uleb128 0x3a
 7859 0143 0B       		.uleb128 0xb
 7860 0144 3B       		.uleb128 0x3b
 7861 0145 0B       		.uleb128 0xb
 7862 0146 49       		.uleb128 0x49
 7863 0147 13       		.uleb128 0x13
 7864 0148 02       		.uleb128 0x2
 7865 0149 18       		.uleb128 0x18
 7866 014a 00       		.byte	0
 7867 014b 00       		.byte	0
 7868 014c 1C       		.uleb128 0x1c
 7869 014d 34       		.uleb128 0x34
 7870 014e 00       		.byte	0
 7871 014f 03       		.uleb128 0x3
 7872 0150 0E       		.uleb128 0xe
 7873 0151 3A       		.uleb128 0x3a
 7874 0152 0B       		.uleb128 0xb
 7875 0153 3B       		.uleb128 0x3b
 7876 0154 0B       		.uleb128 0xb
 7877 0155 49       		.uleb128 0x49
 7878 0156 13       		.uleb128 0x13
 7879 0157 02       		.uleb128 0x2
 7880 0158 18       		.uleb128 0x18
 7881 0159 00       		.byte	0
 7882 015a 00       		.byte	0
 7883 015b 1D       		.uleb128 0x1d
 7884 015c 0B       		.uleb128 0xb
 7885 015d 01       		.byte	0x1
 7886 015e 11       		.uleb128 0x11
 7887 015f 01       		.uleb128 0x1
 7888 0160 12       		.uleb128 0x12
 7889 0161 06       		.uleb128 0x6
 7890 0162 00       		.byte	0
 7891 0163 00       		.byte	0
 7892 0164 1E       		.uleb128 0x1e
 7893 0165 34       		.uleb128 0x34
 7894 0166 00       		.byte	0
 7895 0167 03       		.uleb128 0x3
ARM GAS  C:\Users\Sarah\AppData\Local\Temp\ccqSJLdk.s 			page 206


 7896 0168 0E       		.uleb128 0xe
 7897 0169 3A       		.uleb128 0x3a
 7898 016a 0B       		.uleb128 0xb
 7899 016b 3B       		.uleb128 0x3b
 7900 016c 05       		.uleb128 0x5
 7901 016d 49       		.uleb128 0x49
 7902 016e 13       		.uleb128 0x13
 7903 016f 02       		.uleb128 0x2
 7904 0170 18       		.uleb128 0x18
 7905 0171 00       		.byte	0
 7906 0172 00       		.byte	0
 7907 0173 1F       		.uleb128 0x1f
 7908 0174 2E       		.uleb128 0x2e
 7909 0175 01       		.byte	0x1
 7910 0176 03       		.uleb128 0x3
 7911 0177 0E       		.uleb128 0xe
 7912 0178 3A       		.uleb128 0x3a
 7913 0179 0B       		.uleb128 0xb
 7914 017a 3B       		.uleb128 0x3b
 7915 017b 05       		.uleb128 0x5
 7916 017c 27       		.uleb128 0x27
 7917 017d 19       		.uleb128 0x19
 7918 017e 11       		.uleb128 0x11
 7919 017f 01       		.uleb128 0x1
 7920 0180 12       		.uleb128 0x12
 7921 0181 06       		.uleb128 0x6
 7922 0182 40       		.uleb128 0x40
 7923 0183 18       		.uleb128 0x18
 7924 0184 9742     		.uleb128 0x2117
 7925 0186 19       		.uleb128 0x19
 7926 0187 01       		.uleb128 0x1
 7927 0188 13       		.uleb128 0x13
 7928 0189 00       		.byte	0
 7929 018a 00       		.byte	0
 7930 018b 20       		.uleb128 0x20
 7931 018c 05       		.uleb128 0x5
 7932 018d 00       		.byte	0
 7933 018e 03       		.uleb128 0x3
 7934 018f 0E       		.uleb128 0xe
 7935 0190 3A       		.uleb128 0x3a
 7936 0191 0B       		.uleb128 0xb
 7937 0192 3B       		.uleb128 0x3b
 7938 0193 05       		.uleb128 0x5
 7939 0194 49       		.uleb128 0x49
 7940 0195 13       		.uleb128 0x13
 7941 0196 02       		.uleb128 0x2
 7942 0197 18       		.uleb128 0x18
 7943 0198 00       		.byte	0
 7944 0199 00       		.byte	0
 7945 019a 21       		.uleb128 0x21
 7946 019b 26       		.uleb128 0x26
 7947 019c 00       		.byte	0
 7948 019d 49       		.uleb128 0x49
 7949 019e 13       		.uleb128 0x13
 7950 019f 00       		.byte	0
 7951 01a0 00       		.byte	0
 7952 01a1 22       		.uleb128 0x22
ARM GAS  C:\Users\Sarah\AppData\Local\Temp\ccqSJLdk.s 			page 207


 7953 01a2 2E       		.uleb128 0x2e
 7954 01a3 01       		.byte	0x1
 7955 01a4 03       		.uleb128 0x3
 7956 01a5 0E       		.uleb128 0xe
 7957 01a6 3A       		.uleb128 0x3a
 7958 01a7 0B       		.uleb128 0xb
 7959 01a8 3B       		.uleb128 0x3b
 7960 01a9 05       		.uleb128 0x5
 7961 01aa 27       		.uleb128 0x27
 7962 01ab 19       		.uleb128 0x19
 7963 01ac 11       		.uleb128 0x11
 7964 01ad 01       		.uleb128 0x1
 7965 01ae 12       		.uleb128 0x12
 7966 01af 06       		.uleb128 0x6
 7967 01b0 40       		.uleb128 0x40
 7968 01b1 18       		.uleb128 0x18
 7969 01b2 9642     		.uleb128 0x2116
 7970 01b4 19       		.uleb128 0x19
 7971 01b5 01       		.uleb128 0x1
 7972 01b6 13       		.uleb128 0x13
 7973 01b7 00       		.byte	0
 7974 01b8 00       		.byte	0
 7975 01b9 23       		.uleb128 0x23
 7976 01ba 2E       		.uleb128 0x2e
 7977 01bb 00       		.byte	0
 7978 01bc 03       		.uleb128 0x3
 7979 01bd 0E       		.uleb128 0xe
 7980 01be 3A       		.uleb128 0x3a
 7981 01bf 0B       		.uleb128 0xb
 7982 01c0 3B       		.uleb128 0x3b
 7983 01c1 05       		.uleb128 0x5
 7984 01c2 27       		.uleb128 0x27
 7985 01c3 19       		.uleb128 0x19
 7986 01c4 11       		.uleb128 0x11
 7987 01c5 01       		.uleb128 0x1
 7988 01c6 12       		.uleb128 0x12
 7989 01c7 06       		.uleb128 0x6
 7990 01c8 40       		.uleb128 0x40
 7991 01c9 18       		.uleb128 0x18
 7992 01ca 9742     		.uleb128 0x2117
 7993 01cc 19       		.uleb128 0x19
 7994 01cd 00       		.byte	0
 7995 01ce 00       		.byte	0
 7996 01cf 24       		.uleb128 0x24
 7997 01d0 2E       		.uleb128 0x2e
 7998 01d1 01       		.byte	0x1
 7999 01d2 3F       		.uleb128 0x3f
 8000 01d3 19       		.uleb128 0x19
 8001 01d4 03       		.uleb128 0x3
 8002 01d5 0E       		.uleb128 0xe
 8003 01d6 3A       		.uleb128 0x3a
 8004 01d7 0B       		.uleb128 0xb
 8005 01d8 3B       		.uleb128 0x3b
 8006 01d9 05       		.uleb128 0x5
 8007 01da 27       		.uleb128 0x27
 8008 01db 19       		.uleb128 0x19
 8009 01dc 49       		.uleb128 0x49
ARM GAS  C:\Users\Sarah\AppData\Local\Temp\ccqSJLdk.s 			page 208


 8010 01dd 13       		.uleb128 0x13
 8011 01de 11       		.uleb128 0x11
 8012 01df 01       		.uleb128 0x1
 8013 01e0 12       		.uleb128 0x12
 8014 01e1 06       		.uleb128 0x6
 8015 01e2 40       		.uleb128 0x40
 8016 01e3 18       		.uleb128 0x18
 8017 01e4 9742     		.uleb128 0x2117
 8018 01e6 19       		.uleb128 0x19
 8019 01e7 01       		.uleb128 0x1
 8020 01e8 13       		.uleb128 0x13
 8021 01e9 00       		.byte	0
 8022 01ea 00       		.byte	0
 8023 01eb 25       		.uleb128 0x25
 8024 01ec 34       		.uleb128 0x34
 8025 01ed 00       		.byte	0
 8026 01ee 03       		.uleb128 0x3
 8027 01ef 08       		.uleb128 0x8
 8028 01f0 3A       		.uleb128 0x3a
 8029 01f1 0B       		.uleb128 0xb
 8030 01f2 3B       		.uleb128 0x3b
 8031 01f3 05       		.uleb128 0x5
 8032 01f4 49       		.uleb128 0x49
 8033 01f5 13       		.uleb128 0x13
 8034 01f6 02       		.uleb128 0x2
 8035 01f7 18       		.uleb128 0x18
 8036 01f8 00       		.byte	0
 8037 01f9 00       		.byte	0
 8038 01fa 26       		.uleb128 0x26
 8039 01fb 2E       		.uleb128 0x2e
 8040 01fc 01       		.byte	0x1
 8041 01fd 3F       		.uleb128 0x3f
 8042 01fe 19       		.uleb128 0x19
 8043 01ff 03       		.uleb128 0x3
 8044 0200 0E       		.uleb128 0xe
 8045 0201 3A       		.uleb128 0x3a
 8046 0202 0B       		.uleb128 0xb
 8047 0203 3B       		.uleb128 0x3b
 8048 0204 05       		.uleb128 0x5
 8049 0205 27       		.uleb128 0x27
 8050 0206 19       		.uleb128 0x19
 8051 0207 11       		.uleb128 0x11
 8052 0208 01       		.uleb128 0x1
 8053 0209 12       		.uleb128 0x12
 8054 020a 06       		.uleb128 0x6
 8055 020b 40       		.uleb128 0x40
 8056 020c 18       		.uleb128 0x18
 8057 020d 9642     		.uleb128 0x2116
 8058 020f 19       		.uleb128 0x19
 8059 0210 01       		.uleb128 0x1
 8060 0211 13       		.uleb128 0x13
 8061 0212 00       		.byte	0
 8062 0213 00       		.byte	0
 8063 0214 27       		.uleb128 0x27
 8064 0215 0B       		.uleb128 0xb
 8065 0216 01       		.byte	0x1
 8066 0217 11       		.uleb128 0x11
ARM GAS  C:\Users\Sarah\AppData\Local\Temp\ccqSJLdk.s 			page 209


 8067 0218 01       		.uleb128 0x1
 8068 0219 12       		.uleb128 0x12
 8069 021a 06       		.uleb128 0x6
 8070 021b 01       		.uleb128 0x1
 8071 021c 13       		.uleb128 0x13
 8072 021d 00       		.byte	0
 8073 021e 00       		.byte	0
 8074 021f 28       		.uleb128 0x28
 8075 0220 2E       		.uleb128 0x2e
 8076 0221 01       		.byte	0x1
 8077 0222 03       		.uleb128 0x3
 8078 0223 0E       		.uleb128 0xe
 8079 0224 3A       		.uleb128 0x3a
 8080 0225 0B       		.uleb128 0xb
 8081 0226 3B       		.uleb128 0x3b
 8082 0227 05       		.uleb128 0x5
 8083 0228 27       		.uleb128 0x27
 8084 0229 19       		.uleb128 0x19
 8085 022a 49       		.uleb128 0x49
 8086 022b 13       		.uleb128 0x13
 8087 022c 11       		.uleb128 0x11
 8088 022d 01       		.uleb128 0x1
 8089 022e 12       		.uleb128 0x12
 8090 022f 06       		.uleb128 0x6
 8091 0230 40       		.uleb128 0x40
 8092 0231 18       		.uleb128 0x18
 8093 0232 9742     		.uleb128 0x2117
 8094 0234 19       		.uleb128 0x19
 8095 0235 01       		.uleb128 0x1
 8096 0236 13       		.uleb128 0x13
 8097 0237 00       		.byte	0
 8098 0238 00       		.byte	0
 8099 0239 29       		.uleb128 0x29
 8100 023a 2E       		.uleb128 0x2e
 8101 023b 00       		.byte	0
 8102 023c 3F       		.uleb128 0x3f
 8103 023d 19       		.uleb128 0x19
 8104 023e 03       		.uleb128 0x3
 8105 023f 0E       		.uleb128 0xe
 8106 0240 3A       		.uleb128 0x3a
 8107 0241 0B       		.uleb128 0xb
 8108 0242 3B       		.uleb128 0x3b
 8109 0243 05       		.uleb128 0x5
 8110 0244 27       		.uleb128 0x27
 8111 0245 19       		.uleb128 0x19
 8112 0246 11       		.uleb128 0x11
 8113 0247 01       		.uleb128 0x1
 8114 0248 12       		.uleb128 0x12
 8115 0249 06       		.uleb128 0x6
 8116 024a 40       		.uleb128 0x40
 8117 024b 18       		.uleb128 0x18
 8118 024c 9642     		.uleb128 0x2116
 8119 024e 19       		.uleb128 0x19
 8120 024f 00       		.byte	0
 8121 0250 00       		.byte	0
 8122 0251 2A       		.uleb128 0x2a
 8123 0252 34       		.uleb128 0x34
ARM GAS  C:\Users\Sarah\AppData\Local\Temp\ccqSJLdk.s 			page 210


 8124 0253 00       		.byte	0
 8125 0254 03       		.uleb128 0x3
 8126 0255 0E       		.uleb128 0xe
 8127 0256 3A       		.uleb128 0x3a
 8128 0257 0B       		.uleb128 0xb
 8129 0258 3B       		.uleb128 0x3b
 8130 0259 05       		.uleb128 0x5
 8131 025a 49       		.uleb128 0x49
 8132 025b 13       		.uleb128 0x13
 8133 025c 3F       		.uleb128 0x3f
 8134 025d 19       		.uleb128 0x19
 8135 025e 3C       		.uleb128 0x3c
 8136 025f 19       		.uleb128 0x19
 8137 0260 00       		.byte	0
 8138 0261 00       		.byte	0
 8139 0262 2B       		.uleb128 0x2b
 8140 0263 34       		.uleb128 0x34
 8141 0264 00       		.byte	0
 8142 0265 03       		.uleb128 0x3
 8143 0266 0E       		.uleb128 0xe
 8144 0267 3A       		.uleb128 0x3a
 8145 0268 0B       		.uleb128 0xb
 8146 0269 3B       		.uleb128 0x3b
 8147 026a 0B       		.uleb128 0xb
 8148 026b 49       		.uleb128 0x49
 8149 026c 13       		.uleb128 0x13
 8150 026d 3F       		.uleb128 0x3f
 8151 026e 19       		.uleb128 0x19
 8152 026f 02       		.uleb128 0x2
 8153 0270 18       		.uleb128 0x18
 8154 0271 00       		.byte	0
 8155 0272 00       		.byte	0
 8156 0273 2C       		.uleb128 0x2c
 8157 0274 34       		.uleb128 0x34
 8158 0275 00       		.byte	0
 8159 0276 03       		.uleb128 0x3
 8160 0277 0E       		.uleb128 0xe
 8161 0278 3A       		.uleb128 0x3a
 8162 0279 0B       		.uleb128 0xb
 8163 027a 3B       		.uleb128 0x3b
 8164 027b 0B       		.uleb128 0xb
 8165 027c 49       		.uleb128 0x49
 8166 027d 13       		.uleb128 0x13
 8167 027e 3F       		.uleb128 0x3f
 8168 027f 19       		.uleb128 0x19
 8169 0280 3C       		.uleb128 0x3c
 8170 0281 19       		.uleb128 0x19
 8171 0282 00       		.byte	0
 8172 0283 00       		.byte	0
 8173 0284 00       		.byte	0
 8174              		.section	.debug_aranges,"",%progbits
 8175 0000 D4000000 		.4byte	0xd4
 8176 0004 0200     		.2byte	0x2
 8177 0006 00000000 		.4byte	.Ldebug_info0
 8178 000a 04       		.byte	0x4
 8179 000b 00       		.byte	0
 8180 000c 0000     		.2byte	0
ARM GAS  C:\Users\Sarah\AppData\Local\Temp\ccqSJLdk.s 			page 211


 8181 000e 0000     		.2byte	0
 8182 0010 00000000 		.4byte	.LFB2
 8183 0014 70000000 		.4byte	.LFE2-.LFB2
 8184 0018 00000000 		.4byte	.LFB3
 8185 001c 0E000000 		.4byte	.LFE3-.LFB3
 8186 0020 00000000 		.4byte	.LFB4
 8187 0024 0E000000 		.4byte	.LFE4-.LFB4
 8188 0028 00000000 		.4byte	.LFB5
 8189 002c 0E000000 		.4byte	.LFE5-.LFB5
 8190 0030 00000000 		.4byte	.LFB6
 8191 0034 0E000000 		.4byte	.LFE6-.LFB6
 8192 0038 00000000 		.4byte	.LFB7
 8193 003c 0C010000 		.4byte	.LFE7-.LFB7
 8194 0040 00000000 		.4byte	.LFB8
 8195 0044 0C010000 		.4byte	.LFE8-.LFB8
 8196 0048 00000000 		.4byte	.LFB9
 8197 004c 34000000 		.4byte	.LFE9-.LFB9
 8198 0050 00000000 		.4byte	.LFB10
 8199 0054 B8000000 		.4byte	.LFE10-.LFB10
 8200 0058 00000000 		.4byte	.LFB11
 8201 005c 08000000 		.4byte	.LFE11-.LFB11
 8202 0060 00000000 		.4byte	.LFB12
 8203 0064 60000000 		.4byte	.LFE12-.LFB12
 8204 0068 00000000 		.4byte	.LFB13
 8205 006c 12000000 		.4byte	.LFE13-.LFB13
 8206 0070 00000000 		.4byte	.LFB14
 8207 0074 0E000000 		.4byte	.LFE14-.LFB14
 8208 0078 00000000 		.4byte	.LFB15
 8209 007c B4030000 		.4byte	.LFE15-.LFB15
 8210 0080 00000000 		.4byte	.LFB16
 8211 0084 C8010000 		.4byte	.LFE16-.LFB16
 8212 0088 00000000 		.4byte	.LFB17
 8213 008c 04010000 		.4byte	.LFE17-.LFB17
 8214 0090 00000000 		.4byte	.LFB18
 8215 0094 34010000 		.4byte	.LFE18-.LFB18
 8216 0098 00000000 		.4byte	.LFB19
 8217 009c BC030000 		.4byte	.LFE19-.LFB19
 8218 00a0 00000000 		.4byte	.LFB20
 8219 00a4 08010000 		.4byte	.LFE20-.LFB20
 8220 00a8 00000000 		.4byte	.LFB21
 8221 00ac 64000000 		.4byte	.LFE21-.LFB21
 8222 00b0 00000000 		.4byte	.LFB22
 8223 00b4 44010000 		.4byte	.LFE22-.LFB22
 8224 00b8 00000000 		.4byte	.LFB23
 8225 00bc 5C010000 		.4byte	.LFE23-.LFB23
 8226 00c0 00000000 		.4byte	.LFB24
 8227 00c4 A0000000 		.4byte	.LFE24-.LFB24
 8228 00c8 00000000 		.4byte	.LFB25
 8229 00cc 2C000000 		.4byte	.LFE25-.LFB25
 8230 00d0 00000000 		.4byte	0
 8231 00d4 00000000 		.4byte	0
 8232              		.section	.debug_ranges,"",%progbits
 8233              	.Ldebug_ranges0:
 8234 0000 00000000 		.4byte	.LFB2
 8235 0004 70000000 		.4byte	.LFE2
 8236 0008 00000000 		.4byte	.LFB3
 8237 000c 0E000000 		.4byte	.LFE3
ARM GAS  C:\Users\Sarah\AppData\Local\Temp\ccqSJLdk.s 			page 212


 8238 0010 00000000 		.4byte	.LFB4
 8239 0014 0E000000 		.4byte	.LFE4
 8240 0018 00000000 		.4byte	.LFB5
 8241 001c 0E000000 		.4byte	.LFE5
 8242 0020 00000000 		.4byte	.LFB6
 8243 0024 0E000000 		.4byte	.LFE6
 8244 0028 00000000 		.4byte	.LFB7
 8245 002c 0C010000 		.4byte	.LFE7
 8246 0030 00000000 		.4byte	.LFB8
 8247 0034 0C010000 		.4byte	.LFE8
 8248 0038 00000000 		.4byte	.LFB9
 8249 003c 34000000 		.4byte	.LFE9
 8250 0040 00000000 		.4byte	.LFB10
 8251 0044 B8000000 		.4byte	.LFE10
 8252 0048 00000000 		.4byte	.LFB11
 8253 004c 08000000 		.4byte	.LFE11
 8254 0050 00000000 		.4byte	.LFB12
 8255 0054 60000000 		.4byte	.LFE12
 8256 0058 00000000 		.4byte	.LFB13
 8257 005c 12000000 		.4byte	.LFE13
 8258 0060 00000000 		.4byte	.LFB14
 8259 0064 0E000000 		.4byte	.LFE14
 8260 0068 00000000 		.4byte	.LFB15
 8261 006c B4030000 		.4byte	.LFE15
 8262 0070 00000000 		.4byte	.LFB16
 8263 0074 C8010000 		.4byte	.LFE16
 8264 0078 00000000 		.4byte	.LFB17
 8265 007c 04010000 		.4byte	.LFE17
 8266 0080 00000000 		.4byte	.LFB18
 8267 0084 34010000 		.4byte	.LFE18
 8268 0088 00000000 		.4byte	.LFB19
 8269 008c BC030000 		.4byte	.LFE19
 8270 0090 00000000 		.4byte	.LFB20
 8271 0094 08010000 		.4byte	.LFE20
 8272 0098 00000000 		.4byte	.LFB21
 8273 009c 64000000 		.4byte	.LFE21
 8274 00a0 00000000 		.4byte	.LFB22
 8275 00a4 44010000 		.4byte	.LFE22
 8276 00a8 00000000 		.4byte	.LFB23
 8277 00ac 5C010000 		.4byte	.LFE23
 8278 00b0 00000000 		.4byte	.LFB24
 8279 00b4 A0000000 		.4byte	.LFE24
 8280 00b8 00000000 		.4byte	.LFB25
 8281 00bc 2C000000 		.4byte	.LFE25
 8282 00c0 00000000 		.4byte	0
 8283 00c4 00000000 		.4byte	0
 8284              		.section	.debug_line,"",%progbits
 8285              	.Ldebug_line0:
 8286 0000 1E060000 		.section	.debug_str,"MS",%progbits,1
 8286      02000B01 
 8286      00000201 
 8286      FB0E0D00 
 8286      01010101 
 8287              	.LASF690:
 8288 0000 6379426C 		.ascii	"cyBle_peerBonding\000"
 8288      655F7065 
 8288      6572426F 
ARM GAS  C:\Users\Sarah\AppData\Local\Temp\ccqSJLdk.s 			page 213


 8288      6E64696E 
 8288      6700
 8289              	.LASF581:
 8290 0012 4359424C 		.ascii	"CYBLE_EVT_UDSC_READ_CHAR_RESPONSE\000"
 8290      455F4556 
 8290      545F5544 
 8290      53435F52 
 8290      4541445F 
 8291              	.LASF540:
 8292 0034 4359424C 		.ascii	"CYBLE_EVT_PLXSC_NOTIFICATION\000"
 8292      455F4556 
 8292      545F504C 
 8292      5853435F 
 8292      4E4F5449 
 8293              	.LASF491:
 8294 0051 4359424C 		.ascii	"CYBLE_EVT_HTSS_NOTIFICATION_DISABLED\000"
 8294      455F4556 
 8294      545F4854 
 8294      53535F4E 
 8294      4F544946 
 8295              	.LASF246:
 8296 0076 4359424C 		.ascii	"CYBLE_GATT_ERR_INVALID_CRC\000"
 8296      455F4741 
 8296      54545F45 
 8296      52525F49 
 8296      4E56414C 
 8297              	.LASF530:
 8298 0091 4359424C 		.ascii	"CYBLE_EVT_PASSC_NOTIFICATION\000"
 8298      455F4556 
 8298      545F5041 
 8298      5353435F 
 8298      4E4F5449 
 8299              	.LASF537:
 8300 00ae 4359424C 		.ascii	"CYBLE_EVT_PLXSS_INDICATION_ENABLED\000"
 8300      455F4556 
 8300      545F504C 
 8300      5853535F 
 8300      494E4449 
 8301              	.LASF15:
 8302 00d1 73697A65 		.ascii	"sizetype\000"
 8302      74797065 
 8302      00
 8303              	.LASF372:
 8304 00da 4359424C 		.ascii	"CYBLE_EVT_BCSC_READ_CHAR_RESPONSE\000"
 8304      455F4556 
 8304      545F4243 
 8304      53435F52 
 8304      4541445F 
 8305              	.LASF395:
 8306 00fc 4359424C 		.ascii	"CYBLE_EVT_CGMSC_INDICATION\000"
 8306      455F4556 
 8306      545F4347 
 8306      4D53435F 
 8306      494E4449 
 8307              	.LASF413:
 8308 0117 4359424C 		.ascii	"CYBLE_EVT_CPSC_READ_DESCR_RESPONSE\000"
 8308      455F4556 
ARM GAS  C:\Users\Sarah\AppData\Local\Temp\ccqSJLdk.s 			page 214


 8308      545F4350 
 8308      53435F52 
 8308      4541445F 
 8309              	.LASF180:
 8310 013a 656B6579 		.ascii	"ekeySize\000"
 8310      53697A65 
 8310      00
 8311              	.LASF558:
 8312 0143 4359424C 		.ascii	"CYBLE_EVT_RTUSS_WRITE_CHAR_CMD\000"
 8312      455F4556 
 8312      545F5254 
 8312      5553535F 
 8312      57524954 
 8313              	.LASF215:
 8314 0162 4359424C 		.ascii	"CYBLE_GATT_HANDLE_VALUE_CNF\000"
 8314      455F4741 
 8314      54545F48 
 8314      414E444C 
 8314      455F5641 
 8315              	.LASF592:
 8316 017e 4359424C 		.ascii	"CYBLE_EVT_WPTSC_NOTIFICATION\000"
 8316      455F4556 
 8316      545F5750 
 8316      5453435F 
 8316      4E4F5449 
 8317              	.LASF343:
 8318 019b 4359424C 		.ascii	"CYBLE_EVT_GATTC_INCL_DISCOVERY_COMPLETE\000"
 8318      455F4556 
 8318      545F4741 
 8318      5454435F 
 8318      494E434C 
 8319              	.LASF36:
 8320 01c3 4359424C 		.ascii	"CYBLE_EVT_GAP_NUMERIC_COMPARISON_REQUEST\000"
 8320      455F4556 
 8320      545F4741 
 8320      505F4E55 
 8320      4D455249 
 8321              	.LASF598:
 8322 01ec 4359424C 		.ascii	"CYBLE_EVT_WSSS_INDICATION_ENABLED\000"
 8322      455F4556 
 8322      545F5753 
 8322      53535F49 
 8322      4E444943 
 8323              	.LASF411:
 8324 020e 4359424C 		.ascii	"CYBLE_EVT_CPSC_READ_CHAR_RESPONSE\000"
 8324      455F4556 
 8324      545F4350 
 8324      53435F52 
 8324      4541445F 
 8325              	.LASF424:
 8326 0230 4359424C 		.ascii	"CYBLE_EVT_CSCSC_READ_CHAR_RESPONSE\000"
 8326      455F4556 
 8326      545F4353 
 8326      4353435F 
 8326      52454144 
 8327              	.LASF511:
 8328 0253 4359424C 		.ascii	"CYBLE_EVT_LLSS_WRITE_CHAR_REQ\000"
ARM GAS  C:\Users\Sarah\AppData\Local\Temp\ccqSJLdk.s 			page 215


 8328      455F4556 
 8328      545F4C4C 
 8328      53535F57 
 8328      52495445 
 8329              	.LASF640:
 8330 0271 4379426C 		.ascii	"CyBle_WriteReqHandler\000"
 8330      655F5772 
 8330      69746552 
 8330      65714861 
 8330      6E646C65 
 8331              	.LASF137:
 8332 0287 72657175 		.ascii	"request\000"
 8332      65737400 
 8333              	.LASF174:
 8334 028f 4359424C 		.ascii	"CYBLE_GAP_AUTH_ERROR_CODE_SPEC_MAX_VALUE\000"
 8334      455F4741 
 8334      505F4155 
 8334      54485F45 
 8334      52524F52 
 8335              	.LASF454:
 8336 02b8 4359424C 		.ascii	"CYBLE_EVT_GLSS_NOTIFICATION_DISABLED\000"
 8336      455F4556 
 8336      545F474C 
 8336      53535F4E 
 8336      4F544946 
 8337              	.LASF642:
 8338 02dd 6576656E 		.ascii	"eventParam\000"
 8338      74506172 
 8338      616D00
 8339              	.LASF382:
 8340 02e8 4359424C 		.ascii	"CYBLE_EVT_BLSC_READ_CHAR_RESPONSE\000"
 8340      455F4556 
 8340      545F424C 
 8340      53435F52 
 8340      4541445F 
 8341              	.LASF30:
 8342 030a 4359424C 		.ascii	"CYBLE_EVT_GAP_DEVICE_CONNECTED\000"
 8342      455F4556 
 8342      545F4741 
 8342      505F4445 
 8342      56494345 
 8343              	.LASF157:
 8344 0329 4359424C 		.ascii	"CYBLE_GAP_IOCAP_NOINPUT_NOOUTPUT\000"
 8344      455F4741 
 8344      505F494F 
 8344      4341505F 
 8344      4E4F494E 
 8345              	.LASF47:
 8346 034a 4359424C 		.ascii	"CYBLE_EVT_GATT_CONNECT_IND\000"
 8346      455F4556 
 8346      545F4741 
 8346      54545F43 
 8346      4F4E4E45 
 8347              	.LASF459:
 8348 0365 4359424C 		.ascii	"CYBLE_EVT_GLSC_WRITE_CHAR_RESPONSE\000"
 8348      455F4556 
 8348      545F474C 
ARM GAS  C:\Users\Sarah\AppData\Local\Temp\ccqSJLdk.s 			page 216


 8348      53435F57 
 8348      52495445 
 8349              	.LASF320:
 8350 0388 73657276 		.ascii	"serviceChanged\000"
 8350      69636543 
 8350      68616E67 
 8350      656400
 8351              	.LASF208:
 8352 0397 4359424C 		.ascii	"CYBLE_GATT_WRITE_CMD\000"
 8352      455F4741 
 8352      54545F57 
 8352      52495445 
 8352      5F434D44 
 8353              	.LASF11:
 8354 03ac 75696E74 		.ascii	"uint32\000"
 8354      333200
 8355              	.LASF338:
 8356 03b3 4359424C 		.ascii	"CYBLE_EVT_GATTC_DESCR_DISCOVERY_FAILED\000"
 8356      455F4556 
 8356      545F4741 
 8356      5454435F 
 8356      44455343 
 8357              	.LASF557:
 8358 03da 4359424C 		.ascii	"CYBLE_EVT_RSCSC_WRITE_DESCR_RESPONSE\000"
 8358      455F4556 
 8358      545F5253 
 8358      4353435F 
 8358      57524954 
 8359              	.LASF370:
 8360 03ff 4359424C 		.ascii	"CYBLE_EVT_BCSS_INDICATION_CONFIRMED\000"
 8360      455F4556 
 8360      545F4243 
 8360      53535F49 
 8360      4E444943 
 8361              	.LASF371:
 8362 0423 4359424C 		.ascii	"CYBLE_EVT_BCSC_INDICATION\000"
 8362      455F4556 
 8362      545F4243 
 8362      53435F49 
 8362      4E444943 
 8363              	.LASF131:
 8364 043d 626C6550 		.ascii	"blePwrLevelInDbm\000"
 8364      77724C65 
 8364      76656C49 
 8364      6E44626D 
 8364      00
 8365              	.LASF515:
 8366 044e 4359424C 		.ascii	"CYBLE_EVT_LNSS_INDICATION_DISABLED\000"
 8366      455F4556 
 8366      545F4C4E 
 8366      53535F49 
 8366      4E444943 
 8367              	.LASF432:
 8368 0471 4359424C 		.ascii	"CYBLE_EVT_CTSC_READ_CHAR_RESPONSE\000"
 8368      455F4556 
 8368      545F4354 
 8368      53435F52 
ARM GAS  C:\Users\Sarah\AppData\Local\Temp\ccqSJLdk.s 			page 217


 8368      4541445F 
 8369              	.LASF342:
 8370 0493 4359424C 		.ascii	"CYBLE_EVT_GATTC_SRVC_DISCOVERY_COMPLETE\000"
 8370      455F4556 
 8370      545F4741 
 8370      5454435F 
 8370      53525643 
 8371              	.LASF551:
 8372 04bb 4359424C 		.ascii	"CYBLE_EVT_RSCSS_CHAR_WRITE\000"
 8372      455F4556 
 8372      545F5253 
 8372      4353535F 
 8372      43484152 
 8373              	.LASF348:
 8374 04d6 4359424C 		.ascii	"CYBLE_EVT_ANCSS_WRITE_CHAR\000"
 8374      455F4556 
 8374      545F414E 
 8374      4353535F 
 8374      57524954 
 8375              	.LASF541:
 8376 04f1 4359424C 		.ascii	"CYBLE_EVT_PLXSC_INDICATION\000"
 8376      455F4556 
 8376      545F504C 
 8376      5853435F 
 8376      494E4449 
 8377              	.LASF584:
 8378 050c 4359424C 		.ascii	"CYBLE_EVT_UDSC_WRITE_DESCR_RESPONSE\000"
 8378      455F4556 
 8378      545F5544 
 8378      53435F57 
 8378      52495445 
 8379              	.LASF473:
 8380 0530 4359424C 		.ascii	"CYBLE_EVT_HIDSC_WRITE_DESCR_RESPONSE\000"
 8380      455F4556 
 8380      545F4849 
 8380      4453435F 
 8380      57524954 
 8381              	.LASF566:
 8382 0555 4359424C 		.ascii	"CYBLE_EVT_TPSS_NOTIFICATION_ENABLED\000"
 8382      455F4556 
 8382      545F5450 
 8382      53535F4E 
 8382      4F544946 
 8383              	.LASF360:
 8384 0579 4359424C 		.ascii	"CYBLE_EVT_ANSC_READ_DESCR_RESPONSE\000"
 8384      455F4556 
 8384      545F414E 
 8384      53435F52 
 8384      4541445F 
 8385              	.LASF221:
 8386 059c 4359424C 		.ascii	"CYBLE_GATT_ERR_READ_NOT_PERMITTED\000"
 8386      455F4741 
 8386      54545F45 
 8386      52525F52 
 8386      4541445F 
 8387              	.LASF236:
 8388 05be 4359424C 		.ascii	"CYBLE_GATT_ERR_INSUFFICIENT_RESOURCE\000"
ARM GAS  C:\Users\Sarah\AppData\Local\Temp\ccqSJLdk.s 			page 218


 8388      455F4741 
 8388      54545F45 
 8388      52525F49 
 8388      4E535546 
 8389              	.LASF209:
 8390 05e3 4359424C 		.ascii	"CYBLE_GATT_PREPARE_WRITE_REQ\000"
 8390      455F4741 
 8390      54545F50 
 8390      52455041 
 8390      52455F57 
 8391              	.LASF235:
 8392 0600 4359424C 		.ascii	"CYBLE_GATT_ERR_UNSUPPORTED_GROUP_TYPE\000"
 8392      455F4741 
 8392      54545F45 
 8392      52525F55 
 8392      4E535550 
 8393              	.LASF101:
 8394 0626 4359424C 		.ascii	"CYBLE_ERROR_L2CAP_CONNECTION_ENTITY_NOT_FOUND\000"
 8394      455F4552 
 8394      524F525F 
 8394      4C324341 
 8394      505F434F 
 8395              	.LASF616:
 8396 0654 4359424C 		.ascii	"CYBLE_CLIENT_STATE_CHAR_DISCOVERING\000"
 8396      455F434C 
 8396      49454E54 
 8396      5F535441 
 8396      54455F43 
 8397              	.LASF544:
 8398 0678 4359424C 		.ascii	"CYBLE_EVT_PLXSC_READ_DESCR_RESPONSE\000"
 8398      455F4556 
 8398      545F504C 
 8398      5853435F 
 8398      52454144 
 8399              	.LASF107:
 8400 069c 4359424C 		.ascii	"CYBLE_ERROR_MIC_AUTH_FAILED\000"
 8400      455F4552 
 8400      524F525F 
 8400      4D49435F 
 8400      41555448 
 8401              	.LASF609:
 8402 06b8 4359424C 		.ascii	"CYBLE_STATE_SCANNING\000"
 8402      455F5354 
 8402      4154455F 
 8402      5343414E 
 8402      4E494E47 
 8403              	.LASF337:
 8404 06cd 4359424C 		.ascii	"CYBLE_EVT_GATTC_CHAR_DISCOVERY_FAILED\000"
 8404      455F4556 
 8404      545F4741 
 8404      5454435F 
 8404      43484152 
 8405              	.LASF67:
 8406 06f3 4359424C 		.ascii	"CYBLE_EVT_GATTS_DATA_SIGNED_CMD_REQ\000"
 8406      455F4556 
 8406      545F4741 
 8406      5454535F 
ARM GAS  C:\Users\Sarah\AppData\Local\Temp\ccqSJLdk.s 			page 219


 8406      44415441 
 8407              	.LASF79:
 8408 0717 4359424C 		.ascii	"CYBLE_EVT_L2CAP_CBFC_RX_CREDIT_IND\000"
 8408      455F4556 
 8408      545F4C32 
 8408      4341505F 
 8408      43424643 
 8409              	.LASF269:
 8410 073a 4359424C 		.ascii	"CYBLE_GATT_VALUE_T\000"
 8410      455F4741 
 8410      54545F56 
 8410      414C5545 
 8410      5F5400
 8411              	.LASF398:
 8412 074d 4359424C 		.ascii	"CYBLE_EVT_CGMSC_WRITE_CHAR_RESPONSE\000"
 8412      455F4556 
 8412      545F4347 
 8412      4D53435F 
 8412      57524954 
 8413              	.LASF418:
 8414 0771 4359424C 		.ascii	"CYBLE_EVT_CSCSS_INDICATION_ENABLED\000"
 8414      455F4556 
 8414      545F4353 
 8414      4353535F 
 8414      494E4449 
 8415              	.LASF660:
 8416 0794 6D656D52 		.ascii	"memReq\000"
 8416      657100
 8417              	.LASF203:
 8418 079b 4359424C 		.ascii	"CYBLE_GATT_READ_MULTIPLE_RSP\000"
 8418      455F4741 
 8418      54545F52 
 8418      4541445F 
 8418      4D554C54 
 8419              	.LASF520:
 8420 07b8 4359424C 		.ascii	"CYBLE_EVT_LNSC_INDICATION\000"
 8420      455F4556 
 8420      545F4C4E 
 8420      53435F49 
 8420      4E444943 
 8421              	.LASF142:
 8422 07d2 74797065 		.ascii	"type\000"
 8422      00
 8423              	.LASF148:
 8424 07d7 4359424C 		.ascii	"CYBLE_TO_REASON_CODE_T\000"
 8424      455F544F 
 8424      5F524541 
 8424      534F4E5F 
 8424      434F4445 
 8425              	.LASF531:
 8426 07ee 4359424C 		.ascii	"CYBLE_EVT_PASSC_READ_CHAR_RESPONSE\000"
 8426      455F4556 
 8426      545F5041 
 8426      5353435F 
 8426      52454144 
 8427              	.LASF175:
 8428 0811 4359424C 		.ascii	"CYBLE_GAP_AUTH_ERROR_AUTHENTICATION_TIMEOUT\000"
ARM GAS  C:\Users\Sarah\AppData\Local\Temp\ccqSJLdk.s 			page 220


 8428      455F4741 
 8428      505F4155 
 8428      54485F45 
 8428      52524F52 
 8429              	.LASF375:
 8430 083d 4359424C 		.ascii	"CYBLE_EVT_BLSS_INDICATION_ENABLED\000"
 8430      455F4556 
 8430      545F424C 
 8430      53535F49 
 8430      4E444943 
 8431              	.LASF167:
 8432 085f 4359424C 		.ascii	"CYBLE_GAP_AUTH_ERROR_UNSPECIFIED_REASON\000"
 8432      455F4741 
 8432      505F4155 
 8432      54485F45 
 8432      52524F52 
 8433              	.LASF381:
 8434 0887 4359424C 		.ascii	"CYBLE_EVT_BLSC_NOTIFICATION\000"
 8434      455F4556 
 8434      545F424C 
 8434      53435F4E 
 8434      4F544946 
 8435              	.LASF197:
 8436 08a3 4359424C 		.ascii	"CYBLE_GATT_READ_BY_TYPE_RSP\000"
 8436      455F4741 
 8436      54545F52 
 8436      4541445F 
 8436      42595F54 
 8437              	.LASF305:
 8438 08bf 4359424C 		.ascii	"CYBLE_CALLBACK_T\000"
 8438      455F4341 
 8438      4C4C4241 
 8438      434B5F54 
 8438      00
 8439              	.LASF423:
 8440 08d0 4359424C 		.ascii	"CYBLE_EVT_CSCSC_INDICATION\000"
 8440      455F4556 
 8440      545F4353 
 8440      4353435F 
 8440      494E4449 
 8441              	.LASF698:
 8442 08eb 6379426C 		.ascii	"cyBle_scanningIntervalType\000"
 8442      655F7363 
 8442      616E6E69 
 8442      6E67496E 
 8442      74657276 
 8443              	.LASF290:
 8444 0906 4359424C 		.ascii	"CYBLE_GATTC_HANDLE_VALUE_NTF_PARAM_T\000"
 8444      455F4741 
 8444      5454435F 
 8444      48414E44 
 8444      4C455F56 
 8445              	.LASF64:
 8446 092b 4359424C 		.ascii	"CYBLE_EVT_GATTC_HANDLE_VALUE_NTF\000"
 8446      455F4556 
 8446      545F4741 
 8446      5454435F 
ARM GAS  C:\Users\Sarah\AppData\Local\Temp\ccqSJLdk.s 			page 221


 8446      48414E44 
 8447              	.LASF24:
 8448 094c 4359424C 		.ascii	"CYBLE_EVT_GAP_AUTH_REQ\000"
 8448      455F4556 
 8448      545F4741 
 8448      505F4155 
 8448      54485F52 
 8449              	.LASF344:
 8450 0963 4359424C 		.ascii	"CYBLE_EVT_GATTC_CHAR_DISCOVERY_COMPLETE\000"
 8450      455F4556 
 8450      545F4741 
 8450      5454435F 
 8450      43484152 
 8451              	.LASF267:
 8452 098b 4359424C 		.ascii	"CYBLE_CONN_HANDLE_T\000"
 8452      455F434F 
 8452      4E4E5F48 
 8452      414E444C 
 8452      455F5400 
 8453              	.LASF487:
 8454 099f 4359424C 		.ascii	"CYBLE_EVT_HRSC_WRITE_CHAR_RESPONSE\000"
 8454      455F4556 
 8454      545F4852 
 8454      53435F57 
 8454      52495445 
 8455              	.LASF96:
 8456 09c2 4359424C 		.ascii	"CYBLE_ERROR_BT_ON_NOT_COMPLETED\000"
 8456      455F4552 
 8456      524F525F 
 8456      42545F4F 
 8456      4E5F4E4F 
 8457              	.LASF422:
 8458 09e2 4359424C 		.ascii	"CYBLE_EVT_CSCSC_NOTIFICATION\000"
 8458      455F4556 
 8458      545F4353 
 8458      4353435F 
 8458      4E4F5449 
 8459              	.LASF579:
 8460 09ff 4359424C 		.ascii	"CYBLE_EVT_UDSC_INDICATION\000"
 8460      455F4556 
 8460      545F5544 
 8460      53435F49 
 8460      4E444943 
 8461              	.LASF154:
 8462 0a19 4359424C 		.ascii	"CYBLE_GAP_IOCAP_DISPLAY_ONLY\000"
 8462      455F4741 
 8462      505F494F 
 8462      4341505F 
 8462      44495350 
 8463              	.LASF503:
 8464 0a36 4359424C 		.ascii	"CYBLE_EVT_IPSS_WRITE_CHAR\000"
 8464      455F4556 
 8464      545F4950 
 8464      53535F57 
 8464      52495445 
 8465              	.LASF700:
 8466 0a50 6379426C 		.ascii	"cyBle_disCount\000"
ARM GAS  C:\Users\Sarah\AppData\Local\Temp\ccqSJLdk.s 			page 222


 8466      655F6469 
 8466      73436F75 
 8466      6E7400
 8467              	.LASF45:
 8468 0a5f 4359424C 		.ascii	"CYBLE_EVT_GAP_AUTH_REQ_REPLY_ERR\000"
 8468      455F4556 
 8468      545F4741 
 8468      505F4155 
 8468      54485F52 
 8469              	.LASF386:
 8470 0a80 4359424C 		.ascii	"CYBLE_EVT_BMSC_READ_CHAR_RESPONSE\000"
 8470      455F4556 
 8470      545F424D 
 8470      53435F52 
 8470      4541445F 
 8471              	.LASF120:
 8472 0aa2 4359424C 		.ascii	"CYBLE_LL_PWR_LVL_NEG_3_DBM\000"
 8472      455F4C4C 
 8472      5F505752 
 8472      5F4C564C 
 8472      5F4E4547 
 8473              	.LASF653:
 8474 0abd 61646472 		.ascii	"addressValid\000"
 8474      65737356 
 8474      616C6964 
 8474      00
 8475              	.LASF38:
 8476 0aca 4359424C 		.ascii	"CYBLE_EVT_GAP_OOB_GENERATED_NOTIFICATION\000"
 8476      455F4556 
 8476      545F4741 
 8476      505F4F4F 
 8476      425F4745 
 8477              	.LASF318:
 8478 0af3 64657363 		.ascii	"descrHandle\000"
 8478      7248616E 
 8478      646C6500 
 8479              	.LASF265:
 8480 0aff 62644861 		.ascii	"bdHandle\000"
 8480      6E646C65 
 8480      00
 8481              	.LASF309:
 8482 0b08 4359424C 		.ascii	"CYBLE_DISC_SRVC128_INFO_T\000"
 8482      455F4449 
 8482      53435F53 
 8482      52564331 
 8482      32385F49 
 8483              	.LASF248:
 8484 0b22 4359424C 		.ascii	"CYBLE_GATTS_ERR_NETWORK_NOT_AVAILABLE\000"
 8484      455F4741 
 8484      5454535F 
 8484      4552525F 
 8484      4E455457 
 8485              	.LASF391:
 8486 0b48 4359424C 		.ascii	"CYBLE_EVT_CGMSS_INDICATION_CONFIRMED\000"
 8486      455F4556 
 8486      545F4347 
 8486      4D53535F 
ARM GAS  C:\Users\Sarah\AppData\Local\Temp\ccqSJLdk.s 			page 223


 8486      494E4449 
 8487              	.LASF646:
 8488 0b6d 4379426C 		.ascii	"CyBle_ReadResponseEventHandler\000"
 8488      655F5265 
 8488      61645265 
 8488      73706F6E 
 8488      73654576 
 8489              	.LASF160:
 8490 0b8c 4359424C 		.ascii	"CYBLE_GAP_AUTH_ERROR_PASSKEY_ENTRY_FAILED\000"
 8490      455F4741 
 8490      505F4155 
 8490      54485F45 
 8490      52524F52 
 8491              	.LASF251:
 8492 0bb6 4359424C 		.ascii	"CYBLE_GATT_ERR_ANCS_INVALID_COMMAND\000"
 8492      455F4741 
 8492      54545F45 
 8492      52525F41 
 8492      4E43535F 
 8493              	.LASF636:
 8494 0bda 4359424C 		.ascii	"CYBLE_SCDI_CUSTOM_CHARACTERISTICS\000"
 8494      455F5343 
 8494      44495F43 
 8494      5553544F 
 8494      4D5F4348 
 8495              	.LASF676:
 8496 0bfc 63686172 		.ascii	"charRange\000"
 8496      52616E67 
 8496      6500
 8497              	.LASF383:
 8498 0c06 4359424C 		.ascii	"CYBLE_EVT_BLSC_READ_DESCR_RESPONSE\000"
 8498      455F4556 
 8498      545F424C 
 8498      53435F52 
 8498      4541445F 
 8499              	.LASF118:
 8500 0c29 4359424C 		.ascii	"CYBLE_LL_PWR_LVL_NEG_12_DBM\000"
 8500      455F4C4C 
 8500      5F505752 
 8500      5F4C564C 
 8500      5F4E4547 
 8501              	.LASF629:
 8502 0c45 4359424C 		.ascii	"CYBLE_GAPC_T\000"
 8502      455F4741 
 8502      50435F54 
 8502      00
 8503              	.LASF404:
 8504 0c52 4359424C 		.ascii	"CYBLE_EVT_CPSS_INDICATION_DISABLED\000"
 8504      455F4556 
 8504      545F4350 
 8504      53535F49 
 8504      4E444943 
 8505              	.LASF191:
 8506 0c75 4359424C 		.ascii	"CYBLE_GATT_XCHNG_MTU_RSP\000"
 8506      455F4741 
 8506      54545F58 
 8506      43484E47 
ARM GAS  C:\Users\Sarah\AppData\Local\Temp\ccqSJLdk.s 			page 224


 8506      5F4D5455 
 8507              	.LASF403:
 8508 0c8e 4359424C 		.ascii	"CYBLE_EVT_CPSS_INDICATION_ENABLED\000"
 8508      455F4556 
 8508      545F4350 
 8508      53535F49 
 8508      4E444943 
 8509              	.LASF517:
 8510 0cb0 4359424C 		.ascii	"CYBLE_EVT_LNSS_NOTIFICATION_ENABLED\000"
 8510      455F4556 
 8510      545F4C4E 
 8510      53535F4E 
 8510      4F544946 
 8511              	.LASF60:
 8512 0cd4 4359424C 		.ascii	"CYBLE_EVT_GATTS_WRITE_CMD_REQ\000"
 8512      455F4556 
 8512      545F4741 
 8512      5454535F 
 8512      57524954 
 8513              	.LASF414:
 8514 0cf2 4359424C 		.ascii	"CYBLE_EVT_CPSC_WRITE_DESCR_RESPONSE\000"
 8514      455F4556 
 8514      545F4350 
 8514      53435F57 
 8514      52495445 
 8515              	.LASF340:
 8516 0d16 4359424C 		.ascii	"CYBLE_EVT_GATTC_CHAR_DUPLICATION\000"
 8516      455F4556 
 8516      545F4741 
 8516      5454435F 
 8516      43484152 
 8517              	.LASF80:
 8518 0d37 4359424C 		.ascii	"CYBLE_EVT_L2CAP_CBFC_TX_CREDIT_IND\000"
 8518      455F4556 
 8518      545F4C32 
 8518      4341505F 
 8518      43424643 
 8519              	.LASF4:
 8520 0d5a 6C6F6E67 		.ascii	"long int\000"
 8520      20696E74 
 8520      00
 8521              	.LASF518:
 8522 0d63 4359424C 		.ascii	"CYBLE_EVT_LNSS_NOTIFICATION_DISABLED\000"
 8522      455F4556 
 8522      545F4C4E 
 8522      53535F4E 
 8522      4F544946 
 8523              	.LASF419:
 8524 0d88 4359424C 		.ascii	"CYBLE_EVT_CSCSS_INDICATION_DISABLED\000"
 8524      455F4556 
 8524      545F4353 
 8524      4353535F 
 8524      494E4449 
 8525              	.LASF218:
 8526 0dac 4359424C 		.ascii	"CYBLE_GATT_PDU_T\000"
 8526      455F4741 
 8526      54545F50 
ARM GAS  C:\Users\Sarah\AppData\Local\Temp\ccqSJLdk.s 			page 225


 8526      44555F54 
 8526      00
 8527              	.LASF574:
 8528 0dbd 4359424C 		.ascii	"CYBLE_EVT_UDSS_INDICATION_CONFIRMED\000"
 8528      455F4556 
 8528      545F5544 
 8528      53535F49 
 8528      4E444943 
 8529              	.LASF149:
 8530 0de1 4359424C 		.ascii	"CYBLE_GAP_SEC_LEVEL_1\000"
 8530      455F4741 
 8530      505F5345 
 8530      435F4C45 
 8530      56454C5F 
 8531              	.LASF150:
 8532 0df7 4359424C 		.ascii	"CYBLE_GAP_SEC_LEVEL_2\000"
 8532      455F4741 
 8532      505F5345 
 8532      435F4C45 
 8532      56454C5F 
 8533              	.LASF151:
 8534 0e0d 4359424C 		.ascii	"CYBLE_GAP_SEC_LEVEL_3\000"
 8534      455F4741 
 8534      505F5345 
 8534      435F4C45 
 8534      56454C5F 
 8535              	.LASF152:
 8536 0e23 4359424C 		.ascii	"CYBLE_GAP_SEC_LEVEL_4\000"
 8536      455F4741 
 8536      505F5345 
 8536      435F4C45 
 8536      56454C5F 
 8537              	.LASF195:
 8538 0e39 4359424C 		.ascii	"CYBLE_GATT_FIND_BY_TYPE_VALUE_RSP\000"
 8538      455F4741 
 8538      54545F46 
 8538      494E445F 
 8538      42595F54 
 8539              	.LASF17:
 8540 0e5b 4359424C 		.ascii	"CYBLE_EVT_STACK_ON\000"
 8540      455F4556 
 8540      545F5354 
 8540      41434B5F 
 8540      4F4E00
 8541              	.LASF103:
 8542 0e6e 4359424C 		.ascii	"CYBLE_ERROR_L2CAP_PSM_NOT_IN_RANGE\000"
 8542      455F4552 
 8542      524F525F 
 8542      4C324341 
 8542      505F5053 
 8543              	.LASF681:
 8544 0e91 6379426C 		.ascii	"cyBle_discInclInfo\000"
 8544      655F6469 
 8544      7363496E 
 8544      636C496E 
 8544      666F00
 8545              	.LASF369:
ARM GAS  C:\Users\Sarah\AppData\Local\Temp\ccqSJLdk.s 			page 226


 8546 0ea4 4359424C 		.ascii	"CYBLE_EVT_BCSS_INDICATION_DISABLED\000"
 8546      455F4556 
 8546      545F4243 
 8546      53535F49 
 8546      4E444943 
 8547              	.LASF685:
 8548 0ec7 6379426C 		.ascii	"cyBle_deviceAddress\000"
 8548      655F6465 
 8548      76696365 
 8548      41646472 
 8548      65737300 
 8549              	.LASF626:
 8550 0edb 7265636F 		.ascii	"reconnAddrCharHandle\000"
 8550      6E6E4164 
 8550      64724368 
 8550      61724861 
 8550      6E646C65 
 8551              	.LASF678:
 8552 0ef0 64697363 		.ascii	"discDescrInfo\000"
 8552      44657363 
 8552      72496E66 
 8552      6F00
 8553              	.LASF449:
 8554 0efe 4359424C 		.ascii	"CYBLE_EVT_ESSC_WRITE_DESCR_RESPONSE\000"
 8554      455F4556 
 8554      545F4553 
 8554      53435F57 
 8554      52495445 
 8555              	.LASF247:
 8556 0f22 4359424C 		.ascii	"CYBLE_GATTS_ERR_HPS_INVALID_REQUEST\000"
 8556      455F4741 
 8556      5454535F 
 8556      4552525F 
 8556      4850535F 
 8557              	.LASF506:
 8558 0f46 4359424C 		.ascii	"CYBLE_EVT_IPSC_WRITE_CHAR_RESPONSE\000"
 8558      455F4556 
 8558      545F4950 
 8558      53435F57 
 8558      52495445 
 8559              	.LASF490:
 8560 0f69 4359424C 		.ascii	"CYBLE_EVT_HTSS_NOTIFICATION_ENABLED\000"
 8560      455F4556 
 8560      545F4854 
 8560      53535F4E 
 8560      4F544946 
 8561              	.LASF223:
 8562 0f8d 4359424C 		.ascii	"CYBLE_GATT_ERR_INVALID_PDU\000"
 8562      455F4741 
 8562      54545F45 
 8562      52525F49 
 8562      4E56414C 
 8563              	.LASF163:
 8564 0fa8 4359424C 		.ascii	"CYBLE_GAP_AUTH_ERROR_CONFIRM_VALUE_NOT_MATCH\000"
 8564      455F4741 
 8564      505F4155 
 8564      54485F45 
ARM GAS  C:\Users\Sarah\AppData\Local\Temp\ccqSJLdk.s 			page 227


 8564      52524F52 
 8565              	.LASF115:
 8566 0fd5 4359424C 		.ascii	"CYBLE_ERROR_CHAR_IS_NOT_DISCOVERED\000"
 8566      455F4552 
 8566      524F525F 
 8566      43484152 
 8566      5F49535F 
 8567              	.LASF637:
 8568 0ff8 4359424C 		.ascii	"CYBLE_SCDI_COUNT\000"
 8568      455F5343 
 8568      44495F43 
 8568      4F554E54 
 8568      00
 8569              	.LASF577:
 8570 1009 4359424C 		.ascii	"CYBLE_EVT_UDSS_READ_CHAR\000"
 8570      455F4556 
 8570      545F5544 
 8570      53535F52 
 8570      4541445F 
 8571              	.LASF693:
 8572 1022 6379426C 		.ascii	"cyBle_gattc\000"
 8572      655F6761 
 8572      74746300 
 8573              	.LASF271:
 8574 102e 4359424C 		.ascii	"CYBLE_GATT_HANDLE_VALUE_PAIR_T\000"
 8574      455F4741 
 8574      54545F48 
 8574      414E444C 
 8574      455F5641 
 8575              	.LASF453:
 8576 104d 4359424C 		.ascii	"CYBLE_EVT_GLSS_NOTIFICATION_ENABLED\000"
 8576      455F4556 
 8576      545F474C 
 8576      53535F4E 
 8576      4F544946 
 8577              	.LASF669:
 8578 1071 696E6372 		.ascii	"incrementIndex\000"
 8578      656D656E 
 8578      74496E64 
 8578      657800
 8579              	.LASF132:
 8580 1080 626C6553 		.ascii	"bleSsChId\000"
 8580      73436849 
 8580      6400
 8581              	.LASF446:
 8582 108a 4359424C 		.ascii	"CYBLE_EVT_ESSC_READ_CHAR_RESPONSE\000"
 8582      455F4556 
 8582      545F4553 
 8582      53435F52 
 8582      4541445F 
 8583              	.LASF469:
 8584 10ac 4359424C 		.ascii	"CYBLE_EVT_HIDSC_NOTIFICATION\000"
 8584      455F4556 
 8584      545F4849 
 8584      4453435F 
 8584      4E4F5449 
 8585              	.LASF73:
ARM GAS  C:\Users\Sarah\AppData\Local\Temp\ccqSJLdk.s 			page 228


 8586 10c9 4359424C 		.ascii	"CYBLE_EVT_L2CAP_COMMAND_REJ\000"
 8586      455F4556 
 8586      545F4C32 
 8586      4341505F 
 8586      434F4D4D 
 8587              	.LASF201:
 8588 10e5 4359424C 		.ascii	"CYBLE_GATT_READ_BLOB_RSP\000"
 8588      455F4741 
 8588      54545F52 
 8588      4541445F 
 8588      424C4F42 
 8589              	.LASF232:
 8590 10fe 4359424C 		.ascii	"CYBLE_GATT_ERR_INVALID_ATTRIBUTE_LEN\000"
 8590      455F4741 
 8590      54545F45 
 8590      52525F49 
 8590      4E56414C 
 8591              	.LASF466:
 8592 1123 4359424C 		.ascii	"CYBLE_EVT_HIDSS_SUSPEND\000"
 8592      455F4556 
 8592      545F4849 
 8592      4453535F 
 8592      53555350 
 8593              	.LASF104:
 8594 113b 4359424C 		.ascii	"CYBLE_ERROR_GATT_DB_INVALID_ATTR_HANDLE\000"
 8594      455F4552 
 8594      524F525F 
 8594      47415454 
 8594      5F44425F 
 8595              	.LASF0:
 8596 1163 7369676E 		.ascii	"signed char\000"
 8596      65642063 
 8596      68617200 
 8597              	.LASF117:
 8598 116f 4359424C 		.ascii	"CYBLE_LL_PWR_LVL_NEG_18_DBM\000"
 8598      455F4C4C 
 8598      5F505752 
 8598      5F4C564C 
 8598      5F4E4547 
 8599              	.LASF373:
 8600 118b 4359424C 		.ascii	"CYBLE_EVT_BCSC_READ_DESCR_RESPONSE\000"
 8600      455F4556 
 8600      545F4243 
 8600      53435F52 
 8600      4541445F 
 8601              	.LASF604:
 8602 11ae 4359424C 		.ascii	"CYBLE_EVT_WSSC_WRITE_DESCR_RESPONSE\000"
 8602      455F4556 
 8602      545F5753 
 8602      53435F57 
 8602      52495445 
 8603              	.LASF366:
 8604 11d2 4359424C 		.ascii	"CYBLE_EVT_BASC_READ_DESCR_RESPONSE\000"
 8604      455F4556 
 8604      545F4241 
 8604      53435F52 
 8604      4541445F 
ARM GAS  C:\Users\Sarah\AppData\Local\Temp\ccqSJLdk.s 			page 229


 8605              	.LASF192:
 8606 11f5 4359424C 		.ascii	"CYBLE_GATT_FIND_INFO_REQ\000"
 8606      455F4741 
 8606      54545F46 
 8606      494E445F 
 8606      494E464F 
 8607              	.LASF19:
 8608 120e 4359424C 		.ascii	"CYBLE_EVT_HARDWARE_ERROR\000"
 8608      455F4556 
 8608      545F4841 
 8608      52445741 
 8608      52455F45 
 8609              	.LASF663:
 8610 1227 4379426C 		.ascii	"CyBle_EventHandler\000"
 8610      655F4576 
 8610      656E7448 
 8610      616E646C 
 8610      657200
 8611              	.LASF85:
 8612 123a 4359424C 		.ascii	"CYBLE_ERROR_OK\000"
 8612      455F4552 
 8612      524F525F 
 8612      4F4B00
 8613              	.LASF130:
 8614 1249 4359424C 		.ascii	"CYBLE_BLESS_PHY_CH_GRP_ID_T\000"
 8614      455F424C 
 8614      4553535F 
 8614      5048595F 
 8614      43485F47 
 8615              	.LASF254:
 8616 1265 4359424C 		.ascii	"CYBLE_GATT_ERR_CCCD_IMPROPERLY_CONFIGURED\000"
 8616      455F4741 
 8616      54545F45 
 8616      52525F43 
 8616      4343445F 
 8617              	.LASF51:
 8618 128f 4359424C 		.ascii	"CYBLE_EVT_GATTC_READ_BY_GROUP_TYPE_RSP\000"
 8618      455F4556 
 8618      545F4741 
 8618      5454435F 
 8618      52454144 
 8619              	.LASF173:
 8620 12b6 4359424C 		.ascii	"CYBLE_GAP_AUTH_ERROR_CROSS_TRANSPORT_KEY_GEN_DER_NO"
 8620      455F4741 
 8620      505F4155 
 8620      54485F45 
 8620      52524F52 
 8621 12e9 545F414C 		.ascii	"T_ALLOWED\000"
 8621      4C4F5745 
 8621      4400
 8622              	.LASF606:
 8623 12f3 4359424C 		.ascii	"CYBLE_STATE_STOPPED\000"
 8623      455F5354 
 8623      4154455F 
 8623      53544F50 
 8623      50454400 
 8624              	.LASF283:
ARM GAS  C:\Users\Sarah\AppData\Local\Temp\ccqSJLdk.s 			page 230


 8625 1307 4359424C 		.ascii	"CYBLE_GATTS_ERR_PARAM_T\000"
 8625      455F4741 
 8625      5454535F 
 8625      4552525F 
 8625      50415241 
 8626              	.LASF1:
 8627 131f 756E7369 		.ascii	"unsigned char\000"
 8627      676E6564 
 8627      20636861 
 8627      7200
 8628              	.LASF50:
 8629 132d 4359424C 		.ascii	"CYBLE_EVT_GATTC_XCHNG_MTU_RSP\000"
 8629      455F4556 
 8629      545F4741 
 8629      5454435F 
 8629      5843484E 
 8630              	.LASF405:
 8631 134b 4359424C 		.ascii	"CYBLE_EVT_CPSS_INDICATION_CONFIRMED\000"
 8631      455F4556 
 8631      545F4350 
 8631      53535F49 
 8631      4E444943 
 8632              	.LASF214:
 8633 136f 4359424C 		.ascii	"CYBLE_GATT_HANDLE_VALUE_IND\000"
 8633      455F4741 
 8633      54545F48 
 8633      414E444C 
 8633      455F5641 
 8634              	.LASF402:
 8635 138b 4359424C 		.ascii	"CYBLE_EVT_CPSS_NOTIFICATION_DISABLED\000"
 8635      455F4556 
 8635      545F4350 
 8635      53535F4E 
 8635      4F544946 
 8636              	.LASF620:
 8637 13b0 4359424C 		.ascii	"CYBLE_CLIENT_STATE_DISCONNECTED_DISCOVERED\000"
 8637      455F434C 
 8637      49454E54 
 8637      5F535441 
 8637      54455F44 
 8638              	.LASF553:
 8639 13db 4359424C 		.ascii	"CYBLE_EVT_RSCSC_INDICATION\000"
 8639      455F4556 
 8639      545F5253 
 8639      4353435F 
 8639      494E4449 
 8640              	.LASF301:
 8641 13f6 4359424C 		.ascii	"CYBLE_GATTC_HANDLE_UUID_LIST_PARAM_T\000"
 8641      455F4741 
 8641      5454435F 
 8641      48414E44 
 8641      4C455F55 
 8642              	.LASF603:
 8643 141b 4359424C 		.ascii	"CYBLE_EVT_WSSC_READ_DESCR_RESPONSE\000"
 8643      455F4556 
 8643      545F5753 
 8643      53435F52 
ARM GAS  C:\Users\Sarah\AppData\Local\Temp\ccqSJLdk.s 			page 231


 8643      4541445F 
 8644              	.LASF589:
 8645 143e 4359424C 		.ascii	"CYBLE_EVT_WPTSS_INDICATION_DISABLED\000"
 8645      455F4556 
 8645      545F5750 
 8645      5453535F 
 8645      494E4449 
 8646              	.LASF42:
 8647 1462 4359424C 		.ascii	"CYBLE_EVT_GAP_SMP_NEGOTIATED_AUTH_INFO\000"
 8647      455F4556 
 8647      545F4741 
 8647      505F534D 
 8647      505F4E45 
 8648              	.LASF43:
 8649 1489 4359424C 		.ascii	"CYBLE_EVT_GAP_CONN_ESTB\000"
 8649      455F4556 
 8649      545F4741 
 8649      505F434F 
 8649      4E4E5F45 
 8650              	.LASF392:
 8651 14a1 4359424C 		.ascii	"CYBLE_EVT_CGMSS_NOTIFICATION_ENABLED\000"
 8651      455F4556 
 8651      545F4347 
 8651      4D53535F 
 8651      4E4F5449 
 8652              	.LASF322:
 8653 14c6 4359424C 		.ascii	"CYBLE_GATTC_T\000"
 8653      455F4741 
 8653      5454435F 
 8653      5400
 8654              	.LASF334:
 8655 14d4 4359424C 		.ascii	"CYBLE_EVT_GATTC_INDICATION\000"
 8655      455F4556 
 8655      545F4741 
 8655      5454435F 
 8655      494E4449 
 8656              	.LASF282:
 8657 14ef 6572726F 		.ascii	"errorCode\000"
 8657      72436F64 
 8657      6500
 8658              	.LASF707:
 8659 14f9 4379426C 		.ascii	"CyBle_GetCharRange\000"
 8659      655F4765 
 8659      74436861 
 8659      7252616E 
 8659      676500
 8660              	.LASF169:
 8661 150c 4359424C 		.ascii	"CYBLE_GAP_AUTH_ERROR_INVALID_PARAMETERS\000"
 8661      455F4741 
 8661      505F4155 
 8661      54485F45 
 8661      52524F52 
 8662              	.LASF303:
 8663 1534 75756964 		.ascii	"uuidFormat\000"
 8663      466F726D 
 8663      617400
 8664              	.LASF139:
ARM GAS  C:\Users\Sarah\AppData\Local\Temp\ccqSJLdk.s 			page 232


 8665 153f 636F6E66 		.ascii	"configMemory\000"
 8665      69674D65 
 8665      6D6F7279 
 8665      00
 8666              	.LASF504:
 8667 154c 4359424C 		.ascii	"CYBLE_EVT_IPSC_READ_CHAR_RESPONSE\000"
 8667      455F4556 
 8667      545F4950 
 8667      53435F52 
 8667      4541445F 
 8668              	.LASF77:
 8669 156e 4359424C 		.ascii	"CYBLE_EVT_L2CAP_CBFC_DISCONN_CNF\000"
 8669      455F4556 
 8669      545F4C32 
 8669      4341505F 
 8669      43424643 
 8670              	.LASF54:
 8671 158f 4359424C 		.ascii	"CYBLE_EVT_GATTC_FIND_BY_TYPE_VALUE_RSP\000"
 8671      455F4556 
 8671      545F4741 
 8671      5454435F 
 8671      46494E44 
 8672              	.LASF346:
 8673 15b6 4359424C 		.ascii	"CYBLE_EVT_ANCSS_NOTIFICATION_ENABLED\000"
 8673      455F4556 
 8673      545F414E 
 8673      4353535F 
 8673      4E4F5449 
 8674              	.LASF39:
 8675 15db 4359424C 		.ascii	"CYBLE_EVT_GAP_DATA_LENGTH_CHANGE\000"
 8675      455F4556 
 8675      545F4741 
 8675      505F4441 
 8675      54415F4C 
 8676              	.LASF565:
 8677 15fc 4359424C 		.ascii	"CYBLE_EVT_SCPSC_WRITE_DESCR_RESPONSE\000"
 8677      455F4556 
 8677      545F5343 
 8677      5053435F 
 8677      57524954 
 8678              	.LASF14:
 8679 1621 63686172 		.ascii	"char\000"
 8679      00
 8680              	.LASF121:
 8681 1626 4359424C 		.ascii	"CYBLE_LL_PWR_LVL_NEG_2_DBM\000"
 8681      455F4C4C 
 8681      5F505752 
 8681      5F4C564C 
 8681      5F4E4547 
 8682              	.LASF568:
 8683 1641 4359424C 		.ascii	"CYBLE_EVT_TPSC_NOTIFICATION\000"
 8683      455F4556 
 8683      545F5450 
 8683      53435F4E 
 8683      4F544946 
 8684              	.LASF207:
 8685 165d 4359424C 		.ascii	"CYBLE_GATT_WRITE_RSP\000"
ARM GAS  C:\Users\Sarah\AppData\Local\Temp\ccqSJLdk.s 			page 233


 8685      455F4741 
 8685      54545F57 
 8685      52495445 
 8685      5F525350 
 8686              	.LASF535:
 8687 1672 4359424C 		.ascii	"CYBLE_EVT_PLXSS_NOTIFICATION_ENABLED\000"
 8687      455F4556 
 8687      545F504C 
 8687      5853535F 
 8687      4E4F5449 
 8688              	.LASF57:
 8689 1697 4359424C 		.ascii	"CYBLE_EVT_GATTC_READ_MULTI_RSP\000"
 8689      455F4556 
 8689      545F4741 
 8689      5454435F 
 8689      52454144 
 8690              	.LASF481:
 8691 16b6 4359424C 		.ascii	"CYBLE_EVT_HPSC_WRITE_CHAR_RESPONSE\000"
 8691      455F4556 
 8691      545F4850 
 8691      53435F57 
 8691      52495445 
 8692              	.LASF183:
 8693 16d9 4359424C 		.ascii	"CYBLE_GAP_AUTH_INFO_T\000"
 8693      455F4741 
 8693      505F4155 
 8693      54485F49 
 8693      4E464F5F 
 8694              	.LASF156:
 8695 16ef 4359424C 		.ascii	"CYBLE_GAP_IOCAP_KEYBOARD_ONLY\000"
 8695      455F4741 
 8695      505F494F 
 8695      4341505F 
 8695      4B455942 
 8696              	.LASF610:
 8697 170d 4359424C 		.ascii	"CYBLE_STATE_CONNECTING\000"
 8697      455F5354 
 8697      4154455F 
 8697      434F4E4E 
 8697      45435449 
 8698              	.LASF16:
 8699 1724 4359424C 		.ascii	"CYBLE_EVT_HOST_INVALID\000"
 8699      455F4556 
 8699      545F484F 
 8699      53545F49 
 8699      4E56414C 
 8700              	.LASF243:
 8701 173b 4359424C 		.ascii	"CYBLE_GATT_ERR_MISSING_CRC\000"
 8701      455F4741 
 8701      54545F45 
 8701      52525F4D 
 8701      49535349 
 8702              	.LASF233:
 8703 1756 4359424C 		.ascii	"CYBLE_GATT_ERR_UNLIKELY_ERROR\000"
 8703      455F4741 
 8703      54545F45 
 8703      52525F55 
ARM GAS  C:\Users\Sarah\AppData\Local\Temp\ccqSJLdk.s 			page 234


 8703      4E4C494B 
 8704              	.LASF41:
 8705 1774 4359424C 		.ascii	"CYBLE_EVT_GAPC_DIRECT_ADV_REPORT\000"
 8705      455F4556 
 8705      545F4741 
 8705      50435F44 
 8705      49524543 
 8706              	.LASF460:
 8707 1795 4359424C 		.ascii	"CYBLE_EVT_GLSC_READ_DESCR_RESPONSE\000"
 8707      455F4556 
 8707      545F474C 
 8707      53435F52 
 8707      4541445F 
 8708              	.LASF190:
 8709 17b8 4359424C 		.ascii	"CYBLE_GATT_XCNHG_MTU_REQ\000"
 8709      455F4741 
 8709      54545F58 
 8709      434E4847 
 8709      5F4D5455 
 8710              	.LASF92:
 8711 17d1 4359424C 		.ascii	"CYBLE_ERROR_NO_DEVICE_ENTITY\000"
 8711      455F4552 
 8711      524F525F 
 8711      4E4F5F44 
 8711      45564943 
 8712              	.LASF56:
 8713 17ee 4359424C 		.ascii	"CYBLE_EVT_GATTC_READ_BLOB_RSP\000"
 8713      455F4556 
 8713      545F4741 
 8713      5454435F 
 8713      52454144 
 8714              	.LASF493:
 8715 180c 4359424C 		.ascii	"CYBLE_EVT_HTSS_INDICATION_DISABLED\000"
 8715      455F4556 
 8715      545F4854 
 8715      53535F49 
 8715      4E444943 
 8716              	.LASF559:
 8717 182f 4359424C 		.ascii	"CYBLE_EVT_RTUSC_READ_CHAR_RESPONSE\000"
 8717      455F4556 
 8717      545F5254 
 8717      5553435F 
 8717      52454144 
 8718              	.LASF652:
 8719 1852 64657669 		.ascii	"deviceAddress\000"
 8719      63654164 
 8719      64726573 
 8719      7300
 8720              	.LASF684:
 8721 1860 6379426C 		.ascii	"cyBle_eventHandlerFlag\000"
 8721      655F6576 
 8721      656E7448 
 8721      616E646C 
 8721      6572466C 
 8722              	.LASF63:
 8723 1877 4359424C 		.ascii	"CYBLE_EVT_GATTC_EXEC_WRITE_RSP\000"
 8723      455F4556 
ARM GAS  C:\Users\Sarah\AppData\Local\Temp\ccqSJLdk.s 			page 235


 8723      545F4741 
 8723      5454435F 
 8723      45584543 
 8724              	.LASF237:
 8725 1896 4359424C 		.ascii	"CYBLE_GATT_ERR_HEART_RATE_CONTROL_POINT_NOT_SUPPORT"
 8725      455F4741 
 8725      54545F45 
 8725      52525F48 
 8725      45415254 
 8726 18c9 454400   		.ascii	"ED\000"
 8727              	.LASF600:
 8728 18cc 4359424C 		.ascii	"CYBLE_EVT_WSSS_INDICATION_CONFIRMED\000"
 8728      455F4556 
 8728      545F5753 
 8728      53535F49 
 8728      4E444943 
 8729              	.LASF230:
 8730 18f0 4359424C 		.ascii	"CYBLE_GATT_ERR_ATTRIBUTE_NOT_LONG\000"
 8730      455F4741 
 8730      54545F45 
 8730      52525F41 
 8730      54545249 
 8731              	.LASF434:
 8732 1912 4359424C 		.ascii	"CYBLE_EVT_CTSC_WRITE_DESCR_RESPONSE\000"
 8732      455F4556 
 8732      545F4354 
 8732      53435F57 
 8732      52495445 
 8733              	.LASF427:
 8734 1936 4359424C 		.ascii	"CYBLE_EVT_CSCSC_WRITE_DESCR_RESPONSE\000"
 8734      455F4556 
 8734      545F4353 
 8734      4353435F 
 8734      57524954 
 8735              	.LASF614:
 8736 195b 4359424C 		.ascii	"CYBLE_CLIENT_STATE_SRVC_DISCOVERING\000"
 8736      455F434C 
 8736      49454E54 
 8736      5F535441 
 8736      54455F53 
 8737              	.LASF509:
 8738 197f 4359424C 		.ascii	"CYBLE_EVT_IPSC_ERROR_RESPONSE\000"
 8738      455F4556 
 8738      545F4950 
 8738      53435F45 
 8738      52524F52 
 8739              	.LASF153:
 8740 199d 4359424C 		.ascii	"CYBLE_GAP_SEC_LEVEL_MASK\000"
 8740      455F4741 
 8740      505F5345 
 8740      435F4C45 
 8740      56454C5F 
 8741              	.LASF573:
 8742 19b6 4359424C 		.ascii	"CYBLE_EVT_UDSS_INDICATION_DISABLED\000"
 8742      455F4556 
 8742      545F5544 
 8742      53535F49 
ARM GAS  C:\Users\Sarah\AppData\Local\Temp\ccqSJLdk.s 			page 236


 8742      4E444943 
 8743              	.LASF310:
 8744 19d9 696E636C 		.ascii	"inclDefHandle\000"
 8744      44656648 
 8744      616E646C 
 8744      6500
 8745              	.LASF68:
 8746 19e7 4359424C 		.ascii	"CYBLE_EVT_GATTC_STOP_CMD_COMPLETE\000"
 8746      455F4556 
 8746      545F4741 
 8746      5454435F 
 8746      53544F50 
 8747              	.LASF701:
 8748 1a09 6379426C 		.ascii	"cyBle_gapc\000"
 8748      655F6761 
 8748      706300
 8749              	.LASF408:
 8750 1a14 4359424C 		.ascii	"CYBLE_EVT_CPSS_CHAR_WRITE\000"
 8750      455F4556 
 8750      545F4350 
 8750      53535F43 
 8750      4841525F 
 8751              	.LASF482:
 8752 1a2e 4359424C 		.ascii	"CYBLE_EVT_HRSS_ENERGY_EXPENDED_RESET\000"
 8752      455F4556 
 8752      545F4852 
 8752      53535F45 
 8752      4E455247 
 8753              	.LASF253:
 8754 1a53 4359424C 		.ascii	"CYBLE_GATT_ERR_ANCS_ACTION_FAILED\000"
 8754      455F4741 
 8754      54545F45 
 8754      52525F41 
 8754      4E43535F 
 8755              	.LASF438:
 8756 1a75 4359424C 		.ascii	"CYBLE_EVT_ESSS_NOTIFICATION_DISABLED\000"
 8756      455F4556 
 8756      545F4553 
 8756      53535F4E 
 8756      4F544946 
 8757              	.LASF587:
 8758 1a9a 4359424C 		.ascii	"CYBLE_EVT_WPTSS_NOTIFICATION_DISABLED\000"
 8758      455F4556 
 8758      545F5750 
 8758      5453535F 
 8758      4E4F5449 
 8759              	.LASF625:
 8760 1ac0 70657269 		.ascii	"periphPrivacyCharHandle\000"
 8760      70685072 
 8760      69766163 
 8760      79436861 
 8760      7248616E 
 8761              	.LASF311:
 8762 1ad8 696E636C 		.ascii	"inclHandleRange\000"
 8762      48616E64 
 8762      6C655261 
 8762      6E676500 
ARM GAS  C:\Users\Sarah\AppData\Local\Temp\ccqSJLdk.s 			page 237


 8763              	.LASF378:
 8764 1ae8 4359424C 		.ascii	"CYBLE_EVT_BLSS_NOTIFICATION_ENABLED\000"
 8764      455F4556 
 8764      545F424C 
 8764      53535F4E 
 8764      4F544946 
 8765              	.LASF480:
 8766 1b0c 4359424C 		.ascii	"CYBLE_EVT_HPSC_WRITE_DESCR_RESPONSE\000"
 8766      455F4556 
 8766      545F4850 
 8766      53435F57 
 8766      52495445 
 8767              	.LASF189:
 8768 1b30 4359424C 		.ascii	"CYBLE_GATT_ERROR_RSP\000"
 8768      455F4741 
 8768      54545F45 
 8768      52524F52 
 8768      5F525350 
 8769              	.LASF111:
 8770 1b45 4359424C 		.ascii	"CYBLE_ERROR_CONTROLLER_BUSY\000"
 8770      455F4552 
 8770      524F525F 
 8770      434F4E54 
 8770      524F4C4C 
 8771              	.LASF86:
 8772 1b61 4359424C 		.ascii	"CYBLE_ERROR_INVALID_PARAMETER\000"
 8772      455F4552 
 8772      524F525F 
 8772      494E5641 
 8772      4C49445F 
 8773              	.LASF445:
 8774 1b7f 4359424C 		.ascii	"CYBLE_EVT_ESSC_INDICATION\000"
 8774      455F4556 
 8774      545F4553 
 8774      53435F49 
 8774      4E444943 
 8775              	.LASF352:
 8776 1b99 4359424C 		.ascii	"CYBLE_EVT_ANCSC_WRITE_DESCR_RESPONSE\000"
 8776      455F4556 
 8776      545F414E 
 8776      4353435F 
 8776      57524954 
 8777              	.LASF571:
 8778 1bbe 4359424C 		.ascii	"CYBLE_EVT_TPSC_WRITE_DESCR_RESPONSE\000"
 8778      455F4556 
 8778      545F5450 
 8778      53435F57 
 8778      52495445 
 8779              	.LASF555:
 8780 1be2 4359424C 		.ascii	"CYBLE_EVT_RSCSC_WRITE_CHAR_RESPONSE\000"
 8780      455F4556 
 8780      545F5253 
 8780      4353435F 
 8780      57524954 
 8781              	.LASF483:
 8782 1c06 4359424C 		.ascii	"CYBLE_EVT_HRSS_NOTIFICATION_ENABLED\000"
 8782      455F4556 
ARM GAS  C:\Users\Sarah\AppData\Local\Temp\ccqSJLdk.s 			page 238


 8782      545F4852 
 8782      53535F4E 
 8782      4F544946 
 8783              	.LASF326:
 8784 1c2a 626F756E 		.ascii	"boundedDevCount\000"
 8784      64656444 
 8784      6576436F 
 8784      756E7400 
 8785              	.LASF417:
 8786 1c3a 4359424C 		.ascii	"CYBLE_EVT_CSCSS_NOTIFICATION_DISABLED\000"
 8786      455F4556 
 8786      545F4353 
 8786      4353535F 
 8786      4E4F5449 
 8787              	.LASF428:
 8788 1c60 4359424C 		.ascii	"CYBLE_EVT_CTSS_NOTIFICATION_ENABLED\000"
 8788      455F4556 
 8788      545F4354 
 8788      53535F4E 
 8788      4F544946 
 8789              	.LASF656:
 8790 1c84 4379426C 		.ascii	"CyBle_GapConnUpdateCompleteEventHandler\000"
 8790      655F4761 
 8790      70436F6E 
 8790      6E557064 
 8790      61746543 
 8791              	.LASF549:
 8792 1cac 4359424C 		.ascii	"CYBLE_EVT_RSCSS_INDICATION_DISABLED\000"
 8792      455F4556 
 8792      545F5253 
 8792      4353535F 
 8792      494E4449 
 8793              	.LASF591:
 8794 1cd0 4359424C 		.ascii	"CYBLE_EVT_WPTSS_WRITE_CHAR\000"
 8794      455F4556 
 8794      545F5750 
 8794      5453535F 
 8794      57524954 
 8795              	.LASF172:
 8796 1ceb 4359424C 		.ascii	"CYBLE_GAP_AUTH_ERROR_BR_EDR_PAIRING_IN_PROGRESS\000"
 8796      455F4741 
 8796      505F4155 
 8796      54485F45 
 8796      52524F52 
 8797              	.LASF88:
 8798 1d1b 4359424C 		.ascii	"CYBLE_ERROR_MEMORY_ALLOCATION_FAILED\000"
 8798      455F4552 
 8798      524F525F 
 8798      4D454D4F 
 8798      52595F41 
 8799              	.LASF279:
 8800 1d40 70726570 		.ascii	"prepareWriteQueueSize\000"
 8800      61726557 
 8800      72697465 
 8800      51756575 
 8800      6553697A 
 8801              	.LASF488:
ARM GAS  C:\Users\Sarah\AppData\Local\Temp\ccqSJLdk.s 			page 239


 8802 1d56 4359424C 		.ascii	"CYBLE_EVT_HRSC_READ_DESCR_RESPONSE\000"
 8802      455F4556 
 8802      545F4852 
 8802      53435F52 
 8802      4541445F 
 8803              	.LASF686:
 8804 1d79 6379426C 		.ascii	"cyBle_sflashDeviceAddress\000"
 8804      655F7366 
 8804      6C617368 
 8804      44657669 
 8804      63654164 
 8805              	.LASF416:
 8806 1d93 4359424C 		.ascii	"CYBLE_EVT_CSCSS_NOTIFICATION_ENABLED\000"
 8806      455F4556 
 8806      545F4353 
 8806      4353535F 
 8806      4E4F5449 
 8807              	.LASF694:
 8808 1db8 6379426C 		.ascii	"cyBle_gattcDiscoveryRange\000"
 8808      655F6761 
 8808      74746344 
 8808      6973636F 
 8808      76657279 
 8809              	.LASF324:
 8810 1dd2 61747456 		.ascii	"attValuesCCCDFlashMemory\000"
 8810      616C7565 
 8810      73434343 
 8810      44466C61 
 8810      73684D65 
 8811              	.LASF292:
 8812 1deb 61747472 		.ascii	"attrValue\000"
 8812      56616C75 
 8812      6500
 8813              	.LASF380:
 8814 1df5 4359424C 		.ascii	"CYBLE_EVT_BLSC_INDICATION\000"
 8814      455F4556 
 8814      545F424C 
 8814      53435F49 
 8814      4E444943 
 8815              	.LASF476:
 8816 1e0f 4359424C 		.ascii	"CYBLE_EVT_HPSS_CHAR_WRITE\000"
 8816      455F4556 
 8816      545F4850 
 8816      53535F43 
 8816      4841525F 
 8817              	.LASF664:
 8818 1e29 4379426C 		.ascii	"CyBle_ReadByGroupEventHandler\000"
 8818      655F5265 
 8818      61644279 
 8818      47726F75 
 8818      70457665 
 8819              	.LASF672:
 8820 1e47 4379426C 		.ascii	"CyBle_ReadByTypeEventHandler\000"
 8820      655F5265 
 8820      61644279 
 8820      54797065 
 8820      4576656E 
ARM GAS  C:\Users\Sarah\AppData\Local\Temp\ccqSJLdk.s 			page 240


 8821              	.LASF216:
 8822 1e64 4359424C 		.ascii	"CYBLE_GATT_SIGNED_WRITE_CMD\000"
 8822      455F4741 
 8822      54545F53 
 8822      49474E45 
 8822      445F5752 
 8823              	.LASF468:
 8824 1e80 4359424C 		.ascii	"CYBLE_EVT_HIDSS_REPORT_CHAR_WRITE\000"
 8824      455F4556 
 8824      545F4849 
 8824      4453535F 
 8824      5245504F 
 8825              	.LASF368:
 8826 1ea2 4359424C 		.ascii	"CYBLE_EVT_BCSS_INDICATION_ENABLED\000"
 8826      455F4556 
 8826      545F4243 
 8826      53535F49 
 8826      4E444943 
 8827              	.LASF244:
 8828 1ec4 4359424C 		.ascii	"CYBLE_GATTS_ERR_CCCD_IMPROPERLY_CONFIGURED\000"
 8828      455F4741 
 8828      5454535F 
 8828      4552525F 
 8828      43434344 
 8829              	.LASF595:
 8830 1eef 4359424C 		.ascii	"CYBLE_EVT_WPTSC_READ_CHAR_RESPONSE\000"
 8830      455F4556 
 8830      545F5750 
 8830      5453435F 
 8830      52454144 
 8831              	.LASF212:
 8832 1f12 4359424C 		.ascii	"CYBLE_GATT_EXECUTE_WRITE_RSP\000"
 8832      455F4741 
 8832      54545F45 
 8832      58454355 
 8832      54455F57 
 8833              	.LASF112:
 8834 1f2f 4359424C 		.ascii	"CYBLE_ERROR_MAX\000"
 8834      455F4552 
 8834      524F525F 
 8834      4D415800 
 8835              	.LASF523:
 8836 1f3f 4359424C 		.ascii	"CYBLE_EVT_LNSC_WRITE_CHAR_RESPONSE\000"
 8836      455F4556 
 8836      545F4C4E 
 8836      53435F57 
 8836      52495445 
 8837              	.LASF72:
 8838 1f62 4359424C 		.ascii	"CYBLE_EVT_L2CAP_CONN_PARAM_UPDATE_RSP\000"
 8838      455F4556 
 8838      545F4C32 
 8838      4341505F 
 8838      434F4E4E 
 8839              	.LASF176:
 8840 1f88 4359424C 		.ascii	"CYBLE_GAP_AUTH_ERROR_LINK_DISCONNECTED\000"
 8840      455F4741 
 8840      505F4155 
ARM GAS  C:\Users\Sarah\AppData\Local\Temp\ccqSJLdk.s 			page 241


 8840      54485F45 
 8840      52524F52 
 8841              	.LASF359:
 8842 1faf 4359424C 		.ascii	"CYBLE_EVT_ANSC_WRITE_CHAR_RESPONSE\000"
 8842      455F4556 
 8842      545F414E 
 8842      53435F57 
 8842      52495445 
 8843              	.LASF576:
 8844 1fd2 4359424C 		.ascii	"CYBLE_EVT_UDSS_NOTIFICATION_DISABLED\000"
 8844      455F4556 
 8844      545F5544 
 8844      53535F4E 
 8844      4F544946 
 8845              	.LASF323:
 8846 1ff7 73746163 		.ascii	"stackFlashptr\000"
 8846      6B466C61 
 8846      73687074 
 8846      7200
 8847              	.LASF578:
 8848 2005 4359424C 		.ascii	"CYBLE_EVT_UDSS_WRITE_CHAR\000"
 8848      455F4556 
 8848      545F5544 
 8848      53535F57 
 8848      52495445 
 8849              	.LASF542:
 8850 201f 4359424C 		.ascii	"CYBLE_EVT_PLXSC_READ_CHAR_RESPONSE\000"
 8850      455F4556 
 8850      545F504C 
 8850      5853435F 
 8850      52454144 
 8851              	.LASF420:
 8852 2042 4359424C 		.ascii	"CYBLE_EVT_CSCSS_INDICATION_CONFIRMATION\000"
 8852      455F4556 
 8852      545F4353 
 8852      4353535F 
 8852      494E4449 
 8853              	.LASF312:
 8854 206a 4359424C 		.ascii	"CYBLE_DISC_INCL_INFO_T\000"
 8854      455F4449 
 8854      53435F49 
 8854      4E434C5F 
 8854      494E464F 
 8855              	.LASF319:
 8856 2081 4359424C 		.ascii	"CYBLE_DISC_DESCR_INFO_T\000"
 8856      455F4449 
 8856      53435F44 
 8856      45534352 
 8856      5F494E46 
 8857              	.LASF272:
 8858 2099 73746172 		.ascii	"startHandle\000"
 8858      7448616E 
 8858      646C6500 
 8859              	.LASF238:
 8860 20a5 4359424C 		.ascii	"CYBLE_GATT_ERR_USER_DATA_ACCESS_NOT_PERMITTED\000"
 8860      455F4741 
 8860      54545F45 
ARM GAS  C:\Users\Sarah\AppData\Local\Temp\ccqSJLdk.s 			page 242


 8860      52525F55 
 8860      5345525F 
 8861              	.LASF300:
 8862 20d3 62797465 		.ascii	"byteCount\000"
 8862      436F756E 
 8862      7400
 8863              	.LASF631:
 8864 20dd 4359424C 		.ascii	"CYBLE_SRVI_GATT\000"
 8864      455F5352 
 8864      56495F47 
 8864      41545400 
 8865              	.LASF27:
 8866 20ed 4359424C 		.ascii	"CYBLE_EVT_GAP_AUTH_COMPLETE\000"
 8866      455F4556 
 8866      545F4741 
 8866      505F4155 
 8866      54485F43 
 8867              	.LASF510:
 8868 2109 4359424C 		.ascii	"CYBLE_EVT_IPSC_READ_BLOB_RSP\000"
 8868      455F4556 
 8868      545F4950 
 8868      53435F52 
 8868      4541445F 
 8869              	.LASF532:
 8870 2126 4359424C 		.ascii	"CYBLE_EVT_PASSC_READ_DESCR_RESPONSE\000"
 8870      455F4556 
 8870      545F5041 
 8870      5353435F 
 8870      52454144 
 8871              	.LASF448:
 8872 214a 4359424C 		.ascii	"CYBLE_EVT_ESSC_READ_DESCR_RESPONSE\000"
 8872      455F4556 
 8872      545F4553 
 8872      53435F52 
 8872      4541445F 
 8873              	.LASF28:
 8874 216d 4359424C 		.ascii	"CYBLE_EVT_GAP_AUTH_FAILED\000"
 8874      455F4556 
 8874      545F4741 
 8874      505F4155 
 8874      54485F46 
 8875              	.LASF467:
 8876 2187 4359424C 		.ascii	"CYBLE_EVT_HIDSS_EXIT_SUSPEND\000"
 8876      455F4556 
 8876      545F4849 
 8876      4453535F 
 8876      45584954 
 8877              	.LASF138:
 8878 21a4 616C6C6F 		.ascii	"allocFree\000"
 8878      63467265 
 8878      6500
 8879              	.LASF297:
 8880 21ae 4359424C 		.ascii	"CYBLE_GATTC_READ_BY_GRP_RSP_PARAM_T\000"
 8880      455F4741 
 8880      5454435F 
 8880      52454144 
 8880      5F42595F 
ARM GAS  C:\Users\Sarah\AppData\Local\Temp\ccqSJLdk.s 			page 243


 8881              	.LASF205:
 8882 21d2 4359424C 		.ascii	"CYBLE_GATT_READ_BY_GROUP_RSP\000"
 8882      455F4741 
 8882      54545F52 
 8882      4541445F 
 8882      42595F47 
 8883              	.LASF89:
 8884 21ef 4359424C 		.ascii	"CYBLE_ERROR_INSUFFICIENT_RESOURCES\000"
 8884      455F4552 
 8884      524F525F 
 8884      494E5355 
 8884      46464943 
 8885              	.LASF547:
 8886 2212 4359424C 		.ascii	"CYBLE_EVT_RSCSS_NOTIFICATION_DISABLED\000"
 8886      455F4556 
 8886      545F5253 
 8886      4353535F 
 8886      4E4F5449 
 8887              	.LASF242:
 8888 2238 4359424C 		.ascii	"CYBLE_GATT_ERR_OP_CODE_NOT_SUPPORTED\000"
 8888      455F4741 
 8888      54545F45 
 8888      52525F4F 
 8888      505F434F 
 8889              	.LASF471:
 8890 225d 4359424C 		.ascii	"CYBLE_EVT_HIDSC_WRITE_CHAR_RESPONSE\000"
 8890      455F4556 
 8890      545F4849 
 8890      4453435F 
 8890      57524954 
 8891              	.LASF124:
 8892 2281 4359424C 		.ascii	"CYBLE_LL_PWR_LVL_3_DBM\000"
 8892      455F4C4C 
 8892      5F505752 
 8892      5F4C564C 
 8892      5F335F44 
 8893              	.LASF5:
 8894 2298 6C6F6E67 		.ascii	"long unsigned int\000"
 8894      20756E73 
 8894      69676E65 
 8894      6420696E 
 8894      7400
 8895              	.LASF198:
 8896 22aa 4359424C 		.ascii	"CYBLE_GATT_READ_REQ\000"
 8896      455F4741 
 8896      54545F52 
 8896      4541445F 
 8896      52455100 
 8897              	.LASF507:
 8898 22be 4359424C 		.ascii	"CYBLE_EVT_IPSC_READ_DESCR_RESPONSE\000"
 8898      455F4556 
 8898      545F4950 
 8898      53435F52 
 8898      4541445F 
 8899              	.LASF645:
 8900 22e1 4379426C 		.ascii	"CyBle_IndicationEventHandler\000"
 8900      655F496E 
ARM GAS  C:\Users\Sarah\AppData\Local\Temp\ccqSJLdk.s 			page 244


 8900      64696361 
 8900      74696F6E 
 8900      4576656E 
 8901              	.LASF502:
 8902 22fe 4359424C 		.ascii	"CYBLE_EVT_IASS_WRITE_CHAR_CMD\000"
 8902      455F4556 
 8902      545F4941 
 8902      53535F57 
 8902      52495445 
 8903              	.LASF184:
 8904 231c 73746174 		.ascii	"status\000"
 8904      757300
 8905              	.LASF122:
 8906 2323 4359424C 		.ascii	"CYBLE_LL_PWR_LVL_NEG_1_DBM\000"
 8906      455F4C4C 
 8906      5F505752 
 8906      5F4C564C 
 8906      5F4E4547 
 8907              	.LASF109:
 8908 233e 4359424C 		.ascii	"CYBLE_ERROR_UNSUPPORTED_FEATURE_OR_PARAMETER_VALUE\000"
 8908      455F4552 
 8908      524F525F 
 8908      554E5355 
 8908      50504F52 
 8909              	.LASF135:
 8910 2371 4359424C 		.ascii	"CYBLE_INVALID_REQUEST\000"
 8910      455F494E 
 8910      56414C49 
 8910      445F5245 
 8910      51554553 
 8911              	.LASF588:
 8912 2387 4359424C 		.ascii	"CYBLE_EVT_WPTSS_INDICATION_ENABLED\000"
 8912      455F4556 
 8912      545F5750 
 8912      5453535F 
 8912      494E4449 
 8913              	.LASF166:
 8914 23aa 4359424C 		.ascii	"CYBLE_GAP_AUTH_ERROR_COMMAND_NOT_SUPPORTED\000"
 8914      455F4741 
 8914      505F4155 
 8914      54485F45 
 8914      52524F52 
 8915              	.LASF162:
 8916 23d5 4359424C 		.ascii	"CYBLE_GAP_AUTH_ERROR_AUTHENTICATION_REQ_NOT_MET\000"
 8916      455F4741 
 8916      505F4155 
 8916      54485F45 
 8916      52524F52 
 8917              	.LASF317:
 8918 2405 4359424C 		.ascii	"CYBLE_SRVR_CHAR_INFO_T\000"
 8918      455F5352 
 8918      56525F43 
 8918      4841525F 
 8918      494E464F 
 8919              	.LASF213:
 8920 241c 4359424C 		.ascii	"CYBLE_GATT_HANDLE_VALUE_NTF\000"
 8920      455F4741 
ARM GAS  C:\Users\Sarah\AppData\Local\Temp\ccqSJLdk.s 			page 245


 8920      54545F48 
 8920      414E444C 
 8920      455F5641 
 8921              	.LASF536:
 8922 2438 4359424C 		.ascii	"CYBLE_EVT_PLXSS_NOTIFICATION_DISABLED\000"
 8922      455F4556 
 8922      545F504C 
 8922      5853535F 
 8922      4E4F5449 
 8923              	.LASF358:
 8924 245e 4359424C 		.ascii	"CYBLE_EVT_ANSC_READ_CHAR_RESPONSE\000"
 8924      455F4556 
 8924      545F414E 
 8924      53435F52 
 8924      4541445F 
 8925              	.LASF99:
 8926 2480 4359424C 		.ascii	"CYBLE_ERROR_L2CAP_PSM_ALREADY_REGISTERED\000"
 8926      455F4552 
 8926      524F525F 
 8926      4C324341 
 8926      505F5053 
 8927              	.LASF260:
 8928 24a9 4359424C 		.ascii	"CYBLE_UUID128_T\000"
 8928      455F5555 
 8928      49443132 
 8928      385F5400 
 8929              	.LASF674:
 8930 24b9 64697363 		.ascii	"discInclInfo\000"
 8930      496E636C 
 8930      496E666F 
 8930      00
 8931              	.LASF495:
 8932 24c6 4359424C 		.ascii	"CYBLE_EVT_HTSS_CHAR_WRITE\000"
 8932      455F4556 
 8932      545F4854 
 8932      53535F43 
 8932      4841525F 
 8933              	.LASF250:
 8934 24e0 4359424C 		.ascii	"CYBLE_GATT_ERR_ANCS_UNKNOWN_COMMAND\000"
 8934      455F4741 
 8934      54545F45 
 8934      52525F41 
 8934      4E43535F 
 8935              	.LASF362:
 8936 2504 4359424C 		.ascii	"CYBLE_EVT_BASS_NOTIFICATION_ENABLED\000"
 8936      455F4556 
 8936      545F4241 
 8936      53535F4E 
 8936      4F544946 
 8937              	.LASF436:
 8938 2528 4359424C 		.ascii	"CYBLE_EVT_DISC_READ_CHAR_RESPONSE\000"
 8938      455F4556 
 8938      545F4449 
 8938      53435F52 
 8938      4541445F 
 8939              	.LASF435:
 8940 254a 4359424C 		.ascii	"CYBLE_EVT_CTSC_WRITE_CHAR_RESPONSE\000"
ARM GAS  C:\Users\Sarah\AppData\Local\Temp\ccqSJLdk.s 			page 246


 8940      455F4556 
 8940      545F4354 
 8940      53435F57 
 8940      52495445 
 8941              	.LASF529:
 8942 256d 4359424C 		.ascii	"CYBLE_EVT_PASSS_WRITE_CHAR\000"
 8942      455F4556 
 8942      545F5041 
 8942      5353535F 
 8942      57524954 
 8943              	.LASF412:
 8944 2588 4359424C 		.ascii	"CYBLE_EVT_CPSC_WRITE_CHAR_RESPONSE\000"
 8944      455F4556 
 8944      545F4350 
 8944      53435F57 
 8944      52495445 
 8945              	.LASF543:
 8946 25ab 4359424C 		.ascii	"CYBLE_EVT_PLXSC_WRITE_CHAR_RESPONSE\000"
 8946      455F4556 
 8946      545F504C 
 8946      5853435F 
 8946      57524954 
 8947              	.LASF280:
 8948 25cf 4359424C 		.ascii	"CYBLE_PREPARE_WRITE_REQUEST_MEMORY_T\000"
 8948      455F5052 
 8948      45504152 
 8948      455F5752 
 8948      4954455F 
 8949              	.LASF708:
 8950 25f4 4379426C 		.ascii	"CyBle_LongProcedureEndEventHandler\000"
 8950      655F4C6F 
 8950      6E675072 
 8950      6F636564 
 8950      75726545 
 8951              	.LASF33:
 8952 2617 4359424C 		.ascii	"CYBLE_EVT_GAP_CONNECTION_UPDATE_COMPLETE\000"
 8952      455F4556 
 8952      545F4741 
 8952      505F434F 
 8952      4E4E4543 
 8953              	.LASF397:
 8954 2640 4359424C 		.ascii	"CYBLE_EVT_CGMSC_READ_CHAR_RESPONSE\000"
 8954      455F4556 
 8954      545F4347 
 8954      4D53435F 
 8954      52454144 
 8955              	.LASF671:
 8956 2663 64697363 		.ascii	"discCharInfo\000"
 8956      43686172 
 8956      496E666F 
 8956      00
 8957              	.LASF258:
 8958 2670 4359424C 		.ascii	"CYBLE_UUID16\000"
 8958      455F5555 
 8958      49443136 
 8958      00
 8959              	.LASF662:
ARM GAS  C:\Users\Sarah\AppData\Local\Temp\ccqSJLdk.s 			page 247


 8960 267d 6379426C 		.ascii	"cyBle_mtuSize\000"
 8960      655F6D74 
 8960      7553697A 
 8960      6500
 8961              	.LASF168:
 8962 268b 4359424C 		.ascii	"CYBLE_GAP_AUTH_ERROR_REPEATED_ATTEMPTS\000"
 8962      455F4741 
 8962      505F4155 
 8962      54485F45 
 8962      52524F52 
 8963              	.LASF76:
 8964 26b2 4359424C 		.ascii	"CYBLE_EVT_L2CAP_CBFC_DISCONN_IND\000"
 8964      455F4556 
 8964      545F4C32 
 8964      4341505F 
 8964      43424643 
 8965              	.LASF421:
 8966 26d3 4359424C 		.ascii	"CYBLE_EVT_CSCSS_CHAR_WRITE\000"
 8966      455F4556 
 8966      545F4353 
 8966      4353535F 
 8966      43484152 
 8967              	.LASF296:
 8968 26ee 61747472 		.ascii	"attrData\000"
 8968      44617461 
 8968      00
 8969              	.LASF621:
 8970 26f7 4359424C 		.ascii	"CYBLE_CLIENT_STATE_DISCONNECTED\000"
 8970      455F434C 
 8970      49454E54 
 8970      5F535441 
 8970      54455F44 
 8971              	.LASF538:
 8972 2717 4359424C 		.ascii	"CYBLE_EVT_PLXSS_INDICATION_DISABLED\000"
 8972      455F4556 
 8972      545F504C 
 8972      5853535F 
 8972      494E4449 
 8973              	.LASF554:
 8974 273b 4359424C 		.ascii	"CYBLE_EVT_RSCSC_READ_CHAR_RESPONSE\000"
 8974      455F4556 
 8974      545F5253 
 8974      4353435F 
 8974      52454144 
 8975              	.LASF677:
 8976 275e 4379426C 		.ascii	"CyBle_FindInfoEventHandler\000"
 8976      655F4669 
 8976      6E64496E 
 8976      666F4576 
 8976      656E7448 
 8977              	.LASF25:
 8978 2779 4359424C 		.ascii	"CYBLE_EVT_GAP_PASSKEY_ENTRY_REQUEST\000"
 8978      455F4556 
 8978      545F4741 
 8978      505F5041 
 8978      53534B45 
 8979              	.LASF170:
ARM GAS  C:\Users\Sarah\AppData\Local\Temp\ccqSJLdk.s 			page 248


 8980 279d 4359424C 		.ascii	"CYBLE_GAP_AUTH_ERROR_DHKEY_CHECK_FAILED\000"
 8980      455F4741 
 8980      505F4155 
 8980      54485F45 
 8980      52524F52 
 8981              	.LASF126:
 8982 27c5 4359424C 		.ascii	"CYBLE_BLESS_PWR_LVL_T\000"
 8982      455F424C 
 8982      4553535F 
 8982      5057525F 
 8982      4C564C5F 
 8983              	.LASF327:
 8984 27db 43595F42 		.ascii	"CY_BLE_FLASH_STORAGE\000"
 8984      4C455F46 
 8984      4C415348 
 8984      5F53544F 
 8984      52414745 
 8985              	.LASF406:
 8986 27f0 4359424C 		.ascii	"CYBLE_EVT_CPSS_BROADCAST_ENABLED\000"
 8986      455F4556 
 8986      545F4350 
 8986      53535F42 
 8986      524F4144 
 8987              	.LASF651:
 8988 2811 4379426C 		.ascii	"CyBle_GattConnectReqHandler\000"
 8988      655F4761 
 8988      7474436F 
 8988      6E6E6563 
 8988      74526571 
 8989              	.LASF635:
 8990 282d 4359424C 		.ascii	"CYBLE_SCDI_GATT_SERVICE_CHANGED\000"
 8990      455F5343 
 8990      44495F47 
 8990      4154545F 
 8990      53455256 
 8991              	.LASF692:
 8992 284d 6379426C 		.ascii	"cyBle_flashStorage\000"
 8992      655F666C 
 8992      61736853 
 8992      746F7261 
 8992      676500
 8993              	.LASF508:
 8994 2860 4359424C 		.ascii	"CYBLE_EVT_IPSC_WRITE_DESCR_RESPONSE\000"
 8994      455F4556 
 8994      545F4950 
 8994      53435F57 
 8994      52495445 
 8995              	.LASF165:
 8996 2884 4359424C 		.ascii	"CYBLE_GAP_AUTH_ERROR_INSUFFICIENT_ENCRYPTION_KEY_SI"
 8996      455F4741 
 8996      505F4155 
 8996      54485F45 
 8996      52524F52 
 8997 28b7 5A4500   		.ascii	"ZE\000"
 8998              	.LASF545:
 8999 28ba 4359424C 		.ascii	"CYBLE_EVT_PLXSC_WRITE_DESCR_RESPONSE\000"
 8999      455F4556 
ARM GAS  C:\Users\Sarah\AppData\Local\Temp\ccqSJLdk.s 			page 249


 8999      545F504C 
 8999      5853435F 
 8999      57524954 
 9000              	.LASF539:
 9001 28df 4359424C 		.ascii	"CYBLE_EVT_PLXS_INDICATION_CONFIRMATION\000"
 9001      455F4556 
 9001      545F504C 
 9001      58535F49 
 9001      4E444943 
 9002              	.LASF474:
 9003 2906 4359424C 		.ascii	"CYBLE_EVT_HPSS_NOTIFICATION_ENABLED\000"
 9003      455F4556 
 9003      545F4850 
 9003      53535F4E 
 9003      4F544946 
 9004              	.LASF496:
 9005 292a 4359424C 		.ascii	"CYBLE_EVT_HTSC_NOTIFICATION\000"
 9005      455F4556 
 9005      545F4854 
 9005      53435F4E 
 9005      4F544946 
 9006              	.LASF6:
 9007 2946 6C6F6E67 		.ascii	"long long int\000"
 9007      206C6F6E 
 9007      6720696E 
 9007      7400
 9008              	.LASF650:
 9009 2954 4379426C 		.ascii	"CyBle_GattDisconnectEventHandler\000"
 9009      655F4761 
 9009      74744469 
 9009      73636F6E 
 9009      6E656374 
 9010              	.LASF569:
 9011 2975 4359424C 		.ascii	"CYBLE_EVT_TPSC_READ_CHAR_RESPONSE\000"
 9011      455F4556 
 9011      545F5450 
 9011      53435F52 
 9011      4541445F 
 9012              	.LASF140:
 9013 2997 4359424C 		.ascii	"CYBLE_MEMORY_REQUEST_T\000"
 9013      455F4D45 
 9013      4D4F5259 
 9013      5F524551 
 9013      55455354 
 9014              	.LASF178:
 9015 29ae 73656375 		.ascii	"security\000"
 9015      72697479 
 9015      00
 9016              	.LASF670:
 9017 29b7 4379426C 		.ascii	"CyBle_GapcDiscoverCharacteristicsEventHandler\000"
 9017      655F4761 
 9017      70634469 
 9017      73636F76 
 9017      65724368 
 9018              	.LASF699:
 9019 29e5 6379426C 		.ascii	"cyBle_clientState\000"
 9019      655F636C 
ARM GAS  C:\Users\Sarah\AppData\Local\Temp\ccqSJLdk.s 			page 250


 9019      69656E74 
 9019      53746174 
 9019      6500
 9020              	.LASF228:
 9021 29f7 4359424C 		.ascii	"CYBLE_GATT_ERR_PREPARE_WRITE_QUEUE_FULL\000"
 9021      455F4741 
 9021      54545F45 
 9021      52525F50 
 9021      52455041 
 9022              	.LASF478:
 9023 2a1f 4359424C 		.ascii	"CYBLE_EVT_HPSC_READ_CHAR_RESPONSE\000"
 9023      455F4556 
 9023      545F4850 
 9023      53435F52 
 9023      4541445F 
 9024              	.LASF100:
 9025 2a41 4359424C 		.ascii	"CYBLE_ERROR_L2CAP_PSM_NOT_REGISTERED\000"
 9025      455F4552 
 9025      524F525F 
 9025      4C324341 
 9025      505F5053 
 9026              	.LASF90:
 9027 2a66 4359424C 		.ascii	"CYBLE_ERROR_OOB_NOT_AVAILABLE\000"
 9027      455F4552 
 9027      524F525F 
 9027      4F4F425F 
 9027      4E4F545F 
 9028              	.LASF389:
 9029 2a84 4359424C 		.ascii	"CYBLE_EVT_CGMSS_INDICATION_ENABLED\000"
 9029      455F4556 
 9029      545F4347 
 9029      4D53535F 
 9029      494E4449 
 9030              	.LASF13:
 9031 2aa7 646F7562 		.ascii	"double\000"
 9031      6C6500
 9032              	.LASF105:
 9033 2aae 4359424C 		.ascii	"CYBLE_ERROR_DEVICE_ALREADY_EXISTS\000"
 9033      455F4552 
 9033      524F525F 
 9033      44455649 
 9033      43455F41 
 9034              	.LASF440:
 9035 2ad0 4359424C 		.ascii	"CYBLE_EVT_ESSS_INDICATION_DISABLED\000"
 9035      455F4556 
 9035      545F4553 
 9035      53535F49 
 9035      4E444943 
 9036              	.LASF82:
 9037 2af3 4359424C 		.ascii	"CYBLE_EVT_PENDING_FLASH_WRITE\000"
 9037      455F4556 
 9037      545F5045 
 9037      4E44494E 
 9037      475F464C 
 9038              	.LASF231:
 9039 2b11 4359424C 		.ascii	"CYBLE_GATT_ERR_INSUFFICIENT_ENC_KEY_SIZE\000"
 9039      455F4741 
ARM GAS  C:\Users\Sarah\AppData\Local\Temp\ccqSJLdk.s 			page 251


 9039      54545F45 
 9039      52525F49 
 9039      4E535546 
 9040              	.LASF125:
 9041 2b3a 4359424C 		.ascii	"CYBLE_LL_PWR_LVL_MAX\000"
 9041      455F4C4C 
 9041      5F505752 
 9041      5F4C564C 
 9041      5F4D4158 
 9042              	.LASF586:
 9043 2b4f 4359424C 		.ascii	"CYBLE_EVT_WPTSS_NOTIFICATION_ENABLED\000"
 9043      455F4556 
 9043      545F5750 
 9043      5453535F 
 9043      4E4F5449 
 9044              	.LASF623:
 9045 2b74 64657669 		.ascii	"deviceNameCharHandle\000"
 9045      63654E61 
 9045      6D654368 
 9045      61724861 
 9045      6E646C65 
 9046              	.LASF286:
 9047 2b89 6F70436F 		.ascii	"opCode\000"
 9047      646500
 9048              	.LASF255:
 9049 2b90 4359424C 		.ascii	"CYBLE_GATT_ERR_PROCEDURE_ALREADY_IN_PROGRESS\000"
 9049      455F4741 
 9049      54545F45 
 9049      52525F50 
 9049      524F4345 
 9050              	.LASF525:
 9051 2bbd 4359424C 		.ascii	"CYBLE_EVT_LNSC_WRITE_DESCR_RESPONSE\000"
 9051      455F4556 
 9051      545F4C4E 
 9051      53435F57 
 9051      52495445 
 9052              	.LASF40:
 9053 2be1 4359424C 		.ascii	"CYBLE_EVT_GAP_ENHANCE_CONN_COMPLETE\000"
 9053      455F4556 
 9053      545F4741 
 9053      505F454E 
 9053      48414E43 
 9054              	.LASF512:
 9055 2c05 4359424C 		.ascii	"CYBLE_EVT_LLSC_READ_CHAR_RESPONSE\000"
 9055      455F4556 
 9055      545F4C4C 
 9055      53435F52 
 9055      4541445F 
 9056              	.LASF295:
 9057 2c27 4359424C 		.ascii	"CYBLE_GATTC_GRP_ATTR_DATA_LIST_T\000"
 9057      455F4741 
 9057      5454435F 
 9057      4752505F 
 9057      41545452 
 9058              	.LASF102:
 9059 2c48 4359424C 		.ascii	"CYBLE_ERROR_L2CAP_CHANNEL_NOT_FOUND\000"
 9059      455F4552 
ARM GAS  C:\Users\Sarah\AppData\Local\Temp\ccqSJLdk.s 			page 252


 9059      524F525F 
 9059      4C324341 
 9059      505F4348 
 9060              	.LASF93:
 9061 2c6c 4359424C 		.ascii	"CYBLE_ERROR_REPEATED_ATTEMPTS\000"
 9061      455F4552 
 9061      524F525F 
 9061      52455045 
 9061      41544544 
 9062              	.LASF443:
 9063 2c8a 4359424C 		.ascii	"CYBLE_EVT_ESSS_DESCR_WRITE\000"
 9063      455F4556 
 9063      545F4553 
 9063      53535F44 
 9063      45534352 
 9064              	.LASF439:
 9065 2ca5 4359424C 		.ascii	"CYBLE_EVT_ESSS_INDICATION_ENABLED\000"
 9065      455F4556 
 9065      545F4553 
 9065      53535F49 
 9065      4E444943 
 9066              	.LASF641:
 9067 2cc7 4379426C 		.ascii	"CyBle_ValueConfirmation\000"
 9067      655F5661 
 9067      6C756543 
 9067      6F6E6669 
 9067      726D6174 
 9068              	.LASF425:
 9069 2cdf 4359424C 		.ascii	"CYBLE_EVT_CSCSC_WRITE_CHAR_RESPONSE\000"
 9069      455F4556 
 9069      545F4353 
 9069      4353435F 
 9069      57524954 
 9070              	.LASF12:
 9071 2d03 666C6F61 		.ascii	"float\000"
 9071      7400
 9072              	.LASF563:
 9073 2d09 4359424C 		.ascii	"CYBLE_EVT_SCPSC_NOTIFICATION\000"
 9073      455F4556 
 9073      545F5343 
 9073      5053435F 
 9073      4E4F5449 
 9074              	.LASF465:
 9075 2d26 4359424C 		.ascii	"CYBLE_EVT_HIDSS_REPORT_MODE_ENTER\000"
 9075      455F4556 
 9075      545F4849 
 9075      4453535F 
 9075      5245504F 
 9076              	.LASF444:
 9077 2d48 4359424C 		.ascii	"CYBLE_EVT_ESSC_NOTIFICATION\000"
 9077      455F4556 
 9077      545F4553 
 9077      53435F4E 
 9077      4F544946 
 9078              	.LASF106:
 9079 2d64 4359424C 		.ascii	"CYBLE_ERROR_FLASH_WRITE_NOT_PERMITED\000"
 9079      455F4552 
ARM GAS  C:\Users\Sarah\AppData\Local\Temp\ccqSJLdk.s 			page 253


 9079      524F525F 
 9079      464C4153 
 9079      485F5752 
 9080              	.LASF463:
 9081 2d89 4359424C 		.ascii	"CYBLE_EVT_HIDSS_NOTIFICATION_DISABLED\000"
 9081      455F4556 
 9081      545F4849 
 9081      4453535F 
 9081      4E4F5449 
 9082              	.LASF69:
 9083 2daf 4359424C 		.ascii	"CYBLE_EVT_GATTS_READ_CHAR_VAL_ACCESS_REQ\000"
 9083      455F4556 
 9083      545F4741 
 9083      5454535F 
 9083      52454144 
 9084              	.LASF351:
 9085 2dd8 4359424C 		.ascii	"CYBLE_EVT_ANCSC_READ_DESCR_RESPONSE\000"
 9085      455F4556 
 9085      545F414E 
 9085      4353435F 
 9085      52454144 
 9086              	.LASF281:
 9087 2dfc 6F70636F 		.ascii	"opcode\000"
 9087      646500
 9088              	.LASF227:
 9089 2e03 4359424C 		.ascii	"CYBLE_GATT_ERR_INSUFFICIENT_AUTHORIZATION\000"
 9089      455F4741 
 9089      54545F45 
 9089      52525F49 
 9089      4E535546 
 9090              	.LASF270:
 9091 2e2d 61747472 		.ascii	"attrHandle\000"
 9091      48616E64 
 9091      6C6500
 9092              	.LASF580:
 9093 2e38 4359424C 		.ascii	"CYBLE_EVT_UDSC_NOTIFICATION\000"
 9093      455F4556 
 9093      545F5544 
 9093      53435F4E 
 9093      4F544946 
 9094              	.LASF594:
 9095 2e54 4359424C 		.ascii	"CYBLE_EVT_WPTSC_WRITE_CHAR_RESPONSE\000"
 9095      455F4556 
 9095      545F5750 
 9095      5453435F 
 9095      57524954 
 9096              	.LASF179:
 9097 2e78 626F6E64 		.ascii	"bonding\000"
 9097      696E6700 
 9098              	.LASF307:
 9099 2e80 75756964 		.ascii	"uuid\000"
 9099      00
 9100              	.LASF285:
 9101 2e85 4359424C 		.ascii	"CYBLE_GATTS_WRITE_REQ_PARAM_T\000"
 9101      455F4741 
 9101      5454535F 
 9101      57524954 
ARM GAS  C:\Users\Sarah\AppData\Local\Temp\ccqSJLdk.s 			page 254


 9101      455F5245 
 9102              	.LASF8:
 9103 2ea3 756E7369 		.ascii	"unsigned int\000"
 9103      676E6564 
 9103      20696E74 
 9103      00
 9104              	.LASF61:
 9105 2eb0 4359424C 		.ascii	"CYBLE_EVT_GATTS_PREP_WRITE_REQ\000"
 9105      455F4556 
 9105      545F4741 
 9105      5454535F 
 9105      50524550 
 9106              	.LASF224:
 9107 2ecf 4359424C 		.ascii	"CYBLE_GATT_ERR_INSUFFICIENT_AUTHENTICATION\000"
 9107      455F4741 
 9107      54545F45 
 9107      52525F49 
 9107      4E535546 
 9108              	.LASF429:
 9109 2efa 4359424C 		.ascii	"CYBLE_EVT_CTSS_NOTIFICATION_DISABLED\000"
 9109      455F4556 
 9109      545F4354 
 9109      53535F4E 
 9109      4F544946 
 9110              	.LASF276:
 9111 2f1f 4359424C 		.ascii	"CYBLE_GATT_XCHG_MTU_PARAM_T\000"
 9111      455F4741 
 9111      54545F58 
 9111      4348475F 
 9111      4D54555F 
 9112              	.LASF376:
 9113 2f3b 4359424C 		.ascii	"CYBLE_EVT_BLSS_INDICATION_DISABLED\000"
 9113      455F4556 
 9113      545F424C 
 9113      53535F49 
 9113      4E444943 
 9114              	.LASF128:
 9115 2f5e 4359424C 		.ascii	"CYBLE_LL_CONN_CH_TYPE\000"
 9115      455F4C4C 
 9115      5F434F4E 
 9115      4E5F4348 
 9115      5F545950 
 9116              	.LASF561:
 9117 2f74 4359424C 		.ascii	"CYBLE_EVT_SCPSS_NOTIFICATION_DISABLED\000"
 9117      455F4556 
 9117      545F5343 
 9117      5053535F 
 9117      4E4F5449 
 9118              	.LASF441:
 9119 2f9a 4359424C 		.ascii	"CYBLE_EVT_ESSS_INDICATION_CONFIRMATION\000"
 9119      455F4556 
 9119      545F4553 
 9119      53535F49 
 9119      4E444943 
 9120              	.LASF667:
 9121 2fc1 666C6167 		.ascii	"flag\000"
 9121      00
ARM GAS  C:\Users\Sarah\AppData\Local\Temp\ccqSJLdk.s 			page 255


 9122              	.LASF308:
 9123 2fc6 4359424C 		.ascii	"CYBLE_DISC_SRVC_INFO_T\000"
 9123      455F4449 
 9123      53435F53 
 9123      5256435F 
 9123      494E464F 
 9124              	.LASF241:
 9125 2fdd 4359424C 		.ascii	"CYBLE_GATTS_ERR_PROCEDURE_ALREADY_IN_PROGRESS\000"
 9125      455F4741 
 9125      5454535F 
 9125      4552525F 
 9125      50524F43 
 9126              	.LASF144:
 9127 300b 4359424C 		.ascii	"CYBLE_GAP_ADV_MODE_TO\000"
 9127      455F4741 
 9127      505F4144 
 9127      565F4D4F 
 9127      44455F54 
 9128              	.LASF668:
 9129 3021 4379426C 		.ascii	"CyBle_NextInclDiscovery\000"
 9129      655F4E65 
 9129      7874496E 
 9129      636C4469 
 9129      73636F76 
 9130              	.LASF639:
 9131 3039 6572725F 		.ascii	"err_param\000"
 9131      70617261 
 9131      6D00
 9132              	.LASF328:
 9133 3043 4359424C 		.ascii	"CYBLE_AUTHENTICATION_REQUEST_REPLY\000"
 9133      455F4155 
 9133      5448454E 
 9133      54494341 
 9133      54494F4E 
 9134              	.LASF601:
 9135 3066 4359424C 		.ascii	"CYBLE_EVT_WSSC_INDICATION\000"
 9135      455F4556 
 9135      545F5753 
 9135      53435F49 
 9135      4E444943 
 9136              	.LASF98:
 9137 3080 4359424C 		.ascii	"CYBLE_ERROR_L2CAP_PSM_WRONG_ENCODING\000"
 9137      455F4552 
 9137      524F525F 
 9137      4C324341 
 9137      505F5053 
 9138              	.LASF210:
 9139 30a5 4359424C 		.ascii	"CYBLE_GATT_PREPARE_WRITE_RSP\000"
 9139      455F4741 
 9139      54545F50 
 9139      52455041 
 9139      52455F57 
 9140              	.LASF379:
 9141 30c2 4359424C 		.ascii	"CYBLE_EVT_BLSS_NOTIFICATION_DISABLED\000"
 9141      455F4556 
 9141      545F424C 
 9141      53535F4E 
ARM GAS  C:\Users\Sarah\AppData\Local\Temp\ccqSJLdk.s 			page 256


 9141      4F544946 
 9142              	.LASF661:
 9143 30e7 67507265 		.ascii	"gPrepWriteReqMem\000"
 9143      70577269 
 9143      74655265 
 9143      714D656D 
 9143      00
 9144              	.LASF229:
 9145 30f8 4359424C 		.ascii	"CYBLE_GATT_ERR_ATTRIBUTE_NOT_FOUND\000"
 9145      455F4741 
 9145      54545F45 
 9145      52525F41 
 9145      54545249 
 9146              	.LASF499:
 9147 311b 4359424C 		.ascii	"CYBLE_EVT_HTSC_WRITE_CHAR_RESPONSE\000"
 9147      455F4556 
 9147      545F4854 
 9147      53435F57 
 9147      52495445 
 9148              	.LASF702:
 9149 313e 6379426C 		.ascii	"cyBle_serverInfo\000"
 9149      655F7365 
 9149      72766572 
 9149      496E666F 
 9149      00
 9150              	.LASF299:
 9151 314f 6C697374 		.ascii	"list\000"
 9151      00
 9152              	.LASF688:
 9153 3154 6379426C 		.ascii	"cyBle_connectingTimeout\000"
 9153      655F636F 
 9153      6E6E6563 
 9153      74696E67 
 9153      54696D65 
 9154              	.LASF84:
 9155 316c 4359424C 		.ascii	"CYBLE_EVT_MAX\000"
 9155      455F4556 
 9155      545F4D41 
 9155      5800
 9156              	.LASF34:
 9157 317a 4359424C 		.ascii	"CYBLE_EVT_GAPC_SCAN_START_STOP\000"
 9157      455F4556 
 9157      545F4741 
 9157      50435F53 
 9157      43414E5F 
 9158              	.LASF706:
 9159 3199 4379426C 		.ascii	"CyBle_IsDeviceAddressValid\000"
 9159      655F4973 
 9159      44657669 
 9159      63654164 
 9159      64726573 
 9160              	.LASF354:
 9161 31b4 4359424C 		.ascii	"CYBLE_EVT_ANSS_NOTIFICATION_ENABLED\000"
 9161      455F4556 
 9161      545F414E 
 9161      53535F4E 
 9161      4F544946 
ARM GAS  C:\Users\Sarah\AppData\Local\Temp\ccqSJLdk.s 			page 257


 9162              	.LASF619:
 9163 31d8 4359424C 		.ascii	"CYBLE_CLIENT_STATE_DISCONNECTING\000"
 9163      455F434C 
 9163      49454E54 
 9163      5F535441 
 9163      54455F44 
 9164              	.LASF177:
 9165 31f9 4359424C 		.ascii	"CYBLE_GAP_AUTH_FAILED_REASON_T\000"
 9165      455F4741 
 9165      505F4155 
 9165      54485F46 
 9165      41494C45 
 9166              	.LASF58:
 9167 3218 4359424C 		.ascii	"CYBLE_EVT_GATTS_WRITE_REQ\000"
 9167      455F4556 
 9167      545F4741 
 9167      5454535F 
 9167      57524954 
 9168              	.LASF582:
 9169 3232 4359424C 		.ascii	"CYBLE_EVT_UDSC_WRITE_CHAR_RESPONSE\000"
 9169      455F4556 
 9169      545F5544 
 9169      53435F57 
 9169      52495445 
 9170              	.LASF627:
 9171 3255 70726566 		.ascii	"prefConnParamCharHandle\000"
 9171      436F6E6E 
 9171      50617261 
 9171      6D436861 
 9171      7248616E 
 9172              	.LASF593:
 9173 326d 4359424C 		.ascii	"CYBLE_EVT_WPTSC_INDICATION\000"
 9173      455F4556 
 9173      545F5750 
 9173      5453435F 
 9173      494E4449 
 9174              	.LASF26:
 9175 3288 4359424C 		.ascii	"CYBLE_EVT_GAP_PASSKEY_DISPLAY_REQUEST\000"
 9175      455F4556 
 9175      545F4741 
 9175      505F5041 
 9175      53534B45 
 9176              	.LASF114:
 9177 32ae 4359424C 		.ascii	"CYBLE_ERROR_IND_DISABLED\000"
 9177      455F4552 
 9177      524F525F 
 9177      494E445F 
 9177      44495341 
 9178              	.LASF113:
 9179 32c7 4359424C 		.ascii	"CYBLE_ERROR_NTF_DISABLED\000"
 9179      455F4552 
 9179      524F525F 
 9179      4E54465F 
 9179      44495341 
 9180              	.LASF202:
 9181 32e0 4359424C 		.ascii	"CYBLE_GATT_READ_MULTIPLE_REQ\000"
 9181      455F4741 
ARM GAS  C:\Users\Sarah\AppData\Local\Temp\ccqSJLdk.s 			page 258


 9181      54545F52 
 9181      4541445F 
 9181      4D554C54 
 9182              	.LASF55:
 9183 32fd 4359424C 		.ascii	"CYBLE_EVT_GATTC_READ_RSP\000"
 9183      455F4556 
 9183      545F4741 
 9183      5454435F 
 9183      52454144 
 9184              	.LASF410:
 9185 3316 4359424C 		.ascii	"CYBLE_EVT_CPSC_INDICATION\000"
 9185      455F4556 
 9185      545F4350 
 9185      53435F49 
 9185      4E444943 
 9186              	.LASF226:
 9187 3330 4359424C 		.ascii	"CYBLE_GATT_ERR_INVALID_OFFSET\000"
 9187      455F4741 
 9187      54545F45 
 9187      52525F49 
 9187      4E56414C 
 9188              	.LASF196:
 9189 334e 4359424C 		.ascii	"CYBLE_GATT_READ_BY_TYPE_REQ\000"
 9189      455F4741 
 9189      54545F52 
 9189      4541445F 
 9189      42595F54 
 9190              	.LASF75:
 9191 336a 4359424C 		.ascii	"CYBLE_EVT_L2CAP_CBFC_CONN_CNF\000"
 9191      455F4556 
 9191      545F4C32 
 9191      4341505F 
 9191      43424643 
 9192              	.LASF387:
 9193 3388 4359424C 		.ascii	"CYBLE_EVT_BMSC_WRITE_CHAR_RESPONSE\000"
 9193      455F4556 
 9193      545F424D 
 9193      53435F57 
 9193      52495445 
 9194              	.LASF500:
 9195 33ab 4359424C 		.ascii	"CYBLE_EVT_HTSC_READ_DESCR_RESPONSE\000"
 9195      455F4556 
 9195      545F4854 
 9195      53435F52 
 9195      4541445F 
 9196              	.LASF605:
 9197 33ce 4359424C 		.ascii	"CYBLE_DEBUG_EVT_BLESS_INT\000"
 9197      455F4445 
 9197      4255475F 
 9197      4556545F 
 9197      424C4553 
 9198              	.LASF256:
 9199 33e8 4359424C 		.ascii	"CYBLE_GATT_ERR_OUT_OF_RANGE\000"
 9199      455F4741 
 9199      54545F45 
 9199      52525F4F 
 9199      55545F4F 
ARM GAS  C:\Users\Sarah\AppData\Local\Temp\ccqSJLdk.s 			page 259


 9200              	.LASF455:
 9201 3404 4359424C 		.ascii	"CYBLE_EVT_GLSS_WRITE_CHAR\000"
 9201      455F4556 
 9201      545F474C 
 9201      53535F57 
 9201      52495445 
 9202              	.LASF316:
 9203 341e 4359424C 		.ascii	"CYBLE_DISC_CHAR_INFO_T\000"
 9203      455F4449 
 9203      53435F43 
 9203      4841525F 
 9203      494E464F 
 9204              	.LASF194:
 9205 3435 4359424C 		.ascii	"CYBLE_GATT_FIND_BY_TYPE_VALUE_REQ\000"
 9205      455F4741 
 9205      54545F46 
 9205      494E445F 
 9205      42595F54 
 9206              	.LASF622:
 9207 3457 4359424C 		.ascii	"CYBLE_CLIENT_STATE_T\000"
 9207      455F434C 
 9207      49454E54 
 9207      5F535441 
 9207      54455F54 
 9208              	.LASF119:
 9209 346c 4359424C 		.ascii	"CYBLE_LL_PWR_LVL_NEG_6_DBM\000"
 9209      455F4C4C 
 9209      5F505752 
 9209      5F4C564C 
 9209      5F4E4547 
 9210              	.LASF304:
 9211 3487 4359424C 		.ascii	"CYBLE_GATTC_FIND_INFO_RSP_PARAM_T\000"
 9211      455F4741 
 9211      5454435F 
 9211      46494E44 
 9211      5F494E46 
 9212              	.LASF485:
 9213 34a9 4359424C 		.ascii	"CYBLE_EVT_HRSC_NOTIFICATION\000"
 9213      455F4556 
 9213      545F4852 
 9213      53435F4E 
 9213      4F544946 
 9214              	.LASF22:
 9215 34c5 4359424C 		.ascii	"CYBLE_EVT_MEMORY_REQUEST\000"
 9215      455F4556 
 9215      545F4D45 
 9215      4D4F5259 
 9215      5F524551 
 9216              	.LASF550:
 9217 34de 4359424C 		.ascii	"CYBLE_EVT_RSCSS_INDICATION_CONFIRMATION\000"
 9217      455F4556 
 9217      545F5253 
 9217      4353535F 
 9217      494E4449 
 9218              	.LASF624:
 9219 3506 61707065 		.ascii	"appearanceCharHandle\000"
 9219      6172616E 
ARM GAS  C:\Users\Sarah\AppData\Local\Temp\ccqSJLdk.s 			page 260


 9219      63654368 
 9219      61724861 
 9219      6E646C65 
 9220              	.LASF472:
 9221 351b 4359424C 		.ascii	"CYBLE_EVT_HIDSC_READ_DESCR_RESPONSE\000"
 9221      455F4556 
 9221      545F4849 
 9221      4453435F 
 9221      52454144 
 9222              	.LASF486:
 9223 353f 4359424C 		.ascii	"CYBLE_EVT_HRSC_READ_CHAR_RESPONSE\000"
 9223      455F4556 
 9223      545F4852 
 9223      53435F52 
 9223      4541445F 
 9224              	.LASF364:
 9225 3561 4359424C 		.ascii	"CYBLE_EVT_BASC_NOTIFICATION\000"
 9225      455F4556 
 9225      545F4241 
 9225      53435F4E 
 9225      4F544946 
 9226              	.LASF159:
 9227 357d 4359424C 		.ascii	"CYBLE_GAP_AUTH_ERROR_NONE\000"
 9227      455F4741 
 9227      505F4155 
 9227      54485F45 
 9227      52524F52 
 9228              	.LASF32:
 9229 3597 4359424C 		.ascii	"CYBLE_EVT_GAP_ENCRYPT_CHANGE\000"
 9229      455F4556 
 9229      545F4741 
 9229      505F454E 
 9229      43525950 
 9230              	.LASF262:
 9231 35b4 75756964 		.ascii	"uuid128\000"
 9231      31323800 
 9232              	.LASF526:
 9233 35bc 4359424C 		.ascii	"CYBLE_EVT_NDCSC_READ_CHAR_RESPONSE\000"
 9233      455F4556 
 9233      545F4E44 
 9233      4353435F 
 9233      52454144 
 9234              	.LASF341:
 9235 35df 4359424C 		.ascii	"CYBLE_EVT_GATTC_DESCR_DUPLICATION\000"
 9235      455F4556 
 9235      545F4741 
 9235      5454435F 
 9235      44455343 
 9236              	.LASF277:
 9237 3601 71756575 		.ascii	"queueBuffer\000"
 9237      65427566 
 9237      66657200 
 9238              	.LASF548:
 9239 360d 4359424C 		.ascii	"CYBLE_EVT_RSCSS_INDICATION_ENABLED\000"
 9239      455F4556 
 9239      545F5253 
 9239      4353535F 
ARM GAS  C:\Users\Sarah\AppData\Local\Temp\ccqSJLdk.s 			page 261


 9239      494E4449 
 9240              	.LASF49:
 9241 3630 4359424C 		.ascii	"CYBLE_EVT_GATTS_XCNHG_MTU_REQ\000"
 9241      455F4556 
 9241      545F4741 
 9241      5454535F 
 9241      58434E48 
 9242              	.LASF475:
 9243 364e 4359424C 		.ascii	"CYBLE_EVT_HPSS_NOTIFICATION_DISABLED\000"
 9243      455F4556 
 9243      545F4850 
 9243      53535F4E 
 9243      4F544946 
 9244              	.LASF575:
 9245 3673 4359424C 		.ascii	"CYBLE_EVT_UDSS_NOTIFICATION_ENABLED\000"
 9245      455F4556 
 9245      545F5544 
 9245      53535F4E 
 9245      4F544946 
 9246              	.LASF193:
 9247 3697 4359424C 		.ascii	"CYBLE_GATT_FIND_INFO_RSP\000"
 9247      455F4741 
 9247      54545F46 
 9247      494E445F 
 9247      494E464F 
 9248              	.LASF161:
 9249 36b0 4359424C 		.ascii	"CYBLE_GAP_AUTH_ERROR_OOB_DATA_NOT_AVAILABLE\000"
 9249      455F4741 
 9249      505F4155 
 9249      54485F45 
 9249      52524F52 
 9250              	.LASF516:
 9251 36dc 4359424C 		.ascii	"CYBLE_EVT_LNSS_INDICATION_CONFIRMED\000"
 9251      455F4556 
 9251      545F4C4E 
 9251      53535F49 
 9251      4E444943 
 9252              	.LASF599:
 9253 3700 4359424C 		.ascii	"CYBLE_EVT_WSSS_INDICATION_DISABLED\000"
 9253      455F4556 
 9253      545F5753 
 9253      53535F49 
 9253      4E444943 
 9254              	.LASF361:
 9255 3723 4359424C 		.ascii	"CYBLE_EVT_ANSC_WRITE_DESCR_RESPONSE\000"
 9255      455F4556 
 9255      545F414E 
 9255      53435F57 
 9255      52495445 
 9256              	.LASF522:
 9257 3747 4359424C 		.ascii	"CYBLE_EVT_LNSC_READ_CHAR_RESPONSE\000"
 9257      455F4556 
 9257      545F4C4E 
 9257      53435F52 
 9257      4541445F 
 9258              	.LASF134:
 9259 3769 4359424C 		.ascii	"CYBLE_PREPARED_WRITE_REQUEST\000"
ARM GAS  C:\Users\Sarah\AppData\Local\Temp\ccqSJLdk.s 			page 262


 9259      455F5052 
 9259      45504152 
 9259      45445F57 
 9259      52495445 
 9260              	.LASF452:
 9261 3786 4359424C 		.ascii	"CYBLE_EVT_GLSS_INDICATION_CONFIRMED\000"
 9261      455F4556 
 9261      545F474C 
 9261      53535F49 
 9261      4E444943 
 9262              	.LASF188:
 9263 37aa 4359424C 		.ascii	"CYBLE_GAP_CONN_PARAM_UPDATED_IN_CONTROLLER_T\000"
 9263      455F4741 
 9263      505F434F 
 9263      4E4E5F50 
 9263      4152414D 
 9264              	.LASF612:
 9265 37d7 4359424C 		.ascii	"CYBLE_STATE_T\000"
 9265      455F5354 
 9265      4154455F 
 9265      5400
 9266              	.LASF332:
 9267 37e5 4359424C 		.ascii	"CYBLE_EVT_GATTS_INDICATION_ENABLED\000"
 9267      455F4556 
 9267      545F4741 
 9267      5454535F 
 9267      494E4449 
 9268              	.LASF7:
 9269 3808 6C6F6E67 		.ascii	"long long unsigned int\000"
 9269      206C6F6E 
 9269      6720756E 
 9269      7369676E 
 9269      65642069 
 9270              	.LASF220:
 9271 381f 4359424C 		.ascii	"CYBLE_GATT_ERR_INVALID_HANDLE\000"
 9271      455F4741 
 9271      54545F45 
 9271      52525F49 
 9271      4E56414C 
 9272              	.LASF704:
 9273 383d 47656E65 		.ascii	"Generated_Source\\PSoC4\\BLE_1_eventHandler.c\000"
 9273      72617465 
 9273      645F536F 
 9273      75726365 
 9273      5C50536F 
 9274              	.LASF18:
 9275 3869 4359424C 		.ascii	"CYBLE_EVT_TIMEOUT\000"
 9275      455F4556 
 9275      545F5449 
 9275      4D454F55 
 9275      5400
 9276              	.LASF433:
 9277 387b 4359424C 		.ascii	"CYBLE_EVT_CTSC_READ_DESCR_RESPONSE\000"
 9277      455F4556 
 9277      545F4354 
 9277      53435F52 
 9277      4541445F 
ARM GAS  C:\Users\Sarah\AppData\Local\Temp\ccqSJLdk.s 			page 263


 9278              	.LASF293:
 9279 389e 6C656E67 		.ascii	"length\000"
 9279      746800
 9280              	.LASF313:
 9281 38a5 63686172 		.ascii	"charDeclHandle\000"
 9281      4465636C 
 9281      48616E64 
 9281      6C6500
 9282              	.LASF217:
 9283 38b4 4359424C 		.ascii	"CYBLE_GATT_UNKNOWN_PDU_IND\000"
 9283      455F4741 
 9283      54545F55 
 9283      4E4B4E4F 
 9283      574E5F50 
 9284              	.LASF302:
 9285 38cf 68616E64 		.ascii	"handleValueList\000"
 9285      6C655661 
 9285      6C75654C 
 9285      69737400 
 9286              	.LASF116:
 9287 38df 4359424C 		.ascii	"CYBLE_ERROR_INVALID_STATE\000"
 9287      455F4552 
 9287      524F525F 
 9287      494E5641 
 9287      4C49445F 
 9288              	.LASF264:
 9289 38f9 4359424C 		.ascii	"CYBLE_GATT_DB_ATTR_HANDLE_T\000"
 9289      455F4741 
 9289      54545F44 
 9289      425F4154 
 9289      54525F48 
 9290              	.LASF658:
 9291 3915 626C6553 		.ascii	"bleSsPowerLevel\000"
 9291      73506F77 
 9291      65724C65 
 9291      76656C00 
 9292              	.LASF278:
 9293 3925 746F7461 		.ascii	"totalAttrValueLength\000"
 9293      6C417474 
 9293      7256616C 
 9293      75654C65 
 9293      6E677468 
 9294              	.LASF78:
 9295 393a 4359424C 		.ascii	"CYBLE_EVT_L2CAP_CBFC_DATA_READ\000"
 9295      455F4556 
 9295      545F4C32 
 9295      4341505F 
 9295      43424643 
 9296              	.LASF219:
 9297 3959 4359424C 		.ascii	"CYBLE_GATT_ERR_NONE\000"
 9297      455F4741 
 9297      54545F45 
 9297      52525F4E 
 9297      4F4E4500 
 9298              	.LASF259:
 9299 396d 76616C75 		.ascii	"value\000"
 9299      6500
ARM GAS  C:\Users\Sarah\AppData\Local\Temp\ccqSJLdk.s 			page 264


 9300              	.LASF409:
 9301 3973 4359424C 		.ascii	"CYBLE_EVT_CPSC_NOTIFICATION\000"
 9301      455F4556 
 9301      545F4350 
 9301      53435F4E 
 9301      4F544946 
 9302              	.LASF705:
 9303 398f 433A5C55 		.ascii	"C:\\Users\\Sarah\\Documents\\DVCS\\bleapp-master\\b"
 9303      73657273 
 9303      5C536172 
 9303      61685C44 
 9303      6F63756D 
 9304 39bc 6C656170 		.ascii	"leapp-master\\PSoC_Creator\\capsenseled\\HubBLE.cyd"
 9304      702D6D61 
 9304      73746572 
 9304      5C50536F 
 9304      435F4372 
 9305 39ec 736E00   		.ascii	"sn\000"
 9306              	.LASF291:
 9307 39ef 4359424C 		.ascii	"CYBLE_GATTC_HANDLE_VALUE_IND_PARAM_T\000"
 9307      455F4741 
 9307      5454435F 
 9307      48414E44 
 9307      4C455F56 
 9308              	.LASF521:
 9309 3a14 4359424C 		.ascii	"CYBLE_EVT_LNSC_NOTIFICATION\000"
 9309      455F4556 
 9309      545F4C4E 
 9309      53435F4E 
 9309      4F544946 
 9310              	.LASF261:
 9311 3a30 75756964 		.ascii	"uuid16\000"
 9311      313600
 9312              	.LASF680:
 9313 3a37 4379426C 		.ascii	"CyBle_ErrorResponseEventHandler\000"
 9313      655F4572 
 9313      726F7252 
 9313      6573706F 
 9313      6E736545 
 9314              	.LASF633:
 9315 3a57 4359424C 		.ascii	"CYBLE_SRVI_CUSTOMS_END\000"
 9315      455F5352 
 9315      56495F43 
 9315      5553544F 
 9315      4D535F45 
 9316              	.LASF682:
 9317 3a6e 4379426C 		.ascii	"CyBle_ApplCallback\000"
 9317      655F4170 
 9317      706C4361 
 9317      6C6C6261 
 9317      636B00
 9318              	.LASF431:
 9319 3a81 4359424C 		.ascii	"CYBLE_EVT_CTSC_NOTIFICATION\000"
 9319      455F4556 
 9319      545F4354 
 9319      53435F4E 
 9319      4F544946 
ARM GAS  C:\Users\Sarah\AppData\Local\Temp\ccqSJLdk.s 			page 265


 9320              	.LASF287:
 9321 3a9d 4359424C 		.ascii	"CYBLE_GATTC_ERR_RSP_PARAM_T\000"
 9321      455F4741 
 9321      5454435F 
 9321      4552525F 
 9321      5253505F 
 9322              	.LASF110:
 9323 3ab9 4359424C 		.ascii	"CYBLE_ERROR_FLASH_WRITE\000"
 9323      455F4552 
 9323      524F525F 
 9323      464C4153 
 9323      485F5752 
 9324              	.LASF451:
 9325 3ad1 4359424C 		.ascii	"CYBLE_EVT_GLSS_INDICATION_DISABLED\000"
 9325      455F4556 
 9325      545F474C 
 9325      53535F49 
 9325      4E444943 
 9326              	.LASF145:
 9327 3af4 4359424C 		.ascii	"CYBLE_GAP_SCAN_TO\000"
 9327      455F4741 
 9327      505F5343 
 9327      414E5F54 
 9327      4F00
 9328              	.LASF240:
 9329 3b06 4359424C 		.ascii	"CYBLE_GATT_ERR_HTS_OUT_OF_RANGE\000"
 9329      455F4741 
 9329      54545F45 
 9329      52525F48 
 9329      54535F4F 
 9330              	.LASF339:
 9331 3b26 4359424C 		.ascii	"CYBLE_EVT_GATTC_SRVC_DUPLICATION\000"
 9331      455F4556 
 9331      545F4741 
 9331      5454435F 
 9331      53525643 
 9332              	.LASF613:
 9333 3b47 4359424C 		.ascii	"CYBLE_CLIENT_STATE_CONNECTED\000"
 9333      455F434C 
 9333      49454E54 
 9333      5F535441 
 9333      54455F43 
 9334              	.LASF514:
 9335 3b64 4359424C 		.ascii	"CYBLE_EVT_LNSS_INDICATION_ENABLED\000"
 9335      455F4556 
 9335      545F4C4E 
 9335      53535F49 
 9335      4E444943 
 9336              	.LASF143:
 9337 3b86 4359424C 		.ascii	"CYBLE_GAP_BD_ADDR_T\000"
 9337      455F4741 
 9337      505F4244 
 9337      5F414444 
 9337      525F5400 
 9338              	.LASF200:
 9339 3b9a 4359424C 		.ascii	"CYBLE_GATT_READ_BLOB_REQ\000"
 9339      455F4741 
ARM GAS  C:\Users\Sarah\AppData\Local\Temp\ccqSJLdk.s 			page 266


 9339      54545F52 
 9339      4541445F 
 9339      424C4F42 
 9340              	.LASF703:
 9341 3bb3 474E5520 		.ascii	"GNU C 4.9.3 20150303 (release) [ARM/embedded-4_9-br"
 9341      4320342E 
 9341      392E3320 
 9341      32303135 
 9341      30333033 
 9342 3be6 616E6368 		.ascii	"anch revision 221220] -mcpu=cortex-m0 -mthumb -g -O"
 9342      20726576 
 9342      6973696F 
 9342      6E203232 
 9342      31323230 
 9343 3c19 30202D66 		.ascii	"0 -ffunction-sections -ffat-lto-objects\000"
 9343      66756E63 
 9343      74696F6E 
 9343      2D736563 
 9343      74696F6E 
 9344              	.LASF527:
 9345 3c41 4359424C 		.ascii	"CYBLE_EVT_PASSS_NOTIFICATION_ENABLED\000"
 9345      455F4556 
 9345      545F5041 
 9345      5353535F 
 9345      4E4F5449 
 9346              	.LASF284:
 9347 3c66 68616E64 		.ascii	"handleValPair\000"
 9347      6C655661 
 9347      6C506169 
 9347      7200
 9348              	.LASF347:
 9349 3c74 4359424C 		.ascii	"CYBLE_EVT_ANCSS_NOTIFICATION_DISABLED\000"
 9349      455F4556 
 9349      545F414E 
 9349      4353535F 
 9349      4E4F5449 
 9350              	.LASF275:
 9351 3c9a 636F6E6E 		.ascii	"connHandle\000"
 9351      48616E64 
 9351      6C6500
 9352              	.LASF649:
 9353 3ca5 4379426C 		.ascii	"CyBle_TimeOutEventHandler\000"
 9353      655F5469 
 9353      6D654F75 
 9353      74457665 
 9353      6E744861 
 9354              	.LASF314:
 9355 3cbf 70726F70 		.ascii	"properties\000"
 9355      65727469 
 9355      657300
 9356              	.LASF363:
 9357 3cca 4359424C 		.ascii	"CYBLE_EVT_BASS_NOTIFICATION_DISABLED\000"
 9357      455F4556 
 9357      545F4241 
 9357      53535F4E 
 9357      4F544946 
 9358              	.LASF534:
ARM GAS  C:\Users\Sarah\AppData\Local\Temp\ccqSJLdk.s 			page 267


 9359 3cef 4359424C 		.ascii	"CYBLE_EVT_PLXSS_WRITE_CHAR\000"
 9359      455F4556 
 9359      545F504C 
 9359      5853535F 
 9359      57524954 
 9360              	.LASF401:
 9361 3d0a 4359424C 		.ascii	"CYBLE_EVT_CPSS_NOTIFICATION_ENABLED\000"
 9361      455F4556 
 9361      545F4350 
 9361      53535F4E 
 9361      4F544946 
 9362              	.LASF164:
 9363 3d2e 4359424C 		.ascii	"CYBLE_GAP_AUTH_ERROR_PAIRING_NOT_SUPPORTED\000"
 9363      455F4741 
 9363      505F4155 
 9363      54485F45 
 9363      52524F52 
 9364              	.LASF570:
 9365 3d59 4359424C 		.ascii	"CYBLE_EVT_TPSC_READ_DESCR_RESPONSE\000"
 9365      455F4556 
 9365      545F5450 
 9365      53435F52 
 9365      4541445F 
 9366              	.LASF147:
 9367 3d7c 4359424C 		.ascii	"CYBLE_GENERIC_TO\000"
 9367      455F4745 
 9367      4E455249 
 9367      435F544F 
 9367      00
 9368              	.LASF618:
 9369 3d8d 4359424C 		.ascii	"CYBLE_CLIENT_STATE_DISCOVERED\000"
 9369      455F434C 
 9369      49454E54 
 9369      5F535441 
 9369      54455F44 
 9370              	.LASF630:
 9371 3dab 4359424C 		.ascii	"CYBLE_SRVI_GAP\000"
 9371      455F5352 
 9371      56495F47 
 9371      415000
 9372              	.LASF689:
 9373 3dba 6379426C 		.ascii	"cyBle_pendingFlashWrite\000"
 9373      655F7065 
 9373      6E64696E 
 9373      67466C61 
 9373      73685772 
 9374              	.LASF585:
 9375 3dd2 4359424C 		.ascii	"CYBLE_EVT_UDSC_ERROR_RESPONSE\000"
 9375      455F4556 
 9375      545F5544 
 9375      53435F45 
 9375      52524F52 
 9376              	.LASF53:
 9377 3df0 4359424C 		.ascii	"CYBLE_EVT_GATTC_FIND_INFO_RSP\000"
 9377      455F4556 
 9377      545F4741 
 9377      5454435F 
ARM GAS  C:\Users\Sarah\AppData\Local\Temp\ccqSJLdk.s 			page 268


 9377      46494E44 
 9378              	.LASF52:
 9379 3e0e 4359424C 		.ascii	"CYBLE_EVT_GATTC_READ_BY_TYPE_RSP\000"
 9379      455F4556 
 9379      545F4741 
 9379      5454435F 
 9379      52454144 
 9380              	.LASF528:
 9381 3e2f 4359424C 		.ascii	"CYBLE_EVT_PASSS_NOTIFICATION_DISABLED\000"
 9381      455F4556 
 9381      545F5041 
 9381      5353535F 
 9381      4E4F5449 
 9382              	.LASF399:
 9383 3e55 4359424C 		.ascii	"CYBLE_EVT_CGMSC_READ_DESCR_RESPONSE\000"
 9383      455F4556 
 9383      545F4347 
 9383      4D53435F 
 9383      52454144 
 9384              	.LASF470:
 9385 3e79 4359424C 		.ascii	"CYBLE_EVT_HIDSC_READ_CHAR_RESPONSE\000"
 9385      455F4556 
 9385      545F4849 
 9385      4453435F 
 9385      52454144 
 9386              	.LASF245:
 9387 3e9c 4359424C 		.ascii	"CYBLE_GATTS_ERR_OPERATION_FAILED\000"
 9387      455F4741 
 9387      5454535F 
 9387      4552525F 
 9387      4F504552 
 9388              	.LASF666:
 9389 3ebd 61747472 		.ascii	"attrLength\000"
 9389      4C656E67 
 9389      746800
 9390              	.LASF695:
 9391 3ec8 6379426C 		.ascii	"cyBle_state\000"
 9391      655F7374 
 9391      61746500 
 9392              	.LASF647:
 9393 3ed4 64697363 		.ascii	"discServInfo\000"
 9393      53657276 
 9393      496E666F 
 9393      00
 9394              	.LASF617:
 9395 3ee1 4359424C 		.ascii	"CYBLE_CLIENT_STATE_DESCR_DISCOVERING\000"
 9395      455F434C 
 9395      49454E54 
 9395      5F535441 
 9395      54455F44 
 9396              	.LASF567:
 9397 3f06 4359424C 		.ascii	"CYBLE_EVT_TPSS_NOTIFICATION_DISABLED\000"
 9397      455F4556 
 9397      545F5450 
 9397      53535F4E 
 9397      4F544946 
 9398              	.LASF564:
ARM GAS  C:\Users\Sarah\AppData\Local\Temp\ccqSJLdk.s 			page 269


 9399 3f2b 4359424C 		.ascii	"CYBLE_EVT_SCPSC_READ_DESCR_RESPONSE\000"
 9399      455F4556 
 9399      545F5343 
 9399      5053435F 
 9399      52454144 
 9400              	.LASF489:
 9401 3f4f 4359424C 		.ascii	"CYBLE_EVT_HRSC_WRITE_DESCR_RESPONSE\000"
 9401      455F4556 
 9401      545F4852 
 9401      53435F57 
 9401      52495445 
 9402              	.LASF519:
 9403 3f73 4359424C 		.ascii	"CYBLE_EVT_LNSS_WRITE_CHAR\000"
 9403      455F4556 
 9403      545F4C4E 
 9403      53535F57 
 9403      52495445 
 9404              	.LASF442:
 9405 3f8d 4359424C 		.ascii	"CYBLE_EVT_ESSS_CHAR_WRITE\000"
 9405      455F4556 
 9405      545F4553 
 9405      53535F43 
 9405      4841525F 
 9406              	.LASF182:
 9407 3fa7 70616972 		.ascii	"pairingProperties\000"
 9407      696E6750 
 9407      726F7065 
 9407      72746965 
 9407      7300
 9408              	.LASF59:
 9409 3fb9 4359424C 		.ascii	"CYBLE_EVT_GATTC_WRITE_RSP\000"
 9409      455F4556 
 9409      545F4741 
 9409      5454435F 
 9409      57524954 
 9410              	.LASF298:
 9411 3fd3 4359424C 		.ascii	"CYBLE_GATTC_READ_BY_TYPE_RSP_PARAM_T\000"
 9411      455F4741 
 9411      5454435F 
 9411      52454144 
 9411      5F42595F 
 9412              	.LASF611:
 9413 3ff8 4359424C 		.ascii	"CYBLE_STATE_DISCONNECTED\000"
 9413      455F5354 
 9413      4154455F 
 9413      44495343 
 9413      4F4E4E45 
 9414              	.LASF458:
 9415 4011 4359424C 		.ascii	"CYBLE_EVT_GLSC_READ_CHAR_RESPONSE\000"
 9415      455F4556 
 9415      545F474C 
 9415      53435F52 
 9415      4541445F 
 9416              	.LASF659:
 9417 4033 6C654D61 		.ascii	"leMask\000"
 9417      736B00
 9418              	.LASF615:
ARM GAS  C:\Users\Sarah\AppData\Local\Temp\ccqSJLdk.s 			page 270


 9419 403a 4359424C 		.ascii	"CYBLE_CLIENT_STATE_INCL_DISCOVERING\000"
 9419      455F434C 
 9419      49454E54 
 9419      5F535441 
 9419      54455F49 
 9420              	.LASF644:
 9421 405e 4379426C 		.ascii	"CyBle_NotificationEventHandler\000"
 9421      655F4E6F 
 9421      74696669 
 9421      63617469 
 9421      6F6E4576 
 9422              	.LASF643:
 9423 407d 4379426C 		.ascii	"CyBle_GattcWriteResponseEventHandler\000"
 9423      655F4761 
 9423      74746357 
 9423      72697465 
 9423      52657370 
 9424              	.LASF552:
 9425 40a2 4359424C 		.ascii	"CYBLE_EVT_RSCSC_NOTIFICATION\000"
 9425      455F4556 
 9425      545F5253 
 9425      4353435F 
 9425      4E4F5449 
 9426              	.LASF29:
 9427 40bf 4359424C 		.ascii	"CYBLE_EVT_GAPP_ADVERTISEMENT_START_STOP\000"
 9427      455F4556 
 9427      545F4741 
 9427      50505F41 
 9427      44564552 
 9428              	.LASF377:
 9429 40e7 4359424C 		.ascii	"CYBLE_EVT_BLSS_INDICATION_CONFIRMED\000"
 9429      455F4556 
 9429      545F424C 
 9429      53535F49 
 9429      4E444943 
 9430              	.LASF596:
 9431 410b 4359424C 		.ascii	"CYBLE_EVT_WPTSC_READ_DESCR_RESPONSE\000"
 9431      455F4556 
 9431      545F5750 
 9431      5453435F 
 9431      52454144 
 9432              	.LASF349:
 9433 412f 4359424C 		.ascii	"CYBLE_EVT_ANCSC_NOTIFICATION\000"
 9433      455F4556 
 9433      545F414E 
 9433      4353435F 
 9433      4E4F5449 
 9434              	.LASF675:
 9435 414c 4379426C 		.ascii	"CyBle_NextCharDiscovery\000"
 9435      655F4E65 
 9435      78744368 
 9435      61724469 
 9435      73636F76 
 9436              	.LASF673:
 9437 4164 61747472 		.ascii	"attrVal\000"
 9437      56616C00 
 9438              	.LASF384:
ARM GAS  C:\Users\Sarah\AppData\Local\Temp\ccqSJLdk.s 			page 271


 9439 416c 4359424C 		.ascii	"CYBLE_EVT_BLSC_WRITE_DESCR_RESPONSE\000"
 9439      455F4556 
 9439      545F424C 
 9439      53435F57 
 9439      52495445 
 9440              	.LASF9:
 9441 4190 75696E74 		.ascii	"uint8\000"
 9441      3800
 9442              	.LASF498:
 9443 4196 4359424C 		.ascii	"CYBLE_EVT_HTSC_READ_CHAR_RESPONSE\000"
 9443      455F4556 
 9443      545F4854 
 9443      53435F52 
 9443      4541445F 
 9444              	.LASF687:
 9445 41b8 6379426C 		.ascii	"cyBle_authInfo\000"
 9445      655F6175 
 9445      7468496E 
 9445      666F00
 9446              	.LASF37:
 9447 41c7 4359424C 		.ascii	"CYBLE_EVT_GAP_KEYPRESS_NOTIFICATION\000"
 9447      455F4556 
 9447      545F4741 
 9447      505F4B45 
 9447      59505245 
 9448              	.LASF533:
 9449 41eb 4359424C 		.ascii	"CYBLE_EVT_PASSC_WRITE_DESCR_RESPONSE\000"
 9449      455F4556 
 9449      545F5041 
 9449      5353435F 
 9449      57524954 
 9450              	.LASF654:
 9451 4210 4379426C 		.ascii	"CyBle_L2Cap_ConnParamUpdateRspEventHandler\000"
 9451      655F4C32 
 9451      4361705F 
 9451      436F6E6E 
 9451      50617261 
 9452              	.LASF206:
 9453 423b 4359424C 		.ascii	"CYBLE_GATT_WRITE_REQ\000"
 9453      455F4741 
 9453      54545F57 
 9453      52495445 
 9453      5F524551 
 9454              	.LASF2:
 9455 4250 73686F72 		.ascii	"short int\000"
 9455      7420696E 
 9455      7400
 9456              	.LASF181:
 9457 425a 61757468 		.ascii	"authErr\000"
 9457      45727200 
 9458              	.LASF385:
 9459 4262 4359424C 		.ascii	"CYBLE_EVT_BMSS_WRITE_CHAR\000"
 9459      455F4556 
 9459      545F424D 
 9459      53535F57 
 9459      52495445 
 9460              	.LASF333:
ARM GAS  C:\Users\Sarah\AppData\Local\Temp\ccqSJLdk.s 			page 272


 9461 427c 4359424C 		.ascii	"CYBLE_EVT_GATTS_INDICATION_DISABLED\000"
 9461      455F4556 
 9461      545F4741 
 9461      5454535F 
 9461      494E4449 
 9462              	.LASF306:
 9463 42a0 72616E67 		.ascii	"range\000"
 9463      6500
 9464              	.LASF108:
 9465 42a6 4359424C 		.ascii	"CYBLE_ERROR_HARDWARE_FAILURE\000"
 9465      455F4552 
 9465      524F525F 
 9465      48415244 
 9465      57415245 
 9466              	.LASF239:
 9467 42c3 4359424C 		.ascii	"CYBLE_GATT_ERR_CPS_INAPPROPRIATE_CONNECTION_PARAMET"
 9467      455F4741 
 9467      54545F45 
 9467      52525F43 
 9467      50535F49 
 9468 42f6 45525300 		.ascii	"ERS\000"
 9469              	.LASF396:
 9470 42fa 4359424C 		.ascii	"CYBLE_EVT_CGMSC_NOTIFICATION\000"
 9470      455F4556 
 9470      545F4347 
 9470      4D53435F 
 9470      4E4F5449 
 9471              	.LASF225:
 9472 4317 4359424C 		.ascii	"CYBLE_GATT_ERR_REQUEST_NOT_SUPPORTED\000"
 9472      455F4741 
 9472      54545F45 
 9472      52525F52 
 9472      45515545 
 9473              	.LASF46:
 9474 433c 4359424C 		.ascii	"CYBLE_EVT_GATTC_ERROR_RSP\000"
 9474      455F4556 
 9474      545F4741 
 9474      5454435F 
 9474      4552524F 
 9475              	.LASF158:
 9476 4356 4359424C 		.ascii	"CYBLE_GAP_IOCAP_KEYBOARD_DISPLAY\000"
 9476      455F4741 
 9476      505F494F 
 9476      4341505F 
 9476      4B455942 
 9477              	.LASF274:
 9478 4377 4359424C 		.ascii	"CYBLE_GATT_ATTR_HANDLE_RANGE_T\000"
 9478      455F4741 
 9478      54545F41 
 9478      5454525F 
 9478      48414E44 
 9479              	.LASF447:
 9480 4396 4359424C 		.ascii	"CYBLE_EVT_ESSC_WRITE_CHAR_RESPONSE\000"
 9480      455F4556 
 9480      545F4553 
 9480      53435F57 
 9480      52495445 
ARM GAS  C:\Users\Sarah\AppData\Local\Temp\ccqSJLdk.s 			page 273


 9481              	.LASF289:
 9482 43b9 4359424C 		.ascii	"CYBLE_GATTC_READ_RSP_PARAM_T\000"
 9482      455F4741 
 9482      5454435F 
 9482      52454144 
 9482      5F525350 
 9483              	.LASF353:
 9484 43d6 4359424C 		.ascii	"CYBLE_EVT_ANCSC_ERROR_RESPONSE\000"
 9484      455F4556 
 9484      545F414E 
 9484      4353435F 
 9484      4552524F 
 9485              	.LASF367:
 9486 43f5 4359424C 		.ascii	"CYBLE_EVT_BASC_WRITE_DESCR_RESPONSE\000"
 9486      455F4556 
 9486      545F4241 
 9486      53435F57 
 9486      52495445 
 9487              	.LASF335:
 9488 4419 4359424C 		.ascii	"CYBLE_EVT_GATTC_SRVC_DISCOVERY_FAILED\000"
 9488      455F4556 
 9488      545F4741 
 9488      5454435F 
 9488      53525643 
 9489              	.LASF450:
 9490 443f 4359424C 		.ascii	"CYBLE_EVT_GLSS_INDICATION_ENABLED\000"
 9490      455F4556 
 9490      545F474C 
 9490      53535F49 
 9490      4E444943 
 9491              	.LASF356:
 9492 4461 4359424C 		.ascii	"CYBLE_EVT_ANSS_CHAR_WRITE\000"
 9492      455F4556 
 9492      545F414E 
 9492      53535F43 
 9492      4841525F 
 9493              	.LASF634:
 9494 447b 4359424C 		.ascii	"CYBLE_SRVI_COUNT\000"
 9494      455F5352 
 9494      56495F43 
 9494      4F554E54 
 9494      00
 9495              	.LASF74:
 9496 448c 4359424C 		.ascii	"CYBLE_EVT_L2CAP_CBFC_CONN_IND\000"
 9496      455F4556 
 9496      545F4C32 
 9496      4341505F 
 9496      43424643 
 9497              	.LASF62:
 9498 44aa 4359424C 		.ascii	"CYBLE_EVT_GATTS_EXEC_WRITE_REQ\000"
 9498      455F4556 
 9498      545F4741 
 9498      5454535F 
 9498      45584543 
 9499              	.LASF23:
 9500 44c9 4359424C 		.ascii	"CYBLE_EVT_GAPC_SCAN_PROGRESS_RESULT\000"
 9500      455F4556 
ARM GAS  C:\Users\Sarah\AppData\Local\Temp\ccqSJLdk.s 			page 274


 9500      545F4741 
 9500      50435F53 
 9500      43414E5F 
 9501              	.LASF696:
 9502 44ed 6379426C 		.ascii	"cyBle_connHandle\000"
 9502      655F636F 
 9502      6E6E4861 
 9502      6E646C65 
 9502      00
 9503              	.LASF479:
 9504 44fe 4359424C 		.ascii	"CYBLE_EVT_HPSC_READ_DESCR_RESPONSE\000"
 9504      455F4556 
 9504      545F4850 
 9504      53435F52 
 9504      4541445F 
 9505              	.LASF430:
 9506 4521 4359424C 		.ascii	"CYBLE_EVT_CTSS_CHAR_WRITE\000"
 9506      455F4556 
 9506      545F4354 
 9506      53535F43 
 9506      4841525F 
 9507              	.LASF572:
 9508 453b 4359424C 		.ascii	"CYBLE_EVT_UDSS_INDICATION_ENABLED\000"
 9508      455F4556 
 9508      545F5544 
 9508      53535F49 
 9508      4E444943 
 9509              	.LASF477:
 9510 455d 4359424C 		.ascii	"CYBLE_EVT_HPSC_NOTIFICATION\000"
 9510      455F4556 
 9510      545F4850 
 9510      53435F4E 
 9510      4F544946 
 9511              	.LASF257:
 9512 4579 4359424C 		.ascii	"CYBLE_GATT_ERR_CODE_T\000"
 9512      455F4741 
 9512      54545F45 
 9512      52525F43 
 9512      4F44455F 
 9513              	.LASF325:
 9514 458f 63636364 		.ascii	"cccdCount\000"
 9514      436F756E 
 9514      7400
 9515              	.LASF252:
 9516 4599 4359424C 		.ascii	"CYBLE_GATT_ERR_ANCS_INVALID_PARAMETER\000"
 9516      455F4741 
 9516      54545F45 
 9516      52525F41 
 9516      4E43535F 
 9517              	.LASF94:
 9518 45bf 4359424C 		.ascii	"CYBLE_ERROR_GAP_ROLE\000"
 9518      455F4552 
 9518      524F525F 
 9518      4741505F 
 9518      524F4C45 
 9519              	.LASF492:
 9520 45d4 4359424C 		.ascii	"CYBLE_EVT_HTSS_INDICATION_ENABLED\000"
ARM GAS  C:\Users\Sarah\AppData\Local\Temp\ccqSJLdk.s 			page 275


 9520      455F4556 
 9520      545F4854 
 9520      53535F49 
 9520      4E444943 
 9521              	.LASF683:
 9522 45f6 6379426C 		.ascii	"cyBle_stackMemoryRam\000"
 9522      655F7374 
 9522      61636B4D 
 9522      656D6F72 
 9522      7952616D 
 9523              	.LASF648:
 9524 460b 4379426C 		.ascii	"CyBle_ReadMultipleResponseEventHandler\000"
 9524      655F5265 
 9524      61644D75 
 9524      6C746970 
 9524      6C655265 
 9525              	.LASF583:
 9526 4632 4359424C 		.ascii	"CYBLE_EVT_UDSC_READ_DESCR_RESPONSE\000"
 9526      455F4556 
 9526      545F5544 
 9526      53435F52 
 9526      4541445F 
 9527              	.LASF437:
 9528 4655 4359424C 		.ascii	"CYBLE_EVT_ESSS_NOTIFICATION_ENABLED\000"
 9528      455F4556 
 9528      545F4553 
 9528      53535F4E 
 9528      4F544946 
 9529              	.LASF44:
 9530 4679 4359424C 		.ascii	"CYBLE_EVT_GAP_SCAN_REQ_RECVD\000"
 9530      455F4556 
 9530      545F4741 
 9530      505F5343 
 9530      414E5F52 
 9531              	.LASF628:
 9532 4696 63656E74 		.ascii	"centralAddrResolutionCharHandle\000"
 9532      72616C41 
 9532      64647252 
 9532      65736F6C 
 9532      7574696F 
 9533              	.LASF365:
 9534 46b6 4359424C 		.ascii	"CYBLE_EVT_BASC_READ_CHAR_RESPONSE\000"
 9534      455F4556 
 9534      545F4241 
 9534      53435F52 
 9534      4541445F 
 9535              	.LASF457:
 9536 46d8 4359424C 		.ascii	"CYBLE_EVT_GLSC_NOTIFICATION\000"
 9536      455F4556 
 9536      545F474C 
 9536      53435F4E 
 9536      4F544946 
 9537              	.LASF141:
 9538 46f4 62644164 		.ascii	"bdAddr\000"
 9538      647200
 9539              	.LASF249:
 9540 46fb 4359424C 		.ascii	"CYBLE_GATT_ERR_ANS_COMMAND_NOT_SUPPORTED\000"
ARM GAS  C:\Users\Sarah\AppData\Local\Temp\ccqSJLdk.s 			page 276


 9540      455F4741 
 9540      54545F45 
 9540      52525F41 
 9540      4E535F43 
 9541              	.LASF655:
 9542 4724 72657370 		.ascii	"response\000"
 9542      6F6E7365 
 9542      00
 9543              	.LASF562:
 9544 472d 4359424C 		.ascii	"CYBLE_EVT_SCPSS_SCAN_INT_WIN_CHAR_WRITE\000"
 9544      455F4556 
 9544      545F5343 
 9544      5053535F 
 9544      5343414E 
 9545              	.LASF607:
 9546 4755 4359424C 		.ascii	"CYBLE_STATE_INITIALIZING\000"
 9546      455F5354 
 9546      4154455F 
 9546      494E4954 
 9546      49414C49 
 9547              	.LASF199:
 9548 476e 4359424C 		.ascii	"CYBLE_GATT_READ_RSP\000"
 9548      455F4741 
 9548      54545F52 
 9548      4541445F 
 9548      52535000 
 9549              	.LASF513:
 9550 4782 4359424C 		.ascii	"CYBLE_EVT_LLSC_WRITE_CHAR_RESPONSE\000"
 9550      455F4556 
 9550      545F4C4C 
 9550      53435F57 
 9550      52495445 
 9551              	.LASF91:
 9552 47a5 4359424C 		.ascii	"CYBLE_ERROR_NO_CONNECTION\000"
 9552      455F4552 
 9552      524F525F 
 9552      4E4F5F43 
 9552      4F4E4E45 
 9553              	.LASF123:
 9554 47bf 4359424C 		.ascii	"CYBLE_LL_PWR_LVL_0_DBM\000"
 9554      455F4C4C 
 9554      5F505752 
 9554      5F4C564C 
 9554      5F305F44 
 9555              	.LASF127:
 9556 47d6 4359424C 		.ascii	"CYBLE_LL_ADV_CH_TYPE\000"
 9556      455F4C4C 
 9556      5F414456 
 9556      5F43485F 
 9556      54595045 
 9557              	.LASF388:
 9558 47eb 4359424C 		.ascii	"CYBLE_EVT_BMSC_READ_DESCR_RESPONSE\000"
 9558      455F4556 
 9558      545F424D 
 9558      53435F52 
 9558      4541445F 
 9559              	.LASF83:
ARM GAS  C:\Users\Sarah\AppData\Local\Temp\ccqSJLdk.s 			page 277


 9560 480e 4359424C 		.ascii	"CYBLE_EVT_LE_PING_AUTH_TIMEOUT\000"
 9560      455F4556 
 9560      545F4C45 
 9560      5F50494E 
 9560      475F4155 
 9561              	.LASF273:
 9562 482d 656E6448 		.ascii	"endHandle\000"
 9562      616E646C 
 9562      6500
 9563              	.LASF390:
 9564 4837 4359424C 		.ascii	"CYBLE_EVT_CGMSS_INDICATION_DISABLED\000"
 9564      455F4556 
 9564      545F4347 
 9564      4D53535F 
 9564      494E4449 
 9565              	.LASF697:
 9566 485b 6379426C 		.ascii	"cyBle_busyStatus\000"
 9566      655F6275 
 9566      73795374 
 9566      61747573 
 9566      00
 9567              	.LASF691:
 9568 486c 6379426C 		.ascii	"cyBle_attValuesCCCD\000"
 9568      655F6174 
 9568      7456616C 
 9568      75657343 
 9568      43434400 
 9569              	.LASF345:
 9570 4880 4359424C 		.ascii	"CYBLE_EVT_GATTC_DISCOVERY_COMPLETE\000"
 9570      455F4556 
 9570      545F4741 
 9570      5454435F 
 9570      44495343 
 9571              	.LASF288:
 9572 48a3 4359424C 		.ascii	"CYBLE_GATTC_FIND_INFO_REQ_T\000"
 9572      455F4741 
 9572      5454435F 
 9572      46494E44 
 9572      5F494E46 
 9573              	.LASF394:
 9574 48bf 4359424C 		.ascii	"CYBLE_EVT_CGMSS_WRITE_CHAR\000"
 9574      455F4556 
 9574      545F4347 
 9574      4D53535F 
 9574      57524954 
 9575              	.LASF461:
 9576 48da 4359424C 		.ascii	"CYBLE_EVT_GLSC_WRITE_DESCR_RESPONSE\000"
 9576      455F4556 
 9576      545F474C 
 9576      53435F57 
 9576      52495445 
 9577              	.LASF65:
 9578 48fe 4359424C 		.ascii	"CYBLE_EVT_GATTC_HANDLE_VALUE_IND\000"
 9578      455F4556 
 9578      545F4741 
 9578      5454435F 
 9578      48414E44 
ARM GAS  C:\Users\Sarah\AppData\Local\Temp\ccqSJLdk.s 			page 278


 9579              	.LASF415:
 9580 491f 4359424C 		.ascii	"CYBLE_EVT_CPSC_SCAN_PROGRESS_RESULT\000"
 9580      455F4556 
 9580      545F4350 
 9580      53435F53 
 9580      43414E5F 
 9581              	.LASF556:
 9582 4943 4359424C 		.ascii	"CYBLE_EVT_RSCSC_READ_DESCR_RESPONSE\000"
 9582      455F4556 
 9582      545F5253 
 9582      4353435F 
 9582      52454144 
 9583              	.LASF657:
 9584 4967 6576656E 		.ascii	"eventCode\000"
 9584      74436F64 
 9584      6500
 9585              	.LASF97:
 9586 4971 4359424C 		.ascii	"CYBLE_ERROR_SEC_FAILED\000"
 9586      455F4552 
 9586      524F525F 
 9586      5345435F 
 9586      4641494C 
 9587              	.LASF21:
 9588 4988 4359424C 		.ascii	"CYBLE_EVT_STACK_BUSY_STATUS\000"
 9588      455F4556 
 9588      545F5354 
 9588      41434B5F 
 9588      42555359 
 9589              	.LASF186:
 9590 49a4 636F6E6E 		.ascii	"connLatency\000"
 9590      4C617465 
 9590      6E637900 
 9591              	.LASF171:
 9592 49b0 4359424C 		.ascii	"CYBLE_GAP_AUTH_ERROR_NUMERIC_COMPARISON_FAILED\000"
 9592      455F4741 
 9592      505F4155 
 9592      54485F45 
 9592      52524F52 
 9593              	.LASF155:
 9594 49df 4359424C 		.ascii	"CYBLE_GAP_IOCAP_DISPLAY_YESNO\000"
 9594      455F4741 
 9594      505F494F 
 9594      4341505F 
 9594      44495350 
 9595              	.LASF501:
 9596 49fd 4359424C 		.ascii	"CYBLE_EVT_HTSC_WRITE_DESCR_RESPONSE\000"
 9596      455F4556 
 9596      545F4854 
 9596      53435F57 
 9596      52495445 
 9597              	.LASF35:
 9598 4a21 4359424C 		.ascii	"CYBLE_EVT_GAP_KEYINFO_EXCHNGE_CMPLT\000"
 9598      455F4556 
 9598      545F4741 
 9598      505F4B45 
 9598      59494E46 
 9599              	.LASF211:
ARM GAS  C:\Users\Sarah\AppData\Local\Temp\ccqSJLdk.s 			page 279


 9600 4a45 4359424C 		.ascii	"CYBLE_GATT_EXECUTE_WRITE_REQ\000"
 9600      455F4741 
 9600      54545F45 
 9600      58454355 
 9600      54455F57 
 9601              	.LASF597:
 9602 4a62 4359424C 		.ascii	"CYBLE_EVT_WPTSC_WRITE_DESCR_RESPONSE\000"
 9602      455F4556 
 9602      545F5750 
 9602      5453435F 
 9602      57524954 
 9603              	.LASF133:
 9604 4a87 4359424C 		.ascii	"CYBLE_BLESS_PWR_IN_DB_T\000"
 9604      455F424C 
 9604      4553535F 
 9604      5057525F 
 9604      494E5F44 
 9605              	.LASF294:
 9606 4a9f 61747472 		.ascii	"attrLen\000"
 9606      4C656E00 
 9607              	.LASF129:
 9608 4aa7 4359424C 		.ascii	"CYBLE_LL_MAX_CH_TYPE\000"
 9608      455F4C4C 
 9608      5F4D4158 
 9608      5F43485F 
 9608      54595045 
 9609              	.LASF71:
 9610 4abc 4359424C 		.ascii	"CYBLE_EVT_L2CAP_CONN_PARAM_UPDATE_REQ\000"
 9610      455F4556 
 9610      545F4C32 
 9610      4341505F 
 9610      434F4E4E 
 9611              	.LASF393:
 9612 4ae2 4359424C 		.ascii	"CYBLE_EVT_CGMSS_NOTIFICATION_DISABLED\000"
 9612      455F4556 
 9612      545F4347 
 9612      4D53535F 
 9612      4E4F5449 
 9613              	.LASF679:
 9614 4b08 4379426C 		.ascii	"CyBle_NextCharDscrDiscovery\000"
 9614      655F4E65 
 9614      78744368 
 9614      61724473 
 9614      63724469 
 9615              	.LASF136:
 9616 4b24 4359424C 		.ascii	"CYBLE_PROTOCOL_REQ_T\000"
 9616      455F5052 
 9616      4F544F43 
 9616      4F4C5F52 
 9616      45515F54 
 9617              	.LASF638:
 9618 4b39 67617474 		.ascii	"gattErr\000"
 9618      45727200 
 9619              	.LASF336:
 9620 4b41 4359424C 		.ascii	"CYBLE_EVT_GATTC_INCL_DISCOVERY_FAILED\000"
 9620      455F4556 
 9620      545F4741 
ARM GAS  C:\Users\Sarah\AppData\Local\Temp\ccqSJLdk.s 			page 280


 9620      5454435F 
 9620      494E434C 
 9621              	.LASF222:
 9622 4b67 4359424C 		.ascii	"CYBLE_GATT_ERR_WRITE_NOT_PERMITTED\000"
 9622      455F4741 
 9622      54545F45 
 9622      52525F57 
 9622      52495445 
 9623              	.LASF632:
 9624 4b8a 4359424C 		.ascii	"CYBLE_SRVI_CUSTOMS\000"
 9624      455F5352 
 9624      56495F43 
 9624      5553544F 
 9624      4D5300
 9625              	.LASF185:
 9626 4b9d 636F6E6E 		.ascii	"connIntv\000"
 9626      496E7476 
 9626      00
 9627              	.LASF3:
 9628 4ba6 73686F72 		.ascii	"short unsigned int\000"
 9628      7420756E 
 9628      7369676E 
 9628      65642069 
 9628      6E7400
 9629              	.LASF234:
 9630 4bb9 4359424C 		.ascii	"CYBLE_GATT_ERR_INSUFFICIENT_ENCRYPTION\000"
 9630      455F4741 
 9630      54545F45 
 9630      52525F49 
 9630      4E535546 
 9631              	.LASF524:
 9632 4be0 4359424C 		.ascii	"CYBLE_EVT_LNSC_READ_DESCR_RESPONSE\000"
 9632      455F4556 
 9632      545F4C4E 
 9632      53435F52 
 9632      4541445F 
 9633              	.LASF608:
 9634 4c03 4359424C 		.ascii	"CYBLE_STATE_CONNECTED\000"
 9634      455F5354 
 9634      4154455F 
 9634      434F4E4E 
 9634      45435445 
 9635              	.LASF330:
 9636 4c19 4359424C 		.ascii	"CYBLE_LONG_TERM_KEY_REQUEST_REPLY\000"
 9636      455F4C4F 
 9636      4E475F54 
 9636      45524D5F 
 9636      4B45595F 
 9637              	.LASF268:
 9638 4c3b 61637475 		.ascii	"actualLen\000"
 9638      616C4C65 
 9638      6E00
 9639              	.LASF321:
 9640 4c45 63636364 		.ascii	"cccdHandle\000"
 9640      48616E64 
 9640      6C6500
 9641              	.LASF204:
ARM GAS  C:\Users\Sarah\AppData\Local\Temp\ccqSJLdk.s 			page 281


 9642 4c50 4359424C 		.ascii	"CYBLE_GATT_READ_BY_GROUP_REQ\000"
 9642      455F4741 
 9642      54545F52 
 9642      4541445F 
 9642      42595F47 
 9643              	.LASF665:
 9644 4c6d 64617461 		.ascii	"dataLength\000"
 9644      4C656E67 
 9644      746800
 9645              	.LASF456:
 9646 4c78 4359424C 		.ascii	"CYBLE_EVT_GLSC_INDICATION\000"
 9646      455F4556 
 9646      545F474C 
 9646      53435F49 
 9646      4E444943 
 9647              	.LASF407:
 9648 4c92 4359424C 		.ascii	"CYBLE_EVT_CPSS_BROADCAST_DISABLED\000"
 9648      455F4556 
 9648      545F4350 
 9648      53535F42 
 9648      524F4144 
 9649              	.LASF266:
 9650 4cb4 61747449 		.ascii	"attId\000"
 9650      6400
 9651              	.LASF87:
 9652 4cba 4359424C 		.ascii	"CYBLE_ERROR_INVALID_OPERATION\000"
 9652      455F4552 
 9652      524F525F 
 9652      494E5641 
 9652      4C49445F 
 9653              	.LASF20:
 9654 4cd8 4359424C 		.ascii	"CYBLE_EVT_HCI_STATUS\000"
 9654      455F4556 
 9654      545F4843 
 9654      495F5354 
 9654      41545553 
 9655              	.LASF48:
 9656 4ced 4359424C 		.ascii	"CYBLE_EVT_GATT_DISCONNECT_IND\000"
 9656      455F4556 
 9656      545F4741 
 9656      54545F44 
 9656      4953434F 
 9657              	.LASF187:
 9658 4d0b 73757065 		.ascii	"supervisionTO\000"
 9658      72766973 
 9658      696F6E54 
 9658      4F00
 9659              	.LASF146:
 9660 4d19 4359424C 		.ascii	"CYBLE_GATT_RSP_TO\000"
 9660      455F4741 
 9660      54545F52 
 9660      53505F54 
 9660      4F00
 9661              	.LASF331:
 9662 4d2b 4359424C 		.ascii	"CYBLE_KEY_EXCHANGE_INFO_REQUEST_REPLY\000"
 9662      455F4B45 
 9662      595F4558 
ARM GAS  C:\Users\Sarah\AppData\Local\Temp\ccqSJLdk.s 			page 282


 9662      4348414E 
 9662      47455F49 
 9663              	.LASF81:
 9664 4d51 4359424C 		.ascii	"CYBLE_EVT_L2CAP_CBFC_DATA_WRITE_IND\000"
 9664      455F4556 
 9664      545F4C32 
 9664      4341505F 
 9664      43424643 
 9665              	.LASF329:
 9666 4d75 4359424C 		.ascii	"CYBLE_PASSKEY_ENTRY_REQUEST_REPLY\000"
 9666      455F5041 
 9666      53534B45 
 9666      595F454E 
 9666      5452595F 
 9667              	.LASF374:
 9668 4d97 4359424C 		.ascii	"CYBLE_EVT_BCSC_WRITE_DESCR_RESPONSE\000"
 9668      455F4556 
 9668      545F4243 
 9668      53435F57 
 9668      52495445 
 9669              	.LASF602:
 9670 4dbb 4359424C 		.ascii	"CYBLE_EVT_WSSC_READ_CHAR_RESPONSE\000"
 9670      455F4556 
 9670      545F5753 
 9670      53435F52 
 9670      4541445F 
 9671              	.LASF70:
 9672 4ddd 4359424C 		.ascii	"CYBLE_EVT_GATTC_LONG_PROCEDURE_END\000"
 9672      455F4556 
 9672      545F4741 
 9672      5454435F 
 9672      4C4F4E47 
 9673              	.LASF357:
 9674 4e00 4359424C 		.ascii	"CYBLE_EVT_ANSC_NOTIFICATION\000"
 9674      455F4556 
 9674      545F414E 
 9674      53435F4E 
 9674      4F544946 
 9675              	.LASF31:
 9676 4e1c 4359424C 		.ascii	"CYBLE_EVT_GAP_DEVICE_DISCONNECTED\000"
 9676      455F4556 
 9676      545F4741 
 9676      505F4445 
 9676      56494345 
 9677              	.LASF464:
 9678 4e3e 4359424C 		.ascii	"CYBLE_EVT_HIDSS_BOOT_MODE_ENTER\000"
 9678      455F4556 
 9678      545F4849 
 9678      4453535F 
 9678      424F4F54 
 9679              	.LASF66:
 9680 4e5e 4359424C 		.ascii	"CYBLE_EVT_GATTS_HANDLE_VALUE_CNF\000"
 9680      455F4556 
 9680      545F4741 
 9680      5454535F 
 9680      48414E44 
 9681              	.LASF505:
ARM GAS  C:\Users\Sarah\AppData\Local\Temp\ccqSJLdk.s 			page 283


 9682 4e7f 4359424C 		.ascii	"CYBLE_EVT_IPSC_READ_MULTIPLE_CHAR_RESPONSE\000"
 9682      455F4556 
 9682      545F4950 
 9682      53435F52 
 9682      4541445F 
 9683              	.LASF426:
 9684 4eaa 4359424C 		.ascii	"CYBLE_EVT_CSCSC_READ_DESCR_RESPONSE\000"
 9684      455F4556 
 9684      545F4353 
 9684      4353435F 
 9684      52454144 
 9685              	.LASF10:
 9686 4ece 75696E74 		.ascii	"uint16\000"
 9686      313600
 9687              	.LASF350:
 9688 4ed5 4359424C 		.ascii	"CYBLE_EVT_ANCSC_WRITE_CHAR_RESPONSE\000"
 9688      455F4556 
 9688      545F414E 
 9688      4353435F 
 9688      57524954 
 9689              	.LASF95:
 9690 4ef9 4359424C 		.ascii	"CYBLE_ERROR_TX_POWER_READ\000"
 9690      455F4552 
 9690      524F525F 
 9690      54585F50 
 9690      4F574552 
 9691              	.LASF546:
 9692 4f13 4359424C 		.ascii	"CYBLE_EVT_RSCSS_NOTIFICATION_ENABLED\000"
 9692      455F4556 
 9692      545F5253 
 9692      4353535F 
 9692      4E4F5449 
 9693              	.LASF263:
 9694 4f38 4359424C 		.ascii	"CYBLE_UUID_T\000"
 9694      455F5555 
 9694      49445F54 
 9694      00
 9695              	.LASF400:
 9696 4f45 4359424C 		.ascii	"CYBLE_EVT_CGMSC_WRITE_DESCR_RESPONSE\000"
 9696      455F4556 
 9696      545F4347 
 9696      4D53435F 
 9696      57524954 
 9697              	.LASF355:
 9698 4f6a 4359424C 		.ascii	"CYBLE_EVT_ANSS_NOTIFICATION_DISABLED\000"
 9698      455F4556 
 9698      545F414E 
 9698      53535F4E 
 9698      4F544946 
 9699              	.LASF497:
 9700 4f8f 4359424C 		.ascii	"CYBLE_EVT_HTSC_INDICATION\000"
 9700      455F4556 
 9700      545F4854 
 9700      53435F49 
 9700      4E444943 
 9701              	.LASF315:
 9702 4fa9 76616C75 		.ascii	"valueHandle\000"
ARM GAS  C:\Users\Sarah\AppData\Local\Temp\ccqSJLdk.s 			page 284


 9702      6548616E 
 9702      646C6500 
 9703              	.LASF462:
 9704 4fb5 4359424C 		.ascii	"CYBLE_EVT_HIDSS_NOTIFICATION_ENABLED\000"
 9704      455F4556 
 9704      545F4849 
 9704      4453535F 
 9704      4E4F5449 
 9705              	.LASF560:
 9706 4fda 4359424C 		.ascii	"CYBLE_EVT_SCPSS_NOTIFICATION_ENABLED\000"
 9706      455F4556 
 9706      545F5343 
 9706      5053535F 
 9706      4E4F5449 
 9707              	.LASF494:
 9708 4fff 4359424C 		.ascii	"CYBLE_EVT_HTSS_INDICATION_CONFIRMED\000"
 9708      455F4556 
 9708      545F4854 
 9708      53535F49 
 9708      4E444943 
 9709              	.LASF590:
 9710 5023 4359424C 		.ascii	"CYBLE_EVT_WPTSS_INDICATION_CONFIRMED\000"
 9710      455F4556 
 9710      545F5750 
 9710      5453535F 
 9710      494E4449 
 9711              	.LASF484:
 9712 5048 4359424C 		.ascii	"CYBLE_EVT_HRSS_NOTIFICATION_DISABLED\000"
 9712      455F4556 
 9712      545F4852 
 9712      53535F4E 
 9712      4F544946 
 9713              		.ident	"GCC: (GNU Tools for ARM Embedded Processors) 4.9.3 20150303 (release) [ARM/embedded-4_9-br
