ARM GAS  C:\Users\Sarah\AppData\Local\Temp\ccqSJLdk.s 			page 1


   1              		.cpu cortex-m0
   2              		.fpu softvfp
   3              		.eabi_attribute 20, 1
   4              		.eabi_attribute 21, 1
   5              		.eabi_attribute 23, 3
   6              		.eabi_attribute 24, 1
   7              		.eabi_attribute 25, 1
   8              		.eabi_attribute 26, 1
   9              		.eabi_attribute 30, 6
  10              		.eabi_attribute 34, 0
  11              		.eabi_attribute 18, 4
  12              		.code	16
  13              		.file	"BLE_1_eventHandler.c"
  14              		.text
  15              	.Ltext0:
  16              		.cfi_sections	.debug_frame
  17              		.comm	cyBle_connHandle,2,4
  18              		.comm	cyBle_eventHandlerFlag,1,1
  19              		.comm	cyBle_busyStatus,1,1
  20              		.comm	cyBle_scanningIntervalType,1,1
  21              		.comm	cyBle_disCount,1,1
  22              		.bss
  23              		.align	2
  24              	cyBle_discInclInfo:
  25 0000 00000000 		.space	24
  25      00000000 
  25      00000000 
  25      00000000 
  25      00000000 
  26              		.global	cyBle_serverInfo
  27              		.data
  28              		.align	2
  29              		.type	cyBle_serverInfo, %object
  30              		.size	cyBle_serverInfo, 18
  31              	cyBle_serverInfo:
  32 0000 0000     		.short	0
  33 0002 0000     		.short	0
  34 0004 0018     		.short	6144
  35 0006 0000     		.short	0
  36 0008 0000     		.short	0
  37 000a 0118     		.short	6145
  38 000c 0000     		.short	0
  39 000e 0000     		.short	0
  40 0010 0000     		.short	0
  41              		.comm	cyBle_gapc,12,4
  42              		.global	cyBle_authInfo
  43 0012 0000     		.align	2
  44              		.type	cyBle_authInfo, %object
  45              		.size	cyBle_authInfo, 5
  46              	cyBle_authInfo:
  47 0014 10       		.byte	16
  48 0015 01       		.byte	1
  49 0016 10       		.byte	16
  50 0017 00       		.byte	0
  51 0018 01       		.byte	1
  52 0019 000000   		.section	.text.CyBle_WriteReqHandler,"ax",%progbits
  53              		.align	2
ARM GAS  C:\Users\Sarah\AppData\Local\Temp\ccqSJLdk.s 			page 2


  54              		.code	16
  55              		.thumb_func
  56              		.type	CyBle_WriteReqHandler, %function
  57              	CyBle_WriteReqHandler:
  58              	.LFB2:
  59              		.file 1 "Generated_Source\\PSoC4\\BLE_1_eventHandler.c"
   1:Generated_Source\PSoC4/BLE_1_eventHandler.c **** /***************************************************************************//**
   2:Generated_Source\PSoC4/BLE_1_eventHandler.c **** * \file CYBLE_eventHandler.c
   3:Generated_Source\PSoC4/BLE_1_eventHandler.c **** * \version 3.20
   4:Generated_Source\PSoC4/BLE_1_eventHandler.c **** * 
   5:Generated_Source\PSoC4/BLE_1_eventHandler.c **** * \brief
   6:Generated_Source\PSoC4/BLE_1_eventHandler.c **** *  This file contains the source code for the Event Handler State Machine
   7:Generated_Source\PSoC4/BLE_1_eventHandler.c **** *  of the BLE Component.
   8:Generated_Source\PSoC4/BLE_1_eventHandler.c **** * 
   9:Generated_Source\PSoC4/BLE_1_eventHandler.c **** ********************************************************************************
  10:Generated_Source\PSoC4/BLE_1_eventHandler.c **** * \copyright
  11:Generated_Source\PSoC4/BLE_1_eventHandler.c **** * Copyright 2014-2016, Cypress Semiconductor Corporation.  All rights reserved.
  12:Generated_Source\PSoC4/BLE_1_eventHandler.c **** * You may use this file only in accordance with the license, terms, conditions,
  13:Generated_Source\PSoC4/BLE_1_eventHandler.c **** * disclaimers, and limitations in the end user license agreement accompanying
  14:Generated_Source\PSoC4/BLE_1_eventHandler.c **** * the software package with which this file was provided.
  15:Generated_Source\PSoC4/BLE_1_eventHandler.c **** *******************************************************************************/
  16:Generated_Source\PSoC4/BLE_1_eventHandler.c **** 
  17:Generated_Source\PSoC4/BLE_1_eventHandler.c **** #include "BLE_1_eventHandler.h"
  18:Generated_Source\PSoC4/BLE_1_eventHandler.c **** 
  19:Generated_Source\PSoC4/BLE_1_eventHandler.c **** 
  20:Generated_Source\PSoC4/BLE_1_eventHandler.c **** /***************************************
  21:Generated_Source\PSoC4/BLE_1_eventHandler.c **** * Private Function Prototypes
  22:Generated_Source\PSoC4/BLE_1_eventHandler.c **** ***************************************/
  23:Generated_Source\PSoC4/BLE_1_eventHandler.c **** 
  24:Generated_Source\PSoC4/BLE_1_eventHandler.c **** static void CyBle_GattDisconnectEventHandler(void);
  25:Generated_Source\PSoC4/BLE_1_eventHandler.c **** static void CyBle_TimeOutEventHandler(const CYBLE_TO_REASON_CODE_T *eventParam);
  26:Generated_Source\PSoC4/BLE_1_eventHandler.c **** static void CyBle_GattConnectReqHandler(void);
  27:Generated_Source\PSoC4/BLE_1_eventHandler.c **** static void CyBle_L2Cap_ConnParamUpdateRspEventHandler(uint16 response);
  28:Generated_Source\PSoC4/BLE_1_eventHandler.c **** static void CyBle_GapConnUpdateCompleteEventHandler(const CYBLE_GAP_CONN_PARAM_UPDATED_IN_CONTROLLE
  29:Generated_Source\PSoC4/BLE_1_eventHandler.c **** 
  30:Generated_Source\PSoC4/BLE_1_eventHandler.c **** 
  31:Generated_Source\PSoC4/BLE_1_eventHandler.c **** #if (CYBLE_GATT_ROLE_SERVER)
  32:Generated_Source\PSoC4/BLE_1_eventHandler.c **** 
  33:Generated_Source\PSoC4/BLE_1_eventHandler.c **** static void CyBle_WriteReqHandler(CYBLE_GATTS_WRITE_REQ_PARAM_T *eventParam);
  34:Generated_Source\PSoC4/BLE_1_eventHandler.c **** static void CyBle_ValueConfirmation(const CYBLE_CONN_HANDLE_T *eventParam);
  35:Generated_Source\PSoC4/BLE_1_eventHandler.c **** 
  36:Generated_Source\PSoC4/BLE_1_eventHandler.c **** #endif /* CYBLE_GATT_ROLE_SERVER */
  37:Generated_Source\PSoC4/BLE_1_eventHandler.c **** 
  38:Generated_Source\PSoC4/BLE_1_eventHandler.c **** #if (CYBLE_GATT_ROLE_CLIENT)
  39:Generated_Source\PSoC4/BLE_1_eventHandler.c **** 
  40:Generated_Source\PSoC4/BLE_1_eventHandler.c **** static void CyBle_GapcDiscoverCharacteristicsEventHandler(CYBLE_DISC_CHAR_INFO_T *discCharInfo);
  41:Generated_Source\PSoC4/BLE_1_eventHandler.c **** static CYBLE_GATT_ATTR_HANDLE_RANGE_T CyBle_GetCharRange(void);
  42:Generated_Source\PSoC4/BLE_1_eventHandler.c **** static void CyBle_GattcWriteResponseEventHandler(const CYBLE_CONN_HANDLE_T *eventParam);
  43:Generated_Source\PSoC4/BLE_1_eventHandler.c **** static void CyBle_NotificationEventHandler(CYBLE_GATTC_HANDLE_VALUE_NTF_PARAM_T *eventParam);
  44:Generated_Source\PSoC4/BLE_1_eventHandler.c **** static void CyBle_IndicationEventHandler(CYBLE_GATTC_HANDLE_VALUE_IND_PARAM_T *eventParam);
  45:Generated_Source\PSoC4/BLE_1_eventHandler.c **** static void CyBle_ReadResponseEventHandler(CYBLE_GATTC_READ_RSP_PARAM_T *eventParam);
  46:Generated_Source\PSoC4/BLE_1_eventHandler.c **** static void CyBle_ReadMultipleResponseEventHandler(CYBLE_GATTC_READ_RSP_PARAM_T *eventParam);
  47:Generated_Source\PSoC4/BLE_1_eventHandler.c **** 
  48:Generated_Source\PSoC4/BLE_1_eventHandler.c **** #endif /* CYBLE_GATT_ROLE_CLIENT */
  49:Generated_Source\PSoC4/BLE_1_eventHandler.c **** 
  50:Generated_Source\PSoC4/BLE_1_eventHandler.c **** 
  51:Generated_Source\PSoC4/BLE_1_eventHandler.c **** /***************************************
ARM GAS  C:\Users\Sarah\AppData\Local\Temp\ccqSJLdk.s 			page 3


  52:Generated_Source\PSoC4/BLE_1_eventHandler.c **** * Global Variables
  53:Generated_Source\PSoC4/BLE_1_eventHandler.c **** ***************************************/
  54:Generated_Source\PSoC4/BLE_1_eventHandler.c **** 
  55:Generated_Source\PSoC4/BLE_1_eventHandler.c **** /* This global variable is initialized after connection with peer device, 
  56:Generated_Source\PSoC4/BLE_1_eventHandler.c ****    after CYBLE_EVT_GATT_CONNECT_IND event, and could be used by application code
  57:Generated_Source\PSoC4/BLE_1_eventHandler.c ****    to send data to peer device. 
  58:Generated_Source\PSoC4/BLE_1_eventHandler.c **** */
  59:Generated_Source\PSoC4/BLE_1_eventHandler.c **** CYBLE_CONN_HANDLE_T cyBle_connHandle;
  60:Generated_Source\PSoC4/BLE_1_eventHandler.c **** 
  61:Generated_Source\PSoC4/BLE_1_eventHandler.c **** volatile uint8 cyBle_eventHandlerFlag;
  62:Generated_Source\PSoC4/BLE_1_eventHandler.c **** volatile uint8 cyBle_busyStatus;
  63:Generated_Source\PSoC4/BLE_1_eventHandler.c **** 
  64:Generated_Source\PSoC4/BLE_1_eventHandler.c **** #if(CYBLE_GAP_ROLE_PERIPHERAL || CYBLE_GAP_ROLE_BROADCASTER) 
  65:Generated_Source\PSoC4/BLE_1_eventHandler.c ****     uint8 cyBle_advertisingIntervalType;
  66:Generated_Source\PSoC4/BLE_1_eventHandler.c **** #endif /* CYBLE_GAP_ROLE_PERIPHERAL || CYBLE_GAP_ROLE_BROADCASTER) */
  67:Generated_Source\PSoC4/BLE_1_eventHandler.c **** 
  68:Generated_Source\PSoC4/BLE_1_eventHandler.c **** #if(CYBLE_GAP_ROLE_CENTRAL || CYBLE_GAP_ROLE_OBSERVER) 
  69:Generated_Source\PSoC4/BLE_1_eventHandler.c ****     uint8 cyBle_scanningIntervalType;
  70:Generated_Source\PSoC4/BLE_1_eventHandler.c **** #endif /* CYBLE_GAP_ROLE_CENTRAL || CYBLE_GAP_ROLE_OBSERVER */
  71:Generated_Source\PSoC4/BLE_1_eventHandler.c **** 
  72:Generated_Source\PSoC4/BLE_1_eventHandler.c **** #if(CYBLE_GATT_ROLE_SERVER)
  73:Generated_Source\PSoC4/BLE_1_eventHandler.c **** #if defined CYBLE_CTS_SERVER || defined CYBLE_ESS_SERVER
  74:Generated_Source\PSoC4/BLE_1_eventHandler.c **** CYBLE_GATT_ERR_CODE_T cyBle_gattError;
  75:Generated_Source\PSoC4/BLE_1_eventHandler.c **** #endif /* defined CYBLE_CTS_SERVER || defined CYBLE_ESS_SERVER */
  76:Generated_Source\PSoC4/BLE_1_eventHandler.c **** #endif /* CYBLE_GATT_ROLE_SERVER */
  77:Generated_Source\PSoC4/BLE_1_eventHandler.c **** 
  78:Generated_Source\PSoC4/BLE_1_eventHandler.c **** #if(CYBLE_GATT_ROLE_CLIENT)
  79:Generated_Source\PSoC4/BLE_1_eventHandler.c **** uint8 cyBle_disCount; /* Counter for discovery procedures */
  80:Generated_Source\PSoC4/BLE_1_eventHandler.c **** 
  81:Generated_Source\PSoC4/BLE_1_eventHandler.c **** #ifdef CYBLE_CUSTOM_CLIENT
  82:Generated_Source\PSoC4/BLE_1_eventHandler.c **** /* Discovery included service information, used for 128-bit UUID read response handle 
  83:Generated_Source\PSoC4/BLE_1_eventHandler.c ****    and for continue discovery. 
  84:Generated_Source\PSoC4/BLE_1_eventHandler.c **** */
  85:Generated_Source\PSoC4/BLE_1_eventHandler.c **** static CYBLE_DISC_INCL_INFO_T cyBle_discInclInfo;
  86:Generated_Source\PSoC4/BLE_1_eventHandler.c **** #endif /* CYBLE_CUSTOM_CLIENT */
  87:Generated_Source\PSoC4/BLE_1_eventHandler.c **** 
  88:Generated_Source\PSoC4/BLE_1_eventHandler.c **** #ifdef CYBLE_HIDS_CLIENT
  89:Generated_Source\PSoC4/BLE_1_eventHandler.c ****     static uint8 disServiceIndex;      /* To discovery descriptors for multiple HID service instanc
  90:Generated_Source\PSoC4/BLE_1_eventHandler.c **** #endif /* CYBLE_HIDS_CLIENT */
  91:Generated_Source\PSoC4/BLE_1_eventHandler.c **** 
  92:Generated_Source\PSoC4/BLE_1_eventHandler.c **** CYBLE_DISC_SRVC_INFO_T cyBle_serverInfo[CYBLE_SRVI_COUNT] = /*5*/
  93:Generated_Source\PSoC4/BLE_1_eventHandler.c **** {
  94:Generated_Source\PSoC4/BLE_1_eventHandler.c ****     {{CYBLE_GATT_INVALID_ATTR_HANDLE_VALUE, CYBLE_GATT_INVALID_ATTR_HANDLE_VALUE}, CYBLE_UUID_GAP_S
  95:Generated_Source\PSoC4/BLE_1_eventHandler.c ****     {{CYBLE_GATT_INVALID_ATTR_HANDLE_VALUE, CYBLE_GATT_INVALID_ATTR_HANDLE_VALUE}, CYBLE_UUID_GATT_
  96:Generated_Source\PSoC4/BLE_1_eventHandler.c **** #ifdef CYBLE_ANCS_CLIENT
  97:Generated_Source\PSoC4/BLE_1_eventHandler.c ****     {{CYBLE_GATT_INVALID_ATTR_HANDLE_VALUE, CYBLE_GATT_INVALID_ATTR_HANDLE_VALUE}, 0x0000u},
  98:Generated_Source\PSoC4/BLE_1_eventHandler.c **** #endif /* CYBLE_ANCS_CLIENT */
  99:Generated_Source\PSoC4/BLE_1_eventHandler.c **** #ifdef CYBLE_ANS_CLIENT
 100:Generated_Source\PSoC4/BLE_1_eventHandler.c ****     {{CYBLE_GATT_INVALID_ATTR_HANDLE_VALUE, CYBLE_GATT_INVALID_ATTR_HANDLE_VALUE}, 
 101:Generated_Source\PSoC4/BLE_1_eventHandler.c ****         CYBLE_UUID_ALERT_NOTIFICATION_SERVICE},
 102:Generated_Source\PSoC4/BLE_1_eventHandler.c **** #endif /* CYBLE_ANS_CLIENT */
 103:Generated_Source\PSoC4/BLE_1_eventHandler.c **** #ifdef CYBLE_BAS_CLIENT
 104:Generated_Source\PSoC4/BLE_1_eventHandler.c ****     {{CYBLE_GATT_INVALID_ATTR_HANDLE_VALUE, CYBLE_GATT_INVALID_ATTR_HANDLE_VALUE}, CYBLE_UUID_BAS_S
 105:Generated_Source\PSoC4/BLE_1_eventHandler.c ****     #if(CYBLE_BASC_SERVICE_COUNT > 1u) /* Generate it by GUI */
 106:Generated_Source\PSoC4/BLE_1_eventHandler.c ****         
 107:Generated_Source\PSoC4/BLE_1_eventHandler.c ****     #endif /* CYBLE_BASC_SERVICE_COUNT > 1u */
 108:Generated_Source\PSoC4/BLE_1_eventHandler.c **** #endif /* CYBLE_BAS_CLIENT */
ARM GAS  C:\Users\Sarah\AppData\Local\Temp\ccqSJLdk.s 			page 4


 109:Generated_Source\PSoC4/BLE_1_eventHandler.c **** #ifdef CYBLE_BCS_CLIENT
 110:Generated_Source\PSoC4/BLE_1_eventHandler.c ****     {{CYBLE_GATT_INVALID_ATTR_HANDLE_VALUE, CYBLE_GATT_INVALID_ATTR_HANDLE_VALUE}, CYBLE_UUID_BODY_
 111:Generated_Source\PSoC4/BLE_1_eventHandler.c **** #endif /* CYBLE_BCS_CLIENT */
 112:Generated_Source\PSoC4/BLE_1_eventHandler.c **** #ifdef CYBLE_BLS_CLIENT
 113:Generated_Source\PSoC4/BLE_1_eventHandler.c ****     {{CYBLE_GATT_INVALID_ATTR_HANDLE_VALUE, CYBLE_GATT_INVALID_ATTR_HANDLE_VALUE}, CYBLE_UUID_BLOOD
 114:Generated_Source\PSoC4/BLE_1_eventHandler.c **** #endif /* CYBLE_BLS_CLIENT */
 115:Generated_Source\PSoC4/BLE_1_eventHandler.c **** #ifdef CYBLE_BMS_CLIENT
 116:Generated_Source\PSoC4/BLE_1_eventHandler.c ****     {{CYBLE_GATT_INVALID_ATTR_HANDLE_VALUE, CYBLE_GATT_INVALID_ATTR_HANDLE_VALUE}, CYBLE_UUID_BOND_
 117:Generated_Source\PSoC4/BLE_1_eventHandler.c **** #endif /* CYBLE_BMS_CLIENT */
 118:Generated_Source\PSoC4/BLE_1_eventHandler.c **** #ifdef CYBLE_CGMS_CLIENT
 119:Generated_Source\PSoC4/BLE_1_eventHandler.c ****     {{CYBLE_GATT_INVALID_ATTR_HANDLE_VALUE, CYBLE_GATT_INVALID_ATTR_HANDLE_VALUE}, CYBLE_UUID_CGM_S
 120:Generated_Source\PSoC4/BLE_1_eventHandler.c **** #endif /* CYBLE_CGMS_CLIENT */
 121:Generated_Source\PSoC4/BLE_1_eventHandler.c **** #ifdef CYBLE_CPS_CLIENT
 122:Generated_Source\PSoC4/BLE_1_eventHandler.c ****     {{CYBLE_GATT_INVALID_ATTR_HANDLE_VALUE, CYBLE_GATT_INVALID_ATTR_HANDLE_VALUE}, CYBLE_UUID_CPS_S
 123:Generated_Source\PSoC4/BLE_1_eventHandler.c **** #endif /* CYBLE_CPS_CLIENT */
 124:Generated_Source\PSoC4/BLE_1_eventHandler.c **** #ifdef CYBLE_CSCS_CLIENT
 125:Generated_Source\PSoC4/BLE_1_eventHandler.c ****     {{CYBLE_GATT_INVALID_ATTR_HANDLE_VALUE, CYBLE_GATT_INVALID_ATTR_HANDLE_VALUE}, 
 126:Generated_Source\PSoC4/BLE_1_eventHandler.c ****         CYBLE_UUID_CYCLING_SPEED_AND_CADENCE_SERVICE},
 127:Generated_Source\PSoC4/BLE_1_eventHandler.c **** #endif /* CYBLE_CSCS_CLIENT */
 128:Generated_Source\PSoC4/BLE_1_eventHandler.c **** #ifdef CYBLE_CTS_CLIENT
 129:Generated_Source\PSoC4/BLE_1_eventHandler.c ****     {{CYBLE_GATT_INVALID_ATTR_HANDLE_VALUE, CYBLE_GATT_INVALID_ATTR_HANDLE_VALUE}, CYBLE_UUID_CURRE
 130:Generated_Source\PSoC4/BLE_1_eventHandler.c **** #endif /* CYBLE_CTS_CLIENT */
 131:Generated_Source\PSoC4/BLE_1_eventHandler.c **** #ifdef CYBLE_CUSTOM_CLIENT
 132:Generated_Source\PSoC4/BLE_1_eventHandler.c ****             {{CYBLE_GATT_INVALID_ATTR_HANDLE_VALUE, CYBLE_GATT_INVALID_ATTR_HANDLE_VALUE}, 0x0000u}
 133:Generated_Source\PSoC4/BLE_1_eventHandler.c **** 
 134:Generated_Source\PSoC4/BLE_1_eventHandler.c **** #endif /* CYBLE_CUSTOM_CLIENT */
 135:Generated_Source\PSoC4/BLE_1_eventHandler.c **** #ifdef CYBLE_DIS_CLIENT
 136:Generated_Source\PSoC4/BLE_1_eventHandler.c ****     {{CYBLE_GATT_INVALID_ATTR_HANDLE_VALUE, CYBLE_GATT_INVALID_ATTR_HANDLE_VALUE}, CYBLE_UUID_DEVIC
 137:Generated_Source\PSoC4/BLE_1_eventHandler.c **** #endif /* CYBLE_DIS_CLIENT */
 138:Generated_Source\PSoC4/BLE_1_eventHandler.c **** #ifdef CYBLE_ESS_CLIENT
 139:Generated_Source\PSoC4/BLE_1_eventHandler.c ****     {{CYBLE_GATT_INVALID_ATTR_HANDLE_VALUE, CYBLE_GATT_INVALID_ATTR_HANDLE_VALUE}, 
 140:Generated_Source\PSoC4/BLE_1_eventHandler.c ****         CYBLE_UUID_ENVIRONMENTAL_SENSING_SERVICE},
 141:Generated_Source\PSoC4/BLE_1_eventHandler.c **** #endif /* CYBLE_ESS_CLIENT */
 142:Generated_Source\PSoC4/BLE_1_eventHandler.c **** #ifdef CYBLE_GLS_CLIENT
 143:Generated_Source\PSoC4/BLE_1_eventHandler.c ****     {{CYBLE_GATT_INVALID_ATTR_HANDLE_VALUE, CYBLE_GATT_INVALID_ATTR_HANDLE_VALUE}, CYBLE_UUID_GLUCO
 144:Generated_Source\PSoC4/BLE_1_eventHandler.c **** #endif /* CYBLE_GLS_CLIENT */
 145:Generated_Source\PSoC4/BLE_1_eventHandler.c **** #ifdef CYBLE_HIDS_CLIENT
 146:Generated_Source\PSoC4/BLE_1_eventHandler.c ****     {{CYBLE_GATT_INVALID_ATTR_HANDLE_VALUE, CYBLE_GATT_INVALID_ATTR_HANDLE_VALUE}, CYBLE_UUID_HIDS_
 147:Generated_Source\PSoC4/BLE_1_eventHandler.c ****     #if(CYBLE_HIDSC_SERVICE_COUNT > 1u) /* Generate it by GUI */
 148:Generated_Source\PSoC4/BLE_1_eventHandler.c ****         
 149:Generated_Source\PSoC4/BLE_1_eventHandler.c ****     #endif /* CYBLE_HIDSC_SERVICE_COUNT > 1u */
 150:Generated_Source\PSoC4/BLE_1_eventHandler.c **** #endif /* CYBLE_HIDS_CLIENT */
 151:Generated_Source\PSoC4/BLE_1_eventHandler.c **** #ifdef CYBLE_HPS_CLIENT
 152:Generated_Source\PSoC4/BLE_1_eventHandler.c ****     {{CYBLE_GATT_INVALID_ATTR_HANDLE_VALUE, CYBLE_GATT_INVALID_ATTR_HANDLE_VALUE}, CYBLE_UUID_HTTP_
 153:Generated_Source\PSoC4/BLE_1_eventHandler.c **** #endif /* CYBLE_HPS_CLIENT */
 154:Generated_Source\PSoC4/BLE_1_eventHandler.c **** #ifdef CYBLE_HRS_CLIENT
 155:Generated_Source\PSoC4/BLE_1_eventHandler.c ****     {{CYBLE_GATT_INVALID_ATTR_HANDLE_VALUE, CYBLE_GATT_INVALID_ATTR_HANDLE_VALUE}, CYBLE_UUID_HEART
 156:Generated_Source\PSoC4/BLE_1_eventHandler.c **** #endif /* CYBLE_HRS_CLIENT */
 157:Generated_Source\PSoC4/BLE_1_eventHandler.c **** #ifdef CYBLE_HTS_CLIENT
 158:Generated_Source\PSoC4/BLE_1_eventHandler.c ****     {{CYBLE_GATT_INVALID_ATTR_HANDLE_VALUE, CYBLE_GATT_INVALID_ATTR_HANDLE_VALUE}, CYBLE_UUID_HEALT
 159:Generated_Source\PSoC4/BLE_1_eventHandler.c **** #endif /* CYBLE_HTS_CLIENT */
 160:Generated_Source\PSoC4/BLE_1_eventHandler.c **** #ifdef CYBLE_IAS_CLIENT
 161:Generated_Source\PSoC4/BLE_1_eventHandler.c ****     {{CYBLE_GATT_INVALID_ATTR_HANDLE_VALUE, CYBLE_GATT_INVALID_ATTR_HANDLE_VALUE}, CYBLE_UUID_IMMED
 162:Generated_Source\PSoC4/BLE_1_eventHandler.c **** #endif /* CYBLE_IAS_CLIENT */
 163:Generated_Source\PSoC4/BLE_1_eventHandler.c **** #ifdef CYBLE_IPS_CLIENT
 164:Generated_Source\PSoC4/BLE_1_eventHandler.c ****     {{CYBLE_GATT_INVALID_ATTR_HANDLE_VALUE, CYBLE_GATT_INVALID_ATTR_HANDLE_VALUE}, CYBLE_UUID_IPS_S
 165:Generated_Source\PSoC4/BLE_1_eventHandler.c **** #endif /* CYBLE_IPS_CLIENT */
ARM GAS  C:\Users\Sarah\AppData\Local\Temp\ccqSJLdk.s 			page 5


 166:Generated_Source\PSoC4/BLE_1_eventHandler.c **** #ifdef CYBLE_LLS_CLIENT
 167:Generated_Source\PSoC4/BLE_1_eventHandler.c ****     {{CYBLE_GATT_INVALID_ATTR_HANDLE_VALUE, CYBLE_GATT_INVALID_ATTR_HANDLE_VALUE}, CYBLE_UUID_LINK_
 168:Generated_Source\PSoC4/BLE_1_eventHandler.c **** #endif /* CYBLE_LLS_CLIENT */
 169:Generated_Source\PSoC4/BLE_1_eventHandler.c **** #ifdef CYBLE_LNS_CLIENT
 170:Generated_Source\PSoC4/BLE_1_eventHandler.c ****     {{CYBLE_GATT_INVALID_ATTR_HANDLE_VALUE, CYBLE_GATT_INVALID_ATTR_HANDLE_VALUE}, CYBLE_UUID_LOCAT
 171:Generated_Source\PSoC4/BLE_1_eventHandler.c **** #endif /* CYBLE_LNS_CLIENT */
 172:Generated_Source\PSoC4/BLE_1_eventHandler.c **** #ifdef CYBLE_NDCS_CLIENT
 173:Generated_Source\PSoC4/BLE_1_eventHandler.c ****     {{CYBLE_GATT_INVALID_ATTR_HANDLE_VALUE, CYBLE_GATT_INVALID_ATTR_HANDLE_VALUE}, CYBLE_UUID_NEXT_
 174:Generated_Source\PSoC4/BLE_1_eventHandler.c **** #endif /* CYBLE_NDCS_CLIENT */
 175:Generated_Source\PSoC4/BLE_1_eventHandler.c **** #ifdef CYBLE_IPSS_CLIENT
 176:Generated_Source\PSoC4/BLE_1_eventHandler.c ****     {{CYBLE_GATT_INVALID_ATTR_HANDLE_VALUE, CYBLE_GATT_INVALID_ATTR_HANDLE_VALUE}, CYBLE_UUID_INTER
 177:Generated_Source\PSoC4/BLE_1_eventHandler.c **** #endif /* CYBLE_IPSS_CLIENT */
 178:Generated_Source\PSoC4/BLE_1_eventHandler.c **** #ifdef CYBLE_PASS_CLIENT
 179:Generated_Source\PSoC4/BLE_1_eventHandler.c ****     {{CYBLE_GATT_INVALID_ATTR_HANDLE_VALUE, CYBLE_GATT_INVALID_ATTR_HANDLE_VALUE}, CYBLE_UUID_PHONE
 180:Generated_Source\PSoC4/BLE_1_eventHandler.c **** #endif /* CYBLE_PASS_CLIENT */
 181:Generated_Source\PSoC4/BLE_1_eventHandler.c **** #ifdef CYBLE_PLXS_CLIENT
 182:Generated_Source\PSoC4/BLE_1_eventHandler.c ****     {{CYBLE_GATT_INVALID_ATTR_HANDLE_VALUE, CYBLE_GATT_INVALID_ATTR_HANDLE_VALUE}, CYBLE_UUID_PLXS_
 183:Generated_Source\PSoC4/BLE_1_eventHandler.c **** #endif /* CYBLE_PLXS_CLIENT */
 184:Generated_Source\PSoC4/BLE_1_eventHandler.c **** #ifdef CYBLE_RSCS_CLIENT
 185:Generated_Source\PSoC4/BLE_1_eventHandler.c ****     {{CYBLE_GATT_INVALID_ATTR_HANDLE_VALUE, CYBLE_GATT_INVALID_ATTR_HANDLE_VALUE}, CYBLE_UUID_RUNNI
 186:Generated_Source\PSoC4/BLE_1_eventHandler.c **** #endif /* CYBLE_RSCS_CLIENT */
 187:Generated_Source\PSoC4/BLE_1_eventHandler.c **** #ifdef CYBLE_RTUS_CLIENT
 188:Generated_Source\PSoC4/BLE_1_eventHandler.c ****     {{CYBLE_GATT_INVALID_ATTR_HANDLE_VALUE, CYBLE_GATT_INVALID_ATTR_HANDLE_VALUE}, CYBLE_UUID_REF_T
 189:Generated_Source\PSoC4/BLE_1_eventHandler.c **** #endif /* CYBLE_RTUS_CLIENT */
 190:Generated_Source\PSoC4/BLE_1_eventHandler.c **** #ifdef CYBLE_SCPS_CLIENT
 191:Generated_Source\PSoC4/BLE_1_eventHandler.c ****     {{CYBLE_GATT_INVALID_ATTR_HANDLE_VALUE, CYBLE_GATT_INVALID_ATTR_HANDLE_VALUE}, CYBLE_UUID_SCAN_
 192:Generated_Source\PSoC4/BLE_1_eventHandler.c **** #endif /* CYBLE_SCPS_CLIENT */
 193:Generated_Source\PSoC4/BLE_1_eventHandler.c **** #ifdef CYBLE_TPS_CLIENT
 194:Generated_Source\PSoC4/BLE_1_eventHandler.c ****     {{CYBLE_GATT_INVALID_ATTR_HANDLE_VALUE, CYBLE_GATT_INVALID_ATTR_HANDLE_VALUE}, CYBLE_UUID_TX_PO
 195:Generated_Source\PSoC4/BLE_1_eventHandler.c **** #endif /* CYBLE_TPS_CLIENT */
 196:Generated_Source\PSoC4/BLE_1_eventHandler.c **** #ifdef CYBLE_UDS_CLIENT
 197:Generated_Source\PSoC4/BLE_1_eventHandler.c ****     {{CYBLE_GATT_INVALID_ATTR_HANDLE_VALUE, CYBLE_GATT_INVALID_ATTR_HANDLE_VALUE}, CYBLE_UUID_USER_
 198:Generated_Source\PSoC4/BLE_1_eventHandler.c **** #endif /* CYBLE_UDS_CLIENT */
 199:Generated_Source\PSoC4/BLE_1_eventHandler.c **** #ifdef CYBLE_WSS_CLIENT
 200:Generated_Source\PSoC4/BLE_1_eventHandler.c ****     {{CYBLE_GATT_INVALID_ATTR_HANDLE_VALUE, CYBLE_GATT_INVALID_ATTR_HANDLE_VALUE}, CYBLE_UUID_WEIGH
 201:Generated_Source\PSoC4/BLE_1_eventHandler.c **** #endif /* CYBLE_WSS_CLIENT */
 202:Generated_Source\PSoC4/BLE_1_eventHandler.c **** #ifdef CYBLE_WPTS_CLIENT
 203:Generated_Source\PSoC4/BLE_1_eventHandler.c ****     {{CYBLE_GATT_INVALID_ATTR_HANDLE_VALUE, CYBLE_GATT_INVALID_ATTR_HANDLE_VALUE}, CYBLE_UUID_WIREL
 204:Generated_Source\PSoC4/BLE_1_eventHandler.c **** #endif /* CYBLE_WPTS_CLIENT */
 205:Generated_Source\PSoC4/BLE_1_eventHandler.c **** };
 206:Generated_Source\PSoC4/BLE_1_eventHandler.c **** 
 207:Generated_Source\PSoC4/BLE_1_eventHandler.c **** CYBLE_GAPC_T cyBle_gapc;
 208:Generated_Source\PSoC4/BLE_1_eventHandler.c **** 
 209:Generated_Source\PSoC4/BLE_1_eventHandler.c **** #endif /* CYBLE_GATT_ROLE_CLIENT */
 210:Generated_Source\PSoC4/BLE_1_eventHandler.c **** 
 211:Generated_Source\PSoC4/BLE_1_eventHandler.c **** /* Default device security */
 212:Generated_Source\PSoC4/BLE_1_eventHandler.c **** CYBLE_GAP_AUTH_INFO_T cyBle_authInfo =
 213:Generated_Source\PSoC4/BLE_1_eventHandler.c **** {
 214:Generated_Source\PSoC4/BLE_1_eventHandler.c ****     (CYBLE_GAP_SEC_MODE_1 | CYBLE_GAP_SEC_LEVEL_1 ), /* uint8 security */
 215:Generated_Source\PSoC4/BLE_1_eventHandler.c ****     CYBLE_GAP_BONDING, /* uint8 bonding */
 216:Generated_Source\PSoC4/BLE_1_eventHandler.c ****     0x10u,      /* uint8 ekeySize */
 217:Generated_Source\PSoC4/BLE_1_eventHandler.c ****     CYBLE_GAP_AUTH_ERROR_NONE, /* CYBLE_AUTH_FAILED_REASON_T authErr */
 218:Generated_Source\PSoC4/BLE_1_eventHandler.c ****     0x01u,      /* uint8 pairingProperties */
 219:Generated_Source\PSoC4/BLE_1_eventHandler.c **** };
 220:Generated_Source\PSoC4/BLE_1_eventHandler.c **** 
 221:Generated_Source\PSoC4/BLE_1_eventHandler.c **** #if(CYBLE_GATT_ROLE_SERVER)
 222:Generated_Source\PSoC4/BLE_1_eventHandler.c **** 
ARM GAS  C:\Users\Sarah\AppData\Local\Temp\ccqSJLdk.s 			page 6


 223:Generated_Source\PSoC4/BLE_1_eventHandler.c **** 
 224:Generated_Source\PSoC4/BLE_1_eventHandler.c **** /******************************************************************************    
 225:Generated_Source\PSoC4/BLE_1_eventHandler.c **** * Function Name: CyBle_WriteReqHandler
 226:Generated_Source\PSoC4/BLE_1_eventHandler.c **** ***************************************************************************//**
 227:Generated_Source\PSoC4/BLE_1_eventHandler.c **** * 
 228:Generated_Source\PSoC4/BLE_1_eventHandler.c **** *  Handles the Write Request event from BLE stack.
 229:Generated_Source\PSoC4/BLE_1_eventHandler.c **** * 
 230:Generated_Source\PSoC4/BLE_1_eventHandler.c **** *  CYBLE_GATTS_WRITE_REQ_PARAM_T * eventParam - event parameter
 231:Generated_Source\PSoC4/BLE_1_eventHandler.c **** * 
 232:Generated_Source\PSoC4/BLE_1_eventHandler.c **** * \return
 233:Generated_Source\PSoC4/BLE_1_eventHandler.c **** *  None
 234:Generated_Source\PSoC4/BLE_1_eventHandler.c **** * 
 235:Generated_Source\PSoC4/BLE_1_eventHandler.c **** ******************************************************************************/
 236:Generated_Source\PSoC4/BLE_1_eventHandler.c **** static void CyBle_WriteReqHandler(CYBLE_GATTS_WRITE_REQ_PARAM_T *eventParam)
 237:Generated_Source\PSoC4/BLE_1_eventHandler.c **** {
  60              		.loc 1 237 0
  61              		.cfi_startproc
  62 0000 90B5     		push	{r4, r7, lr}
  63              		.cfi_def_cfa_offset 12
  64              		.cfi_offset 4, -12
  65              		.cfi_offset 7, -8
  66              		.cfi_offset 14, -4
  67 0002 85B0     		sub	sp, sp, #20
  68              		.cfi_def_cfa_offset 32
  69 0004 00AF     		add	r7, sp, #0
  70              		.cfi_def_cfa_register 7
  71 0006 7860     		str	r0, [r7, #4]
 238:Generated_Source\PSoC4/BLE_1_eventHandler.c ****     CYBLE_GATT_ERR_CODE_T gattErr;
 239:Generated_Source\PSoC4/BLE_1_eventHandler.c **** #if defined CYBLE_CTS_SERVER || defined CYBLE_ESS_SERVER
 240:Generated_Source\PSoC4/BLE_1_eventHandler.c ****     cyBle_gattError = CYBLE_GATT_ERR_NONE;
 241:Generated_Source\PSoC4/BLE_1_eventHandler.c **** #endif /* defined CYBLE_CTS_SERVER || defined CYBLE_ESS_SERVER */
 242:Generated_Source\PSoC4/BLE_1_eventHandler.c ****     
 243:Generated_Source\PSoC4/BLE_1_eventHandler.c ****     gattErr = CyBle_GattsWriteEventHandler(eventParam);
  72              		.loc 1 243 0
  73 0008 0F23     		mov	r3, #15
  74 000a FC18     		add	r4, r7, r3
  75 000c 7B68     		ldr	r3, [r7, #4]
  76 000e 181C     		mov	r0, r3
  77 0010 FFF7FEFF 		bl	CyBle_GattsWriteEventHandler
  78 0014 031C     		mov	r3, r0
  79 0016 2370     		strb	r3, [r4]
 244:Generated_Source\PSoC4/BLE_1_eventHandler.c **** #ifdef CYBLE_ANCS_SERVER
 245:Generated_Source\PSoC4/BLE_1_eventHandler.c ****     if(((cyBle_eventHandlerFlag & CYBLE_CALLBACK) != 0u) && (gattErr == CYBLE_GATT_ERR_NONE))
 246:Generated_Source\PSoC4/BLE_1_eventHandler.c ****     {
 247:Generated_Source\PSoC4/BLE_1_eventHandler.c ****         gattErr = CyBle_AncssWriteEventHandler(eventParam);
 248:Generated_Source\PSoC4/BLE_1_eventHandler.c ****     }
 249:Generated_Source\PSoC4/BLE_1_eventHandler.c **** #endif /* CYBLE_ANCS_SERVER */
 250:Generated_Source\PSoC4/BLE_1_eventHandler.c **** #ifdef CYBLE_ANS_SERVER
 251:Generated_Source\PSoC4/BLE_1_eventHandler.c ****     if(((cyBle_eventHandlerFlag & CYBLE_CALLBACK) != 0u) && (gattErr == CYBLE_GATT_ERR_NONE))
 252:Generated_Source\PSoC4/BLE_1_eventHandler.c ****     {
 253:Generated_Source\PSoC4/BLE_1_eventHandler.c ****         gattErr = CyBle_AnssWriteEventHandler(eventParam);
 254:Generated_Source\PSoC4/BLE_1_eventHandler.c ****     }
 255:Generated_Source\PSoC4/BLE_1_eventHandler.c **** #endif /* CYBLE_ANS_SERVER */
 256:Generated_Source\PSoC4/BLE_1_eventHandler.c **** #ifdef CYBLE_BAS_SERVER
 257:Generated_Source\PSoC4/BLE_1_eventHandler.c ****     if(((cyBle_eventHandlerFlag & CYBLE_CALLBACK) != 0u) && (gattErr == CYBLE_GATT_ERR_NONE))
 258:Generated_Source\PSoC4/BLE_1_eventHandler.c ****     {
 259:Generated_Source\PSoC4/BLE_1_eventHandler.c ****         gattErr = CyBle_BassWriteEventHandler(eventParam);
ARM GAS  C:\Users\Sarah\AppData\Local\Temp\ccqSJLdk.s 			page 7


 260:Generated_Source\PSoC4/BLE_1_eventHandler.c ****     }
 261:Generated_Source\PSoC4/BLE_1_eventHandler.c **** #endif /* CYBLE_BAS_SERVER */
 262:Generated_Source\PSoC4/BLE_1_eventHandler.c **** #ifdef CYBLE_BCS_SERVER
 263:Generated_Source\PSoC4/BLE_1_eventHandler.c ****     if(((cyBle_eventHandlerFlag & CYBLE_CALLBACK) != 0u) && (gattErr == CYBLE_GATT_ERR_NONE))
 264:Generated_Source\PSoC4/BLE_1_eventHandler.c ****     {
 265:Generated_Source\PSoC4/BLE_1_eventHandler.c ****         gattErr = CyBle_BcssWriteEventHandler(eventParam);
 266:Generated_Source\PSoC4/BLE_1_eventHandler.c ****     }
 267:Generated_Source\PSoC4/BLE_1_eventHandler.c **** #endif /* CYBLE_BCS_SERVER */
 268:Generated_Source\PSoC4/BLE_1_eventHandler.c **** #ifdef CYBLE_BLS_SERVER
 269:Generated_Source\PSoC4/BLE_1_eventHandler.c ****     if(((cyBle_eventHandlerFlag & CYBLE_CALLBACK) != 0u) && (gattErr == CYBLE_GATT_ERR_NONE))
 270:Generated_Source\PSoC4/BLE_1_eventHandler.c ****     {
 271:Generated_Source\PSoC4/BLE_1_eventHandler.c ****         gattErr = CyBle_BlssWriteEventHandler(eventParam);
 272:Generated_Source\PSoC4/BLE_1_eventHandler.c ****     }
 273:Generated_Source\PSoC4/BLE_1_eventHandler.c **** #endif /* CYBLE_BLS_SERVER */
 274:Generated_Source\PSoC4/BLE_1_eventHandler.c **** #ifdef CYBLE_BMS_SERVER
 275:Generated_Source\PSoC4/BLE_1_eventHandler.c ****     if(((cyBle_eventHandlerFlag & CYBLE_CALLBACK) != 0u) && (gattErr == CYBLE_GATT_ERR_NONE))
 276:Generated_Source\PSoC4/BLE_1_eventHandler.c ****     {
 277:Generated_Source\PSoC4/BLE_1_eventHandler.c ****         gattErr = CyBle_BmssWriteEventHandler(eventParam);
 278:Generated_Source\PSoC4/BLE_1_eventHandler.c ****     }
 279:Generated_Source\PSoC4/BLE_1_eventHandler.c **** #endif /* CYBLE_BMS_SERVER */
 280:Generated_Source\PSoC4/BLE_1_eventHandler.c **** #ifdef CYBLE_BTS_SERVER
 281:Generated_Source\PSoC4/BLE_1_eventHandler.c ****     if((cyBle_eventHandlerFlag & CYBLE_CALLBACK) != 0u)
 282:Generated_Source\PSoC4/BLE_1_eventHandler.c ****     {
 283:Generated_Source\PSoC4/BLE_1_eventHandler.c ****         gattErr = CyBle_BtsWriteEventHandler(eventParam);
 284:Generated_Source\PSoC4/BLE_1_eventHandler.c ****     }
 285:Generated_Source\PSoC4/BLE_1_eventHandler.c **** #endif /* CYBLE_BTS_SERVER */
 286:Generated_Source\PSoC4/BLE_1_eventHandler.c **** #ifdef CYBLE_CGMS_SERVER
 287:Generated_Source\PSoC4/BLE_1_eventHandler.c ****     if(((cyBle_eventHandlerFlag & CYBLE_CALLBACK) != 0u) && (gattErr == CYBLE_GATT_ERR_NONE))
 288:Generated_Source\PSoC4/BLE_1_eventHandler.c ****     {
 289:Generated_Source\PSoC4/BLE_1_eventHandler.c ****         gattErr = CyBle_CgmssWriteEventHandler(eventParam);
 290:Generated_Source\PSoC4/BLE_1_eventHandler.c ****     }
 291:Generated_Source\PSoC4/BLE_1_eventHandler.c **** #endif /* CYBLE_CGMS_SERVER */
 292:Generated_Source\PSoC4/BLE_1_eventHandler.c **** #ifdef CYBLE_CPS_SERVER
 293:Generated_Source\PSoC4/BLE_1_eventHandler.c ****     if(((cyBle_eventHandlerFlag & CYBLE_CALLBACK) != 0u) && (gattErr == CYBLE_GATT_ERR_NONE))
 294:Generated_Source\PSoC4/BLE_1_eventHandler.c ****     {
 295:Generated_Source\PSoC4/BLE_1_eventHandler.c ****         gattErr = CyBle_CpssWriteEventHandler(eventParam);
 296:Generated_Source\PSoC4/BLE_1_eventHandler.c ****     }
 297:Generated_Source\PSoC4/BLE_1_eventHandler.c **** #endif /* CYBLE_CPS_SERVER */
 298:Generated_Source\PSoC4/BLE_1_eventHandler.c **** #ifdef CYBLE_CSCS_SERVER
 299:Generated_Source\PSoC4/BLE_1_eventHandler.c ****     if(((cyBle_eventHandlerFlag & CYBLE_CALLBACK) != 0u) && (gattErr == CYBLE_GATT_ERR_NONE))
 300:Generated_Source\PSoC4/BLE_1_eventHandler.c ****     {
 301:Generated_Source\PSoC4/BLE_1_eventHandler.c ****         gattErr = CyBle_CscssWriteEventHandler(eventParam);
 302:Generated_Source\PSoC4/BLE_1_eventHandler.c ****     }
 303:Generated_Source\PSoC4/BLE_1_eventHandler.c **** #endif /* CYBLE_CSCS_SERVER */
 304:Generated_Source\PSoC4/BLE_1_eventHandler.c **** #ifdef CYBLE_CTS_SERVER
 305:Generated_Source\PSoC4/BLE_1_eventHandler.c ****     if(((cyBle_eventHandlerFlag & CYBLE_CALLBACK) != 0u) && (gattErr == CYBLE_GATT_ERR_NONE))
 306:Generated_Source\PSoC4/BLE_1_eventHandler.c ****     {
 307:Generated_Source\PSoC4/BLE_1_eventHandler.c ****         gattErr = CyBle_CtssWriteEventHandler(eventParam);
 308:Generated_Source\PSoC4/BLE_1_eventHandler.c ****     }
 309:Generated_Source\PSoC4/BLE_1_eventHandler.c **** #endif /* CYBLE_CTS_SERVER */
 310:Generated_Source\PSoC4/BLE_1_eventHandler.c **** #ifdef CYBLE_ESS_SERVER
 311:Generated_Source\PSoC4/BLE_1_eventHandler.c ****     if(((cyBle_eventHandlerFlag & CYBLE_CALLBACK) != 0u) && (gattErr == CYBLE_GATT_ERR_NONE))
 312:Generated_Source\PSoC4/BLE_1_eventHandler.c ****     {
 313:Generated_Source\PSoC4/BLE_1_eventHandler.c ****         gattErr = CyBle_EsssWriteEventHandler(eventParam);
 314:Generated_Source\PSoC4/BLE_1_eventHandler.c ****     }
 315:Generated_Source\PSoC4/BLE_1_eventHandler.c **** #endif /* CYBLE_ESS_SERVER */
 316:Generated_Source\PSoC4/BLE_1_eventHandler.c **** #ifdef CYBLE_GLS_SERVER
ARM GAS  C:\Users\Sarah\AppData\Local\Temp\ccqSJLdk.s 			page 8


 317:Generated_Source\PSoC4/BLE_1_eventHandler.c ****     if(((cyBle_eventHandlerFlag & CYBLE_CALLBACK) != 0u) && (gattErr == CYBLE_GATT_ERR_NONE))
 318:Generated_Source\PSoC4/BLE_1_eventHandler.c ****     {
 319:Generated_Source\PSoC4/BLE_1_eventHandler.c ****         gattErr = CyBle_GlssWriteEventHandler(eventParam);
 320:Generated_Source\PSoC4/BLE_1_eventHandler.c ****     }
 321:Generated_Source\PSoC4/BLE_1_eventHandler.c **** #endif /* CYBLE_GLS_SERVER */
 322:Generated_Source\PSoC4/BLE_1_eventHandler.c **** #ifdef CYBLE_HIDS_SERVER
 323:Generated_Source\PSoC4/BLE_1_eventHandler.c ****     if(((cyBle_eventHandlerFlag & CYBLE_CALLBACK) != 0u) && (gattErr == CYBLE_GATT_ERR_NONE))
 324:Generated_Source\PSoC4/BLE_1_eventHandler.c ****     {
 325:Generated_Source\PSoC4/BLE_1_eventHandler.c ****         gattErr = CyBle_HidssWriteEventHandler(eventParam);
 326:Generated_Source\PSoC4/BLE_1_eventHandler.c ****     }
 327:Generated_Source\PSoC4/BLE_1_eventHandler.c **** #endif /* CYBLE_HIDS_SERVER */
 328:Generated_Source\PSoC4/BLE_1_eventHandler.c **** #ifdef CYBLE_HPS_SERVER
 329:Generated_Source\PSoC4/BLE_1_eventHandler.c ****     if(((cyBle_eventHandlerFlag & CYBLE_CALLBACK) != 0u) && (gattErr == CYBLE_GATT_ERR_NONE))
 330:Generated_Source\PSoC4/BLE_1_eventHandler.c ****     {
 331:Generated_Source\PSoC4/BLE_1_eventHandler.c ****         gattErr = CyBle_HpssWriteEventHandler(eventParam);
 332:Generated_Source\PSoC4/BLE_1_eventHandler.c ****     }
 333:Generated_Source\PSoC4/BLE_1_eventHandler.c **** #endif /* CYBLE_HPS_SERVER */
 334:Generated_Source\PSoC4/BLE_1_eventHandler.c **** #ifdef CYBLE_HRS_SERVER
 335:Generated_Source\PSoC4/BLE_1_eventHandler.c ****     if(((cyBle_eventHandlerFlag & CYBLE_CALLBACK) != 0u) && (gattErr == CYBLE_GATT_ERR_NONE))
 336:Generated_Source\PSoC4/BLE_1_eventHandler.c ****     {
 337:Generated_Source\PSoC4/BLE_1_eventHandler.c ****         gattErr = CyBle_HrssWriteEventHandler(eventParam);
 338:Generated_Source\PSoC4/BLE_1_eventHandler.c ****     }
 339:Generated_Source\PSoC4/BLE_1_eventHandler.c **** #endif /* CYBLE_HRS_SERVER */
 340:Generated_Source\PSoC4/BLE_1_eventHandler.c **** #ifdef CYBLE_HTS_SERVER
 341:Generated_Source\PSoC4/BLE_1_eventHandler.c ****     if(((cyBle_eventHandlerFlag & CYBLE_CALLBACK) != 0u) && (gattErr == CYBLE_GATT_ERR_NONE))
 342:Generated_Source\PSoC4/BLE_1_eventHandler.c ****     {
 343:Generated_Source\PSoC4/BLE_1_eventHandler.c ****         gattErr = CyBle_HtssWriteEventHandler(eventParam);
 344:Generated_Source\PSoC4/BLE_1_eventHandler.c ****     }
 345:Generated_Source\PSoC4/BLE_1_eventHandler.c **** #endif /* CYBLE_HTS_SERVER */
 346:Generated_Source\PSoC4/BLE_1_eventHandler.c **** #ifdef CYBLE_IPS_SERVER
 347:Generated_Source\PSoC4/BLE_1_eventHandler.c ****     if(((cyBle_eventHandlerFlag & CYBLE_CALLBACK) != 0u) && (gattErr == CYBLE_GATT_ERR_NONE))
 348:Generated_Source\PSoC4/BLE_1_eventHandler.c ****     {
 349:Generated_Source\PSoC4/BLE_1_eventHandler.c ****         gattErr = CyBle_IpssWriteEventHandler(eventParam);
 350:Generated_Source\PSoC4/BLE_1_eventHandler.c ****     }
 351:Generated_Source\PSoC4/BLE_1_eventHandler.c **** #endif /* CYBLE_IPS_SERVER */
 352:Generated_Source\PSoC4/BLE_1_eventHandler.c **** #ifdef CYBLE_LLS_SERVER
 353:Generated_Source\PSoC4/BLE_1_eventHandler.c ****     if(((cyBle_eventHandlerFlag & CYBLE_CALLBACK) != 0u) && (gattErr == CYBLE_GATT_ERR_NONE))
 354:Generated_Source\PSoC4/BLE_1_eventHandler.c ****     {
 355:Generated_Source\PSoC4/BLE_1_eventHandler.c ****         gattErr = CyBle_LlssWriteEventHandler(eventParam);
 356:Generated_Source\PSoC4/BLE_1_eventHandler.c ****     }
 357:Generated_Source\PSoC4/BLE_1_eventHandler.c **** #endif /* CYBLE_LLS_SERVER */
 358:Generated_Source\PSoC4/BLE_1_eventHandler.c **** #ifdef CYBLE_LNS_SERVER
 359:Generated_Source\PSoC4/BLE_1_eventHandler.c ****     if(((cyBle_eventHandlerFlag & CYBLE_CALLBACK) != 0u) && (gattErr == CYBLE_GATT_ERR_NONE))
 360:Generated_Source\PSoC4/BLE_1_eventHandler.c ****     {
 361:Generated_Source\PSoC4/BLE_1_eventHandler.c ****         gattErr = CyBle_LnssWriteEventHandler(eventParam);
 362:Generated_Source\PSoC4/BLE_1_eventHandler.c ****     }
 363:Generated_Source\PSoC4/BLE_1_eventHandler.c **** #endif /* CYBLE_LNS_SERVER */
 364:Generated_Source\PSoC4/BLE_1_eventHandler.c **** #ifdef CYBLE_PASS_SERVER
 365:Generated_Source\PSoC4/BLE_1_eventHandler.c ****     if(((cyBle_eventHandlerFlag & CYBLE_CALLBACK) != 0u) && (gattErr == CYBLE_GATT_ERR_NONE))
 366:Generated_Source\PSoC4/BLE_1_eventHandler.c ****     {
 367:Generated_Source\PSoC4/BLE_1_eventHandler.c ****         gattErr = CyBle_PasssWriteEventHandler(eventParam);
 368:Generated_Source\PSoC4/BLE_1_eventHandler.c ****     }
 369:Generated_Source\PSoC4/BLE_1_eventHandler.c **** #endif /* CYBLE_PASS_SERVER */
 370:Generated_Source\PSoC4/BLE_1_eventHandler.c **** #ifdef CYBLE_PLXS_SERVER
 371:Generated_Source\PSoC4/BLE_1_eventHandler.c ****     if(((cyBle_eventHandlerFlag & CYBLE_CALLBACK) != 0u) && (gattErr == CYBLE_GATT_ERR_NONE))
 372:Generated_Source\PSoC4/BLE_1_eventHandler.c ****     {
 373:Generated_Source\PSoC4/BLE_1_eventHandler.c ****         gattErr = CyBle_PlxssWriteEventHandler(eventParam);
ARM GAS  C:\Users\Sarah\AppData\Local\Temp\ccqSJLdk.s 			page 9


 374:Generated_Source\PSoC4/BLE_1_eventHandler.c ****     }
 375:Generated_Source\PSoC4/BLE_1_eventHandler.c **** #endif /* CYBLE_PLXS_SERVER */    
 376:Generated_Source\PSoC4/BLE_1_eventHandler.c **** #ifdef CYBLE_RSCS_SERVER
 377:Generated_Source\PSoC4/BLE_1_eventHandler.c ****     if(((cyBle_eventHandlerFlag & CYBLE_CALLBACK) != 0u) && (gattErr == CYBLE_GATT_ERR_NONE))
 378:Generated_Source\PSoC4/BLE_1_eventHandler.c ****     {
 379:Generated_Source\PSoC4/BLE_1_eventHandler.c ****         gattErr = CyBle_RscssWriteEventHandler(eventParam);
 380:Generated_Source\PSoC4/BLE_1_eventHandler.c ****     }
 381:Generated_Source\PSoC4/BLE_1_eventHandler.c **** #endif /* CYBLE_RSCS_SERVER */
 382:Generated_Source\PSoC4/BLE_1_eventHandler.c **** #ifdef CYBLE_SCPS_SERVER
 383:Generated_Source\PSoC4/BLE_1_eventHandler.c ****     if(((cyBle_eventHandlerFlag & CYBLE_CALLBACK) != 0u) && (gattErr == CYBLE_GATT_ERR_NONE))
 384:Generated_Source\PSoC4/BLE_1_eventHandler.c ****     {
 385:Generated_Source\PSoC4/BLE_1_eventHandler.c ****         gattErr = CyBle_ScpssWriteEventHandler(eventParam);
 386:Generated_Source\PSoC4/BLE_1_eventHandler.c ****     }
 387:Generated_Source\PSoC4/BLE_1_eventHandler.c **** #endif /* CYBLE_SCPS_SERVER */
 388:Generated_Source\PSoC4/BLE_1_eventHandler.c **** #ifdef CYBLE_TPS_SERVER
 389:Generated_Source\PSoC4/BLE_1_eventHandler.c ****     if(((cyBle_eventHandlerFlag & CYBLE_CALLBACK) != 0u) && (gattErr == CYBLE_GATT_ERR_NONE))
 390:Generated_Source\PSoC4/BLE_1_eventHandler.c ****     {
 391:Generated_Source\PSoC4/BLE_1_eventHandler.c ****         gattErr = CyBle_TpssWriteEventHandler(eventParam);
 392:Generated_Source\PSoC4/BLE_1_eventHandler.c ****     }
 393:Generated_Source\PSoC4/BLE_1_eventHandler.c **** #endif /* CYBLE_TPS_SERVER */
 394:Generated_Source\PSoC4/BLE_1_eventHandler.c **** #ifdef CYBLE_UDS_SERVER
 395:Generated_Source\PSoC4/BLE_1_eventHandler.c ****     if(((cyBle_eventHandlerFlag & CYBLE_CALLBACK) != 0u) && (gattErr == CYBLE_GATT_ERR_NONE))
 396:Generated_Source\PSoC4/BLE_1_eventHandler.c ****     {
 397:Generated_Source\PSoC4/BLE_1_eventHandler.c ****         gattErr = CyBle_UdssWriteEventHandler(eventParam);
 398:Generated_Source\PSoC4/BLE_1_eventHandler.c ****     }
 399:Generated_Source\PSoC4/BLE_1_eventHandler.c **** #endif /* CYBLE_UDS_SERVER */
 400:Generated_Source\PSoC4/BLE_1_eventHandler.c **** #ifdef CYBLE_WPTS_SERVER
 401:Generated_Source\PSoC4/BLE_1_eventHandler.c ****     if(((cyBle_eventHandlerFlag & CYBLE_CALLBACK) != 0u) && (gattErr == CYBLE_GATT_ERR_NONE))
 402:Generated_Source\PSoC4/BLE_1_eventHandler.c ****     {
 403:Generated_Source\PSoC4/BLE_1_eventHandler.c ****         gattErr = CyBle_WptssWriteEventHandler(eventParam);
 404:Generated_Source\PSoC4/BLE_1_eventHandler.c ****     }
 405:Generated_Source\PSoC4/BLE_1_eventHandler.c **** #endif /* CYBLE_WPTS_SERVER */
 406:Generated_Source\PSoC4/BLE_1_eventHandler.c **** #ifdef CYBLE_WSS_SERVER
 407:Generated_Source\PSoC4/BLE_1_eventHandler.c ****     if(((cyBle_eventHandlerFlag & CYBLE_CALLBACK) != 0u) && (gattErr == CYBLE_GATT_ERR_NONE))
 408:Generated_Source\PSoC4/BLE_1_eventHandler.c ****     {
 409:Generated_Source\PSoC4/BLE_1_eventHandler.c ****         gattErr = CyBle_WsssWriteEventHandler(eventParam);
 410:Generated_Source\PSoC4/BLE_1_eventHandler.c ****     }
 411:Generated_Source\PSoC4/BLE_1_eventHandler.c **** #endif /* CYBLE_WSS_SERVER */
 412:Generated_Source\PSoC4/BLE_1_eventHandler.c **** 
 413:Generated_Source\PSoC4/BLE_1_eventHandler.c ****     /* Send response when event was handled by service */
 414:Generated_Source\PSoC4/BLE_1_eventHandler.c ****     if((cyBle_eventHandlerFlag & CYBLE_CALLBACK) == 0u)
  80              		.loc 1 414 0
  81 0018 144B     		ldr	r3, .L4
  82 001a 1B78     		ldrb	r3, [r3]
  83 001c DBB2     		uxtb	r3, r3
  84 001e 1A1C     		mov	r2, r3
  85 0020 0123     		mov	r3, #1
  86 0022 1340     		and	r3, r2
  87 0024 1FD1     		bne	.L1
 415:Generated_Source\PSoC4/BLE_1_eventHandler.c ****     {
 416:Generated_Source\PSoC4/BLE_1_eventHandler.c ****         if(gattErr != CYBLE_GATT_ERR_NONE)
  88              		.loc 1 416 0
  89 0026 0F23     		mov	r3, #15
  90 0028 FB18     		add	r3, r7, r3
  91 002a 1B78     		ldrb	r3, [r3]
  92 002c 002B     		cmp	r3, #0
  93 002e 16D0     		beq	.L3
ARM GAS  C:\Users\Sarah\AppData\Local\Temp\ccqSJLdk.s 			page 10


  94              	.LBB2:
 417:Generated_Source\PSoC4/BLE_1_eventHandler.c ****         {
 418:Generated_Source\PSoC4/BLE_1_eventHandler.c ****             CYBLE_GATTS_ERR_PARAM_T err_param;
 419:Generated_Source\PSoC4/BLE_1_eventHandler.c ****             
 420:Generated_Source\PSoC4/BLE_1_eventHandler.c ****             err_param.opcode = (uint8) CYBLE_GATT_WRITE_REQ;
  95              		.loc 1 420 0
  96 0030 0823     		mov	r3, #8
  97 0032 FB18     		add	r3, r7, r3
  98 0034 1222     		mov	r2, #18
  99 0036 9A70     		strb	r2, [r3, #2]
 421:Generated_Source\PSoC4/BLE_1_eventHandler.c ****             err_param.attrHandle = eventParam->handleValPair.attrHandle;
 100              		.loc 1 421 0
 101 0038 7B68     		ldr	r3, [r7, #4]
 102 003a 9A89     		ldrh	r2, [r3, #12]
 103 003c 0823     		mov	r3, #8
 104 003e FB18     		add	r3, r7, r3
 105 0040 1A80     		strh	r2, [r3]
 422:Generated_Source\PSoC4/BLE_1_eventHandler.c ****             err_param.errorCode = gattErr;
 106              		.loc 1 422 0
 107 0042 0823     		mov	r3, #8
 108 0044 FB18     		add	r3, r7, r3
 109 0046 0F22     		mov	r2, #15
 110 0048 BA18     		add	r2, r7, r2
 111 004a 1278     		ldrb	r2, [r2]
 112 004c DA70     		strb	r2, [r3, #3]
 423:Generated_Source\PSoC4/BLE_1_eventHandler.c **** 
 424:Generated_Source\PSoC4/BLE_1_eventHandler.c ****             /* Send Error Response */
 425:Generated_Source\PSoC4/BLE_1_eventHandler.c ****             (void)CyBle_GattsErrorRsp(eventParam->connHandle, &err_param);
 113              		.loc 1 425 0
 114 004e 7B68     		ldr	r3, [r7, #4]
 115 0050 0822     		mov	r2, #8
 116 0052 BA18     		add	r2, r7, r2
 117 0054 1868     		ldr	r0, [r3]
 118 0056 111C     		mov	r1, r2
 119 0058 FFF7FEFF 		bl	CyBle_GattsErrorRsp
 120              	.LBE2:
 121 005c 03E0     		b	.L1
 122              	.L3:
 426:Generated_Source\PSoC4/BLE_1_eventHandler.c ****         }
 427:Generated_Source\PSoC4/BLE_1_eventHandler.c ****         else
 428:Generated_Source\PSoC4/BLE_1_eventHandler.c ****         {
 429:Generated_Source\PSoC4/BLE_1_eventHandler.c ****             (void)CyBle_GattsWriteRsp(eventParam->connHandle);
 123              		.loc 1 429 0
 124 005e 7B68     		ldr	r3, [r7, #4]
 125 0060 1868     		ldr	r0, [r3]
 126 0062 FFF7FEFF 		bl	CyBle_GattsWriteRsp
 127              	.L1:
 430:Generated_Source\PSoC4/BLE_1_eventHandler.c ****         }
 431:Generated_Source\PSoC4/BLE_1_eventHandler.c ****     }
 432:Generated_Source\PSoC4/BLE_1_eventHandler.c **** }
 128              		.loc 1 432 0
 129 0066 BD46     		mov	sp, r7
 130 0068 05B0     		add	sp, sp, #20
 131              		@ sp needed
 132 006a 90BD     		pop	{r4, r7, pc}
 133              	.L5:
 134              		.align	2
ARM GAS  C:\Users\Sarah\AppData\Local\Temp\ccqSJLdk.s 			page 11


 135              	.L4:
 136 006c 00000000 		.word	cyBle_eventHandlerFlag
 137              		.cfi_endproc
 138              	.LFE2:
 139              		.size	CyBle_WriteReqHandler, .-CyBle_WriteReqHandler
 140              		.section	.text.CyBle_ValueConfirmation,"ax",%progbits
 141              		.align	2
 142              		.code	16
 143              		.thumb_func
 144              		.type	CyBle_ValueConfirmation, %function
 145              	CyBle_ValueConfirmation:
 146              	.LFB3:
 433:Generated_Source\PSoC4/BLE_1_eventHandler.c **** 
 434:Generated_Source\PSoC4/BLE_1_eventHandler.c **** 
 435:Generated_Source\PSoC4/BLE_1_eventHandler.c **** /****************************************************************************** 
 436:Generated_Source\PSoC4/BLE_1_eventHandler.c **** * Function Name: CyBle_ValueConfirmation
 437:Generated_Source\PSoC4/BLE_1_eventHandler.c **** ***************************************************************************//**
 438:Generated_Source\PSoC4/BLE_1_eventHandler.c **** * 
 439:Generated_Source\PSoC4/BLE_1_eventHandler.c **** *  Handles the Value Confirmation request event from the BLE stack.
 440:Generated_Source\PSoC4/BLE_1_eventHandler.c **** * 
 441:Generated_Source\PSoC4/BLE_1_eventHandler.c **** *  \param eventParam: Pointer to a structure of type 'CYBLE_CONN_HANDLE_T'
 442:Generated_Source\PSoC4/BLE_1_eventHandler.c **** * 
 443:Generated_Source\PSoC4/BLE_1_eventHandler.c **** * \return
 444:Generated_Source\PSoC4/BLE_1_eventHandler.c **** *  None
 445:Generated_Source\PSoC4/BLE_1_eventHandler.c **** * 
 446:Generated_Source\PSoC4/BLE_1_eventHandler.c **** ******************************************************************************/
 447:Generated_Source\PSoC4/BLE_1_eventHandler.c **** static void CyBle_ValueConfirmation(const CYBLE_CONN_HANDLE_T *eventParam)
 448:Generated_Source\PSoC4/BLE_1_eventHandler.c **** {
 147              		.loc 1 448 0
 148              		.cfi_startproc
 149 0000 80B5     		push	{r7, lr}
 150              		.cfi_def_cfa_offset 8
 151              		.cfi_offset 7, -8
 152              		.cfi_offset 14, -4
 153 0002 82B0     		sub	sp, sp, #8
 154              		.cfi_def_cfa_offset 16
 155 0004 00AF     		add	r7, sp, #0
 156              		.cfi_def_cfa_register 7
 157 0006 7860     		str	r0, [r7, #4]
 449:Generated_Source\PSoC4/BLE_1_eventHandler.c ****     if(eventParam != NULL)
 450:Generated_Source\PSoC4/BLE_1_eventHandler.c ****     {
 451:Generated_Source\PSoC4/BLE_1_eventHandler.c ****     #ifdef CYBLE_BCS_SERVER
 452:Generated_Source\PSoC4/BLE_1_eventHandler.c ****         CyBle_BcssConfirmationEventHandler(eventParam);
 453:Generated_Source\PSoC4/BLE_1_eventHandler.c ****     #endif /* CYBLE_BCS_SERVER */
 454:Generated_Source\PSoC4/BLE_1_eventHandler.c ****     #ifdef CYBLE_BLS_SERVER
 455:Generated_Source\PSoC4/BLE_1_eventHandler.c ****         if((cyBle_eventHandlerFlag & CYBLE_CALLBACK) != 0u)
 456:Generated_Source\PSoC4/BLE_1_eventHandler.c ****         {
 457:Generated_Source\PSoC4/BLE_1_eventHandler.c ****             CyBle_BlssConfirmationEventHandler(eventParam);
 458:Generated_Source\PSoC4/BLE_1_eventHandler.c ****         }
 459:Generated_Source\PSoC4/BLE_1_eventHandler.c ****     #endif /* CYBLE_BLS_SERVER */
 460:Generated_Source\PSoC4/BLE_1_eventHandler.c ****     
 461:Generated_Source\PSoC4/BLE_1_eventHandler.c ****     #ifdef CYBLE_CGMS_SERVER
 462:Generated_Source\PSoC4/BLE_1_eventHandler.c ****         if((cyBle_eventHandlerFlag & CYBLE_CALLBACK) != 0u)
 463:Generated_Source\PSoC4/BLE_1_eventHandler.c ****         {
 464:Generated_Source\PSoC4/BLE_1_eventHandler.c ****             CyBle_CgmssConfirmationEventHandler(eventParam);
 465:Generated_Source\PSoC4/BLE_1_eventHandler.c ****         }
 466:Generated_Source\PSoC4/BLE_1_eventHandler.c ****     #endif /* CYBLE_CGMS_SERVER */
ARM GAS  C:\Users\Sarah\AppData\Local\Temp\ccqSJLdk.s 			page 12


 467:Generated_Source\PSoC4/BLE_1_eventHandler.c ****     
 468:Generated_Source\PSoC4/BLE_1_eventHandler.c ****     #ifdef CYBLE_CPS_SERVER
 469:Generated_Source\PSoC4/BLE_1_eventHandler.c ****         if((cyBle_eventHandlerFlag & CYBLE_CALLBACK) != 0u)
 470:Generated_Source\PSoC4/BLE_1_eventHandler.c ****         {
 471:Generated_Source\PSoC4/BLE_1_eventHandler.c ****             CyBle_CpssConfirmationEventHandler(eventParam);
 472:Generated_Source\PSoC4/BLE_1_eventHandler.c ****         }
 473:Generated_Source\PSoC4/BLE_1_eventHandler.c ****     #endif /* CYBLE_CPS_SERVER */
 474:Generated_Source\PSoC4/BLE_1_eventHandler.c ****     
 475:Generated_Source\PSoC4/BLE_1_eventHandler.c ****     #ifdef CYBLE_CSCS_SERVER
 476:Generated_Source\PSoC4/BLE_1_eventHandler.c ****         if((cyBle_eventHandlerFlag & CYBLE_CALLBACK) != 0u)
 477:Generated_Source\PSoC4/BLE_1_eventHandler.c ****         {
 478:Generated_Source\PSoC4/BLE_1_eventHandler.c ****             CyBle_CscssConfirmationEventHandler(eventParam);
 479:Generated_Source\PSoC4/BLE_1_eventHandler.c ****         }
 480:Generated_Source\PSoC4/BLE_1_eventHandler.c ****     #endif /* CYBLE_CSCS_SERVER */
 481:Generated_Source\PSoC4/BLE_1_eventHandler.c ****     
 482:Generated_Source\PSoC4/BLE_1_eventHandler.c ****     #ifdef CYBLE_ESS_SERVER
 483:Generated_Source\PSoC4/BLE_1_eventHandler.c ****         if((cyBle_eventHandlerFlag & CYBLE_CALLBACK) != 0u)
 484:Generated_Source\PSoC4/BLE_1_eventHandler.c ****         {
 485:Generated_Source\PSoC4/BLE_1_eventHandler.c ****             CyBle_EsssConfirmationEventHandler(eventParam);
 486:Generated_Source\PSoC4/BLE_1_eventHandler.c ****         }
 487:Generated_Source\PSoC4/BLE_1_eventHandler.c ****     #endif /* CYBLE_ESS_SERVER */
 488:Generated_Source\PSoC4/BLE_1_eventHandler.c ****     
 489:Generated_Source\PSoC4/BLE_1_eventHandler.c ****     #ifdef CYBLE_GLS_SERVER
 490:Generated_Source\PSoC4/BLE_1_eventHandler.c ****         if((cyBle_eventHandlerFlag & CYBLE_CALLBACK) != 0u)
 491:Generated_Source\PSoC4/BLE_1_eventHandler.c ****         {
 492:Generated_Source\PSoC4/BLE_1_eventHandler.c ****             CyBle_GlssConfirmationEventHandler(eventParam);
 493:Generated_Source\PSoC4/BLE_1_eventHandler.c ****         }
 494:Generated_Source\PSoC4/BLE_1_eventHandler.c ****     #endif /* CYBLE_GLS_SERVER */
 495:Generated_Source\PSoC4/BLE_1_eventHandler.c ****     
 496:Generated_Source\PSoC4/BLE_1_eventHandler.c ****     #ifdef CYBLE_HTS_SERVER
 497:Generated_Source\PSoC4/BLE_1_eventHandler.c ****         if((cyBle_eventHandlerFlag & CYBLE_CALLBACK) != 0u)
 498:Generated_Source\PSoC4/BLE_1_eventHandler.c ****         {
 499:Generated_Source\PSoC4/BLE_1_eventHandler.c ****             CyBle_HtssConfirmationEventHandler(eventParam);
 500:Generated_Source\PSoC4/BLE_1_eventHandler.c ****         }
 501:Generated_Source\PSoC4/BLE_1_eventHandler.c ****     #endif /* CYBLE_HTS_SERVER */
 502:Generated_Source\PSoC4/BLE_1_eventHandler.c **** 
 503:Generated_Source\PSoC4/BLE_1_eventHandler.c ****     #ifdef CYBLE_LNS_SERVER
 504:Generated_Source\PSoC4/BLE_1_eventHandler.c ****         if((cyBle_eventHandlerFlag & CYBLE_CALLBACK) != 0u)
 505:Generated_Source\PSoC4/BLE_1_eventHandler.c ****         {
 506:Generated_Source\PSoC4/BLE_1_eventHandler.c ****             CyBle_LnssConfirmationEventHandler(eventParam);
 507:Generated_Source\PSoC4/BLE_1_eventHandler.c ****         }
 508:Generated_Source\PSoC4/BLE_1_eventHandler.c ****     #endif /* CYBLE_LNS_SERVER */
 509:Generated_Source\PSoC4/BLE_1_eventHandler.c ****     
 510:Generated_Source\PSoC4/BLE_1_eventHandler.c ****     #ifdef CYBLE_RSCS_SERVER
 511:Generated_Source\PSoC4/BLE_1_eventHandler.c ****         if((cyBle_eventHandlerFlag & CYBLE_CALLBACK) != 0u)
 512:Generated_Source\PSoC4/BLE_1_eventHandler.c ****         {
 513:Generated_Source\PSoC4/BLE_1_eventHandler.c ****             CyBle_RscssConfirmationEventHandler(eventParam);
 514:Generated_Source\PSoC4/BLE_1_eventHandler.c ****         }
 515:Generated_Source\PSoC4/BLE_1_eventHandler.c ****     #endif /* CYBLE_RSCS_SERVER */
 516:Generated_Source\PSoC4/BLE_1_eventHandler.c ****     
 517:Generated_Source\PSoC4/BLE_1_eventHandler.c ****     #ifdef CYBLE_UDS_SERVER
 518:Generated_Source\PSoC4/BLE_1_eventHandler.c ****         if((cyBle_eventHandlerFlag & CYBLE_CALLBACK) != 0u)
 519:Generated_Source\PSoC4/BLE_1_eventHandler.c ****         {
 520:Generated_Source\PSoC4/BLE_1_eventHandler.c ****             CyBle_UdssConfirmationEventHandler(eventParam);
 521:Generated_Source\PSoC4/BLE_1_eventHandler.c ****         }
 522:Generated_Source\PSoC4/BLE_1_eventHandler.c ****     #endif /* CYBLE_UDS_SERVER */
 523:Generated_Source\PSoC4/BLE_1_eventHandler.c ****     
ARM GAS  C:\Users\Sarah\AppData\Local\Temp\ccqSJLdk.s 			page 13


 524:Generated_Source\PSoC4/BLE_1_eventHandler.c ****     #ifdef CYBLE_WPTS_SERVER
 525:Generated_Source\PSoC4/BLE_1_eventHandler.c ****         if((cyBle_eventHandlerFlag & CYBLE_CALLBACK) != 0u)
 526:Generated_Source\PSoC4/BLE_1_eventHandler.c ****         {
 527:Generated_Source\PSoC4/BLE_1_eventHandler.c ****             CyBle_WptssConfirmationEventHandler(eventParam);
 528:Generated_Source\PSoC4/BLE_1_eventHandler.c ****         }
 529:Generated_Source\PSoC4/BLE_1_eventHandler.c ****     #endif /* CYBLE_WPTS_SERVER */
 530:Generated_Source\PSoC4/BLE_1_eventHandler.c ****     
 531:Generated_Source\PSoC4/BLE_1_eventHandler.c ****     #ifdef CYBLE_WSS_SERVER
 532:Generated_Source\PSoC4/BLE_1_eventHandler.c ****         if((cyBle_eventHandlerFlag & CYBLE_CALLBACK) != 0u)
 533:Generated_Source\PSoC4/BLE_1_eventHandler.c ****         {
 534:Generated_Source\PSoC4/BLE_1_eventHandler.c ****             CyBle_WsssConfirmationEventHandler(eventParam);
 535:Generated_Source\PSoC4/BLE_1_eventHandler.c ****         }
 536:Generated_Source\PSoC4/BLE_1_eventHandler.c ****     #endif /* CYBLE_WSS_SERVER */
 537:Generated_Source\PSoC4/BLE_1_eventHandler.c ****     }
 538:Generated_Source\PSoC4/BLE_1_eventHandler.c **** }
 158              		.loc 1 538 0
 159 0008 BD46     		mov	sp, r7
 160 000a 02B0     		add	sp, sp, #8
 161              		@ sp needed
 162 000c 80BD     		pop	{r7, pc}
 163              		.cfi_endproc
 164              	.LFE3:
 165              		.size	CyBle_ValueConfirmation, .-CyBle_ValueConfirmation
 166              		.section	.text.CyBle_GattcWriteResponseEventHandler,"ax",%progbits
 167              		.align	2
 168              		.code	16
 169              		.thumb_func
 170              		.type	CyBle_GattcWriteResponseEventHandler, %function
 171              	CyBle_GattcWriteResponseEventHandler:
 172              	.LFB4:
 539:Generated_Source\PSoC4/BLE_1_eventHandler.c **** 
 540:Generated_Source\PSoC4/BLE_1_eventHandler.c **** #endif /* CYBLE_GATT_ROLE_SERVER */
 541:Generated_Source\PSoC4/BLE_1_eventHandler.c **** 
 542:Generated_Source\PSoC4/BLE_1_eventHandler.c **** 
 543:Generated_Source\PSoC4/BLE_1_eventHandler.c **** #if (CYBLE_GATT_ROLE_CLIENT)
 544:Generated_Source\PSoC4/BLE_1_eventHandler.c **** 
 545:Generated_Source\PSoC4/BLE_1_eventHandler.c **** /****************************************************************************** 
 546:Generated_Source\PSoC4/BLE_1_eventHandler.c **** * Function Name: CyBle_GattcWriteResponseEventHandler
 547:Generated_Source\PSoC4/BLE_1_eventHandler.c **** ***************************************************************************//**
 548:Generated_Source\PSoC4/BLE_1_eventHandler.c **** * 
 549:Generated_Source\PSoC4/BLE_1_eventHandler.c **** *  Handles the Write response event from the BLE stack.
 550:Generated_Source\PSoC4/BLE_1_eventHandler.c **** * 
 551:Generated_Source\PSoC4/BLE_1_eventHandler.c **** *  \param eventParam: Pointer to a structure of type 'CYBLE_CONN_HANDLE_T'
 552:Generated_Source\PSoC4/BLE_1_eventHandler.c **** * 
 553:Generated_Source\PSoC4/BLE_1_eventHandler.c **** * \return
 554:Generated_Source\PSoC4/BLE_1_eventHandler.c **** *  None
 555:Generated_Source\PSoC4/BLE_1_eventHandler.c **** * 
 556:Generated_Source\PSoC4/BLE_1_eventHandler.c **** ******************************************************************************/
 557:Generated_Source\PSoC4/BLE_1_eventHandler.c **** static void CyBle_GattcWriteResponseEventHandler(const CYBLE_CONN_HANDLE_T *eventParam)
 558:Generated_Source\PSoC4/BLE_1_eventHandler.c **** {
 173              		.loc 1 558 0
 174              		.cfi_startproc
 175 0000 80B5     		push	{r7, lr}
 176              		.cfi_def_cfa_offset 8
 177              		.cfi_offset 7, -8
 178              		.cfi_offset 14, -4
 179 0002 82B0     		sub	sp, sp, #8
ARM GAS  C:\Users\Sarah\AppData\Local\Temp\ccqSJLdk.s 			page 14


 180              		.cfi_def_cfa_offset 16
 181 0004 00AF     		add	r7, sp, #0
 182              		.cfi_def_cfa_register 7
 183 0006 7860     		str	r0, [r7, #4]
 559:Generated_Source\PSoC4/BLE_1_eventHandler.c **** #ifdef CYBLE_ANCS_CLIENT
 560:Generated_Source\PSoC4/BLE_1_eventHandler.c ****     CyBle_AncscWriteResponseEventHandler(eventParam);
 561:Generated_Source\PSoC4/BLE_1_eventHandler.c **** #endif /* CYBLE_ANCS_CLIENT */
 562:Generated_Source\PSoC4/BLE_1_eventHandler.c **** 
 563:Generated_Source\PSoC4/BLE_1_eventHandler.c **** #ifdef CYBLE_ANS_CLIENT
 564:Generated_Source\PSoC4/BLE_1_eventHandler.c ****     if((cyBle_eventHandlerFlag & CYBLE_CALLBACK) != 0u)
 565:Generated_Source\PSoC4/BLE_1_eventHandler.c ****     {
 566:Generated_Source\PSoC4/BLE_1_eventHandler.c ****         CyBle_AnscWriteResponseEventHandler(eventParam);
 567:Generated_Source\PSoC4/BLE_1_eventHandler.c ****     }
 568:Generated_Source\PSoC4/BLE_1_eventHandler.c **** #endif /* CYBLE_ANS_CLIENT */
 569:Generated_Source\PSoC4/BLE_1_eventHandler.c **** 
 570:Generated_Source\PSoC4/BLE_1_eventHandler.c **** #ifdef CYBLE_BAS_CLIENT
 571:Generated_Source\PSoC4/BLE_1_eventHandler.c ****     if((cyBle_eventHandlerFlag & CYBLE_CALLBACK) != 0u)
 572:Generated_Source\PSoC4/BLE_1_eventHandler.c ****     {
 573:Generated_Source\PSoC4/BLE_1_eventHandler.c ****         CyBle_BascWriteResponseEventHandler(eventParam);
 574:Generated_Source\PSoC4/BLE_1_eventHandler.c ****     }
 575:Generated_Source\PSoC4/BLE_1_eventHandler.c **** #endif /* CYBLE_BAS_CLIENT */
 576:Generated_Source\PSoC4/BLE_1_eventHandler.c **** 
 577:Generated_Source\PSoC4/BLE_1_eventHandler.c **** #ifdef CYBLE_BCS_CLIENT
 578:Generated_Source\PSoC4/BLE_1_eventHandler.c ****     if((cyBle_eventHandlerFlag & CYBLE_CALLBACK) != 0u)
 579:Generated_Source\PSoC4/BLE_1_eventHandler.c ****     {
 580:Generated_Source\PSoC4/BLE_1_eventHandler.c ****         CyBle_BcscWriteResponseEventHandler(eventParam);
 581:Generated_Source\PSoC4/BLE_1_eventHandler.c ****     }
 582:Generated_Source\PSoC4/BLE_1_eventHandler.c **** #endif /* CYBLE_BCS_CLIENT */
 583:Generated_Source\PSoC4/BLE_1_eventHandler.c **** 
 584:Generated_Source\PSoC4/BLE_1_eventHandler.c **** #ifdef CYBLE_BLS_CLIENT
 585:Generated_Source\PSoC4/BLE_1_eventHandler.c ****     if((cyBle_eventHandlerFlag & CYBLE_CALLBACK) != 0u)
 586:Generated_Source\PSoC4/BLE_1_eventHandler.c ****     {
 587:Generated_Source\PSoC4/BLE_1_eventHandler.c ****         CyBle_BlscWriteResponseEventHandler(eventParam);
 588:Generated_Source\PSoC4/BLE_1_eventHandler.c ****     }
 589:Generated_Source\PSoC4/BLE_1_eventHandler.c **** #endif /* CYBLE_BLS_CLIENT */
 590:Generated_Source\PSoC4/BLE_1_eventHandler.c **** 
 591:Generated_Source\PSoC4/BLE_1_eventHandler.c **** #ifdef CYBLE_BMS_CLIENT
 592:Generated_Source\PSoC4/BLE_1_eventHandler.c ****     if((cyBle_eventHandlerFlag & CYBLE_CALLBACK) != 0u)
 593:Generated_Source\PSoC4/BLE_1_eventHandler.c ****     {
 594:Generated_Source\PSoC4/BLE_1_eventHandler.c ****         CyBle_BmscWriteResponseEventHandler(eventParam);
 595:Generated_Source\PSoC4/BLE_1_eventHandler.c ****     }
 596:Generated_Source\PSoC4/BLE_1_eventHandler.c **** #endif /* CYBLE_BMS_CLIENT */
 597:Generated_Source\PSoC4/BLE_1_eventHandler.c **** 
 598:Generated_Source\PSoC4/BLE_1_eventHandler.c **** #ifdef CYBLE_CGMS_CLIENT
 599:Generated_Source\PSoC4/BLE_1_eventHandler.c ****     if((cyBle_eventHandlerFlag & CYBLE_CALLBACK) != 0u)
 600:Generated_Source\PSoC4/BLE_1_eventHandler.c ****     {
 601:Generated_Source\PSoC4/BLE_1_eventHandler.c ****         CyBle_CgmscWriteResponseEventHandler(eventParam);
 602:Generated_Source\PSoC4/BLE_1_eventHandler.c ****     }
 603:Generated_Source\PSoC4/BLE_1_eventHandler.c **** #endif /* CYBLE_CGMS_CLIENT */
 604:Generated_Source\PSoC4/BLE_1_eventHandler.c **** 
 605:Generated_Source\PSoC4/BLE_1_eventHandler.c **** #ifdef CYBLE_CPS_CLIENT
 606:Generated_Source\PSoC4/BLE_1_eventHandler.c ****     if((cyBle_eventHandlerFlag & CYBLE_CALLBACK) != 0u)
 607:Generated_Source\PSoC4/BLE_1_eventHandler.c ****     {
 608:Generated_Source\PSoC4/BLE_1_eventHandler.c ****         CyBle_CpscWriteResponseEventHandler(eventParam);
 609:Generated_Source\PSoC4/BLE_1_eventHandler.c ****     }
 610:Generated_Source\PSoC4/BLE_1_eventHandler.c **** #endif /* CYBLE_CPS_CLIENT */
 611:Generated_Source\PSoC4/BLE_1_eventHandler.c **** 
ARM GAS  C:\Users\Sarah\AppData\Local\Temp\ccqSJLdk.s 			page 15


 612:Generated_Source\PSoC4/BLE_1_eventHandler.c **** #ifdef CYBLE_CSCS_CLIENT
 613:Generated_Source\PSoC4/BLE_1_eventHandler.c ****     if((cyBle_eventHandlerFlag & CYBLE_CALLBACK) != 0u)
 614:Generated_Source\PSoC4/BLE_1_eventHandler.c ****     {
 615:Generated_Source\PSoC4/BLE_1_eventHandler.c ****         CyBle_CscscWriteResponseEventHandler(eventParam);
 616:Generated_Source\PSoC4/BLE_1_eventHandler.c ****     }
 617:Generated_Source\PSoC4/BLE_1_eventHandler.c **** #endif /* CYBLE_CSCS_CLIENT */
 618:Generated_Source\PSoC4/BLE_1_eventHandler.c **** 
 619:Generated_Source\PSoC4/BLE_1_eventHandler.c **** #ifdef CYBLE_CTS_CLIENT
 620:Generated_Source\PSoC4/BLE_1_eventHandler.c ****     if((cyBle_eventHandlerFlag & CYBLE_CALLBACK) != 0u)
 621:Generated_Source\PSoC4/BLE_1_eventHandler.c ****     {
 622:Generated_Source\PSoC4/BLE_1_eventHandler.c ****         CyBle_CtscWriteResponseEventHandler(eventParam);
 623:Generated_Source\PSoC4/BLE_1_eventHandler.c ****     }
 624:Generated_Source\PSoC4/BLE_1_eventHandler.c **** #endif /* CYBLE_CTS_CLIENT */
 625:Generated_Source\PSoC4/BLE_1_eventHandler.c **** 
 626:Generated_Source\PSoC4/BLE_1_eventHandler.c **** #ifdef CYBLE_ESS_CLIENT
 627:Generated_Source\PSoC4/BLE_1_eventHandler.c ****     if((cyBle_eventHandlerFlag & CYBLE_CALLBACK) != 0u)
 628:Generated_Source\PSoC4/BLE_1_eventHandler.c ****     {
 629:Generated_Source\PSoC4/BLE_1_eventHandler.c ****         CyBle_EsscWriteResponseEventHandler(eventParam);
 630:Generated_Source\PSoC4/BLE_1_eventHandler.c ****     }
 631:Generated_Source\PSoC4/BLE_1_eventHandler.c **** #endif /* CYBLE_ESS_CLIENT */
 632:Generated_Source\PSoC4/BLE_1_eventHandler.c **** 
 633:Generated_Source\PSoC4/BLE_1_eventHandler.c **** #ifdef CYBLE_GLS_CLIENT
 634:Generated_Source\PSoC4/BLE_1_eventHandler.c ****     if((cyBle_eventHandlerFlag & CYBLE_CALLBACK) != 0u)
 635:Generated_Source\PSoC4/BLE_1_eventHandler.c ****     {
 636:Generated_Source\PSoC4/BLE_1_eventHandler.c ****         CyBle_GlscWriteResponseEventHandler(eventParam);
 637:Generated_Source\PSoC4/BLE_1_eventHandler.c ****     }
 638:Generated_Source\PSoC4/BLE_1_eventHandler.c **** #endif /* CYBLE_GLS_CLIENT */
 639:Generated_Source\PSoC4/BLE_1_eventHandler.c **** 
 640:Generated_Source\PSoC4/BLE_1_eventHandler.c **** #ifdef CYBLE_HIDS_CLIENT
 641:Generated_Source\PSoC4/BLE_1_eventHandler.c ****     if((cyBle_eventHandlerFlag & CYBLE_CALLBACK) != 0u)
 642:Generated_Source\PSoC4/BLE_1_eventHandler.c ****     {
 643:Generated_Source\PSoC4/BLE_1_eventHandler.c ****         CyBle_HidscWriteResponseEventHandler(eventParam);
 644:Generated_Source\PSoC4/BLE_1_eventHandler.c ****     }
 645:Generated_Source\PSoC4/BLE_1_eventHandler.c **** #endif /* CYBLE_HIDS_CLIENT */
 646:Generated_Source\PSoC4/BLE_1_eventHandler.c **** 
 647:Generated_Source\PSoC4/BLE_1_eventHandler.c **** #ifdef CYBLE_HPS_CLIENT
 648:Generated_Source\PSoC4/BLE_1_eventHandler.c ****     if((cyBle_eventHandlerFlag & CYBLE_CALLBACK) != 0u)
 649:Generated_Source\PSoC4/BLE_1_eventHandler.c ****     {
 650:Generated_Source\PSoC4/BLE_1_eventHandler.c ****         CyBle_HpscWriteResponseEventHandler(eventParam);
 651:Generated_Source\PSoC4/BLE_1_eventHandler.c ****     }
 652:Generated_Source\PSoC4/BLE_1_eventHandler.c **** #endif /* CYBLE_HPS_CLIENT */
 653:Generated_Source\PSoC4/BLE_1_eventHandler.c **** 
 654:Generated_Source\PSoC4/BLE_1_eventHandler.c **** #ifdef CYBLE_HRS_CLIENT
 655:Generated_Source\PSoC4/BLE_1_eventHandler.c ****     if((cyBle_eventHandlerFlag & CYBLE_CALLBACK) != 0u)
 656:Generated_Source\PSoC4/BLE_1_eventHandler.c ****     {
 657:Generated_Source\PSoC4/BLE_1_eventHandler.c ****         CyBle_HrscWriteResponseEventHandler(eventParam);
 658:Generated_Source\PSoC4/BLE_1_eventHandler.c ****     }
 659:Generated_Source\PSoC4/BLE_1_eventHandler.c **** #endif /* CYBLE_HRS_CLIENT */
 660:Generated_Source\PSoC4/BLE_1_eventHandler.c **** 
 661:Generated_Source\PSoC4/BLE_1_eventHandler.c **** #ifdef CYBLE_HTS_CLIENT
 662:Generated_Source\PSoC4/BLE_1_eventHandler.c ****     if((cyBle_eventHandlerFlag & CYBLE_CALLBACK) != 0u)
 663:Generated_Source\PSoC4/BLE_1_eventHandler.c ****     {
 664:Generated_Source\PSoC4/BLE_1_eventHandler.c ****         CyBle_HtscWriteResponseEventHandler(eventParam);
 665:Generated_Source\PSoC4/BLE_1_eventHandler.c ****     }
 666:Generated_Source\PSoC4/BLE_1_eventHandler.c **** #endif /* CYBLE_HTS_CLIENT */
 667:Generated_Source\PSoC4/BLE_1_eventHandler.c **** 
 668:Generated_Source\PSoC4/BLE_1_eventHandler.c **** #ifdef CYBLE_IPS_CLIENT
ARM GAS  C:\Users\Sarah\AppData\Local\Temp\ccqSJLdk.s 			page 16


 669:Generated_Source\PSoC4/BLE_1_eventHandler.c ****     if((cyBle_eventHandlerFlag & CYBLE_CALLBACK) != 0u)
 670:Generated_Source\PSoC4/BLE_1_eventHandler.c ****     {
 671:Generated_Source\PSoC4/BLE_1_eventHandler.c ****         CyBle_IpscWriteResponseEventHandler(eventParam);
 672:Generated_Source\PSoC4/BLE_1_eventHandler.c ****     }
 673:Generated_Source\PSoC4/BLE_1_eventHandler.c **** #endif /* CYBLE_IPS_CLIENT */
 674:Generated_Source\PSoC4/BLE_1_eventHandler.c **** 
 675:Generated_Source\PSoC4/BLE_1_eventHandler.c **** #ifdef CYBLE_LLS_CLIENT
 676:Generated_Source\PSoC4/BLE_1_eventHandler.c ****     if((cyBle_eventHandlerFlag & CYBLE_CALLBACK) != 0u)
 677:Generated_Source\PSoC4/BLE_1_eventHandler.c ****     {
 678:Generated_Source\PSoC4/BLE_1_eventHandler.c ****         CyBle_LlscWriteResponseEventHandler(eventParam);
 679:Generated_Source\PSoC4/BLE_1_eventHandler.c ****     }
 680:Generated_Source\PSoC4/BLE_1_eventHandler.c **** #endif /* CYBLE_LLS_CLIENT */
 681:Generated_Source\PSoC4/BLE_1_eventHandler.c **** 
 682:Generated_Source\PSoC4/BLE_1_eventHandler.c **** #ifdef CYBLE_LNS_CLIENT
 683:Generated_Source\PSoC4/BLE_1_eventHandler.c ****     if((cyBle_eventHandlerFlag & CYBLE_CALLBACK) != 0u)
 684:Generated_Source\PSoC4/BLE_1_eventHandler.c ****     {
 685:Generated_Source\PSoC4/BLE_1_eventHandler.c ****         CyBle_LnscWriteResponseEventHandler(eventParam);
 686:Generated_Source\PSoC4/BLE_1_eventHandler.c ****     }
 687:Generated_Source\PSoC4/BLE_1_eventHandler.c **** #endif /* CYBLE_LNS_CLIENT */
 688:Generated_Source\PSoC4/BLE_1_eventHandler.c **** 
 689:Generated_Source\PSoC4/BLE_1_eventHandler.c **** #ifdef CYBLE_PASS_CLIENT
 690:Generated_Source\PSoC4/BLE_1_eventHandler.c ****     if((cyBle_eventHandlerFlag & CYBLE_CALLBACK) != 0u)
 691:Generated_Source\PSoC4/BLE_1_eventHandler.c ****     {
 692:Generated_Source\PSoC4/BLE_1_eventHandler.c ****         CyBle_PasscWriteResponseEventHandler(eventParam);
 693:Generated_Source\PSoC4/BLE_1_eventHandler.c ****     }
 694:Generated_Source\PSoC4/BLE_1_eventHandler.c **** #endif /* CYBLE_PASS_CLIENT */
 695:Generated_Source\PSoC4/BLE_1_eventHandler.c **** 
 696:Generated_Source\PSoC4/BLE_1_eventHandler.c **** #ifdef CYBLE_PLXS_CLIENT
 697:Generated_Source\PSoC4/BLE_1_eventHandler.c ****     if((cyBle_eventHandlerFlag & CYBLE_CALLBACK) != 0u)
 698:Generated_Source\PSoC4/BLE_1_eventHandler.c ****     {
 699:Generated_Source\PSoC4/BLE_1_eventHandler.c ****         CyBle_PlxscWriteResponseEventHandler(eventParam);
 700:Generated_Source\PSoC4/BLE_1_eventHandler.c ****     }
 701:Generated_Source\PSoC4/BLE_1_eventHandler.c **** #endif /* CYBLE_PASS_CLIENT */
 702:Generated_Source\PSoC4/BLE_1_eventHandler.c **** 
 703:Generated_Source\PSoC4/BLE_1_eventHandler.c **** #ifdef CYBLE_RSCS_CLIENT
 704:Generated_Source\PSoC4/BLE_1_eventHandler.c ****     if((cyBle_eventHandlerFlag & CYBLE_CALLBACK) != 0u)
 705:Generated_Source\PSoC4/BLE_1_eventHandler.c ****     {
 706:Generated_Source\PSoC4/BLE_1_eventHandler.c ****         CyBle_RscscWriteResponseEventHandler(eventParam);
 707:Generated_Source\PSoC4/BLE_1_eventHandler.c ****     }
 708:Generated_Source\PSoC4/BLE_1_eventHandler.c **** #endif /* CYBLE_RSCS_CLIENT */
 709:Generated_Source\PSoC4/BLE_1_eventHandler.c **** 
 710:Generated_Source\PSoC4/BLE_1_eventHandler.c **** #ifdef CYBLE_SCPS_CLIENT
 711:Generated_Source\PSoC4/BLE_1_eventHandler.c ****     if((cyBle_eventHandlerFlag & CYBLE_CALLBACK) != 0u)
 712:Generated_Source\PSoC4/BLE_1_eventHandler.c ****     {
 713:Generated_Source\PSoC4/BLE_1_eventHandler.c ****         CyBle_ScpscWriteResponseEventHandler(eventParam);
 714:Generated_Source\PSoC4/BLE_1_eventHandler.c ****     }
 715:Generated_Source\PSoC4/BLE_1_eventHandler.c **** #endif /* CYBLE_SCPS_CLIENT */
 716:Generated_Source\PSoC4/BLE_1_eventHandler.c **** 
 717:Generated_Source\PSoC4/BLE_1_eventHandler.c **** #ifdef CYBLE_TPS_CLIENT
 718:Generated_Source\PSoC4/BLE_1_eventHandler.c ****     if((cyBle_eventHandlerFlag & CYBLE_CALLBACK) != 0u)
 719:Generated_Source\PSoC4/BLE_1_eventHandler.c ****     {
 720:Generated_Source\PSoC4/BLE_1_eventHandler.c ****         CyBle_TpscWriteResponseEventHandler(eventParam);
 721:Generated_Source\PSoC4/BLE_1_eventHandler.c ****     }
 722:Generated_Source\PSoC4/BLE_1_eventHandler.c **** #endif /* CYBLE_TPS_CLIENT */
 723:Generated_Source\PSoC4/BLE_1_eventHandler.c **** 
 724:Generated_Source\PSoC4/BLE_1_eventHandler.c **** #ifdef CYBLE_UDS_CLIENT
 725:Generated_Source\PSoC4/BLE_1_eventHandler.c ****     if((cyBle_eventHandlerFlag & CYBLE_CALLBACK) != 0u)
ARM GAS  C:\Users\Sarah\AppData\Local\Temp\ccqSJLdk.s 			page 17


 726:Generated_Source\PSoC4/BLE_1_eventHandler.c ****     {
 727:Generated_Source\PSoC4/BLE_1_eventHandler.c ****         CyBle_UdscWriteResponseEventHandler(eventParam);
 728:Generated_Source\PSoC4/BLE_1_eventHandler.c ****     }
 729:Generated_Source\PSoC4/BLE_1_eventHandler.c **** #endif /* CYBLE_UDS_CLIENT */
 730:Generated_Source\PSoC4/BLE_1_eventHandler.c **** #ifdef CYBLE_WPTS_CLIENT
 731:Generated_Source\PSoC4/BLE_1_eventHandler.c ****     if((cyBle_eventHandlerFlag & CYBLE_CALLBACK) != 0u)
 732:Generated_Source\PSoC4/BLE_1_eventHandler.c ****     {
 733:Generated_Source\PSoC4/BLE_1_eventHandler.c ****         CyBle_WptscWriteResponseEventHandler(eventParam);
 734:Generated_Source\PSoC4/BLE_1_eventHandler.c ****     }
 735:Generated_Source\PSoC4/BLE_1_eventHandler.c **** #endif /* CYBLE_WPTS_CLIENT */
 736:Generated_Source\PSoC4/BLE_1_eventHandler.c **** #ifdef CYBLE_WSS_CLIENT
 737:Generated_Source\PSoC4/BLE_1_eventHandler.c ****     if((cyBle_eventHandlerFlag & CYBLE_CALLBACK) != 0u)
 738:Generated_Source\PSoC4/BLE_1_eventHandler.c ****     {
 739:Generated_Source\PSoC4/BLE_1_eventHandler.c ****         CyBle_WsscWriteResponseEventHandler(eventParam);
 740:Generated_Source\PSoC4/BLE_1_eventHandler.c ****     }
 741:Generated_Source\PSoC4/BLE_1_eventHandler.c **** #endif /* CYBLE_WSS_CLIENT */
 742:Generated_Source\PSoC4/BLE_1_eventHandler.c **** }
 184              		.loc 1 742 0
 185 0008 BD46     		mov	sp, r7
 186 000a 02B0     		add	sp, sp, #8
 187              		@ sp needed
 188 000c 80BD     		pop	{r7, pc}
 189              		.cfi_endproc
 190              	.LFE4:
 191              		.size	CyBle_GattcWriteResponseEventHandler, .-CyBle_GattcWriteResponseEventHandler
 192              		.section	.text.CyBle_NotificationEventHandler,"ax",%progbits
 193              		.align	2
 194              		.code	16
 195              		.thumb_func
 196              		.type	CyBle_NotificationEventHandler, %function
 197              	CyBle_NotificationEventHandler:
 198              	.LFB5:
 743:Generated_Source\PSoC4/BLE_1_eventHandler.c **** 
 744:Generated_Source\PSoC4/BLE_1_eventHandler.c **** 
 745:Generated_Source\PSoC4/BLE_1_eventHandler.c **** /******************************************************************************    
 746:Generated_Source\PSoC4/BLE_1_eventHandler.c **** * Function Name: CyBle_NotificationEventHandler
 747:Generated_Source\PSoC4/BLE_1_eventHandler.c **** ***************************************************************************//**
 748:Generated_Source\PSoC4/BLE_1_eventHandler.c **** * 
 749:Generated_Source\PSoC4/BLE_1_eventHandler.c **** *  Handles the Notification event from BLE stack.
 750:Generated_Source\PSoC4/BLE_1_eventHandler.c **** * 
 751:Generated_Source\PSoC4/BLE_1_eventHandler.c **** *  \param eventParam: event parameter
 752:Generated_Source\PSoC4/BLE_1_eventHandler.c **** * 
 753:Generated_Source\PSoC4/BLE_1_eventHandler.c **** * \return
 754:Generated_Source\PSoC4/BLE_1_eventHandler.c **** *  None
 755:Generated_Source\PSoC4/BLE_1_eventHandler.c **** * 
 756:Generated_Source\PSoC4/BLE_1_eventHandler.c **** ******************************************************************************/
 757:Generated_Source\PSoC4/BLE_1_eventHandler.c **** static void CyBle_NotificationEventHandler(CYBLE_GATTC_HANDLE_VALUE_NTF_PARAM_T *eventParam)
 758:Generated_Source\PSoC4/BLE_1_eventHandler.c **** {
 199              		.loc 1 758 0
 200              		.cfi_startproc
 201 0000 80B5     		push	{r7, lr}
 202              		.cfi_def_cfa_offset 8
 203              		.cfi_offset 7, -8
 204              		.cfi_offset 14, -4
 205 0002 82B0     		sub	sp, sp, #8
 206              		.cfi_def_cfa_offset 16
 207 0004 00AF     		add	r7, sp, #0
ARM GAS  C:\Users\Sarah\AppData\Local\Temp\ccqSJLdk.s 			page 18


 208              		.cfi_def_cfa_register 7
 209 0006 7860     		str	r0, [r7, #4]
 759:Generated_Source\PSoC4/BLE_1_eventHandler.c **** #ifdef CYBLE_ANCS_CLIENT
 760:Generated_Source\PSoC4/BLE_1_eventHandler.c ****     CyBle_AncscNotificationEventHandler(eventParam);
 761:Generated_Source\PSoC4/BLE_1_eventHandler.c **** #endif /* CYBLE_ANCS_CLIENT */
 762:Generated_Source\PSoC4/BLE_1_eventHandler.c **** #ifdef CYBLE_ANS_CLIENT
 763:Generated_Source\PSoC4/BLE_1_eventHandler.c ****     if((cyBle_eventHandlerFlag & CYBLE_CALLBACK) != 0u)
 764:Generated_Source\PSoC4/BLE_1_eventHandler.c ****     {
 765:Generated_Source\PSoC4/BLE_1_eventHandler.c ****         CyBle_AnscNotificationEventHandler(eventParam);
 766:Generated_Source\PSoC4/BLE_1_eventHandler.c ****     }
 767:Generated_Source\PSoC4/BLE_1_eventHandler.c **** #endif /* CYBLE_ANS_CLIENT */
 768:Generated_Source\PSoC4/BLE_1_eventHandler.c **** #ifdef CYBLE_BAS_CLIENT
 769:Generated_Source\PSoC4/BLE_1_eventHandler.c ****     if((cyBle_eventHandlerFlag & CYBLE_CALLBACK) != 0u)
 770:Generated_Source\PSoC4/BLE_1_eventHandler.c ****     {
 771:Generated_Source\PSoC4/BLE_1_eventHandler.c ****         CyBle_BascNotificationEventHandler(eventParam);
 772:Generated_Source\PSoC4/BLE_1_eventHandler.c ****     }
 773:Generated_Source\PSoC4/BLE_1_eventHandler.c **** #endif /* CYBLE_BAS_CLIENT */
 774:Generated_Source\PSoC4/BLE_1_eventHandler.c **** #ifdef CYBLE_BLS_CLIENT
 775:Generated_Source\PSoC4/BLE_1_eventHandler.c ****     if((cyBle_eventHandlerFlag & CYBLE_CALLBACK) != 0u)
 776:Generated_Source\PSoC4/BLE_1_eventHandler.c ****     {
 777:Generated_Source\PSoC4/BLE_1_eventHandler.c ****         CyBle_BlscNotificationEventHandler(eventParam);
 778:Generated_Source\PSoC4/BLE_1_eventHandler.c ****     }
 779:Generated_Source\PSoC4/BLE_1_eventHandler.c **** #endif /* CYBLE_BLS_CLIENT */
 780:Generated_Source\PSoC4/BLE_1_eventHandler.c **** #ifdef CYBLE_CGMS_CLIENT
 781:Generated_Source\PSoC4/BLE_1_eventHandler.c ****     if((cyBle_eventHandlerFlag & CYBLE_CALLBACK) != 0u)
 782:Generated_Source\PSoC4/BLE_1_eventHandler.c ****     {
 783:Generated_Source\PSoC4/BLE_1_eventHandler.c ****         CyBle_CgmscNotificationEventHandler(eventParam);
 784:Generated_Source\PSoC4/BLE_1_eventHandler.c ****     }
 785:Generated_Source\PSoC4/BLE_1_eventHandler.c **** #endif /* CYBLE_CGMS_CLIENT */
 786:Generated_Source\PSoC4/BLE_1_eventHandler.c **** #ifdef CYBLE_CPS_CLIENT
 787:Generated_Source\PSoC4/BLE_1_eventHandler.c ****     if((cyBle_eventHandlerFlag & CYBLE_CALLBACK) != 0u)
 788:Generated_Source\PSoC4/BLE_1_eventHandler.c ****     {
 789:Generated_Source\PSoC4/BLE_1_eventHandler.c ****         CyBle_CpscNotificationEventHandler(eventParam);
 790:Generated_Source\PSoC4/BLE_1_eventHandler.c ****     }
 791:Generated_Source\PSoC4/BLE_1_eventHandler.c **** #endif /* CYBLE_CPS_CLIENT */
 792:Generated_Source\PSoC4/BLE_1_eventHandler.c **** #ifdef CYBLE_CSCS_CLIENT
 793:Generated_Source\PSoC4/BLE_1_eventHandler.c ****     if((cyBle_eventHandlerFlag & CYBLE_CALLBACK) != 0u)
 794:Generated_Source\PSoC4/BLE_1_eventHandler.c ****     {
 795:Generated_Source\PSoC4/BLE_1_eventHandler.c ****         CyBle_CscscNotificationEventHandler(eventParam);
 796:Generated_Source\PSoC4/BLE_1_eventHandler.c ****     }
 797:Generated_Source\PSoC4/BLE_1_eventHandler.c **** #endif /* CYBLE_CSCS_CLIENT */
 798:Generated_Source\PSoC4/BLE_1_eventHandler.c **** #ifdef CYBLE_CTS_CLIENT
 799:Generated_Source\PSoC4/BLE_1_eventHandler.c ****     if((cyBle_eventHandlerFlag & CYBLE_CALLBACK) != 0u)
 800:Generated_Source\PSoC4/BLE_1_eventHandler.c ****     {
 801:Generated_Source\PSoC4/BLE_1_eventHandler.c ****         CyBle_CtscNotificationEventHandler(eventParam);
 802:Generated_Source\PSoC4/BLE_1_eventHandler.c ****     }
 803:Generated_Source\PSoC4/BLE_1_eventHandler.c **** #endif /* CYBLE_CTS_CLIENT */
 804:Generated_Source\PSoC4/BLE_1_eventHandler.c **** #ifdef CYBLE_ESS_CLIENT
 805:Generated_Source\PSoC4/BLE_1_eventHandler.c ****     if((cyBle_eventHandlerFlag & CYBLE_CALLBACK) != 0u)
 806:Generated_Source\PSoC4/BLE_1_eventHandler.c ****     {
 807:Generated_Source\PSoC4/BLE_1_eventHandler.c ****         CyBle_EsscNotificationEventHandler(eventParam);
 808:Generated_Source\PSoC4/BLE_1_eventHandler.c ****     }
 809:Generated_Source\PSoC4/BLE_1_eventHandler.c **** #endif /* CYBLE_ESS_CLIENT */
 810:Generated_Source\PSoC4/BLE_1_eventHandler.c **** #ifdef CYBLE_GLS_CLIENT
 811:Generated_Source\PSoC4/BLE_1_eventHandler.c ****     if((cyBle_eventHandlerFlag & CYBLE_CALLBACK) != 0u)
 812:Generated_Source\PSoC4/BLE_1_eventHandler.c ****     {
 813:Generated_Source\PSoC4/BLE_1_eventHandler.c ****         CyBle_GlscNotificationEventHandler(eventParam);
ARM GAS  C:\Users\Sarah\AppData\Local\Temp\ccqSJLdk.s 			page 19


 814:Generated_Source\PSoC4/BLE_1_eventHandler.c ****     }
 815:Generated_Source\PSoC4/BLE_1_eventHandler.c **** #endif /* CYBLE_GLS_CLIENT */
 816:Generated_Source\PSoC4/BLE_1_eventHandler.c **** #ifdef CYBLE_HIDS_CLIENT
 817:Generated_Source\PSoC4/BLE_1_eventHandler.c ****     if((cyBle_eventHandlerFlag & CYBLE_CALLBACK) != 0u)
 818:Generated_Source\PSoC4/BLE_1_eventHandler.c ****     {
 819:Generated_Source\PSoC4/BLE_1_eventHandler.c ****         CyBle_HidscNotificationEventHandler(eventParam);
 820:Generated_Source\PSoC4/BLE_1_eventHandler.c ****     }
 821:Generated_Source\PSoC4/BLE_1_eventHandler.c **** #endif /* CYBLE_HIDS_CLIENT */
 822:Generated_Source\PSoC4/BLE_1_eventHandler.c **** #ifdef CYBLE_HPS_CLIENT
 823:Generated_Source\PSoC4/BLE_1_eventHandler.c ****     if((cyBle_eventHandlerFlag & CYBLE_CALLBACK) != 0u)
 824:Generated_Source\PSoC4/BLE_1_eventHandler.c ****     {
 825:Generated_Source\PSoC4/BLE_1_eventHandler.c ****         CyBle_HpscNotificationEventHandler(eventParam);
 826:Generated_Source\PSoC4/BLE_1_eventHandler.c ****     }
 827:Generated_Source\PSoC4/BLE_1_eventHandler.c **** #endif /* CYBLE_HPS_CLIENT */
 828:Generated_Source\PSoC4/BLE_1_eventHandler.c **** #ifdef CYBLE_HRS_CLIENT
 829:Generated_Source\PSoC4/BLE_1_eventHandler.c ****     if((cyBle_eventHandlerFlag & CYBLE_CALLBACK) != 0u)
 830:Generated_Source\PSoC4/BLE_1_eventHandler.c ****     {
 831:Generated_Source\PSoC4/BLE_1_eventHandler.c ****         CyBle_HrscNotificationEventHandler(eventParam);
 832:Generated_Source\PSoC4/BLE_1_eventHandler.c ****     }
 833:Generated_Source\PSoC4/BLE_1_eventHandler.c **** #endif /* CYBLE_HRS_CLIENT */
 834:Generated_Source\PSoC4/BLE_1_eventHandler.c **** #ifdef CYBLE_HTS_CLIENT
 835:Generated_Source\PSoC4/BLE_1_eventHandler.c ****     if((cyBle_eventHandlerFlag & CYBLE_CALLBACK) != 0u)
 836:Generated_Source\PSoC4/BLE_1_eventHandler.c ****     {
 837:Generated_Source\PSoC4/BLE_1_eventHandler.c ****         CyBle_HtscNotificationEventHandler(eventParam);
 838:Generated_Source\PSoC4/BLE_1_eventHandler.c ****     }
 839:Generated_Source\PSoC4/BLE_1_eventHandler.c **** #endif /* CYBLE_HTS_CLIENT */
 840:Generated_Source\PSoC4/BLE_1_eventHandler.c **** #ifdef CYBLE_LNS_CLIENT
 841:Generated_Source\PSoC4/BLE_1_eventHandler.c ****     if((cyBle_eventHandlerFlag & CYBLE_CALLBACK) != 0u)
 842:Generated_Source\PSoC4/BLE_1_eventHandler.c ****     {
 843:Generated_Source\PSoC4/BLE_1_eventHandler.c ****         CyBle_LnscNotificationEventHandler(eventParam);
 844:Generated_Source\PSoC4/BLE_1_eventHandler.c ****     }
 845:Generated_Source\PSoC4/BLE_1_eventHandler.c **** #endif /* CYBLE_LNS_CLIENT */
 846:Generated_Source\PSoC4/BLE_1_eventHandler.c **** #ifdef CYBLE_PASS_CLIENT
 847:Generated_Source\PSoC4/BLE_1_eventHandler.c ****     if((cyBle_eventHandlerFlag & CYBLE_CALLBACK) != 0u)
 848:Generated_Source\PSoC4/BLE_1_eventHandler.c ****     {
 849:Generated_Source\PSoC4/BLE_1_eventHandler.c ****         CyBle_PasscNotificationEventHandler(eventParam);
 850:Generated_Source\PSoC4/BLE_1_eventHandler.c ****     }
 851:Generated_Source\PSoC4/BLE_1_eventHandler.c **** #endif /* CYBLE_PASS_CLIENT */
 852:Generated_Source\PSoC4/BLE_1_eventHandler.c **** #ifdef CYBLE_RSCS_CLIENT
 853:Generated_Source\PSoC4/BLE_1_eventHandler.c ****     if((cyBle_eventHandlerFlag & CYBLE_CALLBACK) != 0u)
 854:Generated_Source\PSoC4/BLE_1_eventHandler.c ****     {
 855:Generated_Source\PSoC4/BLE_1_eventHandler.c ****         CyBle_RscscNotificationEventHandler(eventParam);
 856:Generated_Source\PSoC4/BLE_1_eventHandler.c ****     }
 857:Generated_Source\PSoC4/BLE_1_eventHandler.c **** #endif /* CYBLE_RSCS_CLIENT */
 858:Generated_Source\PSoC4/BLE_1_eventHandler.c **** #ifdef CYBLE_SCPS_CLIENT
 859:Generated_Source\PSoC4/BLE_1_eventHandler.c ****     if((cyBle_eventHandlerFlag & CYBLE_CALLBACK) != 0u)
 860:Generated_Source\PSoC4/BLE_1_eventHandler.c ****     {
 861:Generated_Source\PSoC4/BLE_1_eventHandler.c ****         CyBle_ScpscNotificationEventHandler(eventParam);
 862:Generated_Source\PSoC4/BLE_1_eventHandler.c ****     }
 863:Generated_Source\PSoC4/BLE_1_eventHandler.c **** #endif /* CYBLE_SCPS_CLIENT */
 864:Generated_Source\PSoC4/BLE_1_eventHandler.c **** #ifdef CYBLE_TPS_CLIENT
 865:Generated_Source\PSoC4/BLE_1_eventHandler.c ****     if((cyBle_eventHandlerFlag & CYBLE_CALLBACK) != 0u)
 866:Generated_Source\PSoC4/BLE_1_eventHandler.c ****     {
 867:Generated_Source\PSoC4/BLE_1_eventHandler.c ****         CyBle_TpscNotificationEventHandler(eventParam);
 868:Generated_Source\PSoC4/BLE_1_eventHandler.c ****     }
 869:Generated_Source\PSoC4/BLE_1_eventHandler.c **** #endif /* CYBLE_TPS_CLIENT */
 870:Generated_Source\PSoC4/BLE_1_eventHandler.c **** #ifdef CYBLE_UDS_CLIENT
ARM GAS  C:\Users\Sarah\AppData\Local\Temp\ccqSJLdk.s 			page 20


 871:Generated_Source\PSoC4/BLE_1_eventHandler.c ****     if((cyBle_eventHandlerFlag & CYBLE_CALLBACK) != 0u)
 872:Generated_Source\PSoC4/BLE_1_eventHandler.c ****     {
 873:Generated_Source\PSoC4/BLE_1_eventHandler.c ****         CyBle_UdscNotificationEventHandler(eventParam);
 874:Generated_Source\PSoC4/BLE_1_eventHandler.c ****     }
 875:Generated_Source\PSoC4/BLE_1_eventHandler.c **** #endif /* CYBLE_UDS_CLIENT */
 876:Generated_Source\PSoC4/BLE_1_eventHandler.c **** #ifdef CYBLE_WPTS_CLIENT
 877:Generated_Source\PSoC4/BLE_1_eventHandler.c ****     if((cyBle_eventHandlerFlag & CYBLE_CALLBACK) != 0u)
 878:Generated_Source\PSoC4/BLE_1_eventHandler.c ****     {
 879:Generated_Source\PSoC4/BLE_1_eventHandler.c ****         CyBle_WptscNotificationEventHandler(eventParam);
 880:Generated_Source\PSoC4/BLE_1_eventHandler.c ****     }
 881:Generated_Source\PSoC4/BLE_1_eventHandler.c **** #endif /* CYBLE_WPTS_CLIENT */
 882:Generated_Source\PSoC4/BLE_1_eventHandler.c **** }
 210              		.loc 1 882 0
 211 0008 BD46     		mov	sp, r7
 212 000a 02B0     		add	sp, sp, #8
 213              		@ sp needed
 214 000c 80BD     		pop	{r7, pc}
 215              		.cfi_endproc
 216              	.LFE5:
 217              		.size	CyBle_NotificationEventHandler, .-CyBle_NotificationEventHandler
 218              		.section	.text.CyBle_IndicationEventHandler,"ax",%progbits
 219              		.align	2
 220              		.code	16
 221              		.thumb_func
 222              		.type	CyBle_IndicationEventHandler, %function
 223              	CyBle_IndicationEventHandler:
 224              	.LFB6:
 883:Generated_Source\PSoC4/BLE_1_eventHandler.c **** 
 884:Generated_Source\PSoC4/BLE_1_eventHandler.c **** 
 885:Generated_Source\PSoC4/BLE_1_eventHandler.c **** /******************************************************************************    
 886:Generated_Source\PSoC4/BLE_1_eventHandler.c **** * Function Name: CyBle_IndicationEventHandler
 887:Generated_Source\PSoC4/BLE_1_eventHandler.c **** ***************************************************************************//**
 888:Generated_Source\PSoC4/BLE_1_eventHandler.c **** * 
 889:Generated_Source\PSoC4/BLE_1_eventHandler.c **** *  Handles the Indication event from BLE stack.
 890:Generated_Source\PSoC4/BLE_1_eventHandler.c **** * 
 891:Generated_Source\PSoC4/BLE_1_eventHandler.c **** *  \param eventParam: event parameter
 892:Generated_Source\PSoC4/BLE_1_eventHandler.c **** * 
 893:Generated_Source\PSoC4/BLE_1_eventHandler.c **** * \return
 894:Generated_Source\PSoC4/BLE_1_eventHandler.c **** *  None
 895:Generated_Source\PSoC4/BLE_1_eventHandler.c **** * 
 896:Generated_Source\PSoC4/BLE_1_eventHandler.c **** ******************************************************************************/
 897:Generated_Source\PSoC4/BLE_1_eventHandler.c **** static void CyBle_IndicationEventHandler(CYBLE_GATTC_HANDLE_VALUE_IND_PARAM_T *eventParam)
 898:Generated_Source\PSoC4/BLE_1_eventHandler.c **** {
 225              		.loc 1 898 0
 226              		.cfi_startproc
 227 0000 80B5     		push	{r7, lr}
 228              		.cfi_def_cfa_offset 8
 229              		.cfi_offset 7, -8
 230              		.cfi_offset 14, -4
 231 0002 82B0     		sub	sp, sp, #8
 232              		.cfi_def_cfa_offset 16
 233 0004 00AF     		add	r7, sp, #0
 234              		.cfi_def_cfa_register 7
 235 0006 7860     		str	r0, [r7, #4]
 899:Generated_Source\PSoC4/BLE_1_eventHandler.c **** #ifdef CYBLE_BCS_CLIENT
 900:Generated_Source\PSoC4/BLE_1_eventHandler.c ****     if((cyBle_eventHandlerFlag & CYBLE_CALLBACK) != 0u)
 901:Generated_Source\PSoC4/BLE_1_eventHandler.c ****     {
ARM GAS  C:\Users\Sarah\AppData\Local\Temp\ccqSJLdk.s 			page 21


 902:Generated_Source\PSoC4/BLE_1_eventHandler.c ****         CyBle_BcscIndicationEventHandler(eventParam);
 903:Generated_Source\PSoC4/BLE_1_eventHandler.c ****     }
 904:Generated_Source\PSoC4/BLE_1_eventHandler.c **** #endif /* CYBLE_BCS_CLIENT */
 905:Generated_Source\PSoC4/BLE_1_eventHandler.c **** #ifdef CYBLE_BLS_CLIENT
 906:Generated_Source\PSoC4/BLE_1_eventHandler.c ****     if((cyBle_eventHandlerFlag & CYBLE_CALLBACK) != 0u)
 907:Generated_Source\PSoC4/BLE_1_eventHandler.c ****     {
 908:Generated_Source\PSoC4/BLE_1_eventHandler.c ****         CyBle_BlscIndicationEventHandler(eventParam);
 909:Generated_Source\PSoC4/BLE_1_eventHandler.c ****     }
 910:Generated_Source\PSoC4/BLE_1_eventHandler.c **** #endif /* CYBLE_BLS_CLIENT */
 911:Generated_Source\PSoC4/BLE_1_eventHandler.c **** #ifdef CYBLE_CGMS_CLIENT
 912:Generated_Source\PSoC4/BLE_1_eventHandler.c ****     if((cyBle_eventHandlerFlag & CYBLE_CALLBACK) != 0u)
 913:Generated_Source\PSoC4/BLE_1_eventHandler.c ****     {
 914:Generated_Source\PSoC4/BLE_1_eventHandler.c ****         CyBle_CgmscIndicationEventHandler(eventParam);
 915:Generated_Source\PSoC4/BLE_1_eventHandler.c ****     }
 916:Generated_Source\PSoC4/BLE_1_eventHandler.c **** #endif /* CYBLE_CGMS_CLIENT */
 917:Generated_Source\PSoC4/BLE_1_eventHandler.c **** #ifdef CYBLE_CPS_CLIENT
 918:Generated_Source\PSoC4/BLE_1_eventHandler.c ****     if((cyBle_eventHandlerFlag & CYBLE_CALLBACK) != 0u)
 919:Generated_Source\PSoC4/BLE_1_eventHandler.c ****     {
 920:Generated_Source\PSoC4/BLE_1_eventHandler.c ****         CyBle_CpscIndicationEventHandler(eventParam);
 921:Generated_Source\PSoC4/BLE_1_eventHandler.c ****     }
 922:Generated_Source\PSoC4/BLE_1_eventHandler.c **** #endif /* CYBLE_CPS_CLIENT */
 923:Generated_Source\PSoC4/BLE_1_eventHandler.c **** #ifdef CYBLE_CSCS_CLIENT
 924:Generated_Source\PSoC4/BLE_1_eventHandler.c ****     if((cyBle_eventHandlerFlag & CYBLE_CALLBACK) != 0u)
 925:Generated_Source\PSoC4/BLE_1_eventHandler.c ****     {
 926:Generated_Source\PSoC4/BLE_1_eventHandler.c ****         CyBle_CscscIndicationEventHandler(eventParam);
 927:Generated_Source\PSoC4/BLE_1_eventHandler.c ****     }
 928:Generated_Source\PSoC4/BLE_1_eventHandler.c **** #endif /* CYBLE_CSCS_CLIENT */
 929:Generated_Source\PSoC4/BLE_1_eventHandler.c **** #ifdef CYBLE_ESS_CLIENT
 930:Generated_Source\PSoC4/BLE_1_eventHandler.c ****     if((cyBle_eventHandlerFlag & CYBLE_CALLBACK) != 0u)
 931:Generated_Source\PSoC4/BLE_1_eventHandler.c ****     {
 932:Generated_Source\PSoC4/BLE_1_eventHandler.c ****         CyBle_EsscIndicationEventHandler(eventParam);
 933:Generated_Source\PSoC4/BLE_1_eventHandler.c ****     }
 934:Generated_Source\PSoC4/BLE_1_eventHandler.c **** #endif /* CYBLE_ESS_CLIENT */
 935:Generated_Source\PSoC4/BLE_1_eventHandler.c **** #ifdef CYBLE_GLS_CLIENT
 936:Generated_Source\PSoC4/BLE_1_eventHandler.c ****     if((cyBle_eventHandlerFlag & CYBLE_CALLBACK) != 0u)
 937:Generated_Source\PSoC4/BLE_1_eventHandler.c ****     {
 938:Generated_Source\PSoC4/BLE_1_eventHandler.c ****         CyBle_GlscIndicationEventHandler(eventParam);
 939:Generated_Source\PSoC4/BLE_1_eventHandler.c ****     }
 940:Generated_Source\PSoC4/BLE_1_eventHandler.c **** #endif /* CYBLE_GLS_CLIENT */
 941:Generated_Source\PSoC4/BLE_1_eventHandler.c **** #ifdef CYBLE_HTS_CLIENT
 942:Generated_Source\PSoC4/BLE_1_eventHandler.c ****     if((cyBle_eventHandlerFlag & CYBLE_CALLBACK) != 0u)
 943:Generated_Source\PSoC4/BLE_1_eventHandler.c ****     {
 944:Generated_Source\PSoC4/BLE_1_eventHandler.c ****         CyBle_HtscIndicationEventHandler(eventParam);
 945:Generated_Source\PSoC4/BLE_1_eventHandler.c ****     }
 946:Generated_Source\PSoC4/BLE_1_eventHandler.c **** #endif /* CYBLE_HTS_CLIENT */
 947:Generated_Source\PSoC4/BLE_1_eventHandler.c **** #ifdef CYBLE_LNS_CLIENT
 948:Generated_Source\PSoC4/BLE_1_eventHandler.c ****     if((cyBle_eventHandlerFlag & CYBLE_CALLBACK) != 0u)
 949:Generated_Source\PSoC4/BLE_1_eventHandler.c ****     {
 950:Generated_Source\PSoC4/BLE_1_eventHandler.c ****         CyBle_LnscIndicationEventHandler(eventParam);
 951:Generated_Source\PSoC4/BLE_1_eventHandler.c ****     }
 952:Generated_Source\PSoC4/BLE_1_eventHandler.c **** #endif /* CYBLE_LNS_CLIENT */
 953:Generated_Source\PSoC4/BLE_1_eventHandler.c **** #ifdef CYBLE_RSCS_CLIENT
 954:Generated_Source\PSoC4/BLE_1_eventHandler.c ****     if((cyBle_eventHandlerFlag & CYBLE_CALLBACK) != 0u)
 955:Generated_Source\PSoC4/BLE_1_eventHandler.c ****     {
 956:Generated_Source\PSoC4/BLE_1_eventHandler.c ****         CyBle_RscscIndicationEventHandler(eventParam);
 957:Generated_Source\PSoC4/BLE_1_eventHandler.c ****     }
 958:Generated_Source\PSoC4/BLE_1_eventHandler.c **** #endif /* CYBLE_RSCS_CLIENT */
ARM GAS  C:\Users\Sarah\AppData\Local\Temp\ccqSJLdk.s 			page 22


 959:Generated_Source\PSoC4/BLE_1_eventHandler.c **** #ifdef CYBLE_UDS_CLIENT
 960:Generated_Source\PSoC4/BLE_1_eventHandler.c ****     if((cyBle_eventHandlerFlag & CYBLE_CALLBACK) != 0u)
 961:Generated_Source\PSoC4/BLE_1_eventHandler.c ****     {
 962:Generated_Source\PSoC4/BLE_1_eventHandler.c ****         CyBle_UdscIndicationEventHandler(eventParam);
 963:Generated_Source\PSoC4/BLE_1_eventHandler.c ****     }
 964:Generated_Source\PSoC4/BLE_1_eventHandler.c **** #endif /* CYBLE_UDS_CLIENT */
 965:Generated_Source\PSoC4/BLE_1_eventHandler.c **** #ifdef CYBLE_WPTS_CLIENT
 966:Generated_Source\PSoC4/BLE_1_eventHandler.c ****     if((cyBle_eventHandlerFlag & CYBLE_CALLBACK) != 0u)
 967:Generated_Source\PSoC4/BLE_1_eventHandler.c ****     {
 968:Generated_Source\PSoC4/BLE_1_eventHandler.c ****         CyBle_WptscIndicationEventHandler(eventParam);
 969:Generated_Source\PSoC4/BLE_1_eventHandler.c ****     }
 970:Generated_Source\PSoC4/BLE_1_eventHandler.c **** #endif /* CYBLE_WPTS_CLIENT */
 971:Generated_Source\PSoC4/BLE_1_eventHandler.c **** #ifdef CYBLE_WSS_CLIENT
 972:Generated_Source\PSoC4/BLE_1_eventHandler.c ****     if((cyBle_eventHandlerFlag & CYBLE_CALLBACK) != 0u)
 973:Generated_Source\PSoC4/BLE_1_eventHandler.c ****     {
 974:Generated_Source\PSoC4/BLE_1_eventHandler.c ****         CyBle_WsscIndicationEventHandler(eventParam);
 975:Generated_Source\PSoC4/BLE_1_eventHandler.c ****     }
 976:Generated_Source\PSoC4/BLE_1_eventHandler.c **** #endif /* CYBLE_WSS_CLIENT */
 977:Generated_Source\PSoC4/BLE_1_eventHandler.c **** }
 236              		.loc 1 977 0
 237 0008 BD46     		mov	sp, r7
 238 000a 02B0     		add	sp, sp, #8
 239              		@ sp needed
 240 000c 80BD     		pop	{r7, pc}
 241              		.cfi_endproc
 242              	.LFE6:
 243              		.size	CyBle_IndicationEventHandler, .-CyBle_IndicationEventHandler
 244              		.section	.text.CyBle_ReadResponseEventHandler,"ax",%progbits
 245              		.align	2
 246              		.code	16
 247              		.thumb_func
 248              		.type	CyBle_ReadResponseEventHandler, %function
 249              	CyBle_ReadResponseEventHandler:
 250              	.LFB7:
 978:Generated_Source\PSoC4/BLE_1_eventHandler.c **** 
 979:Generated_Source\PSoC4/BLE_1_eventHandler.c **** 
 980:Generated_Source\PSoC4/BLE_1_eventHandler.c **** 
 981:Generated_Source\PSoC4/BLE_1_eventHandler.c **** /******************************************************************************    
 982:Generated_Source\PSoC4/BLE_1_eventHandler.c **** * Function Name: CyBle_ReadResponseEventHandler
 983:Generated_Source\PSoC4/BLE_1_eventHandler.c **** ***************************************************************************//**
 984:Generated_Source\PSoC4/BLE_1_eventHandler.c **** * 
 985:Generated_Source\PSoC4/BLE_1_eventHandler.c **** *  Handles the Read Response event from BLE stack.
 986:Generated_Source\PSoC4/BLE_1_eventHandler.c **** * 
 987:Generated_Source\PSoC4/BLE_1_eventHandler.c **** *  \param eventParam: event parameter
 988:Generated_Source\PSoC4/BLE_1_eventHandler.c **** * 
 989:Generated_Source\PSoC4/BLE_1_eventHandler.c **** * \return
 990:Generated_Source\PSoC4/BLE_1_eventHandler.c **** *  None
 991:Generated_Source\PSoC4/BLE_1_eventHandler.c **** * 
 992:Generated_Source\PSoC4/BLE_1_eventHandler.c **** ******************************************************************************/
 993:Generated_Source\PSoC4/BLE_1_eventHandler.c **** static void CyBle_ReadResponseEventHandler(CYBLE_GATTC_READ_RSP_PARAM_T *eventParam)
 994:Generated_Source\PSoC4/BLE_1_eventHandler.c **** {
 251              		.loc 1 994 0
 252              		.cfi_startproc
 253 0000 90B5     		push	{r4, r7, lr}
 254              		.cfi_def_cfa_offset 12
 255              		.cfi_offset 4, -12
 256              		.cfi_offset 7, -8
ARM GAS  C:\Users\Sarah\AppData\Local\Temp\ccqSJLdk.s 			page 23


 257              		.cfi_offset 14, -4
 258 0002 89B0     		sub	sp, sp, #36
 259              		.cfi_def_cfa_offset 48
 260 0004 00AF     		add	r7, sp, #0
 261              		.cfi_def_cfa_register 7
 262 0006 7860     		str	r0, [r7, #4]
 995:Generated_Source\PSoC4/BLE_1_eventHandler.c **** #ifdef CYBLE_CUSTOM_CLIENT
 996:Generated_Source\PSoC4/BLE_1_eventHandler.c ****     /* Read response with 128-bit included service uuid */
 997:Generated_Source\PSoC4/BLE_1_eventHandler.c ****     if((CyBle_GetClientState() == CYBLE_CLIENT_STATE_INCL_DISCOVERING) &&
 263              		.loc 1 997 0
 264 0008 394B     		ldr	r3, .L15
 265 000a 1B78     		ldrb	r3, [r3]
 266 000c 022B     		cmp	r3, #2
 267 000e 6BD1     		bne	.L10
 998:Generated_Source\PSoC4/BLE_1_eventHandler.c ****        (cyBle_discInclInfo.inclDefHandle != 0u))
 268              		.loc 1 998 0 discriminator 1
 269 0010 384B     		ldr	r3, .L15+4
 270 0012 1B88     		ldrh	r3, [r3]
 997:Generated_Source\PSoC4/BLE_1_eventHandler.c ****        (cyBle_discInclInfo.inclDefHandle != 0u))
 271              		.loc 1 997 0 discriminator 1
 272 0014 002B     		cmp	r3, #0
 273 0016 67D0     		beq	.L10
 274              	.LBB3:
 999:Generated_Source\PSoC4/BLE_1_eventHandler.c ****     {
1000:Generated_Source\PSoC4/BLE_1_eventHandler.c ****         CYBLE_DISC_SRVC128_INFO_T discServInfo;
1001:Generated_Source\PSoC4/BLE_1_eventHandler.c **** 
1002:Generated_Source\PSoC4/BLE_1_eventHandler.c ****         /* Store service range */
1003:Generated_Source\PSoC4/BLE_1_eventHandler.c ****         discServInfo.range = cyBle_discInclInfo.inclHandleRange;
 275              		.loc 1 1003 0
 276 0018 0C23     		mov	r3, #12
 277 001a F918     		add	r1, r7, r3
 278 001c 354B     		ldr	r3, .L15+4
 279 001e 0222     		mov	r2, #2
 280 0020 9B18     		add	r3, r3, r2
 281 0022 0422     		mov	r2, #4
 282 0024 081C     		mov	r0, r1
 283 0026 191C     		mov	r1, r3
 284 0028 FFF7FEFF 		bl	memcpy
1004:Generated_Source\PSoC4/BLE_1_eventHandler.c ****         (void)memcpy((void *) discServInfo.uuid.uuid128.value, (void *)eventParam->value.val, event
 285              		.loc 1 1004 0
 286 002c 7B68     		ldr	r3, [r7, #4]
 287 002e 5A68     		ldr	r2, [r3, #4]
 288 0030 7B68     		ldr	r3, [r7, #4]
 289 0032 1B89     		ldrh	r3, [r3, #8]
 290 0034 1C1C     		mov	r4, r3
 291 0036 0C23     		mov	r3, #12
 292 0038 FB18     		add	r3, r7, r3
 293 003a 0433     		add	r3, r3, #4
 294 003c 181C     		mov	r0, r3
 295 003e 111C     		mov	r1, r2
 296 0040 221C     		mov	r2, r4
 297 0042 FFF7FEFF 		bl	memcpy
1005:Generated_Source\PSoC4/BLE_1_eventHandler.c ****         CyBle_CustomcDiscoverServiceEventHandler(&discServInfo);
 298              		.loc 1 1005 0
 299 0046 0C23     		mov	r3, #12
 300 0048 FB18     		add	r3, r7, r3
 301 004a 181C     		mov	r0, r3
ARM GAS  C:\Users\Sarah\AppData\Local\Temp\ccqSJLdk.s 			page 24


 302 004c FFF7FEFF 		bl	CyBle_CustomcDiscoverServiceEventHandler
1006:Generated_Source\PSoC4/BLE_1_eventHandler.c ****         
1007:Generated_Source\PSoC4/BLE_1_eventHandler.c ****         /* Re-initiate CyBle_GattcFindIncludedServices function, setting the start
1008:Generated_Source\PSoC4/BLE_1_eventHandler.c ****            handle to the attribute handle which is placed next to the one used in
1009:Generated_Source\PSoC4/BLE_1_eventHandler.c ****            the above step.
1010:Generated_Source\PSoC4/BLE_1_eventHandler.c ****         */
1011:Generated_Source\PSoC4/BLE_1_eventHandler.c ****         discServInfo.range.startHandle = cyBle_discInclInfo.inclDefHandle + 1u;
 303              		.loc 1 1011 0
 304 0050 284B     		ldr	r3, .L15+4
 305 0052 1B88     		ldrh	r3, [r3]
 306 0054 0133     		add	r3, r3, #1
 307 0056 9AB2     		uxth	r2, r3
 308 0058 0C23     		mov	r3, #12
 309 005a FB18     		add	r3, r7, r3
 310 005c 1A80     		strh	r2, [r3]
1012:Generated_Source\PSoC4/BLE_1_eventHandler.c ****         discServInfo.range.endHandle = cyBle_serverInfo[cyBle_disCount].range.endHandle;
 311              		.loc 1 1012 0
 312 005e 264B     		ldr	r3, .L15+8
 313 0060 1B78     		ldrb	r3, [r3]
 314 0062 191C     		mov	r1, r3
 315 0064 254A     		ldr	r2, .L15+12
 316 0066 0B1C     		mov	r3, r1
 317 0068 5B00     		lsl	r3, r3, #1
 318 006a 5B18     		add	r3, r3, r1
 319 006c 5B00     		lsl	r3, r3, #1
 320 006e D318     		add	r3, r2, r3
 321 0070 5A88     		ldrh	r2, [r3, #2]
 322 0072 0C23     		mov	r3, #12
 323 0074 FB18     		add	r3, r7, r3
 324 0076 5A80     		strh	r2, [r3, #2]
1013:Generated_Source\PSoC4/BLE_1_eventHandler.c ****         if(discServInfo.range.startHandle <= discServInfo.range.endHandle)
 325              		.loc 1 1013 0
 326 0078 0C23     		mov	r3, #12
 327 007a FB18     		add	r3, r7, r3
 328 007c 1A88     		ldrh	r2, [r3]
 329 007e 0C23     		mov	r3, #12
 330 0080 FB18     		add	r3, r7, r3
 331 0082 5B88     		ldrh	r3, [r3, #2]
 332 0084 9A42     		cmp	r2, r3
 333 0086 21D8     		bhi	.L12
1014:Generated_Source\PSoC4/BLE_1_eventHandler.c ****         {
1015:Generated_Source\PSoC4/BLE_1_eventHandler.c ****             if(CYBLE_ERROR_OK != CyBle_GattcFindIncludedServices(cyBle_connHandle, &discServInfo.ra
 334              		.loc 1 1015 0
 335 0088 1D4B     		ldr	r3, .L15+16
 336 008a 0C22     		mov	r2, #12
 337 008c B918     		add	r1, r7, r2
 338 008e 1A78     		ldrb	r2, [r3]
 339 0090 5B78     		ldrb	r3, [r3, #1]
 340 0092 1B02     		lsl	r3, r3, #8
 341 0094 1A43     		orr	r2, r3
 342 0096 0023     		mov	r3, #0
 343 0098 1204     		lsl	r2, r2, #16
 344 009a 120C     		lsr	r2, r2, #16
 345 009c 1B0C     		lsr	r3, r3, #16
 346 009e 1B04     		lsl	r3, r3, #16
 347 00a0 1343     		orr	r3, r2
 348 00a2 181C     		mov	r0, r3
ARM GAS  C:\Users\Sarah\AppData\Local\Temp\ccqSJLdk.s 			page 25


 349 00a4 FFF7FEFF 		bl	CyBle_GattcFindIncludedServices
 350 00a8 031E     		sub	r3, r0, #0
 351 00aa 12D0     		beq	.L14
1016:Generated_Source\PSoC4/BLE_1_eventHandler.c ****             {
1017:Generated_Source\PSoC4/BLE_1_eventHandler.c ****                 CyBle_ApplCallback(CYBLE_EVT_GATTC_INCL_DISCOVERY_FAILED, NULL);
 352              		.loc 1 1017 0
 353 00ac 154B     		ldr	r3, .L15+20
 354 00ae 1B68     		ldr	r3, [r3]
 355 00b0 8422     		mov	r2, #132
 356 00b2 5200     		lsl	r2, r2, #1
 357 00b4 101C     		mov	r0, r2
 358 00b6 0021     		mov	r1, #0
 359 00b8 9847     		blx	r3
1018:Generated_Source\PSoC4/BLE_1_eventHandler.c ****                 cyBle_eventHandlerFlag &= (uint8)~CYBLE_AUTO_DISCOVERY;
 360              		.loc 1 1018 0
 361 00ba 134B     		ldr	r3, .L15+24
 362 00bc 1B78     		ldrb	r3, [r3]
 363 00be DBB2     		uxtb	r3, r3
 364 00c0 0222     		mov	r2, #2
 365 00c2 9343     		bic	r3, r2
 366 00c4 DAB2     		uxtb	r2, r3
 367 00c6 104B     		ldr	r3, .L15+24
 368 00c8 1A70     		strb	r2, [r3]
 369 00ca 02E0     		b	.L14
 370              	.L12:
1019:Generated_Source\PSoC4/BLE_1_eventHandler.c ****             }
1020:Generated_Source\PSoC4/BLE_1_eventHandler.c ****         }
1021:Generated_Source\PSoC4/BLE_1_eventHandler.c ****         else /* Continue discovery of the following service */
1022:Generated_Source\PSoC4/BLE_1_eventHandler.c ****         {
1023:Generated_Source\PSoC4/BLE_1_eventHandler.c ****             CyBle_NextInclDiscovery(CYBLE_DISCOVERY_CONTINUE);
 371              		.loc 1 1023 0
 372 00cc 0120     		mov	r0, #1
 373 00ce FFF7FEFF 		bl	CyBle_NextInclDiscovery
 374              	.L14:
1024:Generated_Source\PSoC4/BLE_1_eventHandler.c ****         }
1025:Generated_Source\PSoC4/BLE_1_eventHandler.c ****         
1026:Generated_Source\PSoC4/BLE_1_eventHandler.c ****         cyBle_eventHandlerFlag &= (uint8)~CYBLE_CALLBACK;
 375              		.loc 1 1026 0 discriminator 1
 376 00d2 0D4B     		ldr	r3, .L15+24
 377 00d4 1B78     		ldrb	r3, [r3]
 378 00d6 DBB2     		uxtb	r3, r3
 379 00d8 0122     		mov	r2, #1
 380 00da 9343     		bic	r3, r2
 381 00dc DAB2     		uxtb	r2, r3
 382 00de 0A4B     		ldr	r3, .L15+24
 383 00e0 1A70     		strb	r2, [r3]
1027:Generated_Source\PSoC4/BLE_1_eventHandler.c ****     #ifdef CYBLE_CUSTOM_CLIENT
1028:Generated_Source\PSoC4/BLE_1_eventHandler.c ****         cyBle_discInclInfo.inclDefHandle = 0u;
 384              		.loc 1 1028 0 discriminator 1
 385 00e2 044B     		ldr	r3, .L15+4
 386 00e4 0022     		mov	r2, #0
 387 00e6 1A80     		strh	r2, [r3]
 388              	.L10:
 389              	.LBE3:
1029:Generated_Source\PSoC4/BLE_1_eventHandler.c ****     #endif /* CYBLE_CUSTOM_CLIENT */
1030:Generated_Source\PSoC4/BLE_1_eventHandler.c ****     }
1031:Generated_Source\PSoC4/BLE_1_eventHandler.c **** #endif /* CYBLE_CUSTOM_CLIENT */
ARM GAS  C:\Users\Sarah\AppData\Local\Temp\ccqSJLdk.s 			page 26


1032:Generated_Source\PSoC4/BLE_1_eventHandler.c **** #ifdef CYBLE_ANCS_CLIENT
1033:Generated_Source\PSoC4/BLE_1_eventHandler.c ****     if((cyBle_eventHandlerFlag & CYBLE_CALLBACK) != 0u)
1034:Generated_Source\PSoC4/BLE_1_eventHandler.c ****     {
1035:Generated_Source\PSoC4/BLE_1_eventHandler.c ****         CyBle_AncscReadResponseEventHandler(eventParam);
1036:Generated_Source\PSoC4/BLE_1_eventHandler.c ****     }
1037:Generated_Source\PSoC4/BLE_1_eventHandler.c **** #endif /* CYBLE_ANCS_CLIENT */
1038:Generated_Source\PSoC4/BLE_1_eventHandler.c **** #ifdef CYBLE_ANS_CLIENT
1039:Generated_Source\PSoC4/BLE_1_eventHandler.c ****     if((cyBle_eventHandlerFlag & CYBLE_CALLBACK) != 0u)
1040:Generated_Source\PSoC4/BLE_1_eventHandler.c ****     {
1041:Generated_Source\PSoC4/BLE_1_eventHandler.c ****         CyBle_AnscReadResponseEventHandler(eventParam);
1042:Generated_Source\PSoC4/BLE_1_eventHandler.c ****     }
1043:Generated_Source\PSoC4/BLE_1_eventHandler.c **** #endif /* CYBLE_ANS_CLIENT */
1044:Generated_Source\PSoC4/BLE_1_eventHandler.c **** #ifdef CYBLE_BAS_CLIENT
1045:Generated_Source\PSoC4/BLE_1_eventHandler.c ****     if((cyBle_eventHandlerFlag & CYBLE_CALLBACK) != 0u)
1046:Generated_Source\PSoC4/BLE_1_eventHandler.c ****     {
1047:Generated_Source\PSoC4/BLE_1_eventHandler.c ****         CyBle_BascReadResponseEventHandler(eventParam);
1048:Generated_Source\PSoC4/BLE_1_eventHandler.c ****     }
1049:Generated_Source\PSoC4/BLE_1_eventHandler.c **** #endif /* CYBLE_BAS_CLIENT */
1050:Generated_Source\PSoC4/BLE_1_eventHandler.c **** #ifdef CYBLE_BLS_CLIENT
1051:Generated_Source\PSoC4/BLE_1_eventHandler.c ****     if((cyBle_eventHandlerFlag & CYBLE_CALLBACK) != 0u)
1052:Generated_Source\PSoC4/BLE_1_eventHandler.c ****     {
1053:Generated_Source\PSoC4/BLE_1_eventHandler.c ****         CyBle_BlscReadResponseEventHandler(eventParam);
1054:Generated_Source\PSoC4/BLE_1_eventHandler.c ****     }
1055:Generated_Source\PSoC4/BLE_1_eventHandler.c **** #endif /* CYBLE_BLS_CLIENT */
1056:Generated_Source\PSoC4/BLE_1_eventHandler.c **** #ifdef CYBLE_BCS_CLIENT
1057:Generated_Source\PSoC4/BLE_1_eventHandler.c ****     if((cyBle_eventHandlerFlag & CYBLE_CALLBACK) != 0u)
1058:Generated_Source\PSoC4/BLE_1_eventHandler.c ****     {
1059:Generated_Source\PSoC4/BLE_1_eventHandler.c ****         CyBle_BcscReadResponseEventHandler(eventParam);
1060:Generated_Source\PSoC4/BLE_1_eventHandler.c ****     }
1061:Generated_Source\PSoC4/BLE_1_eventHandler.c **** #endif /* CYBLE_BCS_CLIENT */
1062:Generated_Source\PSoC4/BLE_1_eventHandler.c **** #ifdef CYBLE_BMS_CLIENT
1063:Generated_Source\PSoC4/BLE_1_eventHandler.c ****     if((cyBle_eventHandlerFlag & CYBLE_CALLBACK) != 0u)
1064:Generated_Source\PSoC4/BLE_1_eventHandler.c ****     {
1065:Generated_Source\PSoC4/BLE_1_eventHandler.c ****         CyBle_BmscReadResponseEventHandler(eventParam);
1066:Generated_Source\PSoC4/BLE_1_eventHandler.c ****     }
1067:Generated_Source\PSoC4/BLE_1_eventHandler.c **** #endif /* CYBLE_BMS_CLIENT */
1068:Generated_Source\PSoC4/BLE_1_eventHandler.c **** #ifdef CYBLE_CGMS_CLIENT
1069:Generated_Source\PSoC4/BLE_1_eventHandler.c ****     if((cyBle_eventHandlerFlag & CYBLE_CALLBACK) != 0u)
1070:Generated_Source\PSoC4/BLE_1_eventHandler.c ****     {
1071:Generated_Source\PSoC4/BLE_1_eventHandler.c ****         CyBle_CgmscReadResponseEventHandler(eventParam);
1072:Generated_Source\PSoC4/BLE_1_eventHandler.c ****     }
1073:Generated_Source\PSoC4/BLE_1_eventHandler.c **** #endif /* CYBLE_CGMS_CLIENT */
1074:Generated_Source\PSoC4/BLE_1_eventHandler.c **** #ifdef CYBLE_CPS_CLIENT
1075:Generated_Source\PSoC4/BLE_1_eventHandler.c ****     if((cyBle_eventHandlerFlag & CYBLE_CALLBACK) != 0u)
1076:Generated_Source\PSoC4/BLE_1_eventHandler.c ****     {
1077:Generated_Source\PSoC4/BLE_1_eventHandler.c ****         CyBle_CpscReadResponseEventHandler(eventParam);
1078:Generated_Source\PSoC4/BLE_1_eventHandler.c ****     }
1079:Generated_Source\PSoC4/BLE_1_eventHandler.c **** #endif /* CYBLE_CPS_CLIENT */
1080:Generated_Source\PSoC4/BLE_1_eventHandler.c **** #ifdef CYBLE_CSCS_CLIENT
1081:Generated_Source\PSoC4/BLE_1_eventHandler.c ****     if((cyBle_eventHandlerFlag & CYBLE_CALLBACK) != 0u)
1082:Generated_Source\PSoC4/BLE_1_eventHandler.c ****     {
1083:Generated_Source\PSoC4/BLE_1_eventHandler.c ****         CyBle_CscscReadResponseEventHandler(eventParam);
1084:Generated_Source\PSoC4/BLE_1_eventHandler.c ****     }
1085:Generated_Source\PSoC4/BLE_1_eventHandler.c **** #endif /* CYBLE_CSCS_CLIENT */
1086:Generated_Source\PSoC4/BLE_1_eventHandler.c **** #ifdef CYBLE_CTS_CLIENT
1087:Generated_Source\PSoC4/BLE_1_eventHandler.c ****     if((cyBle_eventHandlerFlag & CYBLE_CALLBACK) != 0u)
1088:Generated_Source\PSoC4/BLE_1_eventHandler.c ****     {
ARM GAS  C:\Users\Sarah\AppData\Local\Temp\ccqSJLdk.s 			page 27


1089:Generated_Source\PSoC4/BLE_1_eventHandler.c ****         CyBle_CtscReadResponseEventHandler(eventParam);
1090:Generated_Source\PSoC4/BLE_1_eventHandler.c ****     }
1091:Generated_Source\PSoC4/BLE_1_eventHandler.c **** #endif /* CYBLE_BAS_CLIENT */
1092:Generated_Source\PSoC4/BLE_1_eventHandler.c **** #ifdef CYBLE_DIS_CLIENT
1093:Generated_Source\PSoC4/BLE_1_eventHandler.c ****     if((cyBle_eventHandlerFlag & CYBLE_CALLBACK) != 0u)
1094:Generated_Source\PSoC4/BLE_1_eventHandler.c ****     {
1095:Generated_Source\PSoC4/BLE_1_eventHandler.c ****         CyBle_DiscReadResponseEventHandler(eventParam);
1096:Generated_Source\PSoC4/BLE_1_eventHandler.c ****     }
1097:Generated_Source\PSoC4/BLE_1_eventHandler.c **** #endif /* CYBLE_DIS_CLIENT */
1098:Generated_Source\PSoC4/BLE_1_eventHandler.c **** #ifdef CYBLE_ESS_CLIENT
1099:Generated_Source\PSoC4/BLE_1_eventHandler.c ****     if((cyBle_eventHandlerFlag & CYBLE_CALLBACK) != 0u)
1100:Generated_Source\PSoC4/BLE_1_eventHandler.c ****     {
1101:Generated_Source\PSoC4/BLE_1_eventHandler.c ****         CyBle_EsscReadResponseEventHandler(eventParam);
1102:Generated_Source\PSoC4/BLE_1_eventHandler.c ****     }
1103:Generated_Source\PSoC4/BLE_1_eventHandler.c **** #endif /* CYBLE_ESS_CLIENT */
1104:Generated_Source\PSoC4/BLE_1_eventHandler.c **** #ifdef CYBLE_GLS_CLIENT
1105:Generated_Source\PSoC4/BLE_1_eventHandler.c ****     if((cyBle_eventHandlerFlag & CYBLE_CALLBACK) != 0u)
1106:Generated_Source\PSoC4/BLE_1_eventHandler.c ****     {
1107:Generated_Source\PSoC4/BLE_1_eventHandler.c ****         CyBle_GlscReadResponseEventHandler(eventParam);
1108:Generated_Source\PSoC4/BLE_1_eventHandler.c ****     }
1109:Generated_Source\PSoC4/BLE_1_eventHandler.c **** #endif /* CYBLE_GLS_CLIENT */
1110:Generated_Source\PSoC4/BLE_1_eventHandler.c **** #ifdef CYBLE_HIDS_CLIENT
1111:Generated_Source\PSoC4/BLE_1_eventHandler.c ****     if((cyBle_eventHandlerFlag & CYBLE_CALLBACK) != 0u)
1112:Generated_Source\PSoC4/BLE_1_eventHandler.c ****     {
1113:Generated_Source\PSoC4/BLE_1_eventHandler.c ****         CyBle_HidscReadResponseEventHandler(eventParam);
1114:Generated_Source\PSoC4/BLE_1_eventHandler.c ****     }
1115:Generated_Source\PSoC4/BLE_1_eventHandler.c **** #endif /* CYBLE_HIDS_CLIENT */
1116:Generated_Source\PSoC4/BLE_1_eventHandler.c **** #ifdef CYBLE_HPS_CLIENT
1117:Generated_Source\PSoC4/BLE_1_eventHandler.c ****     if((cyBle_eventHandlerFlag & CYBLE_CALLBACK) != 0u)
1118:Generated_Source\PSoC4/BLE_1_eventHandler.c ****     {
1119:Generated_Source\PSoC4/BLE_1_eventHandler.c ****         CyBle_HpscReadResponseEventHandler(eventParam);
1120:Generated_Source\PSoC4/BLE_1_eventHandler.c ****     }
1121:Generated_Source\PSoC4/BLE_1_eventHandler.c **** #endif /* CYBLE_HPS_CLIENT */
1122:Generated_Source\PSoC4/BLE_1_eventHandler.c **** #ifdef CYBLE_HRS_CLIENT
1123:Generated_Source\PSoC4/BLE_1_eventHandler.c ****     if((cyBle_eventHandlerFlag & CYBLE_CALLBACK) != 0u)
1124:Generated_Source\PSoC4/BLE_1_eventHandler.c ****     {
1125:Generated_Source\PSoC4/BLE_1_eventHandler.c ****         CyBle_HrscReadResponseEventHandler(eventParam);
1126:Generated_Source\PSoC4/BLE_1_eventHandler.c ****     }
1127:Generated_Source\PSoC4/BLE_1_eventHandler.c **** #endif /* CYBLE_HRS_CLIENT */
1128:Generated_Source\PSoC4/BLE_1_eventHandler.c **** #ifdef CYBLE_HTS_CLIENT
1129:Generated_Source\PSoC4/BLE_1_eventHandler.c ****     if((cyBle_eventHandlerFlag & CYBLE_CALLBACK) != 0u)
1130:Generated_Source\PSoC4/BLE_1_eventHandler.c ****     {
1131:Generated_Source\PSoC4/BLE_1_eventHandler.c ****         CyBle_HtscReadResponseEventHandler(eventParam);
1132:Generated_Source\PSoC4/BLE_1_eventHandler.c ****     }
1133:Generated_Source\PSoC4/BLE_1_eventHandler.c **** #endif /* CYBLE_HTS_CLIENT */
1134:Generated_Source\PSoC4/BLE_1_eventHandler.c **** #ifdef CYBLE_IPS_CLIENT
1135:Generated_Source\PSoC4/BLE_1_eventHandler.c ****     if((cyBle_eventHandlerFlag & CYBLE_CALLBACK) != 0u)
1136:Generated_Source\PSoC4/BLE_1_eventHandler.c ****     {
1137:Generated_Source\PSoC4/BLE_1_eventHandler.c ****         CyBle_IpscReadResponseEventHandler(eventParam);
1138:Generated_Source\PSoC4/BLE_1_eventHandler.c ****     }
1139:Generated_Source\PSoC4/BLE_1_eventHandler.c **** #endif /* CYBLE_IPS_CLIENT */
1140:Generated_Source\PSoC4/BLE_1_eventHandler.c **** #ifdef CYBLE_LLS_CLIENT
1141:Generated_Source\PSoC4/BLE_1_eventHandler.c ****     if((cyBle_eventHandlerFlag & CYBLE_CALLBACK) != 0u)
1142:Generated_Source\PSoC4/BLE_1_eventHandler.c ****     {
1143:Generated_Source\PSoC4/BLE_1_eventHandler.c ****         CyBle_LlscReadResponseEventHandler(eventParam);
1144:Generated_Source\PSoC4/BLE_1_eventHandler.c ****     }
1145:Generated_Source\PSoC4/BLE_1_eventHandler.c **** #endif /* CYBLE_LLS_CLIENT */
ARM GAS  C:\Users\Sarah\AppData\Local\Temp\ccqSJLdk.s 			page 28


1146:Generated_Source\PSoC4/BLE_1_eventHandler.c **** #ifdef CYBLE_LNS_CLIENT
1147:Generated_Source\PSoC4/BLE_1_eventHandler.c ****     if((cyBle_eventHandlerFlag & CYBLE_CALLBACK) != 0u)
1148:Generated_Source\PSoC4/BLE_1_eventHandler.c ****     {
1149:Generated_Source\PSoC4/BLE_1_eventHandler.c ****         CyBle_LnscReadResponseEventHandler(eventParam);
1150:Generated_Source\PSoC4/BLE_1_eventHandler.c ****     }
1151:Generated_Source\PSoC4/BLE_1_eventHandler.c **** #endif /* CYBLE_LNS_CLIENT */
1152:Generated_Source\PSoC4/BLE_1_eventHandler.c **** #ifdef CYBLE_NDCS_CLIENT
1153:Generated_Source\PSoC4/BLE_1_eventHandler.c ****     if((cyBle_eventHandlerFlag & CYBLE_CALLBACK) != 0u)
1154:Generated_Source\PSoC4/BLE_1_eventHandler.c ****     {
1155:Generated_Source\PSoC4/BLE_1_eventHandler.c ****         CyBle_NdcscReadResponseEventHandler(eventParam);
1156:Generated_Source\PSoC4/BLE_1_eventHandler.c ****     }
1157:Generated_Source\PSoC4/BLE_1_eventHandler.c **** #endif /* CYBLE_NDCS_CLIENT */
1158:Generated_Source\PSoC4/BLE_1_eventHandler.c **** #ifdef CYBLE_PASS_CLIENT
1159:Generated_Source\PSoC4/BLE_1_eventHandler.c ****     if((cyBle_eventHandlerFlag & CYBLE_CALLBACK) != 0u)
1160:Generated_Source\PSoC4/BLE_1_eventHandler.c ****     {
1161:Generated_Source\PSoC4/BLE_1_eventHandler.c ****         CyBle_PasscReadResponseEventHandler(eventParam);
1162:Generated_Source\PSoC4/BLE_1_eventHandler.c ****     }
1163:Generated_Source\PSoC4/BLE_1_eventHandler.c **** #endif /* CYBLE_PASS_CLIENT */
1164:Generated_Source\PSoC4/BLE_1_eventHandler.c **** #ifdef CYBLE_PLXS_CLIENT
1165:Generated_Source\PSoC4/BLE_1_eventHandler.c ****     if((cyBle_eventHandlerFlag & CYBLE_CALLBACK) != 0u)
1166:Generated_Source\PSoC4/BLE_1_eventHandler.c ****     {
1167:Generated_Source\PSoC4/BLE_1_eventHandler.c ****         CyBle_PlxscReadResponseEventHandler(eventParam);
1168:Generated_Source\PSoC4/BLE_1_eventHandler.c ****     }
1169:Generated_Source\PSoC4/BLE_1_eventHandler.c **** #endif /* CYBLE_PLXS_CLIENT */
1170:Generated_Source\PSoC4/BLE_1_eventHandler.c **** #ifdef CYBLE_RSCS_CLIENT
1171:Generated_Source\PSoC4/BLE_1_eventHandler.c ****     if((cyBle_eventHandlerFlag & CYBLE_CALLBACK) != 0u)
1172:Generated_Source\PSoC4/BLE_1_eventHandler.c ****     {
1173:Generated_Source\PSoC4/BLE_1_eventHandler.c ****         CyBle_RscscReadResponseEventHandler(eventParam);
1174:Generated_Source\PSoC4/BLE_1_eventHandler.c ****     }
1175:Generated_Source\PSoC4/BLE_1_eventHandler.c **** #endif /* CYBLE_RSCS_CLIENT */
1176:Generated_Source\PSoC4/BLE_1_eventHandler.c **** #ifdef CYBLE_RTUS_CLIENT
1177:Generated_Source\PSoC4/BLE_1_eventHandler.c ****     if((cyBle_eventHandlerFlag & CYBLE_CALLBACK) != 0u)
1178:Generated_Source\PSoC4/BLE_1_eventHandler.c ****     {
1179:Generated_Source\PSoC4/BLE_1_eventHandler.c ****         CyBle_RtuscReadResponseEventHandler(eventParam);
1180:Generated_Source\PSoC4/BLE_1_eventHandler.c ****     }
1181:Generated_Source\PSoC4/BLE_1_eventHandler.c **** #endif /* CYBLE_RTUS_CLIENT */
1182:Generated_Source\PSoC4/BLE_1_eventHandler.c **** #ifdef CYBLE_SCPS_CLIENT
1183:Generated_Source\PSoC4/BLE_1_eventHandler.c ****     if((cyBle_eventHandlerFlag & CYBLE_CALLBACK) != 0u)
1184:Generated_Source\PSoC4/BLE_1_eventHandler.c ****     {
1185:Generated_Source\PSoC4/BLE_1_eventHandler.c ****         CyBle_ScpscReadResponseEventHandler(eventParam);
1186:Generated_Source\PSoC4/BLE_1_eventHandler.c ****     }
1187:Generated_Source\PSoC4/BLE_1_eventHandler.c **** #endif /* CYBLE_SCPS_CLIENT */
1188:Generated_Source\PSoC4/BLE_1_eventHandler.c **** #ifdef CYBLE_TPS_CLIENT
1189:Generated_Source\PSoC4/BLE_1_eventHandler.c ****     if((cyBle_eventHandlerFlag & CYBLE_CALLBACK) != 0u)
1190:Generated_Source\PSoC4/BLE_1_eventHandler.c ****     {
1191:Generated_Source\PSoC4/BLE_1_eventHandler.c ****         CyBle_TpscReadResponseEventHandler(eventParam);
1192:Generated_Source\PSoC4/BLE_1_eventHandler.c ****     }
1193:Generated_Source\PSoC4/BLE_1_eventHandler.c **** #endif /* CYBLE_TPS_CLIENT */
1194:Generated_Source\PSoC4/BLE_1_eventHandler.c **** #ifdef CYBLE_UDS_CLIENT
1195:Generated_Source\PSoC4/BLE_1_eventHandler.c ****     if((cyBle_eventHandlerFlag & CYBLE_CALLBACK) != 0u)
1196:Generated_Source\PSoC4/BLE_1_eventHandler.c ****     {
1197:Generated_Source\PSoC4/BLE_1_eventHandler.c ****         CyBle_UdscReadResponseEventHandler(eventParam);
1198:Generated_Source\PSoC4/BLE_1_eventHandler.c ****     }
1199:Generated_Source\PSoC4/BLE_1_eventHandler.c **** #endif /* CYBLE_UDS_CLIENT */
1200:Generated_Source\PSoC4/BLE_1_eventHandler.c **** #ifdef CYBLE_WPTS_CLIENT
1201:Generated_Source\PSoC4/BLE_1_eventHandler.c ****     if((cyBle_eventHandlerFlag & CYBLE_CALLBACK) != 0u)
1202:Generated_Source\PSoC4/BLE_1_eventHandler.c ****     {
ARM GAS  C:\Users\Sarah\AppData\Local\Temp\ccqSJLdk.s 			page 29


1203:Generated_Source\PSoC4/BLE_1_eventHandler.c ****         CyBle_WptscReadResponseEventHandler(eventParam);
1204:Generated_Source\PSoC4/BLE_1_eventHandler.c ****     }
1205:Generated_Source\PSoC4/BLE_1_eventHandler.c **** #endif /* CYBLE_WPTS_CLIENT */
1206:Generated_Source\PSoC4/BLE_1_eventHandler.c **** #ifdef CYBLE_WSS_CLIENT
1207:Generated_Source\PSoC4/BLE_1_eventHandler.c ****     if((cyBle_eventHandlerFlag & CYBLE_CALLBACK) != 0u)
1208:Generated_Source\PSoC4/BLE_1_eventHandler.c ****     {
1209:Generated_Source\PSoC4/BLE_1_eventHandler.c ****         CyBle_WsscReadResponseEventHandler(eventParam);
1210:Generated_Source\PSoC4/BLE_1_eventHandler.c ****     }
1211:Generated_Source\PSoC4/BLE_1_eventHandler.c **** #endif /* CYBLE_WSS_CLIENT */
1212:Generated_Source\PSoC4/BLE_1_eventHandler.c **** }
 390              		.loc 1 1212 0
 391 00e8 BD46     		mov	sp, r7
 392 00ea 09B0     		add	sp, sp, #36
 393              		@ sp needed
 394 00ec 90BD     		pop	{r4, r7, pc}
 395              	.L16:
 396 00ee C046     		.align	2
 397              	.L15:
 398 00f0 00000000 		.word	cyBle_clientState
 399 00f4 00000000 		.word	cyBle_discInclInfo
 400 00f8 00000000 		.word	cyBle_disCount
 401 00fc 00000000 		.word	cyBle_serverInfo
 402 0100 00000000 		.word	cyBle_connHandle
 403 0104 00000000 		.word	CyBle_ApplCallback
 404 0108 00000000 		.word	cyBle_eventHandlerFlag
 405              		.cfi_endproc
 406              	.LFE7:
 407              		.size	CyBle_ReadResponseEventHandler, .-CyBle_ReadResponseEventHandler
 408              		.section	.text.CyBle_ReadMultipleResponseEventHandler,"ax",%progbits
 409              		.align	2
 410              		.code	16
 411              		.thumb_func
 412              		.type	CyBle_ReadMultipleResponseEventHandler, %function
 413              	CyBle_ReadMultipleResponseEventHandler:
 414              	.LFB8:
1213:Generated_Source\PSoC4/BLE_1_eventHandler.c **** 
1214:Generated_Source\PSoC4/BLE_1_eventHandler.c **** /******************************************************************************    
1215:Generated_Source\PSoC4/BLE_1_eventHandler.c **** * Function Name: CyBle_ReadMultipleResponseEventHandler
1216:Generated_Source\PSoC4/BLE_1_eventHandler.c **** ***************************************************************************//**
1217:Generated_Source\PSoC4/BLE_1_eventHandler.c **** * 
1218:Generated_Source\PSoC4/BLE_1_eventHandler.c **** *  Handles the Read Multiple Response event from BLE stack.
1219:Generated_Source\PSoC4/BLE_1_eventHandler.c **** * 
1220:Generated_Source\PSoC4/BLE_1_eventHandler.c **** *  \param eventParam: event parameter
1221:Generated_Source\PSoC4/BLE_1_eventHandler.c **** * 
1222:Generated_Source\PSoC4/BLE_1_eventHandler.c **** * \return
1223:Generated_Source\PSoC4/BLE_1_eventHandler.c **** *  None
1224:Generated_Source\PSoC4/BLE_1_eventHandler.c **** * 
1225:Generated_Source\PSoC4/BLE_1_eventHandler.c **** ******************************************************************************/
1226:Generated_Source\PSoC4/BLE_1_eventHandler.c **** static void CyBle_ReadMultipleResponseEventHandler(CYBLE_GATTC_READ_RSP_PARAM_T *eventParam)
1227:Generated_Source\PSoC4/BLE_1_eventHandler.c **** {
 415              		.loc 1 1227 0
 416              		.cfi_startproc
 417 0000 90B5     		push	{r4, r7, lr}
 418              		.cfi_def_cfa_offset 12
 419              		.cfi_offset 4, -12
 420              		.cfi_offset 7, -8
 421              		.cfi_offset 14, -4
ARM GAS  C:\Users\Sarah\AppData\Local\Temp\ccqSJLdk.s 			page 30


 422 0002 89B0     		sub	sp, sp, #36
 423              		.cfi_def_cfa_offset 48
 424 0004 00AF     		add	r7, sp, #0
 425              		.cfi_def_cfa_register 7
 426 0006 7860     		str	r0, [r7, #4]
1228:Generated_Source\PSoC4/BLE_1_eventHandler.c **** #ifdef CYBLE_CUSTOM_CLIENT
1229:Generated_Source\PSoC4/BLE_1_eventHandler.c ****     /* Read response with 128-bit included service uuid */
1230:Generated_Source\PSoC4/BLE_1_eventHandler.c ****     if((CYBLE_CLIENT_STATE_INCL_DISCOVERING == CyBle_GetClientState()) &&
 427              		.loc 1 1230 0
 428 0008 394B     		ldr	r3, .L22
 429 000a 1B78     		ldrb	r3, [r3]
 430 000c 022B     		cmp	r3, #2
 431 000e 6BD1     		bne	.L17
1231:Generated_Source\PSoC4/BLE_1_eventHandler.c ****        (cyBle_discInclInfo.inclDefHandle != 0u))
 432              		.loc 1 1231 0 discriminator 1
 433 0010 384B     		ldr	r3, .L22+4
 434 0012 1B88     		ldrh	r3, [r3]
1230:Generated_Source\PSoC4/BLE_1_eventHandler.c ****        (cyBle_discInclInfo.inclDefHandle != 0u))
 435              		.loc 1 1230 0 discriminator 1
 436 0014 002B     		cmp	r3, #0
 437 0016 67D0     		beq	.L17
 438              	.LBB4:
1232:Generated_Source\PSoC4/BLE_1_eventHandler.c ****     {
1233:Generated_Source\PSoC4/BLE_1_eventHandler.c ****         CYBLE_DISC_SRVC128_INFO_T discServInfo;
1234:Generated_Source\PSoC4/BLE_1_eventHandler.c **** 
1235:Generated_Source\PSoC4/BLE_1_eventHandler.c ****         /* Store service range */
1236:Generated_Source\PSoC4/BLE_1_eventHandler.c ****         discServInfo.range = cyBle_discInclInfo.inclHandleRange;
 439              		.loc 1 1236 0
 440 0018 0C23     		mov	r3, #12
 441 001a F918     		add	r1, r7, r3
 442 001c 354B     		ldr	r3, .L22+4
 443 001e 0222     		mov	r2, #2
 444 0020 9B18     		add	r3, r3, r2
 445 0022 0422     		mov	r2, #4
 446 0024 081C     		mov	r0, r1
 447 0026 191C     		mov	r1, r3
 448 0028 FFF7FEFF 		bl	memcpy
1237:Generated_Source\PSoC4/BLE_1_eventHandler.c ****         (void)memcpy((void *) discServInfo.uuid.uuid128.value, (void *)eventParam->value.val, event
 449              		.loc 1 1237 0
 450 002c 7B68     		ldr	r3, [r7, #4]
 451 002e 5A68     		ldr	r2, [r3, #4]
 452 0030 7B68     		ldr	r3, [r7, #4]
 453 0032 1B89     		ldrh	r3, [r3, #8]
 454 0034 1C1C     		mov	r4, r3
 455 0036 0C23     		mov	r3, #12
 456 0038 FB18     		add	r3, r7, r3
 457 003a 0433     		add	r3, r3, #4
 458 003c 181C     		mov	r0, r3
 459 003e 111C     		mov	r1, r2
 460 0040 221C     		mov	r2, r4
 461 0042 FFF7FEFF 		bl	memcpy
1238:Generated_Source\PSoC4/BLE_1_eventHandler.c ****         CyBle_CustomcDiscoverServiceEventHandler(&discServInfo);
 462              		.loc 1 1238 0
 463 0046 0C23     		mov	r3, #12
 464 0048 FB18     		add	r3, r7, r3
 465 004a 181C     		mov	r0, r3
 466 004c FFF7FEFF 		bl	CyBle_CustomcDiscoverServiceEventHandler
ARM GAS  C:\Users\Sarah\AppData\Local\Temp\ccqSJLdk.s 			page 31


1239:Generated_Source\PSoC4/BLE_1_eventHandler.c ****         
1240:Generated_Source\PSoC4/BLE_1_eventHandler.c ****         /* Re-initiate CyBle_GattcFindIncludedServices function, setting the start
1241:Generated_Source\PSoC4/BLE_1_eventHandler.c ****            handle to the attribute handle which is placed next to the one used in
1242:Generated_Source\PSoC4/BLE_1_eventHandler.c ****            the above step.
1243:Generated_Source\PSoC4/BLE_1_eventHandler.c ****         */
1244:Generated_Source\PSoC4/BLE_1_eventHandler.c ****         discServInfo.range.startHandle = cyBle_discInclInfo.inclDefHandle + 1;
 467              		.loc 1 1244 0
 468 0050 284B     		ldr	r3, .L22+4
 469 0052 1B88     		ldrh	r3, [r3]
 470 0054 0133     		add	r3, r3, #1
 471 0056 9AB2     		uxth	r2, r3
 472 0058 0C23     		mov	r3, #12
 473 005a FB18     		add	r3, r7, r3
 474 005c 1A80     		strh	r2, [r3]
1245:Generated_Source\PSoC4/BLE_1_eventHandler.c ****         discServInfo.range.endHandle = cyBle_serverInfo[cyBle_disCount].range.endHandle;
 475              		.loc 1 1245 0
 476 005e 264B     		ldr	r3, .L22+8
 477 0060 1B78     		ldrb	r3, [r3]
 478 0062 191C     		mov	r1, r3
 479 0064 254A     		ldr	r2, .L22+12
 480 0066 0B1C     		mov	r3, r1
 481 0068 5B00     		lsl	r3, r3, #1
 482 006a 5B18     		add	r3, r3, r1
 483 006c 5B00     		lsl	r3, r3, #1
 484 006e D318     		add	r3, r2, r3
 485 0070 5A88     		ldrh	r2, [r3, #2]
 486 0072 0C23     		mov	r3, #12
 487 0074 FB18     		add	r3, r7, r3
 488 0076 5A80     		strh	r2, [r3, #2]
1246:Generated_Source\PSoC4/BLE_1_eventHandler.c ****         if(discServInfo.range.startHandle <= discServInfo.range.endHandle)
 489              		.loc 1 1246 0
 490 0078 0C23     		mov	r3, #12
 491 007a FB18     		add	r3, r7, r3
 492 007c 1A88     		ldrh	r2, [r3]
 493 007e 0C23     		mov	r3, #12
 494 0080 FB18     		add	r3, r7, r3
 495 0082 5B88     		ldrh	r3, [r3, #2]
 496 0084 9A42     		cmp	r2, r3
 497 0086 21D8     		bhi	.L19
1247:Generated_Source\PSoC4/BLE_1_eventHandler.c ****         {
1248:Generated_Source\PSoC4/BLE_1_eventHandler.c ****             if(CYBLE_ERROR_OK != CyBle_GattcFindIncludedServices(cyBle_connHandle, &discServInfo.ra
 498              		.loc 1 1248 0
 499 0088 1D4B     		ldr	r3, .L22+16
 500 008a 0C22     		mov	r2, #12
 501 008c B918     		add	r1, r7, r2
 502 008e 1A78     		ldrb	r2, [r3]
 503 0090 5B78     		ldrb	r3, [r3, #1]
 504 0092 1B02     		lsl	r3, r3, #8
 505 0094 1A43     		orr	r2, r3
 506 0096 0023     		mov	r3, #0
 507 0098 1204     		lsl	r2, r2, #16
 508 009a 120C     		lsr	r2, r2, #16
 509 009c 1B0C     		lsr	r3, r3, #16
 510 009e 1B04     		lsl	r3, r3, #16
 511 00a0 1343     		orr	r3, r2
 512 00a2 181C     		mov	r0, r3
 513 00a4 FFF7FEFF 		bl	CyBle_GattcFindIncludedServices
ARM GAS  C:\Users\Sarah\AppData\Local\Temp\ccqSJLdk.s 			page 32


 514 00a8 031E     		sub	r3, r0, #0
 515 00aa 12D0     		beq	.L21
1249:Generated_Source\PSoC4/BLE_1_eventHandler.c ****             {
1250:Generated_Source\PSoC4/BLE_1_eventHandler.c ****                 CyBle_ApplCallback(CYBLE_EVT_GATTC_INCL_DISCOVERY_FAILED, NULL);
 516              		.loc 1 1250 0
 517 00ac 154B     		ldr	r3, .L22+20
 518 00ae 1B68     		ldr	r3, [r3]
 519 00b0 8422     		mov	r2, #132
 520 00b2 5200     		lsl	r2, r2, #1
 521 00b4 101C     		mov	r0, r2
 522 00b6 0021     		mov	r1, #0
 523 00b8 9847     		blx	r3
1251:Generated_Source\PSoC4/BLE_1_eventHandler.c ****                 cyBle_eventHandlerFlag &= (uint8)~CYBLE_AUTO_DISCOVERY;
 524              		.loc 1 1251 0
 525 00ba 134B     		ldr	r3, .L22+24
 526 00bc 1B78     		ldrb	r3, [r3]
 527 00be DBB2     		uxtb	r3, r3
 528 00c0 0222     		mov	r2, #2
 529 00c2 9343     		bic	r3, r2
 530 00c4 DAB2     		uxtb	r2, r3
 531 00c6 104B     		ldr	r3, .L22+24
 532 00c8 1A70     		strb	r2, [r3]
 533 00ca 02E0     		b	.L21
 534              	.L19:
1252:Generated_Source\PSoC4/BLE_1_eventHandler.c ****             }
1253:Generated_Source\PSoC4/BLE_1_eventHandler.c ****         }
1254:Generated_Source\PSoC4/BLE_1_eventHandler.c ****         else /* Continue discovery of the following service */
1255:Generated_Source\PSoC4/BLE_1_eventHandler.c ****         {
1256:Generated_Source\PSoC4/BLE_1_eventHandler.c ****             CyBle_NextInclDiscovery(CYBLE_DISCOVERY_CONTINUE);
 535              		.loc 1 1256 0
 536 00cc 0120     		mov	r0, #1
 537 00ce FFF7FEFF 		bl	CyBle_NextInclDiscovery
 538              	.L21:
1257:Generated_Source\PSoC4/BLE_1_eventHandler.c ****         }
1258:Generated_Source\PSoC4/BLE_1_eventHandler.c ****         
1259:Generated_Source\PSoC4/BLE_1_eventHandler.c ****         cyBle_eventHandlerFlag &= (uint8)~CYBLE_CALLBACK;
 539              		.loc 1 1259 0 discriminator 1
 540 00d2 0D4B     		ldr	r3, .L22+24
 541 00d4 1B78     		ldrb	r3, [r3]
 542 00d6 DBB2     		uxtb	r3, r3
 543 00d8 0122     		mov	r2, #1
 544 00da 9343     		bic	r3, r2
 545 00dc DAB2     		uxtb	r2, r3
 546 00de 0A4B     		ldr	r3, .L22+24
 547 00e0 1A70     		strb	r2, [r3]
1260:Generated_Source\PSoC4/BLE_1_eventHandler.c ****     #ifdef CYBLE_CUSTOM_CLIENT
1261:Generated_Source\PSoC4/BLE_1_eventHandler.c ****         cyBle_discInclInfo.inclDefHandle = 0u;
 548              		.loc 1 1261 0 discriminator 1
 549 00e2 044B     		ldr	r3, .L22+4
 550 00e4 0022     		mov	r2, #0
 551 00e6 1A80     		strh	r2, [r3]
 552              	.L17:
 553              	.LBE4:
1262:Generated_Source\PSoC4/BLE_1_eventHandler.c ****     #endif /* CYBLE_CUSTOM_CLIENT */
1263:Generated_Source\PSoC4/BLE_1_eventHandler.c ****     }
1264:Generated_Source\PSoC4/BLE_1_eventHandler.c **** #endif /* CYBLE_CUSTOM_CLIENT */
1265:Generated_Source\PSoC4/BLE_1_eventHandler.c **** #ifdef CYBLE_IPS_CLIENT
ARM GAS  C:\Users\Sarah\AppData\Local\Temp\ccqSJLdk.s 			page 33


1266:Generated_Source\PSoC4/BLE_1_eventHandler.c ****     if((cyBle_eventHandlerFlag & CYBLE_CALLBACK) != 0u)
1267:Generated_Source\PSoC4/BLE_1_eventHandler.c ****     {
1268:Generated_Source\PSoC4/BLE_1_eventHandler.c ****         CyBle_IpscReadMultipleResponseEventHandler(eventParam);
1269:Generated_Source\PSoC4/BLE_1_eventHandler.c ****     }
1270:Generated_Source\PSoC4/BLE_1_eventHandler.c **** #endif /* CYBLE_IPS_CLIENT */
1271:Generated_Source\PSoC4/BLE_1_eventHandler.c ****     /* MISRA 16.7 violation workaround */
1272:Generated_Source\PSoC4/BLE_1_eventHandler.c ****     eventParam = eventParam;
1273:Generated_Source\PSoC4/BLE_1_eventHandler.c **** }
 554              		.loc 1 1273 0
 555 00e8 BD46     		mov	sp, r7
 556 00ea 09B0     		add	sp, sp, #36
 557              		@ sp needed
 558 00ec 90BD     		pop	{r4, r7, pc}
 559              	.L23:
 560 00ee C046     		.align	2
 561              	.L22:
 562 00f0 00000000 		.word	cyBle_clientState
 563 00f4 00000000 		.word	cyBle_discInclInfo
 564 00f8 00000000 		.word	cyBle_disCount
 565 00fc 00000000 		.word	cyBle_serverInfo
 566 0100 00000000 		.word	cyBle_connHandle
 567 0104 00000000 		.word	CyBle_ApplCallback
 568 0108 00000000 		.word	cyBle_eventHandlerFlag
 569              		.cfi_endproc
 570              	.LFE8:
 571              		.size	CyBle_ReadMultipleResponseEventHandler, .-CyBle_ReadMultipleResponseEventHandler
 572              		.section	.text.CyBle_GattDisconnectEventHandler,"ax",%progbits
 573              		.align	2
 574              		.code	16
 575              		.thumb_func
 576              		.type	CyBle_GattDisconnectEventHandler, %function
 577              	CyBle_GattDisconnectEventHandler:
 578              	.LFB9:
1274:Generated_Source\PSoC4/BLE_1_eventHandler.c **** #endif /* CYBLE_GATT_ROLE_CLIENT */
1275:Generated_Source\PSoC4/BLE_1_eventHandler.c **** 
1276:Generated_Source\PSoC4/BLE_1_eventHandler.c **** 
1277:Generated_Source\PSoC4/BLE_1_eventHandler.c **** /****************************************************************************** 
1278:Generated_Source\PSoC4/BLE_1_eventHandler.c **** * Function Name: CyBle_DisconnectEventHandler
1279:Generated_Source\PSoC4/BLE_1_eventHandler.c **** ***************************************************************************//**
1280:Generated_Source\PSoC4/BLE_1_eventHandler.c **** * 
1281:Generated_Source\PSoC4/BLE_1_eventHandler.c **** *  Handles the GATT Disconnection event from the BLE stack.
1282:Generated_Source\PSoC4/BLE_1_eventHandler.c **** * 
1283:Generated_Source\PSoC4/BLE_1_eventHandler.c **** * \return
1284:Generated_Source\PSoC4/BLE_1_eventHandler.c **** *  None
1285:Generated_Source\PSoC4/BLE_1_eventHandler.c **** * 
1286:Generated_Source\PSoC4/BLE_1_eventHandler.c **** ******************************************************************************/
1287:Generated_Source\PSoC4/BLE_1_eventHandler.c **** static void CyBle_GattDisconnectEventHandler(void)
1288:Generated_Source\PSoC4/BLE_1_eventHandler.c **** {
 579              		.loc 1 1288 0
 580              		.cfi_startproc
 581 0000 80B5     		push	{r7, lr}
 582              		.cfi_def_cfa_offset 8
 583              		.cfi_offset 7, -8
 584              		.cfi_offset 14, -4
 585 0002 00AF     		add	r7, sp, #0
 586              		.cfi_def_cfa_register 7
1289:Generated_Source\PSoC4/BLE_1_eventHandler.c ****     cyBle_connHandle.attId = 0u;
ARM GAS  C:\Users\Sarah\AppData\Local\Temp\ccqSJLdk.s 			page 34


 587              		.loc 1 1289 0
 588 0004 094B     		ldr	r3, .L27
 589 0006 0022     		mov	r2, #0
 590 0008 5A70     		strb	r2, [r3, #1]
1290:Generated_Source\PSoC4/BLE_1_eventHandler.c ****     cyBle_connHandle.bdHandle = 0u;
 591              		.loc 1 1290 0
 592 000a 084B     		ldr	r3, .L27
 593 000c 0022     		mov	r2, #0
 594 000e 1A70     		strb	r2, [r3]
1291:Generated_Source\PSoC4/BLE_1_eventHandler.c ****     
1292:Generated_Source\PSoC4/BLE_1_eventHandler.c ****     #if (CYBLE_GATT_ROLE_CLIENT)
1293:Generated_Source\PSoC4/BLE_1_eventHandler.c ****         if(CyBle_GetClientState() == CYBLE_CLIENT_STATE_DISCOVERED)
 595              		.loc 1 1293 0
 596 0010 074B     		ldr	r3, .L27+4
 597 0012 1B78     		ldrb	r3, [r3]
 598 0014 052B     		cmp	r3, #5
 599 0016 03D1     		bne	.L25
1294:Generated_Source\PSoC4/BLE_1_eventHandler.c ****         {
1295:Generated_Source\PSoC4/BLE_1_eventHandler.c ****             CyBle_SetClientState(CYBLE_CLIENT_STATE_DISCONNECTED_DISCOVERED);
 600              		.loc 1 1295 0
 601 0018 054B     		ldr	r3, .L27+4
 602 001a 0722     		mov	r2, #7
 603 001c 1A70     		strb	r2, [r3]
 604 001e 02E0     		b	.L24
 605              	.L25:
1296:Generated_Source\PSoC4/BLE_1_eventHandler.c ****         }
1297:Generated_Source\PSoC4/BLE_1_eventHandler.c ****         else
1298:Generated_Source\PSoC4/BLE_1_eventHandler.c ****         {
1299:Generated_Source\PSoC4/BLE_1_eventHandler.c ****             CyBle_SetClientState(CYBLE_CLIENT_STATE_DISCONNECTED);
 606              		.loc 1 1299 0
 607 0020 034B     		ldr	r3, .L27+4
 608 0022 0822     		mov	r2, #8
 609 0024 1A70     		strb	r2, [r3]
 610              	.L24:
1300:Generated_Source\PSoC4/BLE_1_eventHandler.c ****         }
1301:Generated_Source\PSoC4/BLE_1_eventHandler.c ****     #endif /* CYBLE_GATT_ROLE_CLIENT */
1302:Generated_Source\PSoC4/BLE_1_eventHandler.c ****         
1303:Generated_Source\PSoC4/BLE_1_eventHandler.c ****     #ifdef CYBLE_CPS_SERVER
1304:Generated_Source\PSoC4/BLE_1_eventHandler.c ****         #if CYBLE_GAP_ROLE_BROADCASTER
1305:Generated_Source\PSoC4/BLE_1_eventHandler.c ****             CyBle_CpssDisconnectEventHandler();
1306:Generated_Source\PSoC4/BLE_1_eventHandler.c ****         #endif /* CYBLE_GAP_ROLE_BROADCASTER */
1307:Generated_Source\PSoC4/BLE_1_eventHandler.c ****     #endif /* CYBLE_CPS_SERVER */
1308:Generated_Source\PSoC4/BLE_1_eventHandler.c **** 
1309:Generated_Source\PSoC4/BLE_1_eventHandler.c ****     #ifdef CYBLE_CPS_CLIENT
1310:Generated_Source\PSoC4/BLE_1_eventHandler.c ****         CyBle_CpscDisconnectEventHandler();
1311:Generated_Source\PSoC4/BLE_1_eventHandler.c ****     #endif /* CYBLE_CPS_CLIENT */
1312:Generated_Source\PSoC4/BLE_1_eventHandler.c **** 
1313:Generated_Source\PSoC4/BLE_1_eventHandler.c ****     #ifdef CYBLE_IAS_SERVER
1314:Generated_Source\PSoC4/BLE_1_eventHandler.c ****         CyBle_IassDisconnectEventHandler();
1315:Generated_Source\PSoC4/BLE_1_eventHandler.c ****     #endif /* CYBLE_IAS_SERVER */
1316:Generated_Source\PSoC4/BLE_1_eventHandler.c ****     
1317:Generated_Source\PSoC4/BLE_1_eventHandler.c ****     #ifdef CYBLE_GLS_SERVER
1318:Generated_Source\PSoC4/BLE_1_eventHandler.c ****         CyBle_GlsInit();
1319:Generated_Source\PSoC4/BLE_1_eventHandler.c ****     #endif /* CYBLE_GLS_SERVER */
1320:Generated_Source\PSoC4/BLE_1_eventHandler.c ****     
1321:Generated_Source\PSoC4/BLE_1_eventHandler.c ****     #ifdef CYBLE_LNS_SERVER
1322:Generated_Source\PSoC4/BLE_1_eventHandler.c ****         CyBle_LnsInit();
ARM GAS  C:\Users\Sarah\AppData\Local\Temp\ccqSJLdk.s 			page 35


1323:Generated_Source\PSoC4/BLE_1_eventHandler.c ****     #endif /* CYBLE_LNS_SERVER */
1324:Generated_Source\PSoC4/BLE_1_eventHandler.c ****     
1325:Generated_Source\PSoC4/BLE_1_eventHandler.c ****     #ifdef CYBLE_UDS_SERVER
1326:Generated_Source\PSoC4/BLE_1_eventHandler.c ****         CyBle_UdsInit();
1327:Generated_Source\PSoC4/BLE_1_eventHandler.c ****     #endif /* CYBLE_UDS_SERVER */
1328:Generated_Source\PSoC4/BLE_1_eventHandler.c **** }
 611              		.loc 1 1328 0
 612 0026 BD46     		mov	sp, r7
 613              		@ sp needed
 614 0028 80BD     		pop	{r7, pc}
 615              	.L28:
 616 002a C046     		.align	2
 617              	.L27:
 618 002c 00000000 		.word	cyBle_connHandle
 619 0030 00000000 		.word	cyBle_clientState
 620              		.cfi_endproc
 621              	.LFE9:
 622              		.size	CyBle_GattDisconnectEventHandler, .-CyBle_GattDisconnectEventHandler
 623              		.section	.text.CyBle_TimeOutEventHandler,"ax",%progbits
 624              		.align	2
 625              		.code	16
 626              		.thumb_func
 627              		.type	CyBle_TimeOutEventHandler, %function
 628              	CyBle_TimeOutEventHandler:
 629              	.LFB10:
1329:Generated_Source\PSoC4/BLE_1_eventHandler.c **** 
1330:Generated_Source\PSoC4/BLE_1_eventHandler.c **** 
1331:Generated_Source\PSoC4/BLE_1_eventHandler.c **** /****************************************************************************** 
1332:Generated_Source\PSoC4/BLE_1_eventHandler.c **** * Function Name: CyBle_TimeOutEventHandler
1333:Generated_Source\PSoC4/BLE_1_eventHandler.c **** ***************************************************************************//**
1334:Generated_Source\PSoC4/BLE_1_eventHandler.c **** * 
1335:Generated_Source\PSoC4/BLE_1_eventHandler.c **** *  Handles the CYBLE_EVT_TIMEOUT event from the BLE stack.
1336:Generated_Source\PSoC4/BLE_1_eventHandler.c **** * 
1337:Generated_Source\PSoC4/BLE_1_eventHandler.c **** *  \param eventParam: The pointer to a structure of type CYBLE_TO_REASON_CODE_T.
1338:Generated_Source\PSoC4/BLE_1_eventHandler.c **** * 
1339:Generated_Source\PSoC4/BLE_1_eventHandler.c **** * \return
1340:Generated_Source\PSoC4/BLE_1_eventHandler.c **** *  None
1341:Generated_Source\PSoC4/BLE_1_eventHandler.c **** * 
1342:Generated_Source\PSoC4/BLE_1_eventHandler.c **** ******************************************************************************/
1343:Generated_Source\PSoC4/BLE_1_eventHandler.c **** static void CyBle_TimeOutEventHandler(const CYBLE_TO_REASON_CODE_T *eventParam)
1344:Generated_Source\PSoC4/BLE_1_eventHandler.c **** {
 630              		.loc 1 1344 0
 631              		.cfi_startproc
 632 0000 80B5     		push	{r7, lr}
 633              		.cfi_def_cfa_offset 8
 634              		.cfi_offset 7, -8
 635              		.cfi_offset 14, -4
 636 0002 82B0     		sub	sp, sp, #8
 637              		.cfi_def_cfa_offset 16
 638 0004 00AF     		add	r7, sp, #0
 639              		.cfi_def_cfa_register 7
 640 0006 7860     		str	r0, [r7, #4]
1345:Generated_Source\PSoC4/BLE_1_eventHandler.c ****     if(*eventParam == CYBLE_GATT_RSP_TO)
 641              		.loc 1 1345 0
 642 0008 7B68     		ldr	r3, [r7, #4]
 643 000a 1B78     		ldrb	r3, [r3]
 644 000c 032B     		cmp	r3, #3
ARM GAS  C:\Users\Sarah\AppData\Local\Temp\ccqSJLdk.s 			page 36


 645 000e 3ED1     		bne	.L30
1346:Generated_Source\PSoC4/BLE_1_eventHandler.c ****     {
1347:Generated_Source\PSoC4/BLE_1_eventHandler.c ****     #if (CYBLE_GATT_ROLE_CLIENT)
1348:Generated_Source\PSoC4/BLE_1_eventHandler.c ****         if((cyBle_eventHandlerFlag & CYBLE_AUTO_DISCOVERY) != 0u)
 646              		.loc 1 1348 0
 647 0010 254B     		ldr	r3, .L39
 648 0012 1B78     		ldrb	r3, [r3]
 649 0014 DBB2     		uxtb	r3, r3
 650 0016 1A1C     		mov	r2, r3
 651 0018 0223     		mov	r3, #2
 652 001a 1340     		and	r3, r2
 653 001c 37D0     		beq	.L30
1349:Generated_Source\PSoC4/BLE_1_eventHandler.c ****         {
1350:Generated_Source\PSoC4/BLE_1_eventHandler.c ****             switch(CyBle_GetClientState())
 654              		.loc 1 1350 0
 655 001e 234B     		ldr	r3, .L39+4
 656 0020 1B78     		ldrb	r3, [r3]
 657 0022 022B     		cmp	r3, #2
 658 0024 10D0     		beq	.L32
 659 0026 02DC     		bgt	.L33
 660 0028 012B     		cmp	r3, #1
 661 002a 05D0     		beq	.L34
1351:Generated_Source\PSoC4/BLE_1_eventHandler.c ****             {
1352:Generated_Source\PSoC4/BLE_1_eventHandler.c ****                 case CYBLE_CLIENT_STATE_SRVC_DISCOVERING:
1353:Generated_Source\PSoC4/BLE_1_eventHandler.c ****                     CyBle_ApplCallback(CYBLE_EVT_GATTC_SRVC_DISCOVERY_FAILED, NULL);
1354:Generated_Source\PSoC4/BLE_1_eventHandler.c ****                     break;
1355:Generated_Source\PSoC4/BLE_1_eventHandler.c ****                 case CYBLE_CLIENT_STATE_INCL_DISCOVERING:
1356:Generated_Source\PSoC4/BLE_1_eventHandler.c ****                     CyBle_ApplCallback(CYBLE_EVT_GATTC_INCL_DISCOVERY_FAILED, NULL);
1357:Generated_Source\PSoC4/BLE_1_eventHandler.c ****                     break;
1358:Generated_Source\PSoC4/BLE_1_eventHandler.c ****                 case CYBLE_CLIENT_STATE_CHAR_DISCOVERING:
1359:Generated_Source\PSoC4/BLE_1_eventHandler.c ****                     CyBle_ApplCallback(CYBLE_EVT_GATTC_CHAR_DISCOVERY_FAILED, NULL);
1360:Generated_Source\PSoC4/BLE_1_eventHandler.c ****                     break;
1361:Generated_Source\PSoC4/BLE_1_eventHandler.c ****                 case CYBLE_CLIENT_STATE_DESCR_DISCOVERING:
1362:Generated_Source\PSoC4/BLE_1_eventHandler.c ****                     CyBle_ApplCallback(CYBLE_EVT_GATTC_DESCR_DISCOVERY_FAILED, NULL);
1363:Generated_Source\PSoC4/BLE_1_eventHandler.c ****                     break;
1364:Generated_Source\PSoC4/BLE_1_eventHandler.c ****                 default:        /* Other states should not be set in Auto discovery mode */
1365:Generated_Source\PSoC4/BLE_1_eventHandler.c ****                     break;
 662              		.loc 1 1365 0
 663 002c 24E0     		b	.L37
 664              	.L33:
1350:Generated_Source\PSoC4/BLE_1_eventHandler.c ****             {
 665              		.loc 1 1350 0
 666 002e 032B     		cmp	r3, #3
 667 0030 12D0     		beq	.L35
 668 0032 042B     		cmp	r3, #4
 669 0034 18D0     		beq	.L36
 670              		.loc 1 1365 0
 671 0036 1FE0     		b	.L37
 672              	.L34:
1353:Generated_Source\PSoC4/BLE_1_eventHandler.c ****                     break;
 673              		.loc 1 1353 0
 674 0038 1D4B     		ldr	r3, .L39+8
 675 003a 1B68     		ldr	r3, [r3]
 676 003c 0822     		mov	r2, #8
 677 003e FF32     		add	r2, r2, #255
 678 0040 101C     		mov	r0, r2
 679 0042 0021     		mov	r1, #0
ARM GAS  C:\Users\Sarah\AppData\Local\Temp\ccqSJLdk.s 			page 37


 680 0044 9847     		blx	r3
1354:Generated_Source\PSoC4/BLE_1_eventHandler.c ****                 case CYBLE_CLIENT_STATE_INCL_DISCOVERING:
 681              		.loc 1 1354 0
 682 0046 17E0     		b	.L37
 683              	.L32:
1356:Generated_Source\PSoC4/BLE_1_eventHandler.c ****                     break;
 684              		.loc 1 1356 0
 685 0048 194B     		ldr	r3, .L39+8
 686 004a 1B68     		ldr	r3, [r3]
 687 004c 8422     		mov	r2, #132
 688 004e 5200     		lsl	r2, r2, #1
 689 0050 101C     		mov	r0, r2
 690 0052 0021     		mov	r1, #0
 691 0054 9847     		blx	r3
1357:Generated_Source\PSoC4/BLE_1_eventHandler.c ****                 case CYBLE_CLIENT_STATE_CHAR_DISCOVERING:
 692              		.loc 1 1357 0
 693 0056 0FE0     		b	.L37
 694              	.L35:
1359:Generated_Source\PSoC4/BLE_1_eventHandler.c ****                     break;
 695              		.loc 1 1359 0
 696 0058 154B     		ldr	r3, .L39+8
 697 005a 1B68     		ldr	r3, [r3]
 698 005c 0A22     		mov	r2, #10
 699 005e FF32     		add	r2, r2, #255
 700 0060 101C     		mov	r0, r2
 701 0062 0021     		mov	r1, #0
 702 0064 9847     		blx	r3
1360:Generated_Source\PSoC4/BLE_1_eventHandler.c ****                 case CYBLE_CLIENT_STATE_DESCR_DISCOVERING:
 703              		.loc 1 1360 0
 704 0066 07E0     		b	.L37
 705              	.L36:
1362:Generated_Source\PSoC4/BLE_1_eventHandler.c ****                     break;
 706              		.loc 1 1362 0
 707 0068 114B     		ldr	r3, .L39+8
 708 006a 1B68     		ldr	r3, [r3]
 709 006c 8522     		mov	r2, #133
 710 006e 5200     		lsl	r2, r2, #1
 711 0070 101C     		mov	r0, r2
 712 0072 0021     		mov	r1, #0
 713 0074 9847     		blx	r3
1363:Generated_Source\PSoC4/BLE_1_eventHandler.c ****                 default:        /* Other states should not be set in Auto discovery mode */
 714              		.loc 1 1363 0
 715 0076 C046     		mov	r8, r8
 716              	.L37:
1366:Generated_Source\PSoC4/BLE_1_eventHandler.c ****             }
1367:Generated_Source\PSoC4/BLE_1_eventHandler.c ****             cyBle_eventHandlerFlag &= (uint8)~CYBLE_AUTO_DISCOVERY;
 717              		.loc 1 1367 0
 718 0078 0B4B     		ldr	r3, .L39
 719 007a 1B78     		ldrb	r3, [r3]
 720 007c DBB2     		uxtb	r3, r3
 721 007e 0222     		mov	r2, #2
 722 0080 9343     		bic	r3, r2
 723 0082 DAB2     		uxtb	r2, r3
 724 0084 084B     		ldr	r3, .L39
 725 0086 1A70     		strb	r2, [r3]
1368:Generated_Source\PSoC4/BLE_1_eventHandler.c ****             CyBle_SetClientState(CYBLE_CLIENT_STATE_CONNECTED);
 726              		.loc 1 1368 0
ARM GAS  C:\Users\Sarah\AppData\Local\Temp\ccqSJLdk.s 			page 38


 727 0088 084B     		ldr	r3, .L39+4
 728 008a 0022     		mov	r2, #0
 729 008c 1A70     		strb	r2, [r3]
 730              	.L30:
1369:Generated_Source\PSoC4/BLE_1_eventHandler.c ****         }
1370:Generated_Source\PSoC4/BLE_1_eventHandler.c ****     #endif /* CYBLE_GATT_ROLE_CLIENT */
1371:Generated_Source\PSoC4/BLE_1_eventHandler.c ****     #ifdef CYBLE_CPS_SERVER
1372:Generated_Source\PSoC4/BLE_1_eventHandler.c ****         CyBle_CpssTimeOutEventHandler();
1373:Generated_Source\PSoC4/BLE_1_eventHandler.c ****     #endif /* CYBLE_CPS_SERVER */
1374:Generated_Source\PSoC4/BLE_1_eventHandler.c ****     }
1375:Generated_Source\PSoC4/BLE_1_eventHandler.c ****     
1376:Generated_Source\PSoC4/BLE_1_eventHandler.c ****     /* Connection procedure timeout */
1377:Generated_Source\PSoC4/BLE_1_eventHandler.c ****     if(*eventParam == CYBLE_GENERIC_TO)
 731              		.loc 1 1377 0
 732 008e 7B68     		ldr	r3, [r7, #4]
 733 0090 1B78     		ldrb	r3, [r3]
 734 0092 042B     		cmp	r3, #4
 735 0094 05D1     		bne	.L29
1378:Generated_Source\PSoC4/BLE_1_eventHandler.c ****     {
1379:Generated_Source\PSoC4/BLE_1_eventHandler.c ****     #if(CYBLE_GAP_ROLE_CENTRAL)
1380:Generated_Source\PSoC4/BLE_1_eventHandler.c ****         if(CyBle_GetState() == CYBLE_STATE_CONNECTING)
 736              		.loc 1 1380 0
 737 0096 074B     		ldr	r3, .L39+12
 738 0098 1B78     		ldrb	r3, [r3]
 739 009a 042B     		cmp	r3, #4
 740 009c 01D1     		bne	.L29
1381:Generated_Source\PSoC4/BLE_1_eventHandler.c ****         {
1382:Generated_Source\PSoC4/BLE_1_eventHandler.c ****             (void)CyBle_GapcCancelDeviceConnection();
 741              		.loc 1 1382 0
 742 009e FFF7FEFF 		bl	CyBle_GapcCancelDeviceConnection
 743              	.L29:
1383:Generated_Source\PSoC4/BLE_1_eventHandler.c ****         }
1384:Generated_Source\PSoC4/BLE_1_eventHandler.c ****     #endif /* CYBLE_GAP_ROLE_CENTRAL */
1385:Generated_Source\PSoC4/BLE_1_eventHandler.c ****     }
1386:Generated_Source\PSoC4/BLE_1_eventHandler.c **** }
 744              		.loc 1 1386 0
 745 00a2 BD46     		mov	sp, r7
 746 00a4 02B0     		add	sp, sp, #8
 747              		@ sp needed
 748 00a6 80BD     		pop	{r7, pc}
 749              	.L40:
 750              		.align	2
 751              	.L39:
 752 00a8 00000000 		.word	cyBle_eventHandlerFlag
 753 00ac 00000000 		.word	cyBle_clientState
 754 00b0 00000000 		.word	CyBle_ApplCallback
 755 00b4 00000000 		.word	cyBle_state
 756              		.cfi_endproc
 757              	.LFE10:
 758              		.size	CyBle_TimeOutEventHandler, .-CyBle_TimeOutEventHandler
 759              		.section	.text.CyBle_GattConnectReqHandler,"ax",%progbits
 760              		.align	2
 761              		.code	16
 762              		.thumb_func
 763              		.type	CyBle_GattConnectReqHandler, %function
 764              	CyBle_GattConnectReqHandler:
 765              	.LFB11:
ARM GAS  C:\Users\Sarah\AppData\Local\Temp\ccqSJLdk.s 			page 39


1387:Generated_Source\PSoC4/BLE_1_eventHandler.c **** 
1388:Generated_Source\PSoC4/BLE_1_eventHandler.c **** 
1389:Generated_Source\PSoC4/BLE_1_eventHandler.c **** /****************************************************************************** 
1390:Generated_Source\PSoC4/BLE_1_eventHandler.c **** * Function Name: CyBle_GattConnectReqHandler
1391:Generated_Source\PSoC4/BLE_1_eventHandler.c **** ***************************************************************************//**
1392:Generated_Source\PSoC4/BLE_1_eventHandler.c **** * 
1393:Generated_Source\PSoC4/BLE_1_eventHandler.c **** *  Handles the GATT connect event from the BLE stack.
1394:Generated_Source\PSoC4/BLE_1_eventHandler.c **** * 
1395:Generated_Source\PSoC4/BLE_1_eventHandler.c **** * \return
1396:Generated_Source\PSoC4/BLE_1_eventHandler.c **** *  None
1397:Generated_Source\PSoC4/BLE_1_eventHandler.c **** * 
1398:Generated_Source\PSoC4/BLE_1_eventHandler.c **** ******************************************************************************/
1399:Generated_Source\PSoC4/BLE_1_eventHandler.c **** static void CyBle_GattConnectReqHandler(void)
1400:Generated_Source\PSoC4/BLE_1_eventHandler.c **** {
 766              		.loc 1 1400 0
 767              		.cfi_startproc
 768 0000 80B5     		push	{r7, lr}
 769              		.cfi_def_cfa_offset 8
 770              		.cfi_offset 7, -8
 771              		.cfi_offset 14, -4
 772 0002 00AF     		add	r7, sp, #0
 773              		.cfi_def_cfa_register 7
1401:Generated_Source\PSoC4/BLE_1_eventHandler.c ****     #ifdef CYBLE_CGMS_SERVER
1402:Generated_Source\PSoC4/BLE_1_eventHandler.c ****         CyBle_CgmsInit();
1403:Generated_Source\PSoC4/BLE_1_eventHandler.c ****     #endif /* CYBLE_CGMS_SERVER */
1404:Generated_Source\PSoC4/BLE_1_eventHandler.c ****     
1405:Generated_Source\PSoC4/BLE_1_eventHandler.c ****     #ifdef CYBLE_CPS_SERVER
1406:Generated_Source\PSoC4/BLE_1_eventHandler.c ****         CyBle_CpssConnectEventHandler();
1407:Generated_Source\PSoC4/BLE_1_eventHandler.c ****     #endif /* CYBLE_CPS_SERVER */
1408:Generated_Source\PSoC4/BLE_1_eventHandler.c ****     
1409:Generated_Source\PSoC4/BLE_1_eventHandler.c ****     #ifdef CYBLE_CSCS_SERVER
1410:Generated_Source\PSoC4/BLE_1_eventHandler.c ****             CyBle_CscsInit();
1411:Generated_Source\PSoC4/BLE_1_eventHandler.c ****     #endif /* CYBLE_CSCS_SERVER */
1412:Generated_Source\PSoC4/BLE_1_eventHandler.c ****     
1413:Generated_Source\PSoC4/BLE_1_eventHandler.c ****     #ifdef CYBLE_LLS_SERVER
1414:Generated_Source\PSoC4/BLE_1_eventHandler.c ****         CyBle_LlssConnectEventHandler();
1415:Generated_Source\PSoC4/BLE_1_eventHandler.c ****     #endif /* CYBLE_LLS_SERVER */
1416:Generated_Source\PSoC4/BLE_1_eventHandler.c ****     
1417:Generated_Source\PSoC4/BLE_1_eventHandler.c ****     #ifdef CYBLE_HIDS_SERVER
1418:Generated_Source\PSoC4/BLE_1_eventHandler.c ****         CyBle_HidssOnDeviceConnected();
1419:Generated_Source\PSoC4/BLE_1_eventHandler.c ****     #endif /* CYBLE_HIDS_SERVER */
1420:Generated_Source\PSoC4/BLE_1_eventHandler.c **** 
1421:Generated_Source\PSoC4/BLE_1_eventHandler.c ****     #ifdef CYBLE_RSCS_SERVER
1422:Generated_Source\PSoC4/BLE_1_eventHandler.c ****         CyBle_RscsInit();
1423:Generated_Source\PSoC4/BLE_1_eventHandler.c ****     #endif /* CYBLE_RSCS_SERVER */
1424:Generated_Source\PSoC4/BLE_1_eventHandler.c **** }
 774              		.loc 1 1424 0
 775 0004 BD46     		mov	sp, r7
 776              		@ sp needed
 777 0006 80BD     		pop	{r7, pc}
 778              		.cfi_endproc
 779              	.LFE11:
 780              		.size	CyBle_GattConnectReqHandler, .-CyBle_GattConnectReqHandler
 781              		.section	.text.CyBle_IsDeviceAddressValid,"ax",%progbits
 782              		.align	2
 783              		.global	CyBle_IsDeviceAddressValid
 784              		.code	16
ARM GAS  C:\Users\Sarah\AppData\Local\Temp\ccqSJLdk.s 			page 40


 785              		.thumb_func
 786              		.type	CyBle_IsDeviceAddressValid, %function
 787              	CyBle_IsDeviceAddressValid:
 788              	.LFB12:
1425:Generated_Source\PSoC4/BLE_1_eventHandler.c **** 
1426:Generated_Source\PSoC4/BLE_1_eventHandler.c **** 
1427:Generated_Source\PSoC4/BLE_1_eventHandler.c **** #if (CYBLE_GATT_ROLE_SERVER || CYBLE_GATT_ROLE_CLIENT)
1428:Generated_Source\PSoC4/BLE_1_eventHandler.c **** 
1429:Generated_Source\PSoC4/BLE_1_eventHandler.c **** /****************************************************************************** 
1430:Generated_Source\PSoC4/BLE_1_eventHandler.c **** * Function Name: CyBle_IsDeviceAddressValid
1431:Generated_Source\PSoC4/BLE_1_eventHandler.c **** ***************************************************************************//**
1432:Generated_Source\PSoC4/BLE_1_eventHandler.c **** * 
1433:Generated_Source\PSoC4/BLE_1_eventHandler.c **** *  This function verifies that BLE public address has been programmed to SFLASH 
1434:Generated_Source\PSoC4/BLE_1_eventHandler.c **** *  during manufacture. It could be used to verify if public device address is 
1435:Generated_Source\PSoC4/BLE_1_eventHandler.c **** *  programmed to flash memory.
1436:Generated_Source\PSoC4/BLE_1_eventHandler.c **** * 
1437:Generated_Source\PSoC4/BLE_1_eventHandler.c **** *  \param deviceAddress: the pointer to the BD address of type CYBLE_GAP_BD_ADDR_T. 
1438:Generated_Source\PSoC4/BLE_1_eventHandler.c **** * 
1439:Generated_Source\PSoC4/BLE_1_eventHandler.c **** * \return
1440:Generated_Source\PSoC4/BLE_1_eventHandler.c **** *  Non zero value when a device address differs from the default SFLASH content.
1441:Generated_Source\PSoC4/BLE_1_eventHandler.c **** * 
1442:Generated_Source\PSoC4/BLE_1_eventHandler.c **** ******************************************************************************/
1443:Generated_Source\PSoC4/BLE_1_eventHandler.c **** uint8 CyBle_IsDeviceAddressValid(const CYBLE_GAP_BD_ADDR_T *deviceAddress)
1444:Generated_Source\PSoC4/BLE_1_eventHandler.c **** {
 789              		.loc 1 1444 0
 790              		.cfi_startproc
 791 0000 80B5     		push	{r7, lr}
 792              		.cfi_def_cfa_offset 8
 793              		.cfi_offset 7, -8
 794              		.cfi_offset 14, -4
 795 0002 84B0     		sub	sp, sp, #16
 796              		.cfi_def_cfa_offset 24
 797 0004 00AF     		add	r7, sp, #0
 798              		.cfi_def_cfa_register 7
 799 0006 7860     		str	r0, [r7, #4]
1445:Generated_Source\PSoC4/BLE_1_eventHandler.c ****     uint8 i;
1446:Generated_Source\PSoC4/BLE_1_eventHandler.c ****     uint8 addressValid = 0u;
 800              		.loc 1 1446 0
 801 0008 0E23     		mov	r3, #14
 802 000a FB18     		add	r3, r7, r3
 803 000c 0022     		mov	r2, #0
 804 000e 1A70     		strb	r2, [r3]
1447:Generated_Source\PSoC4/BLE_1_eventHandler.c ****     
1448:Generated_Source\PSoC4/BLE_1_eventHandler.c ****     if(deviceAddress -> type == CYBLE_GAP_ADDR_TYPE_PUBLIC)  
 805              		.loc 1 1448 0
 806 0010 7B68     		ldr	r3, [r7, #4]
 807 0012 9B79     		ldrb	r3, [r3, #6]
 808 0014 002B     		cmp	r3, #0
 809 0016 1CD1     		bne	.L43
1449:Generated_Source\PSoC4/BLE_1_eventHandler.c ****     {
1450:Generated_Source\PSoC4/BLE_1_eventHandler.c ****         for(i = 0u; i < CYBLE_GAP_BD_ADDR_SIZE; i++)
 810              		.loc 1 1450 0
 811 0018 0F23     		mov	r3, #15
 812 001a FB18     		add	r3, r7, r3
 813 001c 0022     		mov	r2, #0
 814 001e 1A70     		strb	r2, [r3]
 815 0020 12E0     		b	.L44
ARM GAS  C:\Users\Sarah\AppData\Local\Temp\ccqSJLdk.s 			page 41


 816              	.L46:
1451:Generated_Source\PSoC4/BLE_1_eventHandler.c ****         {
1452:Generated_Source\PSoC4/BLE_1_eventHandler.c ****             if(deviceAddress->bdAddr[i] != 0u)
 817              		.loc 1 1452 0
 818 0022 0F23     		mov	r3, #15
 819 0024 FB18     		add	r3, r7, r3
 820 0026 1B78     		ldrb	r3, [r3]
 821 0028 7A68     		ldr	r2, [r7, #4]
 822 002a D35C     		ldrb	r3, [r2, r3]
 823 002c 002B     		cmp	r3, #0
 824 002e 04D0     		beq	.L45
1453:Generated_Source\PSoC4/BLE_1_eventHandler.c ****             {
1454:Generated_Source\PSoC4/BLE_1_eventHandler.c ****                 addressValid = 1u;
 825              		.loc 1 1454 0
 826 0030 0E23     		mov	r3, #14
 827 0032 FB18     		add	r3, r7, r3
 828 0034 0122     		mov	r2, #1
 829 0036 1A70     		strb	r2, [r3]
1455:Generated_Source\PSoC4/BLE_1_eventHandler.c ****                 break;
 830              		.loc 1 1455 0
 831 0038 0BE0     		b	.L43
 832              	.L45:
1450:Generated_Source\PSoC4/BLE_1_eventHandler.c ****         {
 833              		.loc 1 1450 0 discriminator 2
 834 003a 0F23     		mov	r3, #15
 835 003c FB18     		add	r3, r7, r3
 836 003e 1A78     		ldrb	r2, [r3]
 837 0040 0F23     		mov	r3, #15
 838 0042 FB18     		add	r3, r7, r3
 839 0044 0132     		add	r2, r2, #1
 840 0046 1A70     		strb	r2, [r3]
 841              	.L44:
1450:Generated_Source\PSoC4/BLE_1_eventHandler.c ****         {
 842              		.loc 1 1450 0 is_stmt 0 discriminator 1
 843 0048 0F23     		mov	r3, #15
 844 004a FB18     		add	r3, r7, r3
 845 004c 1B78     		ldrb	r3, [r3]
 846 004e 052B     		cmp	r3, #5
 847 0050 E7D9     		bls	.L46
 848              	.L43:
1456:Generated_Source\PSoC4/BLE_1_eventHandler.c ****             }
1457:Generated_Source\PSoC4/BLE_1_eventHandler.c ****         }
1458:Generated_Source\PSoC4/BLE_1_eventHandler.c ****     }
1459:Generated_Source\PSoC4/BLE_1_eventHandler.c ****     return (addressValid);
 849              		.loc 1 1459 0 is_stmt 1
 850 0052 0E23     		mov	r3, #14
 851 0054 FB18     		add	r3, r7, r3
 852 0056 1B78     		ldrb	r3, [r3]
1460:Generated_Source\PSoC4/BLE_1_eventHandler.c **** }
 853              		.loc 1 1460 0
 854 0058 181C     		mov	r0, r3
 855 005a BD46     		mov	sp, r7
 856 005c 04B0     		add	sp, sp, #16
 857              		@ sp needed
 858 005e 80BD     		pop	{r7, pc}
 859              		.cfi_endproc
 860              	.LFE12:
ARM GAS  C:\Users\Sarah\AppData\Local\Temp\ccqSJLdk.s 			page 42


 861              		.size	CyBle_IsDeviceAddressValid, .-CyBle_IsDeviceAddressValid
 862              		.section	.text.CyBle_L2Cap_ConnParamUpdateRspEventHandler,"ax",%progbits
 863              		.align	2
 864              		.code	16
 865              		.thumb_func
 866              		.type	CyBle_L2Cap_ConnParamUpdateRspEventHandler, %function
 867              	CyBle_L2Cap_ConnParamUpdateRspEventHandler:
 868              	.LFB13:
1461:Generated_Source\PSoC4/BLE_1_eventHandler.c **** #endif /* CYBLE_GATT_ROLE_SERVER || CYBLE_GATT_ROLE_CLIENT */
1462:Generated_Source\PSoC4/BLE_1_eventHandler.c **** 
1463:Generated_Source\PSoC4/BLE_1_eventHandler.c **** 
1464:Generated_Source\PSoC4/BLE_1_eventHandler.c **** /****************************************************************************** 
1465:Generated_Source\PSoC4/BLE_1_eventHandler.c **** * Function Name: CyBle_L2Cap_ConnParamUpdateRspHandler
1466:Generated_Source\PSoC4/BLE_1_eventHandler.c **** ***************************************************************************//**
1467:Generated_Source\PSoC4/BLE_1_eventHandler.c **** * 
1468:Generated_Source\PSoC4/BLE_1_eventHandler.c **** *  Handles the L2CAP connection parameter response event from
1469:Generated_Source\PSoC4/BLE_1_eventHandler.c **** *  the BLE stack.
1470:Generated_Source\PSoC4/BLE_1_eventHandler.c **** * 
1471:Generated_Source\PSoC4/BLE_1_eventHandler.c **** *  \param response:
1472:Generated_Source\PSoC4/BLE_1_eventHandler.c **** *      * Accepted = 0x0000
1473:Generated_Source\PSoC4/BLE_1_eventHandler.c **** *      * Rejected = 0x0001
1474:Generated_Source\PSoC4/BLE_1_eventHandler.c **** * 
1475:Generated_Source\PSoC4/BLE_1_eventHandler.c **** * \return
1476:Generated_Source\PSoC4/BLE_1_eventHandler.c **** *  None
1477:Generated_Source\PSoC4/BLE_1_eventHandler.c **** * 
1478:Generated_Source\PSoC4/BLE_1_eventHandler.c **** ******************************************************************************/
1479:Generated_Source\PSoC4/BLE_1_eventHandler.c **** static void CyBle_L2Cap_ConnParamUpdateRspEventHandler(uint16 response)
1480:Generated_Source\PSoC4/BLE_1_eventHandler.c **** {
 869              		.loc 1 1480 0
 870              		.cfi_startproc
 871 0000 80B5     		push	{r7, lr}
 872              		.cfi_def_cfa_offset 8
 873              		.cfi_offset 7, -8
 874              		.cfi_offset 14, -4
 875 0002 82B0     		sub	sp, sp, #8
 876              		.cfi_def_cfa_offset 16
 877 0004 00AF     		add	r7, sp, #0
 878              		.cfi_def_cfa_register 7
 879 0006 021C     		mov	r2, r0
 880 0008 BB1D     		add	r3, r7, #6
 881 000a 1A80     		strh	r2, [r3]
1481:Generated_Source\PSoC4/BLE_1_eventHandler.c ****     #ifdef CYBLE_CPS_SERVER
1482:Generated_Source\PSoC4/BLE_1_eventHandler.c ****         CyBle_CpssConnParamUpdateRspEventHandler(response);
1483:Generated_Source\PSoC4/BLE_1_eventHandler.c ****     #endif /* CYBLE_CPS_SERVER */
1484:Generated_Source\PSoC4/BLE_1_eventHandler.c ****     
1485:Generated_Source\PSoC4/BLE_1_eventHandler.c ****     /* Unreferenced variable warning workaround */
1486:Generated_Source\PSoC4/BLE_1_eventHandler.c ****     if(response != 0u)
1487:Generated_Source\PSoC4/BLE_1_eventHandler.c ****     {
1488:Generated_Source\PSoC4/BLE_1_eventHandler.c ****     }
1489:Generated_Source\PSoC4/BLE_1_eventHandler.c **** }
 882              		.loc 1 1489 0
 883 000c BD46     		mov	sp, r7
 884 000e 02B0     		add	sp, sp, #8
 885              		@ sp needed
 886 0010 80BD     		pop	{r7, pc}
 887              		.cfi_endproc
 888              	.LFE13:
ARM GAS  C:\Users\Sarah\AppData\Local\Temp\ccqSJLdk.s 			page 43


 889              		.size	CyBle_L2Cap_ConnParamUpdateRspEventHandler, .-CyBle_L2Cap_ConnParamUpdateRspEventHandler
 890 0012 C046     		.section	.text.CyBle_GapConnUpdateCompleteEventHandler,"ax",%progbits
 891              		.align	2
 892              		.code	16
 893              		.thumb_func
 894              		.type	CyBle_GapConnUpdateCompleteEventHandler, %function
 895              	CyBle_GapConnUpdateCompleteEventHandler:
 896              	.LFB14:
1490:Generated_Source\PSoC4/BLE_1_eventHandler.c **** 
1491:Generated_Source\PSoC4/BLE_1_eventHandler.c **** 
1492:Generated_Source\PSoC4/BLE_1_eventHandler.c **** /****************************************************************************** 
1493:Generated_Source\PSoC4/BLE_1_eventHandler.c **** * Function Name: CyBle_GapConnUpdateCompleteEventHandler
1494:Generated_Source\PSoC4/BLE_1_eventHandler.c **** ***************************************************************************//**
1495:Generated_Source\PSoC4/BLE_1_eventHandler.c **** * 
1496:Generated_Source\PSoC4/BLE_1_eventHandler.c **** *  Handles the CYBLE_EVT_GAP_CONNECTION_UPDATE_COMPLETE event from
1497:Generated_Source\PSoC4/BLE_1_eventHandler.c **** *  the BLE stack.
1498:Generated_Source\PSoC4/BLE_1_eventHandler.c **** * 
1499:Generated_Source\PSoC4/BLE_1_eventHandler.c **** *  \param eventParam: The pointer to the data structure specified by the event.
1500:Generated_Source\PSoC4/BLE_1_eventHandler.c **** * 
1501:Generated_Source\PSoC4/BLE_1_eventHandler.c **** * \return
1502:Generated_Source\PSoC4/BLE_1_eventHandler.c **** *  None
1503:Generated_Source\PSoC4/BLE_1_eventHandler.c **** * 
1504:Generated_Source\PSoC4/BLE_1_eventHandler.c **** ******************************************************************************/
1505:Generated_Source\PSoC4/BLE_1_eventHandler.c **** static void CyBle_GapConnUpdateCompleteEventHandler(const CYBLE_GAP_CONN_PARAM_UPDATED_IN_CONTROLLE
1506:Generated_Source\PSoC4/BLE_1_eventHandler.c **** {
 897              		.loc 1 1506 0
 898              		.cfi_startproc
 899 0000 80B5     		push	{r7, lr}
 900              		.cfi_def_cfa_offset 8
 901              		.cfi_offset 7, -8
 902              		.cfi_offset 14, -4
 903 0002 82B0     		sub	sp, sp, #8
 904              		.cfi_def_cfa_offset 16
 905 0004 00AF     		add	r7, sp, #0
 906              		.cfi_def_cfa_register 7
 907 0006 7860     		str	r0, [r7, #4]
1507:Generated_Source\PSoC4/BLE_1_eventHandler.c ****     #ifdef CYBLE_CPS_SERVER
1508:Generated_Source\PSoC4/BLE_1_eventHandler.c ****         CyBle_CpssConnUpdateCompleteEventHandler(eventParam);
1509:Generated_Source\PSoC4/BLE_1_eventHandler.c ****     #endif /* CYBLE_CPS_SERVER */
1510:Generated_Source\PSoC4/BLE_1_eventHandler.c ****     
1511:Generated_Source\PSoC4/BLE_1_eventHandler.c ****     /* Unreferenced variable warning workaround */
1512:Generated_Source\PSoC4/BLE_1_eventHandler.c ****     if(eventParam != 0u)
1513:Generated_Source\PSoC4/BLE_1_eventHandler.c ****     {
1514:Generated_Source\PSoC4/BLE_1_eventHandler.c ****     }
1515:Generated_Source\PSoC4/BLE_1_eventHandler.c **** }
 908              		.loc 1 1515 0
 909 0008 BD46     		mov	sp, r7
 910 000a 02B0     		add	sp, sp, #8
 911              		@ sp needed
 912 000c 80BD     		pop	{r7, pc}
 913              		.cfi_endproc
 914              	.LFE14:
 915              		.size	CyBle_GapConnUpdateCompleteEventHandler, .-CyBle_GapConnUpdateCompleteEventHandler
 916              		.section	.text.CyBle_EventHandler,"ax",%progbits
 917              		.align	2
 918              		.global	CyBle_EventHandler
 919              		.code	16
ARM GAS  C:\Users\Sarah\AppData\Local\Temp\ccqSJLdk.s 			page 44


 920              		.thumb_func
 921              		.type	CyBle_EventHandler, %function
 922              	CyBle_EventHandler:
 923              	.LFB15:
1516:Generated_Source\PSoC4/BLE_1_eventHandler.c **** 
1517:Generated_Source\PSoC4/BLE_1_eventHandler.c **** 
1518:Generated_Source\PSoC4/BLE_1_eventHandler.c **** /****************************************************************************** 
1519:Generated_Source\PSoC4/BLE_1_eventHandler.c **** * Function Name: CyBle_EventHandler
1520:Generated_Source\PSoC4/BLE_1_eventHandler.c **** ***************************************************************************//**
1521:Generated_Source\PSoC4/BLE_1_eventHandler.c **** * 
1522:Generated_Source\PSoC4/BLE_1_eventHandler.c **** *  Handles the events from the BLE stack
1523:Generated_Source\PSoC4/BLE_1_eventHandler.c **** * 
1524:Generated_Source\PSoC4/BLE_1_eventHandler.c **** *  \param eventCode:    the event code
1525:Generated_Source\PSoC4/BLE_1_eventHandler.c **** *  \param eventParam:  the event parameters
1526:Generated_Source\PSoC4/BLE_1_eventHandler.c **** * 
1527:Generated_Source\PSoC4/BLE_1_eventHandler.c **** * \return
1528:Generated_Source\PSoC4/BLE_1_eventHandler.c **** *  None.
1529:Generated_Source\PSoC4/BLE_1_eventHandler.c **** * 
1530:Generated_Source\PSoC4/BLE_1_eventHandler.c **** ******************************************************************************/
1531:Generated_Source\PSoC4/BLE_1_eventHandler.c **** void CyBle_EventHandler(uint8 eventCode, void *eventParam)
1532:Generated_Source\PSoC4/BLE_1_eventHandler.c **** {
 924              		.loc 1 1532 0
 925              		.cfi_startproc
 926 0000 80B5     		push	{r7, lr}
 927              		.cfi_def_cfa_offset 8
 928              		.cfi_offset 7, -8
 929              		.cfi_offset 14, -4
 930 0002 86B0     		sub	sp, sp, #24
 931              		.cfi_def_cfa_offset 32
 932 0004 00AF     		add	r7, sp, #0
 933              		.cfi_def_cfa_register 7
 934 0006 021C     		mov	r2, r0
 935 0008 3960     		str	r1, [r7]
 936 000a FB1D     		add	r3, r7, #7
 937 000c 1A70     		strb	r2, [r3]
1533:Generated_Source\PSoC4/BLE_1_eventHandler.c ****     cyBle_eventHandlerFlag |= CYBLE_CALLBACK;
 938              		.loc 1 1533 0
 939 000e C84B     		ldr	r3, .L103
 940 0010 1B78     		ldrb	r3, [r3]
 941 0012 DBB2     		uxtb	r3, r3
 942 0014 0122     		mov	r2, #1
 943 0016 1343     		orr	r3, r2
 944 0018 DAB2     		uxtb	r2, r3
 945 001a C54B     		ldr	r3, .L103
 946 001c 1A70     		strb	r2, [r3]
1534:Generated_Source\PSoC4/BLE_1_eventHandler.c **** 
1535:Generated_Source\PSoC4/BLE_1_eventHandler.c ****     /* Common Profile event handling */
1536:Generated_Source\PSoC4/BLE_1_eventHandler.c ****     switch(eventCode)
 947              		.loc 1 1536 0
 948 001e FB1D     		add	r3, r7, #7
 949 0020 1B78     		ldrb	r3, [r3]
 950 0022 FA2B     		cmp	r3, #250
 951 0024 00D9     		bls	.LCB824
 952 0026 A5E1     		b	.L102	@long jump
 953              	.LCB824:
 954 0028 9A00     		lsl	r2, r3, #2
 955 002a C24B     		ldr	r3, .L103+4
ARM GAS  C:\Users\Sarah\AppData\Local\Temp\ccqSJLdk.s 			page 45


 956 002c D318     		add	r3, r2, r3
 957 002e 1B68     		ldr	r3, [r3]
 958 0030 9F46     		mov	pc, r3
 959              		.section	.rodata
 960              		.align	2
 961              	.L53:
 962 0000 74030000 		.word	.L102
 963 0004 32000000 		.word	.L52
 964 0008 B0000000 		.word	.L54
 965 000c 74030000 		.word	.L102
 966 0010 74030000 		.word	.L102
 967 0014 BA000000 		.word	.L55
 968 0018 C4000000 		.word	.L56
 969 001c 74030000 		.word	.L102
 970 0020 74030000 		.word	.L102
 971 0024 74030000 		.word	.L102
 972 0028 74030000 		.word	.L102
 973 002c 74030000 		.word	.L102
 974 0030 74030000 		.word	.L102
 975 0034 74030000 		.word	.L102
 976 0038 74030000 		.word	.L102
 977 003c 74030000 		.word	.L102
 978 0040 74030000 		.word	.L102
 979 0044 74030000 		.word	.L102
 980 0048 74030000 		.word	.L102
 981 004c 74030000 		.word	.L102
 982 0050 74030000 		.word	.L102
 983 0054 74030000 		.word	.L102
 984 0058 74030000 		.word	.L102
 985 005c 74030000 		.word	.L102
 986 0060 74030000 		.word	.L102
 987 0064 74030000 		.word	.L102
 988 0068 74030000 		.word	.L102
 989 006c 74030000 		.word	.L102
 990 0070 74030000 		.word	.L102
 991 0074 74030000 		.word	.L102
 992 0078 74030000 		.word	.L102
 993 007c 74030000 		.word	.L102
 994 0080 74030000 		.word	.L102
 995 0084 04010000 		.word	.L58
 996 0088 74030000 		.word	.L102
 997 008c 74030000 		.word	.L102
 998 0090 32010000 		.word	.L59
 999 0094 74030000 		.word	.L102
 1000 0098 74030000 		.word	.L102
 1001 009c 46010000 		.word	.L60
 1002 00a0 62010000 		.word	.L61
 1003 00a4 74030000 		.word	.L102
 1004 00a8 3C010000 		.word	.L62
 1005 00ac 6A010000 		.word	.L63
 1006 00b0 74030000 		.word	.L102
 1007 00b4 74030000 		.word	.L102
 1008 00b8 74030000 		.word	.L102
 1009 00bc 74030000 		.word	.L102
 1010 00c0 74030000 		.word	.L102
 1011 00c4 74030000 		.word	.L102
 1012 00c8 74030000 		.word	.L102
ARM GAS  C:\Users\Sarah\AppData\Local\Temp\ccqSJLdk.s 			page 46


 1013 00cc 74030000 		.word	.L102
 1014 00d0 74030000 		.word	.L102
 1015 00d4 74030000 		.word	.L102
 1016 00d8 74030000 		.word	.L102
 1017 00dc 74030000 		.word	.L102
 1018 00e0 74030000 		.word	.L102
 1019 00e4 74030000 		.word	.L102
 1020 00e8 74030000 		.word	.L102
 1021 00ec 74030000 		.word	.L102
 1022 00f0 74030000 		.word	.L102
 1023 00f4 74030000 		.word	.L102
 1024 00f8 74030000 		.word	.L102
 1025 00fc 74030000 		.word	.L102
 1026 0100 C2020000 		.word	.L64
 1027 0104 02020000 		.word	.L65
 1028 0108 4A020000 		.word	.L66
 1029 010c 50020000 		.word	.L67
 1030 0110 74030000 		.word	.L102
 1031 0114 9E020000 		.word	.L68
 1032 0118 A8020000 		.word	.L69
 1033 011c B8020000 		.word	.L70
 1034 0120 74030000 		.word	.L102
 1035 0124 00030000 		.word	.L71
 1036 0128 74030000 		.word	.L102
 1037 012c 0A030000 		.word	.L73
 1038 0130 8A020000 		.word	.L74
 1039 0134 14030000 		.word	.L75
 1040 0138 74030000 		.word	.L102
 1041 013c 74030000 		.word	.L102
 1042 0140 74030000 		.word	.L102
 1043 0144 74030000 		.word	.L102
 1044 0148 CC020000 		.word	.L80
 1045 014c D6020000 		.word	.L81
 1046 0150 94020000 		.word	.L82
 1047 0154 74030000 		.word	.L102
 1048 0158 74030000 		.word	.L102
 1049 015c 74030000 		.word	.L102
 1050 0160 B2020000 		.word	.L84
 1051 0164 74030000 		.word	.L102
 1052 0168 74030000 		.word	.L102
 1053 016c 74030000 		.word	.L102
 1054 0170 74030000 		.word	.L102
 1055 0174 74030000 		.word	.L102
 1056 0178 74030000 		.word	.L102
 1057 017c 74030000 		.word	.L102
 1058 0180 74030000 		.word	.L102
 1059 0184 74030000 		.word	.L102
 1060 0188 74030000 		.word	.L102
 1061 018c 74030000 		.word	.L102
 1062 0190 74030000 		.word	.L102
 1063 0194 74030000 		.word	.L102
 1064 0198 74030000 		.word	.L102
 1065 019c 74030000 		.word	.L102
 1066 01a0 74030000 		.word	.L102
 1067 01a4 74030000 		.word	.L102
 1068 01a8 74030000 		.word	.L102
 1069 01ac 74030000 		.word	.L102
ARM GAS  C:\Users\Sarah\AppData\Local\Temp\ccqSJLdk.s 			page 47


 1070 01b0 74030000 		.word	.L102
 1071 01b4 74030000 		.word	.L102
 1072 01b8 74030000 		.word	.L102
 1073 01bc 74030000 		.word	.L102
 1074 01c0 74030000 		.word	.L102
 1075 01c4 F6010000 		.word	.L85
 1076 01c8 74030000 		.word	.L102
 1077 01cc 74030000 		.word	.L102
 1078 01d0 74030000 		.word	.L102
 1079 01d4 74030000 		.word	.L102
 1080 01d8 74030000 		.word	.L102
 1081 01dc 74030000 		.word	.L102
 1082 01e0 74030000 		.word	.L102
 1083 01e4 74030000 		.word	.L102
 1084 01e8 74030000 		.word	.L102
 1085 01ec 74030000 		.word	.L102
 1086 01f0 74030000 		.word	.L102
 1087 01f4 74030000 		.word	.L102
 1088 01f8 74030000 		.word	.L102
 1089 01fc 74030000 		.word	.L102
 1090 0200 74030000 		.word	.L102
 1091 0204 74030000 		.word	.L102
 1092 0208 74030000 		.word	.L102
 1093 020c 74030000 		.word	.L102
 1094 0210 74030000 		.word	.L102
 1095 0214 74030000 		.word	.L102
 1096 0218 74030000 		.word	.L102
 1097 021c 74030000 		.word	.L102
 1098 0220 74030000 		.word	.L102
 1099 0224 74030000 		.word	.L102
 1100 0228 74030000 		.word	.L102
 1101 022c 74030000 		.word	.L102
 1102 0230 74030000 		.word	.L102
 1103 0234 74030000 		.word	.L102
 1104 0238 74030000 		.word	.L102
 1105 023c 74030000 		.word	.L102
 1106 0240 74030000 		.word	.L102
 1107 0244 74030000 		.word	.L102
 1108 0248 74030000 		.word	.L102
 1109 024c 74030000 		.word	.L102
 1110 0250 74030000 		.word	.L102
 1111 0254 74030000 		.word	.L102
 1112 0258 74030000 		.word	.L102
 1113 025c 74030000 		.word	.L102
 1114 0260 74030000 		.word	.L102
 1115 0264 74030000 		.word	.L102
 1116 0268 74030000 		.word	.L102
 1117 026c 74030000 		.word	.L102
 1118 0270 74030000 		.word	.L102
 1119 0274 74030000 		.word	.L102
 1120 0278 74030000 		.word	.L102
 1121 027c 74030000 		.word	.L102
 1122 0280 74030000 		.word	.L102
 1123 0284 74030000 		.word	.L102
 1124 0288 74030000 		.word	.L102
 1125 028c 74030000 		.word	.L102
 1126 0290 74030000 		.word	.L102
ARM GAS  C:\Users\Sarah\AppData\Local\Temp\ccqSJLdk.s 			page 48


 1127 0294 74030000 		.word	.L102
 1128 0298 74030000 		.word	.L102
 1129 029c 74030000 		.word	.L102
 1130 02a0 74030000 		.word	.L102
 1131 02a4 74030000 		.word	.L102
 1132 02a8 74030000 		.word	.L102
 1133 02ac 74030000 		.word	.L102
 1134 02b0 74030000 		.word	.L102
 1135 02b4 74030000 		.word	.L102
 1136 02b8 74030000 		.word	.L102
 1137 02bc 74030000 		.word	.L102
 1138 02c0 74030000 		.word	.L102
 1139 02c4 74030000 		.word	.L102
 1140 02c8 74030000 		.word	.L102
 1141 02cc 74030000 		.word	.L102
 1142 02d0 74030000 		.word	.L102
 1143 02d4 74030000 		.word	.L102
 1144 02d8 74030000 		.word	.L102
 1145 02dc 74030000 		.word	.L102
 1146 02e0 74030000 		.word	.L102
 1147 02e4 74030000 		.word	.L102
 1148 02e8 74030000 		.word	.L102
 1149 02ec 74030000 		.word	.L102
 1150 02f0 74030000 		.word	.L102
 1151 02f4 74030000 		.word	.L102
 1152 02f8 74030000 		.word	.L102
 1153 02fc 74030000 		.word	.L102
 1154 0300 74030000 		.word	.L102
 1155 0304 74030000 		.word	.L102
 1156 0308 74030000 		.word	.L102
 1157 030c 74030000 		.word	.L102
 1158 0310 74030000 		.word	.L102
 1159 0314 74030000 		.word	.L102
 1160 0318 74030000 		.word	.L102
 1161 031c 74030000 		.word	.L102
 1162 0320 74030000 		.word	.L102
 1163 0324 74030000 		.word	.L102
 1164 0328 74030000 		.word	.L102
 1165 032c 74030000 		.word	.L102
 1166 0330 74030000 		.word	.L102
 1167 0334 74030000 		.word	.L102
 1168 0338 74030000 		.word	.L102
 1169 033c 74030000 		.word	.L102
 1170 0340 74030000 		.word	.L102
 1171 0344 74030000 		.word	.L102
 1172 0348 74030000 		.word	.L102
 1173 034c 74030000 		.word	.L102
 1174 0350 74030000 		.word	.L102
 1175 0354 74030000 		.word	.L102
 1176 0358 74030000 		.word	.L102
 1177 035c 74030000 		.word	.L102
 1178 0360 74030000 		.word	.L102
 1179 0364 74030000 		.word	.L102
 1180 0368 74030000 		.word	.L102
 1181 036c 74030000 		.word	.L102
 1182 0370 74030000 		.word	.L102
 1183 0374 74030000 		.word	.L102
ARM GAS  C:\Users\Sarah\AppData\Local\Temp\ccqSJLdk.s 			page 49


 1184 0378 74030000 		.word	.L102
 1185 037c 74030000 		.word	.L102
 1186 0380 74030000 		.word	.L102
 1187 0384 74030000 		.word	.L102
 1188 0388 74030000 		.word	.L102
 1189 038c 74030000 		.word	.L102
 1190 0390 74030000 		.word	.L102
 1191 0394 74030000 		.word	.L102
 1192 0398 74030000 		.word	.L102
 1193 039c 74030000 		.word	.L102
 1194 03a0 74030000 		.word	.L102
 1195 03a4 74030000 		.word	.L102
 1196 03a8 74030000 		.word	.L102
 1197 03ac 74030000 		.word	.L102
 1198 03b0 74030000 		.word	.L102
 1199 03b4 74030000 		.word	.L102
 1200 03b8 74030000 		.word	.L102
 1201 03bc 74030000 		.word	.L102
 1202 03c0 74030000 		.word	.L102
 1203 03c4 74030000 		.word	.L102
 1204 03c8 74030000 		.word	.L102
 1205 03cc 74030000 		.word	.L102
 1206 03d0 74030000 		.word	.L102
 1207 03d4 74030000 		.word	.L102
 1208 03d8 74030000 		.word	.L102
 1209 03dc 74030000 		.word	.L102
 1210 03e0 74030000 		.word	.L102
 1211 03e4 74030000 		.word	.L102
 1212 03e8 1E030000 		.word	.L86
 1213              		.section	.text.CyBle_EventHandler
 1214              	.L52:
 1215              	.LBB5:
1537:Generated_Source\PSoC4/BLE_1_eventHandler.c ****     {
1538:Generated_Source\PSoC4/BLE_1_eventHandler.c ****         /**********************************************************
1539:Generated_Source\PSoC4/BLE_1_eventHandler.c ****         * General events
1540:Generated_Source\PSoC4/BLE_1_eventHandler.c ****         ************************************************************/
1541:Generated_Source\PSoC4/BLE_1_eventHandler.c ****         case CYBLE_EVT_STACK_ON:
1542:Generated_Source\PSoC4/BLE_1_eventHandler.c ****         #if(CYBLE_MODE_PROFILE)
1543:Generated_Source\PSoC4/BLE_1_eventHandler.c ****         {
1544:Generated_Source\PSoC4/BLE_1_eventHandler.c ****             CYBLE_BLESS_PWR_IN_DB_T bleSsPowerLevel;
1545:Generated_Source\PSoC4/BLE_1_eventHandler.c ****             
1546:Generated_Source\PSoC4/BLE_1_eventHandler.c ****             /* Set Tx Power Level for advertising and connection channels */
1547:Generated_Source\PSoC4/BLE_1_eventHandler.c ****             bleSsPowerLevel.blePwrLevelInDbm = CYBLE_TX_POWER_LEVEL_ADV;
 1216              		.loc 1 1547 0
 1217 0032 0C23     		mov	r3, #12
 1218 0034 FB18     		add	r3, r7, r3
 1219 0036 0722     		mov	r2, #7
 1220 0038 1A70     		strb	r2, [r3]
1548:Generated_Source\PSoC4/BLE_1_eventHandler.c ****             bleSsPowerLevel.bleSsChId = CYBLE_LL_ADV_CH_TYPE;
 1221              		.loc 1 1548 0
 1222 003a 0C23     		mov	r3, #12
 1223 003c FB18     		add	r3, r7, r3
 1224 003e 0022     		mov	r2, #0
 1225 0040 5A70     		strb	r2, [r3, #1]
1549:Generated_Source\PSoC4/BLE_1_eventHandler.c ****             (void) CyBle_SetTxPowerLevel (&bleSsPowerLevel);
 1226              		.loc 1 1549 0
 1227 0042 0C23     		mov	r3, #12
ARM GAS  C:\Users\Sarah\AppData\Local\Temp\ccqSJLdk.s 			page 50


 1228 0044 FB18     		add	r3, r7, r3
 1229 0046 181C     		mov	r0, r3
 1230 0048 FFF7FEFF 		bl	CyBle_SetTxPowerLevel
1550:Generated_Source\PSoC4/BLE_1_eventHandler.c ****             bleSsPowerLevel.blePwrLevelInDbm = CYBLE_TX_POWER_LEVEL_CONN;
 1231              		.loc 1 1550 0
 1232 004c 0C23     		mov	r3, #12
 1233 004e FB18     		add	r3, r7, r3
 1234 0050 0722     		mov	r2, #7
 1235 0052 1A70     		strb	r2, [r3]
1551:Generated_Source\PSoC4/BLE_1_eventHandler.c ****             bleSsPowerLevel.bleSsChId = CYBLE_LL_CONN_CH_TYPE;
 1236              		.loc 1 1551 0
 1237 0054 0C23     		mov	r3, #12
 1238 0056 FB18     		add	r3, r7, r3
 1239 0058 0122     		mov	r2, #1
 1240 005a 5A70     		strb	r2, [r3, #1]
1552:Generated_Source\PSoC4/BLE_1_eventHandler.c ****             (void) CyBle_SetTxPowerLevel (&bleSsPowerLevel);
 1241              		.loc 1 1552 0
 1242 005c 0C23     		mov	r3, #12
 1243 005e FB18     		add	r3, r7, r3
 1244 0060 181C     		mov	r0, r3
 1245 0062 FFF7FEFF 		bl	CyBle_SetTxPowerLevel
 1246              	.LBE5:
1553:Generated_Source\PSoC4/BLE_1_eventHandler.c ****             
1554:Generated_Source\PSoC4/BLE_1_eventHandler.c ****         }
1555:Generated_Source\PSoC4/BLE_1_eventHandler.c ****         #endif /* CYBLE_MODE_PROFILE */
1556:Generated_Source\PSoC4/BLE_1_eventHandler.c ****         #if (CYBLE_GATT_ROLE_SERVER || CYBLE_GATT_ROLE_CLIENT)
1557:Generated_Source\PSoC4/BLE_1_eventHandler.c ****             /* Set device Address  */
1558:Generated_Source\PSoC4/BLE_1_eventHandler.c ****             if(CyBle_IsDeviceAddressValid(cyBle_sflashDeviceAddress) != 0u)
 1247              		.loc 1 1558 0
 1248 0066 B44B     		ldr	r3, .L103+8
 1249 0068 1B68     		ldr	r3, [r3]
 1250 006a 181C     		mov	r0, r3
 1251 006c FFF7FEFF 		bl	CyBle_IsDeviceAddressValid
 1252 0070 031E     		sub	r3, r0, #0
 1253 0072 05D0     		beq	.L87
1559:Generated_Source\PSoC4/BLE_1_eventHandler.c ****             {
1560:Generated_Source\PSoC4/BLE_1_eventHandler.c ****                 (void) CyBle_SetDeviceAddress(cyBle_sflashDeviceAddress);
 1254              		.loc 1 1560 0
 1255 0074 B04B     		ldr	r3, .L103+8
 1256 0076 1B68     		ldr	r3, [r3]
 1257 0078 181C     		mov	r0, r3
 1258 007a FFF7FEFF 		bl	CyBle_SetDeviceAddress
 1259 007e 03E0     		b	.L88
 1260              	.L87:
1561:Generated_Source\PSoC4/BLE_1_eventHandler.c ****                 #if(CYBLE_GAP_ROLE_PERIPHERAL || CYBLE_GAP_ROLE_BROADCASTER)
1562:Generated_Source\PSoC4/BLE_1_eventHandler.c ****                     CyBle_ChangeAdDeviceAddress(cyBle_sflashDeviceAddress, 0u);
1563:Generated_Source\PSoC4/BLE_1_eventHandler.c ****                     CyBle_ChangeAdDeviceAddress(cyBle_sflashDeviceAddress, 1u);
1564:Generated_Source\PSoC4/BLE_1_eventHandler.c ****                 #endif /* CYBLE_GAP_ROLE_PERIPHERAL || CYBLE_GAP_ROLE_BROADCASTER */    
1565:Generated_Source\PSoC4/BLE_1_eventHandler.c ****             }
1566:Generated_Source\PSoC4/BLE_1_eventHandler.c ****             else
1567:Generated_Source\PSoC4/BLE_1_eventHandler.c ****             {
1568:Generated_Source\PSoC4/BLE_1_eventHandler.c ****             #if (SILICON_GENERATED_DEVICE_ADDRESS != 0u)
1569:Generated_Source\PSoC4/BLE_1_eventHandler.c ****             {
1570:Generated_Source\PSoC4/BLE_1_eventHandler.c ****                 uint32 bdAddrLoc;
1571:Generated_Source\PSoC4/BLE_1_eventHandler.c ****                 bdAddrLoc = (CYBLE_SFLASH_DIE_X_REG & CYBLE_SFLASH_DIE_X_MASK) |
1572:Generated_Source\PSoC4/BLE_1_eventHandler.c ****                     ((uint32)(((uint32)CYBLE_SFLASH_DIE_Y_REG) & ((uint32)CYBLE_SFLASH_DIE_Y_MASK))
1573:Generated_Source\PSoC4/BLE_1_eventHandler.c ****                         CYBLE_SFLASH_DIE_X_BITS) |
ARM GAS  C:\Users\Sarah\AppData\Local\Temp\ccqSJLdk.s 			page 51


1574:Generated_Source\PSoC4/BLE_1_eventHandler.c ****                     ((uint32)(((uint32)CYBLE_SFLASH_DIE_WAFER_REG) & ((uint32)CYBLE_SFLASH_DIE_WAFE
1575:Generated_Source\PSoC4/BLE_1_eventHandler.c ****                         CYBLE_SFLASH_DIE_XY_BITS) |
1576:Generated_Source\PSoC4/BLE_1_eventHandler.c ****                     ((uint32)(((uint32)CYBLE_SFLASH_DIE_LOT_REG) & ((uint32)CYBLE_SFLASH_DIE_LOT_MA
1577:Generated_Source\PSoC4/BLE_1_eventHandler.c ****                         CYBLE_SFLASH_DIE_XYWAFER_BITS);
1578:Generated_Source\PSoC4/BLE_1_eventHandler.c ****                             
1579:Generated_Source\PSoC4/BLE_1_eventHandler.c ****                 cyBle_deviceAddress.bdAddr[0] = (uint8)bdAddrLoc;
1580:Generated_Source\PSoC4/BLE_1_eventHandler.c ****                 cyBle_deviceAddress.bdAddr[1] = (uint8)(bdAddrLoc >> 8u);
1581:Generated_Source\PSoC4/BLE_1_eventHandler.c ****                 cyBle_deviceAddress.bdAddr[2] = (uint8)(bdAddrLoc >> 16u);
1582:Generated_Source\PSoC4/BLE_1_eventHandler.c ****             }
1583:Generated_Source\PSoC4/BLE_1_eventHandler.c ****             #endif /* SILICON_GENERATED_DEVICE_ADDRESS != 0u */
1584:Generated_Source\PSoC4/BLE_1_eventHandler.c ****                 (void) CyBle_SetDeviceAddress(&cyBle_deviceAddress);
 1261              		.loc 1 1584 0
 1262 0080 AE4B     		ldr	r3, .L103+12
 1263 0082 181C     		mov	r0, r3
 1264 0084 FFF7FEFF 		bl	CyBle_SetDeviceAddress
 1265              	.L88:
1585:Generated_Source\PSoC4/BLE_1_eventHandler.c ****                 #if(CYBLE_GAP_ROLE_PERIPHERAL || CYBLE_GAP_ROLE_BROADCASTER)
1586:Generated_Source\PSoC4/BLE_1_eventHandler.c ****                     CyBle_ChangeAdDeviceAddress(&cyBle_deviceAddress, 0u);
1587:Generated_Source\PSoC4/BLE_1_eventHandler.c ****                     CyBle_ChangeAdDeviceAddress(&cyBle_deviceAddress, 1u);
1588:Generated_Source\PSoC4/BLE_1_eventHandler.c ****                 #endif /* CYBLE_GAP_ROLE_PERIPHERAL || CYBLE_GAP_ROLE_BROADCASTER */    
1589:Generated_Source\PSoC4/BLE_1_eventHandler.c ****             }
1590:Generated_Source\PSoC4/BLE_1_eventHandler.c ****             /* Set device IO Capability  */
1591:Generated_Source\PSoC4/BLE_1_eventHandler.c ****             (void) CyBle_GapSetIoCap(CYBLE_IO_CAPABILITY);    
 1266              		.loc 1 1591 0
 1267 0088 0020     		mov	r0, #0
 1268 008a FFF7FEFF 		bl	CyBle_GapSetIoCap
 1269              	.LBB6:
1592:Generated_Source\PSoC4/BLE_1_eventHandler.c ****             {
1593:Generated_Source\PSoC4/BLE_1_eventHandler.c ****                 /* Enable all 4.1 events and configured 4.2 events */
1594:Generated_Source\PSoC4/BLE_1_eventHandler.c ****                 uint8 leMask[CYBLE_LE_MASK_LENGTH] = {LO8(CYBLE_LE_MASK), HI8(CYBLE_LE_MASK)};
 1270              		.loc 1 1594 0
 1271 008e 0823     		mov	r3, #8
 1272 0090 FB18     		add	r3, r7, r3
 1273 0092 3F22     		mov	r2, #63
 1274 0094 1A70     		strb	r2, [r3]
 1275 0096 0823     		mov	r3, #8
 1276 0098 FB18     		add	r3, r7, r3
 1277 009a 0022     		mov	r2, #0
 1278 009c 5A70     		strb	r2, [r3, #1]
1595:Generated_Source\PSoC4/BLE_1_eventHandler.c ****                 (void) CyBle_GapSetLeEventMask(leMask);
 1279              		.loc 1 1595 0
 1280 009e 0823     		mov	r3, #8
 1281 00a0 FB18     		add	r3, r7, r3
 1282 00a2 181C     		mov	r0, r3
 1283 00a4 FFF7FEFF 		bl	CyBle_GapSetLeEventMask
 1284              	.LBE6:
1596:Generated_Source\PSoC4/BLE_1_eventHandler.c ****             }
1597:Generated_Source\PSoC4/BLE_1_eventHandler.c ****         #if(CYBLE_DLE_FEATURE_ENABLED)
1598:Generated_Source\PSoC4/BLE_1_eventHandler.c ****         {
1599:Generated_Source\PSoC4/BLE_1_eventHandler.c ****             /* Set maximum suggested TX payload size */
1600:Generated_Source\PSoC4/BLE_1_eventHandler.c ****             uint16 payloadTime = CYBLE_LL_MAX_TX_TIME;
1601:Generated_Source\PSoC4/BLE_1_eventHandler.c ****             (void) CyBle_GapConvertOctetToTime(CYBLE_GAP_PHY_1MBPS, CYBLE_LL_MAX_TX_PAYLOAD_SIZE, &
1602:Generated_Source\PSoC4/BLE_1_eventHandler.c ****             (void) CyBle_GapSetSuggestedDataLength(CYBLE_LL_MAX_TX_PAYLOAD_SIZE, payloadTime); 
1603:Generated_Source\PSoC4/BLE_1_eventHandler.c ****         }
1604:Generated_Source\PSoC4/BLE_1_eventHandler.c ****         #endif /* CYBLE_DLE_FEATURE != 0u */
1605:Generated_Source\PSoC4/BLE_1_eventHandler.c ****         
1606:Generated_Source\PSoC4/BLE_1_eventHandler.c ****         #endif /* CYBLE_GATT_ROLE_SERVER || CYBLE_GATT_ROLE_CLIENT */
ARM GAS  C:\Users\Sarah\AppData\Local\Temp\ccqSJLdk.s 			page 52


1607:Generated_Source\PSoC4/BLE_1_eventHandler.c ****             CyBle_SetState(CYBLE_STATE_DISCONNECTED);
 1285              		.loc 1 1607 0
 1286 00a8 A54B     		ldr	r3, .L103+16
 1287 00aa 0522     		mov	r2, #5
 1288 00ac 1A70     		strb	r2, [r3]
1608:Generated_Source\PSoC4/BLE_1_eventHandler.c ****             break;
 1289              		.loc 1 1608 0
 1290 00ae 62E1     		b	.L89
 1291              	.L54:
1609:Generated_Source\PSoC4/BLE_1_eventHandler.c ****         case CYBLE_EVT_TIMEOUT:
1610:Generated_Source\PSoC4/BLE_1_eventHandler.c ****             CyBle_TimeOutEventHandler((CYBLE_TO_REASON_CODE_T *)eventParam);
 1292              		.loc 1 1610 0
 1293 00b0 3B68     		ldr	r3, [r7]
 1294 00b2 181C     		mov	r0, r3
 1295 00b4 FFF7FEFF 		bl	CyBle_TimeOutEventHandler
1611:Generated_Source\PSoC4/BLE_1_eventHandler.c ****             break;
 1296              		.loc 1 1611 0
 1297 00b8 5DE1     		b	.L89
 1298              	.L55:
1612:Generated_Source\PSoC4/BLE_1_eventHandler.c ****     	case CYBLE_EVT_STACK_BUSY_STATUS:
1613:Generated_Source\PSoC4/BLE_1_eventHandler.c ****             cyBle_busyStatus = *(uint8 *)eventParam;
 1299              		.loc 1 1613 0
 1300 00ba 3B68     		ldr	r3, [r7]
 1301 00bc 1A78     		ldrb	r2, [r3]
 1302 00be A14B     		ldr	r3, .L103+20
 1303 00c0 1A70     		strb	r2, [r3]
1614:Generated_Source\PSoC4/BLE_1_eventHandler.c ****             break;
 1304              		.loc 1 1614 0
 1305 00c2 58E1     		b	.L89
 1306              	.L56:
 1307              	.LBB7:
1615:Generated_Source\PSoC4/BLE_1_eventHandler.c ****     	case CYBLE_EVT_MEMORY_REQUEST:
1616:Generated_Source\PSoC4/BLE_1_eventHandler.c ****         #if(CYBLE_MODE_PROFILE)
1617:Generated_Source\PSoC4/BLE_1_eventHandler.c ****         {
1618:Generated_Source\PSoC4/BLE_1_eventHandler.c ****             CYBLE_MEMORY_REQUEST_T *memReq = (CYBLE_MEMORY_REQUEST_T *)eventParam;
 1308              		.loc 1 1618 0
 1309 00c4 3B68     		ldr	r3, [r7]
 1310 00c6 3B61     		str	r3, [r7, #16]
1619:Generated_Source\PSoC4/BLE_1_eventHandler.c ****             if(memReq->request == CYBLE_PREPARED_WRITE_REQUEST)
 1311              		.loc 1 1619 0
 1312 00c8 3B69     		ldr	r3, [r7, #16]
 1313 00ca 1B78     		ldrb	r3, [r3]
 1314 00cc 002B     		cmp	r3, #0
 1315 00ce 18D1     		bne	.L90
1620:Generated_Source\PSoC4/BLE_1_eventHandler.c ****             {  
1621:Generated_Source\PSoC4/BLE_1_eventHandler.c ****             #if(CYBLE_GATT_ENABLE_EXTERNAL_PREP_WRITE_BUFF == 0u)
1622:Generated_Source\PSoC4/BLE_1_eventHandler.c ****                 /* Stack requests to provide memory to process remote request */
1623:Generated_Source\PSoC4/BLE_1_eventHandler.c ****                 if(memReq->allocFree == CYBLE_ALLOC_MEMORY)
 1316              		.loc 1 1623 0
 1317 00d0 3B69     		ldr	r3, [r7, #16]
 1318 00d2 5B78     		ldrb	r3, [r3, #1]
 1319 00d4 002B     		cmp	r3, #0
 1320 00d6 0BD1     		bne	.L91
 1321              	.LBB8:
1624:Generated_Source\PSoC4/BLE_1_eventHandler.c ****                 {
1625:Generated_Source\PSoC4/BLE_1_eventHandler.c ****                     static CYBLE_PREPARE_WRITE_REQUEST_MEMORY_T gPrepWriteReqMem;
1626:Generated_Source\PSoC4/BLE_1_eventHandler.c ****                     
ARM GAS  C:\Users\Sarah\AppData\Local\Temp\ccqSJLdk.s 			page 53


1627:Generated_Source\PSoC4/BLE_1_eventHandler.c ****                     /* Configure and return statically allocated buffer at the end of cyBle_stackMe
1628:Generated_Source\PSoC4/BLE_1_eventHandler.c ****                     gPrepWriteReqMem.prepareWriteQueueSize = CYBLE_GATT_MAX_PREPARE_BUFF_COUNT;
 1322              		.loc 1 1628 0
 1323 00d8 9B4B     		ldr	r3, .L103+24
 1324 00da 0022     		mov	r2, #0
 1325 00dc DA80     		strh	r2, [r3, #6]
1629:Generated_Source\PSoC4/BLE_1_eventHandler.c ****                     gPrepWriteReqMem.totalAttrValueLength = CYBLE_GATT_PREPARE_LENGTH_ALIGN;
 1326              		.loc 1 1629 0
 1327 00de 9A4B     		ldr	r3, .L103+24
 1328 00e0 0022     		mov	r2, #0
 1329 00e2 9A80     		strh	r2, [r3, #4]
1630:Generated_Source\PSoC4/BLE_1_eventHandler.c ****                     gPrepWriteReqMem.queueBuffer = &cyBle_stackMemoryRam[CYBLE_STACK_RAM_SIZE - 
 1330              		.loc 1 1630 0
 1331 00e4 984B     		ldr	r3, .L103+24
 1332 00e6 994A     		ldr	r2, .L103+28
 1333 00e8 1A60     		str	r2, [r3]
1631:Generated_Source\PSoC4/BLE_1_eventHandler.c ****                                                                          CYBLE_GATT_PREPARE_WRITE_B
1632:Generated_Source\PSoC4/BLE_1_eventHandler.c ****                     memReq->configMemory = &gPrepWriteReqMem;  
 1334              		.loc 1 1632 0
 1335 00ea 3B69     		ldr	r3, [r7, #16]
 1336 00ec 964A     		ldr	r2, .L103+24
 1337 00ee 5A60     		str	r2, [r3, #4]
 1338              	.L91:
 1339              	.LBE8:
1633:Generated_Source\PSoC4/BLE_1_eventHandler.c ****                 }                
1634:Generated_Source\PSoC4/BLE_1_eventHandler.c ****                 /* Clear CYBLE_CALLBACK flag not to provide handled event to application */
1635:Generated_Source\PSoC4/BLE_1_eventHandler.c ****                 cyBle_eventHandlerFlag &= (uint8)~CYBLE_CALLBACK;
 1340              		.loc 1 1635 0
 1341 00f0 8F4B     		ldr	r3, .L103
 1342 00f2 1B78     		ldrb	r3, [r3]
 1343 00f4 DBB2     		uxtb	r3, r3
 1344 00f6 0122     		mov	r2, #1
 1345 00f8 9343     		bic	r3, r2
 1346 00fa DAB2     		uxtb	r2, r3
 1347 00fc 8C4B     		ldr	r3, .L103
 1348 00fe 1A70     		strb	r2, [r3]
 1349              	.LBE7:
1636:Generated_Source\PSoC4/BLE_1_eventHandler.c ****             #endif  /* CYBLE_GATT_ENABLE_EXTERNAL_PREP_WRITE_BUFF == 0u */
1637:Generated_Source\PSoC4/BLE_1_eventHandler.c ****             }
1638:Generated_Source\PSoC4/BLE_1_eventHandler.c ****         }
1639:Generated_Source\PSoC4/BLE_1_eventHandler.c ****         #endif /* CYBLE_MODE_PROFILE */
1640:Generated_Source\PSoC4/BLE_1_eventHandler.c ****             break;
 1350              		.loc 1 1640 0
 1351 0100 39E1     		b	.L89
 1352              	.L90:
 1353 0102 38E1     		b	.L89
 1354              	.L58:
1641:Generated_Source\PSoC4/BLE_1_eventHandler.c ****         /**********************************************************
1642:Generated_Source\PSoC4/BLE_1_eventHandler.c ****         * GAP events
1643:Generated_Source\PSoC4/BLE_1_eventHandler.c ****         ************************************************************/
1644:Generated_Source\PSoC4/BLE_1_eventHandler.c ****         case CYBLE_EVT_GAP_AUTH_REQ:
1645:Generated_Source\PSoC4/BLE_1_eventHandler.c ****         #if(CYBLE_MODE_PROFILE)
1646:Generated_Source\PSoC4/BLE_1_eventHandler.c ****             if((cyBle_eventHandlerFlag & CYBLE_DISABLE_AUTOMATIC_AUTH) == 0u)
 1355              		.loc 1 1646 0
 1356 0104 8A4B     		ldr	r3, .L103
 1357 0106 1B78     		ldrb	r3, [r3]
 1358 0108 DBB2     		uxtb	r3, r3
ARM GAS  C:\Users\Sarah\AppData\Local\Temp\ccqSJLdk.s 			page 54


 1359 010a 1A1C     		mov	r2, r3
 1360 010c 2023     		mov	r3, #32
 1361 010e 1340     		and	r3, r2
 1362 0110 0ED1     		bne	.L92
1647:Generated_Source\PSoC4/BLE_1_eventHandler.c ****             {
1648:Generated_Source\PSoC4/BLE_1_eventHandler.c ****                 /* If the responding device does not support pairing then the responding 
1649:Generated_Source\PSoC4/BLE_1_eventHandler.c ****                    device shall respond using the Pairing Failed message with the error 
1650:Generated_Source\PSoC4/BLE_1_eventHandler.c ****                    code "Pairing Not Supported" otherwise it responds with a Pairing 
1651:Generated_Source\PSoC4/BLE_1_eventHandler.c ****                    Response message.
1652:Generated_Source\PSoC4/BLE_1_eventHandler.c ****                 */
1653:Generated_Source\PSoC4/BLE_1_eventHandler.c ****                 if(cyBle_authInfo.security == (CYBLE_GAP_SEC_MODE_1 | CYBLE_GAP_SEC_LEVEL_1))
 1363              		.loc 1 1653 0
 1364 0112 8F4B     		ldr	r3, .L103+32
 1365 0114 1B78     		ldrb	r3, [r3]
 1366 0116 102B     		cmp	r3, #16
 1367 0118 02D1     		bne	.L93
1654:Generated_Source\PSoC4/BLE_1_eventHandler.c ****                 {
1655:Generated_Source\PSoC4/BLE_1_eventHandler.c ****                     cyBle_authInfo.authErr = CYBLE_GAP_AUTH_ERROR_PAIRING_NOT_SUPPORTED;
 1368              		.loc 1 1655 0
 1369 011a 8D4B     		ldr	r3, .L103+32
 1370 011c 0522     		mov	r2, #5
 1371 011e DA70     		strb	r2, [r3, #3]
 1372              	.L93:
1656:Generated_Source\PSoC4/BLE_1_eventHandler.c ****                 }    
1657:Generated_Source\PSoC4/BLE_1_eventHandler.c ****             #if(CYBLE_GAP_ROLE_PERIPHERAL)
1658:Generated_Source\PSoC4/BLE_1_eventHandler.c ****                 {
1659:Generated_Source\PSoC4/BLE_1_eventHandler.c ****                     CYBLE_API_RESULT_T apiResult;
1660:Generated_Source\PSoC4/BLE_1_eventHandler.c ****                     
1661:Generated_Source\PSoC4/BLE_1_eventHandler.c ****                     apiResult = CyBle_GappAuthReqReply(cyBle_connHandle.bdHandle, &cyBle_authInfo);
1662:Generated_Source\PSoC4/BLE_1_eventHandler.c ****                     /* Setting callback flag again as CyBle_GappAuthReqReply() will generate
1663:Generated_Source\PSoC4/BLE_1_eventHandler.c ****                     * CYBLE_EVT_GAP_SMP_NEGOTIATED_AUTH_INFO event which will clear the callback
1664:Generated_Source\PSoC4/BLE_1_eventHandler.c ****                     * flag.
1665:Generated_Source\PSoC4/BLE_1_eventHandler.c ****                     */
1666:Generated_Source\PSoC4/BLE_1_eventHandler.c ****                     if (apiResult != CYBLE_ERROR_OK)
1667:Generated_Source\PSoC4/BLE_1_eventHandler.c ****                     {   
1668:Generated_Source\PSoC4/BLE_1_eventHandler.c ****                         CyBle_ApplCallback(CYBLE_EVT_GAP_AUTH_REQ_REPLY_ERR , &apiResult);
1669:Generated_Source\PSoC4/BLE_1_eventHandler.c ****                     }
1670:Generated_Source\PSoC4/BLE_1_eventHandler.c ****                     cyBle_eventHandlerFlag |= CYBLE_CALLBACK;
1671:Generated_Source\PSoC4/BLE_1_eventHandler.c ****                 }
1672:Generated_Source\PSoC4/BLE_1_eventHandler.c ****             #endif /* CYBLE_GAP_ROLE_PERIPHERAL */
1673:Generated_Source\PSoC4/BLE_1_eventHandler.c ****             #if (CYBLE_GAP_ROLE_CENTRAL)
1674:Generated_Source\PSoC4/BLE_1_eventHandler.c ****                 (void)CyBle_GapAuthReq(cyBle_connHandle.bdHandle, &cyBle_authInfo);
 1373              		.loc 1 1674 0
 1374 0120 8C4B     		ldr	r3, .L103+36
 1375 0122 1A78     		ldrb	r2, [r3]
 1376 0124 8A4B     		ldr	r3, .L103+32
 1377 0126 101C     		mov	r0, r2
 1378 0128 191C     		mov	r1, r3
 1379 012a FFF7FEFF 		bl	CyBle_GapAuthReq
1675:Generated_Source\PSoC4/BLE_1_eventHandler.c ****             #endif /* CYBLE_GAP_ROLE_CENTRAL */
1676:Generated_Source\PSoC4/BLE_1_eventHandler.c ****             }
1677:Generated_Source\PSoC4/BLE_1_eventHandler.c ****         #endif /* CYBLE_MODE_PROFILE */
1678:Generated_Source\PSoC4/BLE_1_eventHandler.c ****             break;
 1380              		.loc 1 1678 0
 1381 012e 22E1     		b	.L89
 1382              	.L92:
 1383 0130 21E1     		b	.L89
ARM GAS  C:\Users\Sarah\AppData\Local\Temp\ccqSJLdk.s 			page 55


 1384              	.L59:
1679:Generated_Source\PSoC4/BLE_1_eventHandler.c ****         
1680:Generated_Source\PSoC4/BLE_1_eventHandler.c ****         case CYBLE_EVT_GAP_AUTH_COMPLETE:
1681:Generated_Source\PSoC4/BLE_1_eventHandler.c ****         #if((CYBLE_GAP_ROLE_PERIPHERAL || CYBLE_GAP_ROLE_CENTRAL) && (CYBLE_BONDING_REQUIREMENT == 
1682:Generated_Source\PSoC4/BLE_1_eventHandler.c ****             cyBle_peerBonding = ((CYBLE_GAP_AUTH_INFO_T *)eventParam)->bonding;
 1385              		.loc 1 1682 0
 1386 0132 3B68     		ldr	r3, [r7]
 1387 0134 5A78     		ldrb	r2, [r3, #1]
 1388 0136 884B     		ldr	r3, .L103+40
 1389 0138 1A70     		strb	r2, [r3]
1683:Generated_Source\PSoC4/BLE_1_eventHandler.c ****         #endif  /* CYBLE_BONDING_REQUIREMENT == CYBLE_BONDING_YES */
1684:Generated_Source\PSoC4/BLE_1_eventHandler.c ****             break;
 1390              		.loc 1 1684 0
 1391 013a 1CE1     		b	.L89
 1392              	.L62:
1685:Generated_Source\PSoC4/BLE_1_eventHandler.c ****         
1686:Generated_Source\PSoC4/BLE_1_eventHandler.c ****         case CYBLE_EVT_GAP_CONNECTION_UPDATE_COMPLETE:
1687:Generated_Source\PSoC4/BLE_1_eventHandler.c ****             CyBle_GapConnUpdateCompleteEventHandler((const CYBLE_GAP_CONN_PARAM_UPDATED_IN_CONTROLL
 1393              		.loc 1 1687 0
 1394 013c 3B68     		ldr	r3, [r7]
 1395 013e 181C     		mov	r0, r3
 1396 0140 FFF7FEFF 		bl	CyBle_GapConnUpdateCompleteEventHandler
1688:Generated_Source\PSoC4/BLE_1_eventHandler.c ****             break;
 1397              		.loc 1 1688 0
 1398 0144 17E1     		b	.L89
 1399              	.L60:
1689:Generated_Source\PSoC4/BLE_1_eventHandler.c ****             
1690:Generated_Source\PSoC4/BLE_1_eventHandler.c ****     #if(CYBLE_LL_PRIVACY_FEATURE != 0u)        
1691:Generated_Source\PSoC4/BLE_1_eventHandler.c ****         case CYBLE_EVT_GAP_ENHANCE_CONN_COMPLETE:
1692:Generated_Source\PSoC4/BLE_1_eventHandler.c ****         {
1693:Generated_Source\PSoC4/BLE_1_eventHandler.c ****             CYBLE_GAP_CONN_PARAM_UPDATED_IN_CONTROLLER_T  connCParam;
1694:Generated_Source\PSoC4/BLE_1_eventHandler.c ****             CYBLE_GAP_ENHANCE_CONN_COMPLETE_T *connEnhanceParam;
1695:Generated_Source\PSoC4/BLE_1_eventHandler.c ****             
1696:Generated_Source\PSoC4/BLE_1_eventHandler.c ****             connEnhanceParam = (CYBLE_GAP_ENHANCE_CONN_COMPLETE_T *)eventParam;
1697:Generated_Source\PSoC4/BLE_1_eventHandler.c ****             connCParam.status = connEnhanceParam->status;
1698:Generated_Source\PSoC4/BLE_1_eventHandler.c ****             connCParam.connIntv = connEnhanceParam->connIntv;
1699:Generated_Source\PSoC4/BLE_1_eventHandler.c ****             connCParam.connLatency = connEnhanceParam->connLatency;
1700:Generated_Source\PSoC4/BLE_1_eventHandler.c ****             connCParam.supervisionTO = connEnhanceParam->supervisionTo;
1701:Generated_Source\PSoC4/BLE_1_eventHandler.c ****             CyBle_GapConnUpdateCompleteEventHandler((const CYBLE_GAP_CONN_PARAM_UPDATED_IN_CONTROLL
1702:Generated_Source\PSoC4/BLE_1_eventHandler.c ****             
1703:Generated_Source\PSoC4/BLE_1_eventHandler.c ****             #if(CYBLE_GAP_ROLE_CENTRAL)
1704:Generated_Source\PSoC4/BLE_1_eventHandler.c ****                 if(cyBle_connectingTimeout != 0u)
1705:Generated_Source\PSoC4/BLE_1_eventHandler.c ****                 {
1706:Generated_Source\PSoC4/BLE_1_eventHandler.c ****                    (void)CyBle_StopTimer();
1707:Generated_Source\PSoC4/BLE_1_eventHandler.c ****                 }
1708:Generated_Source\PSoC4/BLE_1_eventHandler.c ****             #endif /* CYBLE_GAP_ROLE_CENTRAL */
1709:Generated_Source\PSoC4/BLE_1_eventHandler.c ****             CyBle_SetState(CYBLE_STATE_CONNECTED);
1710:Generated_Source\PSoC4/BLE_1_eventHandler.c ****         }
1711:Generated_Source\PSoC4/BLE_1_eventHandler.c ****             break;
1712:Generated_Source\PSoC4/BLE_1_eventHandler.c ****     #endif /* CYBLE_LL_PRIVACY_FEATURE != 0u */      
1713:Generated_Source\PSoC4/BLE_1_eventHandler.c ****             
1714:Generated_Source\PSoC4/BLE_1_eventHandler.c ****         case CYBLE_EVT_GAP_DEVICE_CONNECTED:
1715:Generated_Source\PSoC4/BLE_1_eventHandler.c ****             CyBle_GapConnUpdateCompleteEventHandler((const CYBLE_GAP_CONN_PARAM_UPDATED_IN_CONTROLL
 1400              		.loc 1 1715 0
 1401 0146 3B68     		ldr	r3, [r7]
 1402 0148 181C     		mov	r0, r3
 1403 014a FFF7FEFF 		bl	CyBle_GapConnUpdateCompleteEventHandler
ARM GAS  C:\Users\Sarah\AppData\Local\Temp\ccqSJLdk.s 			page 56


1716:Generated_Source\PSoC4/BLE_1_eventHandler.c ****             #if(CYBLE_GAP_ROLE_CENTRAL)
1717:Generated_Source\PSoC4/BLE_1_eventHandler.c ****                 if(cyBle_connectingTimeout != 0u)
 1404              		.loc 1 1717 0
 1405 014e 834B     		ldr	r3, .L103+44
 1406 0150 1B88     		ldrh	r3, [r3]
 1407 0152 002B     		cmp	r3, #0
 1408 0154 01D0     		beq	.L94
1718:Generated_Source\PSoC4/BLE_1_eventHandler.c ****                 {
1719:Generated_Source\PSoC4/BLE_1_eventHandler.c ****                    (void)CyBle_StopTimer();
 1409              		.loc 1 1719 0
 1410 0156 FFF7FEFF 		bl	CyBle_StopTimer
 1411              	.L94:
1720:Generated_Source\PSoC4/BLE_1_eventHandler.c ****                 }
1721:Generated_Source\PSoC4/BLE_1_eventHandler.c ****             #endif /* CYBLE_GAP_ROLE_CENTRAL */
1722:Generated_Source\PSoC4/BLE_1_eventHandler.c ****             CyBle_SetState(CYBLE_STATE_CONNECTED);
 1412              		.loc 1 1722 0
 1413 015a 794B     		ldr	r3, .L103+16
 1414 015c 0222     		mov	r2, #2
 1415 015e 1A70     		strb	r2, [r3]
1723:Generated_Source\PSoC4/BLE_1_eventHandler.c ****             break;
 1416              		.loc 1 1723 0
 1417 0160 09E1     		b	.L89
 1418              	.L61:
1724:Generated_Source\PSoC4/BLE_1_eventHandler.c **** 
1725:Generated_Source\PSoC4/BLE_1_eventHandler.c ****         case CYBLE_EVT_GAP_DEVICE_DISCONNECTED:
1726:Generated_Source\PSoC4/BLE_1_eventHandler.c ****             CyBle_SetState(CYBLE_STATE_DISCONNECTED);
 1419              		.loc 1 1726 0
 1420 0162 774B     		ldr	r3, .L103+16
 1421 0164 0522     		mov	r2, #5
 1422 0166 1A70     		strb	r2, [r3]
1727:Generated_Source\PSoC4/BLE_1_eventHandler.c ****             break;
 1423              		.loc 1 1727 0
 1424 0168 05E1     		b	.L89
 1425              	.L63:
1728:Generated_Source\PSoC4/BLE_1_eventHandler.c ****         #if(CYBLE_GAP_ROLE_PERIPHERAL || CYBLE_GAP_ROLE_BROADCASTER)
1729:Generated_Source\PSoC4/BLE_1_eventHandler.c ****             
1730:Generated_Source\PSoC4/BLE_1_eventHandler.c ****         case CYBLE_EVT_GAPP_ADVERTISEMENT_START_STOP:
1731:Generated_Source\PSoC4/BLE_1_eventHandler.c ****             #ifdef CYBLE_CPS_SERVER
1732:Generated_Source\PSoC4/BLE_1_eventHandler.c ****                 #if(CYBLE_GAP_ROLE_BROADCASTER)
1733:Generated_Source\PSoC4/BLE_1_eventHandler.c ****                     CyBle_CpssAdvertisementStartStopEventHandler();
1734:Generated_Source\PSoC4/BLE_1_eventHandler.c ****                 #endif /* CYBLE_GAP_ROLE_BROADCASTER */
1735:Generated_Source\PSoC4/BLE_1_eventHandler.c ****             #endif /* CYBLE_CPS_SERVER */
1736:Generated_Source\PSoC4/BLE_1_eventHandler.c ****             
1737:Generated_Source\PSoC4/BLE_1_eventHandler.c ****             if((CYBLE_STATE_CONNECTED != CyBle_GetState()) && ((cyBle_eventHandlerFlag & CYBLE_CALL
1738:Generated_Source\PSoC4/BLE_1_eventHandler.c ****             {
1739:Generated_Source\PSoC4/BLE_1_eventHandler.c ****                 /* After CyBle_GappStartAdvertisement first event indicates that advertising has be
1740:Generated_Source\PSoC4/BLE_1_eventHandler.c ****                 if(0u != (cyBle_eventHandlerFlag & CYBLE_START_FLAG))
1741:Generated_Source\PSoC4/BLE_1_eventHandler.c ****                 {
1742:Generated_Source\PSoC4/BLE_1_eventHandler.c ****                     CyBle_SetState(CYBLE_STATE_ADVERTISING);
1743:Generated_Source\PSoC4/BLE_1_eventHandler.c ****                     cyBle_eventHandlerFlag &= (uint8)~CYBLE_START_FLAG;
1744:Generated_Source\PSoC4/BLE_1_eventHandler.c ****                 }
1745:Generated_Source\PSoC4/BLE_1_eventHandler.c ****                 /* When application initiated stop advertisement */
1746:Generated_Source\PSoC4/BLE_1_eventHandler.c ****                 else if(0u != (cyBle_eventHandlerFlag & CYBLE_STOP_FLAG))
1747:Generated_Source\PSoC4/BLE_1_eventHandler.c ****                 {
1748:Generated_Source\PSoC4/BLE_1_eventHandler.c ****                     CyBle_SetState(CYBLE_STATE_DISCONNECTED);  
1749:Generated_Source\PSoC4/BLE_1_eventHandler.c ****                     cyBle_eventHandlerFlag &= (uint8)~CYBLE_STOP_FLAG;
1750:Generated_Source\PSoC4/BLE_1_eventHandler.c ****                 }
ARM GAS  C:\Users\Sarah\AppData\Local\Temp\ccqSJLdk.s 			page 57


1751:Generated_Source\PSoC4/BLE_1_eventHandler.c ****                 else /* Following event indicates that advertising has been stopped */
1752:Generated_Source\PSoC4/BLE_1_eventHandler.c ****                 {
1753:Generated_Source\PSoC4/BLE_1_eventHandler.c ****                     if(CyBle_GetState() == CYBLE_STATE_ADVERTISING)
1754:Generated_Source\PSoC4/BLE_1_eventHandler.c ****                     {
1755:Generated_Source\PSoC4/BLE_1_eventHandler.c ****                         CyBle_SetState(CYBLE_STATE_DISCONNECTED);
1756:Generated_Source\PSoC4/BLE_1_eventHandler.c ****                     #if ((CYBLE_SLOW_ADV_ENABLED != 0u) && (CYBLE_FAST_ADV_TIMEOUT != 0u))
1757:Generated_Source\PSoC4/BLE_1_eventHandler.c ****                         if(cyBle_advertisingIntervalType == CYBLE_ADVERTISING_FAST)
1758:Generated_Source\PSoC4/BLE_1_eventHandler.c ****                         {
1759:Generated_Source\PSoC4/BLE_1_eventHandler.c ****                             /* When fast advertising time out occur: Start slow advertising */
1760:Generated_Source\PSoC4/BLE_1_eventHandler.c ****                             if(CyBle_GappStartAdvertisement(CYBLE_ADVERTISING_SLOW) == CYBLE_ERROR_
1761:Generated_Source\PSoC4/BLE_1_eventHandler.c ****                             {
1762:Generated_Source\PSoC4/BLE_1_eventHandler.c ****                                 CyBle_SetState(CYBLE_STATE_ADVERTISING);
1763:Generated_Source\PSoC4/BLE_1_eventHandler.c ****                             }
1764:Generated_Source\PSoC4/BLE_1_eventHandler.c ****                         }
1765:Generated_Source\PSoC4/BLE_1_eventHandler.c ****                     #endif /* CYBLE_SLOW_ADV_ENABLED */
1766:Generated_Source\PSoC4/BLE_1_eventHandler.c ****                     }
1767:Generated_Source\PSoC4/BLE_1_eventHandler.c ****                 }
1768:Generated_Source\PSoC4/BLE_1_eventHandler.c ****             }
1769:Generated_Source\PSoC4/BLE_1_eventHandler.c ****             break;
1770:Generated_Source\PSoC4/BLE_1_eventHandler.c ****         #endif /* CYBLE_GAP_ROLE_PERIPHERAL || CYBLE_GAP_ROLE_BROADCASTER */
1771:Generated_Source\PSoC4/BLE_1_eventHandler.c ****         
1772:Generated_Source\PSoC4/BLE_1_eventHandler.c ****         #if(CYBLE_GAP_ROLE_CENTRAL || CYBLE_GAP_ROLE_OBSERVER)    
1773:Generated_Source\PSoC4/BLE_1_eventHandler.c ****         case CYBLE_EVT_GAPC_SCAN_START_STOP:
1774:Generated_Source\PSoC4/BLE_1_eventHandler.c ****             #ifdef CYBLE_CPS_CLIENT
1775:Generated_Source\PSoC4/BLE_1_eventHandler.c ****                 CyBle_CpscScanStartStopEventHandler();
1776:Generated_Source\PSoC4/BLE_1_eventHandler.c ****             #endif /* CYBLE_CPS_CLIENT */
1777:Generated_Source\PSoC4/BLE_1_eventHandler.c ****             
1778:Generated_Source\PSoC4/BLE_1_eventHandler.c ****             if((CYBLE_STATE_CONNECTED != CyBle_GetState()) && ((cyBle_eventHandlerFlag & CYBLE_CALL
 1426              		.loc 1 1778 0
 1427 016a 754B     		ldr	r3, .L103+16
 1428 016c 1B78     		ldrb	r3, [r3]
 1429 016e 022B     		cmp	r3, #2
 1430 0170 40D0     		beq	.L95
 1431              		.loc 1 1778 0 is_stmt 0 discriminator 1
 1432 0172 6F4B     		ldr	r3, .L103
 1433 0174 1B78     		ldrb	r3, [r3]
 1434 0176 DBB2     		uxtb	r3, r3
 1435 0178 1A1C     		mov	r2, r3
 1436 017a 0123     		mov	r3, #1
 1437 017c 1340     		and	r3, r2
 1438 017e 39D0     		beq	.L95
1779:Generated_Source\PSoC4/BLE_1_eventHandler.c ****             {
1780:Generated_Source\PSoC4/BLE_1_eventHandler.c ****                 /* After CyBle_GapcStartScan first event indicates that scanning has been started *
1781:Generated_Source\PSoC4/BLE_1_eventHandler.c ****                 if(0u != (cyBle_eventHandlerFlag & CYBLE_START_FLAG))
 1439              		.loc 1 1781 0 is_stmt 1
 1440 0180 6B4B     		ldr	r3, .L103
 1441 0182 1B78     		ldrb	r3, [r3]
 1442 0184 DBB2     		uxtb	r3, r3
 1443 0186 1A1C     		mov	r2, r3
 1444 0188 0423     		mov	r3, #4
 1445 018a 1340     		and	r3, r2
 1446 018c 0BD0     		beq	.L96
1782:Generated_Source\PSoC4/BLE_1_eventHandler.c ****                 {
1783:Generated_Source\PSoC4/BLE_1_eventHandler.c ****                     CyBle_SetState(CYBLE_STATE_SCANNING);
 1447              		.loc 1 1783 0
 1448 018e 6C4B     		ldr	r3, .L103+16
 1449 0190 0322     		mov	r2, #3
ARM GAS  C:\Users\Sarah\AppData\Local\Temp\ccqSJLdk.s 			page 58


 1450 0192 1A70     		strb	r2, [r3]
1784:Generated_Source\PSoC4/BLE_1_eventHandler.c ****                     cyBle_eventHandlerFlag &= (uint8)~CYBLE_START_FLAG;
 1451              		.loc 1 1784 0
 1452 0194 664B     		ldr	r3, .L103
 1453 0196 1B78     		ldrb	r3, [r3]
 1454 0198 DBB2     		uxtb	r3, r3
 1455 019a 0422     		mov	r2, #4
 1456 019c 9343     		bic	r3, r2
 1457 019e DAB2     		uxtb	r2, r3
 1458 01a0 634B     		ldr	r3, .L103
 1459 01a2 1A70     		strb	r2, [r3]
 1460 01a4 26E0     		b	.L95
 1461              	.L96:
1785:Generated_Source\PSoC4/BLE_1_eventHandler.c ****                 }
1786:Generated_Source\PSoC4/BLE_1_eventHandler.c ****                 /* When application initiated stop scanning */
1787:Generated_Source\PSoC4/BLE_1_eventHandler.c ****                 else if(0u != (cyBle_eventHandlerFlag & CYBLE_STOP_FLAG))
 1462              		.loc 1 1787 0
 1463 01a6 624B     		ldr	r3, .L103
 1464 01a8 1B78     		ldrb	r3, [r3]
 1465 01aa DBB2     		uxtb	r3, r3
 1466 01ac 1A1C     		mov	r2, r3
 1467 01ae 0823     		mov	r3, #8
 1468 01b0 1340     		and	r3, r2
 1469 01b2 0BD0     		beq	.L97
1788:Generated_Source\PSoC4/BLE_1_eventHandler.c ****                 {
1789:Generated_Source\PSoC4/BLE_1_eventHandler.c ****                     CyBle_SetState(CYBLE_STATE_DISCONNECTED);  
 1470              		.loc 1 1789 0
 1471 01b4 624B     		ldr	r3, .L103+16
 1472 01b6 0522     		mov	r2, #5
 1473 01b8 1A70     		strb	r2, [r3]
1790:Generated_Source\PSoC4/BLE_1_eventHandler.c ****                     cyBle_eventHandlerFlag &= (uint8)~CYBLE_STOP_FLAG;
 1474              		.loc 1 1790 0
 1475 01ba 5D4B     		ldr	r3, .L103
 1476 01bc 1B78     		ldrb	r3, [r3]
 1477 01be DBB2     		uxtb	r3, r3
 1478 01c0 0822     		mov	r2, #8
 1479 01c2 9343     		bic	r3, r2
 1480 01c4 DAB2     		uxtb	r2, r3
 1481 01c6 5A4B     		ldr	r3, .L103
 1482 01c8 1A70     		strb	r2, [r3]
 1483 01ca 13E0     		b	.L95
 1484              	.L97:
1791:Generated_Source\PSoC4/BLE_1_eventHandler.c ****                 }
1792:Generated_Source\PSoC4/BLE_1_eventHandler.c ****                 else /* Following event indicates that scanning has been stopped by stack */
1793:Generated_Source\PSoC4/BLE_1_eventHandler.c ****                 {
1794:Generated_Source\PSoC4/BLE_1_eventHandler.c ****                     if(CyBle_GetState() == CYBLE_STATE_SCANNING)
 1485              		.loc 1 1794 0
 1486 01cc 5C4B     		ldr	r3, .L103+16
 1487 01ce 1B78     		ldrb	r3, [r3]
 1488 01d0 032B     		cmp	r3, #3
 1489 01d2 0FD1     		bne	.L95
1795:Generated_Source\PSoC4/BLE_1_eventHandler.c ****                     {
1796:Generated_Source\PSoC4/BLE_1_eventHandler.c ****                         CyBle_SetState(CYBLE_STATE_DISCONNECTED);  
 1490              		.loc 1 1796 0
 1491 01d4 5A4B     		ldr	r3, .L103+16
 1492 01d6 0522     		mov	r2, #5
 1493 01d8 1A70     		strb	r2, [r3]
ARM GAS  C:\Users\Sarah\AppData\Local\Temp\ccqSJLdk.s 			page 59


1797:Generated_Source\PSoC4/BLE_1_eventHandler.c ****                     #if ((CYBLE_SLOW_SCAN_ENABLED != 0u) && (CYBLE_FAST_SCAN_TIMEOUT != 0u))
1798:Generated_Source\PSoC4/BLE_1_eventHandler.c ****                         if(cyBle_scanningIntervalType == CYBLE_SCANNING_FAST)
 1494              		.loc 1 1798 0
 1495 01da 614B     		ldr	r3, .L103+48
 1496 01dc 1B78     		ldrb	r3, [r3]
 1497 01de 002B     		cmp	r3, #0
 1498 01e0 08D1     		bne	.L95
1799:Generated_Source\PSoC4/BLE_1_eventHandler.c ****                         {
1800:Generated_Source\PSoC4/BLE_1_eventHandler.c ****                             /* When fast scanning time out occur: Start slow scanning */
1801:Generated_Source\PSoC4/BLE_1_eventHandler.c ****                             if(CyBle_GapcStartScan(CYBLE_SCANNING_SLOW) == CYBLE_ERROR_OK)
 1499              		.loc 1 1801 0
 1500 01e2 0120     		mov	r0, #1
 1501 01e4 FFF7FEFF 		bl	CyBle_GapcStartScan
 1502 01e8 031E     		sub	r3, r0, #0
 1503 01ea 03D1     		bne	.L95
1802:Generated_Source\PSoC4/BLE_1_eventHandler.c ****                             {
1803:Generated_Source\PSoC4/BLE_1_eventHandler.c ****                                 CyBle_SetState(CYBLE_STATE_SCANNING);
 1504              		.loc 1 1803 0
 1505 01ec 544B     		ldr	r3, .L103+16
 1506 01ee 0322     		mov	r2, #3
 1507 01f0 1A70     		strb	r2, [r3]
1804:Generated_Source\PSoC4/BLE_1_eventHandler.c ****                             }
1805:Generated_Source\PSoC4/BLE_1_eventHandler.c ****                         }
1806:Generated_Source\PSoC4/BLE_1_eventHandler.c ****                     #endif /* CYBLE_SLOW_SCAN_ENABLED */
1807:Generated_Source\PSoC4/BLE_1_eventHandler.c ****                     }
1808:Generated_Source\PSoC4/BLE_1_eventHandler.c ****                 }
1809:Generated_Source\PSoC4/BLE_1_eventHandler.c ****             }
1810:Generated_Source\PSoC4/BLE_1_eventHandler.c ****             break;
 1508              		.loc 1 1810 0
 1509 01f2 C0E0     		b	.L89
 1510              	.L95:
 1511 01f4 BFE0     		b	.L89
 1512              	.L85:
1811:Generated_Source\PSoC4/BLE_1_eventHandler.c ****         #endif /* CYBLE_GAP_ROLE_CENTRAL || CYBLE_GAP_ROLE_OBSERVER */
1812:Generated_Source\PSoC4/BLE_1_eventHandler.c **** 
1813:Generated_Source\PSoC4/BLE_1_eventHandler.c ****         /**********************************************************
1814:Generated_Source\PSoC4/BLE_1_eventHandler.c ****         * L2AP events 
1815:Generated_Source\PSoC4/BLE_1_eventHandler.c ****         ************************************************************/
1816:Generated_Source\PSoC4/BLE_1_eventHandler.c ****         case CYBLE_EVT_L2CAP_CONN_PARAM_UPDATE_RSP:
1817:Generated_Source\PSoC4/BLE_1_eventHandler.c ****             CyBle_L2Cap_ConnParamUpdateRspEventHandler(*(uint16 *)eventParam);
 1513              		.loc 1 1817 0
 1514 01f6 3B68     		ldr	r3, [r7]
 1515 01f8 1B88     		ldrh	r3, [r3]
 1516 01fa 181C     		mov	r0, r3
 1517 01fc FFF7FEFF 		bl	CyBle_L2Cap_ConnParamUpdateRspEventHandler
1818:Generated_Source\PSoC4/BLE_1_eventHandler.c ****             break;
 1518              		.loc 1 1818 0
 1519 0200 B9E0     		b	.L89
 1520              	.L65:
1819:Generated_Source\PSoC4/BLE_1_eventHandler.c ****         
1820:Generated_Source\PSoC4/BLE_1_eventHandler.c ****         /**********************************************************
1821:Generated_Source\PSoC4/BLE_1_eventHandler.c ****         * GATT events
1822:Generated_Source\PSoC4/BLE_1_eventHandler.c ****         ************************************************************/        
1823:Generated_Source\PSoC4/BLE_1_eventHandler.c ****         case CYBLE_EVT_GATT_CONNECT_IND:
1824:Generated_Source\PSoC4/BLE_1_eventHandler.c ****             cyBle_connHandle = *(CYBLE_CONN_HANDLE_T *)eventParam;
 1521              		.loc 1 1824 0
 1522 0202 544A     		ldr	r2, .L103+36
ARM GAS  C:\Users\Sarah\AppData\Local\Temp\ccqSJLdk.s 			page 60


 1523 0204 3B68     		ldr	r3, [r7]
 1524 0206 111C     		mov	r1, r2
 1525 0208 1A1C     		mov	r2, r3
 1526 020a 0223     		mov	r3, #2
 1527 020c 081C     		mov	r0, r1
 1528 020e 111C     		mov	r1, r2
 1529 0210 1A1C     		mov	r2, r3
 1530 0212 FFF7FEFF 		bl	memcpy
1825:Generated_Source\PSoC4/BLE_1_eventHandler.c ****             cyBle_busyStatus = CYBLE_STACK_STATE_FREE;
 1531              		.loc 1 1825 0
 1532 0216 4B4B     		ldr	r3, .L103+20
 1533 0218 0022     		mov	r2, #0
 1534 021a 1A70     		strb	r2, [r3]
1826:Generated_Source\PSoC4/BLE_1_eventHandler.c ****             
1827:Generated_Source\PSoC4/BLE_1_eventHandler.c ****         #if((CYBLE_GATT_ROLE_SERVER) && (CYBLE_GATT_DB_CCCD_COUNT != 0u) && \
1828:Generated_Source\PSoC4/BLE_1_eventHandler.c ****             (CYBLE_BONDING_REQUIREMENT == CYBLE_BONDING_YES))
1829:Generated_Source\PSoC4/BLE_1_eventHandler.c ****             /* Init CCCD values in RAM when bonding is enabled */
1830:Generated_Source\PSoC4/BLE_1_eventHandler.c ****         	(void) memcpy (cyBle_attValuesCCCD, cyBle_flashStorage.attValuesCCCDFlashMemory[cyBle_conn
 1535              		.loc 1 1830 0
 1536 021c 4D4B     		ldr	r3, .L103+36
 1537 021e 1B78     		ldrb	r3, [r3]
 1538 0220 3D33     		add	r3, r3, #61
 1539 0222 FF33     		add	r3, r3, #255
 1540 0224 5A00     		lsl	r2, r3, #1
 1541 0226 4F4B     		ldr	r3, .L103+52
 1542 0228 D318     		add	r3, r2, r3
 1543 022a 0133     		add	r3, r3, #1
 1544 022c 4E4A     		ldr	r2, .L103+56
 1545 022e 111C     		mov	r1, r2
 1546 0230 1A1C     		mov	r2, r3
 1547 0232 0223     		mov	r3, #2
 1548 0234 081C     		mov	r0, r1
 1549 0236 111C     		mov	r1, r2
 1550 0238 1A1C     		mov	r2, r3
 1551 023a FFF7FEFF 		bl	memcpy
1831:Generated_Source\PSoC4/BLE_1_eventHandler.c ****                             CYBLE_GATT_DB_CCCD_COUNT);
1832:Generated_Source\PSoC4/BLE_1_eventHandler.c ****         #endif /* CYBLE_GATT_ROLE_SERVER && (CYBLE_BONDING_REQUIREMENT == CYBLE_BONDING_YES) */
1833:Generated_Source\PSoC4/BLE_1_eventHandler.c ****         
1834:Generated_Source\PSoC4/BLE_1_eventHandler.c ****         #if (CYBLE_GATT_ROLE_CLIENT)
1835:Generated_Source\PSoC4/BLE_1_eventHandler.c ****             CyBle_SetClientState(CYBLE_CLIENT_STATE_CONNECTED);
 1552              		.loc 1 1835 0
 1553 023e 4B4B     		ldr	r3, .L103+60
 1554 0240 0022     		mov	r2, #0
 1555 0242 1A70     		strb	r2, [r3]
1836:Generated_Source\PSoC4/BLE_1_eventHandler.c ****         #endif /* CYBLE_GATT_ROLE_CLIENT */
1837:Generated_Source\PSoC4/BLE_1_eventHandler.c ****         
1838:Generated_Source\PSoC4/BLE_1_eventHandler.c ****             CyBle_GattConnectReqHandler();
 1556              		.loc 1 1838 0
 1557 0244 FFF7FEFF 		bl	CyBle_GattConnectReqHandler
1839:Generated_Source\PSoC4/BLE_1_eventHandler.c ****             break;
 1558              		.loc 1 1839 0
 1559 0248 95E0     		b	.L89
 1560              	.L66:
1840:Generated_Source\PSoC4/BLE_1_eventHandler.c **** 
1841:Generated_Source\PSoC4/BLE_1_eventHandler.c ****         case CYBLE_EVT_GATT_DISCONNECT_IND:
1842:Generated_Source\PSoC4/BLE_1_eventHandler.c ****             CyBle_GattDisconnectEventHandler();
 1561              		.loc 1 1842 0
ARM GAS  C:\Users\Sarah\AppData\Local\Temp\ccqSJLdk.s 			page 61


 1562 024a FFF7FEFF 		bl	CyBle_GattDisconnectEventHandler
1843:Generated_Source\PSoC4/BLE_1_eventHandler.c ****             break;
 1563              		.loc 1 1843 0
 1564 024e 92E0     		b	.L89
 1565              	.L67:
 1566              	.LBB9:
1844:Generated_Source\PSoC4/BLE_1_eventHandler.c **** 
1845:Generated_Source\PSoC4/BLE_1_eventHandler.c ****     #if((CYBLE_GATT_ROLE_SERVER) || (CYBLE_GATT_ROLE_CLIENT))
1846:Generated_Source\PSoC4/BLE_1_eventHandler.c ****         case CYBLE_EVT_GATTS_XCNHG_MTU_REQ:
1847:Generated_Source\PSoC4/BLE_1_eventHandler.c ****             {
1848:Generated_Source\PSoC4/BLE_1_eventHandler.c ****                 uint16 cyBle_mtuSize;
1849:Generated_Source\PSoC4/BLE_1_eventHandler.c ****                 if(CYBLE_GATT_MTU > ((CYBLE_GATT_XCHG_MTU_PARAM_T *)eventParam)->mtu)
 1567              		.loc 1 1849 0
 1568 0250 3B68     		ldr	r3, [r7]
 1569 0252 5B88     		ldrh	r3, [r3, #2]
 1570 0254 162B     		cmp	r3, #22
 1571 0256 05D8     		bhi	.L98
1850:Generated_Source\PSoC4/BLE_1_eventHandler.c ****                 {
1851:Generated_Source\PSoC4/BLE_1_eventHandler.c ****                     cyBle_mtuSize = ((CYBLE_GATT_XCHG_MTU_PARAM_T *)eventParam)->mtu;
 1572              		.loc 1 1851 0
 1573 0258 1623     		mov	r3, #22
 1574 025a FB18     		add	r3, r7, r3
 1575 025c 3A68     		ldr	r2, [r7]
 1576 025e 5288     		ldrh	r2, [r2, #2]
 1577 0260 1A80     		strh	r2, [r3]
 1578 0262 03E0     		b	.L99
 1579              	.L98:
1852:Generated_Source\PSoC4/BLE_1_eventHandler.c ****                 }
1853:Generated_Source\PSoC4/BLE_1_eventHandler.c ****                 else
1854:Generated_Source\PSoC4/BLE_1_eventHandler.c ****                 {
1855:Generated_Source\PSoC4/BLE_1_eventHandler.c ****                     cyBle_mtuSize = CYBLE_GATT_MTU;
 1580              		.loc 1 1855 0
 1581 0264 1623     		mov	r3, #22
 1582 0266 FB18     		add	r3, r7, r3
 1583 0268 1722     		mov	r2, #23
 1584 026a 1A80     		strh	r2, [r3]
 1585              	.L99:
1856:Generated_Source\PSoC4/BLE_1_eventHandler.c ****                 }
1857:Generated_Source\PSoC4/BLE_1_eventHandler.c ****                 (void)CyBle_GattsExchangeMtuRsp(((CYBLE_GATT_XCHG_MTU_PARAM_T *)eventParam)->connHa
 1586              		.loc 1 1857 0
 1587 026c 3B68     		ldr	r3, [r7]
 1588 026e 1622     		mov	r2, #22
 1589 0270 BA18     		add	r2, r7, r2
 1590 0272 1188     		ldrh	r1, [r2]
 1591 0274 1A88     		ldrh	r2, [r3]
 1592 0276 0023     		mov	r3, #0
 1593 0278 1204     		lsl	r2, r2, #16
 1594 027a 120C     		lsr	r2, r2, #16
 1595 027c 1B0C     		lsr	r3, r3, #16
 1596 027e 1B04     		lsl	r3, r3, #16
 1597 0280 1343     		orr	r3, r2
 1598 0282 181C     		mov	r0, r3
 1599 0284 FFF7FEFF 		bl	CyBle_GattsExchangeMtuRsp
 1600              	.LBE9:
1858:Generated_Source\PSoC4/BLE_1_eventHandler.c ****             }
1859:Generated_Source\PSoC4/BLE_1_eventHandler.c ****             break;
 1601              		.loc 1 1859 0
ARM GAS  C:\Users\Sarah\AppData\Local\Temp\ccqSJLdk.s 			page 62


 1602 0288 75E0     		b	.L89
 1603              	.L74:
1860:Generated_Source\PSoC4/BLE_1_eventHandler.c ****     #endif /* CYBLE_GATT_ROLE_SERVER || CYBLE_GATT_ROLE_CLIENT */
1861:Generated_Source\PSoC4/BLE_1_eventHandler.c ****     
1862:Generated_Source\PSoC4/BLE_1_eventHandler.c ****     #if (CYBLE_GATT_ROLE_CLIENT)
1863:Generated_Source\PSoC4/BLE_1_eventHandler.c ****         case CYBLE_EVT_GAPC_SCAN_PROGRESS_RESULT:
1864:Generated_Source\PSoC4/BLE_1_eventHandler.c ****         #ifdef CYBLE_CPS_CLIENT
1865:Generated_Source\PSoC4/BLE_1_eventHandler.c ****             CyBle_CpscScanProcessEventHandler((CYBLE_GAPC_ADV_REPORT_T *)eventParam);
1866:Generated_Source\PSoC4/BLE_1_eventHandler.c ****         #endif /* CYBLE_CPS_CLIENT */
1867:Generated_Source\PSoC4/BLE_1_eventHandler.c ****             break;
1868:Generated_Source\PSoC4/BLE_1_eventHandler.c ****     #endif /* CYBLE_GATT_ROLE_CLIENT */
1869:Generated_Source\PSoC4/BLE_1_eventHandler.c **** 
1870:Generated_Source\PSoC4/BLE_1_eventHandler.c ****     #if(CYBLE_GATT_ROLE_SERVER)
1871:Generated_Source\PSoC4/BLE_1_eventHandler.c ****         case CYBLE_EVT_GATTS_WRITE_REQ:
1872:Generated_Source\PSoC4/BLE_1_eventHandler.c ****             CyBle_WriteReqHandler((CYBLE_GATTS_WRITE_REQ_PARAM_T *)eventParam);
 1604              		.loc 1 1872 0
 1605 028a 3B68     		ldr	r3, [r7]
 1606 028c 181C     		mov	r0, r3
 1607 028e FFF7FEFF 		bl	CyBle_WriteReqHandler
1873:Generated_Source\PSoC4/BLE_1_eventHandler.c ****             break;
 1608              		.loc 1 1873 0
 1609 0292 70E0     		b	.L89
 1610              	.L82:
1874:Generated_Source\PSoC4/BLE_1_eventHandler.c **** 
1875:Generated_Source\PSoC4/BLE_1_eventHandler.c ****         case CYBLE_EVT_GATTS_WRITE_CMD_REQ:
1876:Generated_Source\PSoC4/BLE_1_eventHandler.c ****         #ifdef CYBLE_IAS_SERVER
1877:Generated_Source\PSoC4/BLE_1_eventHandler.c ****             if((cyBle_eventHandlerFlag & CYBLE_CALLBACK) != 0u)
1878:Generated_Source\PSoC4/BLE_1_eventHandler.c ****             {
1879:Generated_Source\PSoC4/BLE_1_eventHandler.c ****                 (void)CyBle_IassWriteCmdEventHandler((CYBLE_GATTS_WRITE_REQ_PARAM_T *)eventParam);
1880:Generated_Source\PSoC4/BLE_1_eventHandler.c ****             }
1881:Generated_Source\PSoC4/BLE_1_eventHandler.c ****         #endif /* CYBLE_IAS_SERVER */
1882:Generated_Source\PSoC4/BLE_1_eventHandler.c ****         #ifdef CYBLE_IPS_SERVER
1883:Generated_Source\PSoC4/BLE_1_eventHandler.c ****             if((cyBle_eventHandlerFlag & CYBLE_CALLBACK) != 0u)
1884:Generated_Source\PSoC4/BLE_1_eventHandler.c ****             {
1885:Generated_Source\PSoC4/BLE_1_eventHandler.c ****                 (void)CyBle_IpssWriteCmdEventHandler((CYBLE_GATTS_WRITE_REQ_PARAM_T *)eventParam);
1886:Generated_Source\PSoC4/BLE_1_eventHandler.c ****             }
1887:Generated_Source\PSoC4/BLE_1_eventHandler.c ****         #endif /* CYBLE_IPS_SERVER */
1888:Generated_Source\PSoC4/BLE_1_eventHandler.c ****         #ifdef CYBLE_HIDS_SERVER
1889:Generated_Source\PSoC4/BLE_1_eventHandler.c ****             if((cyBle_eventHandlerFlag & CYBLE_CALLBACK) != 0u)
1890:Generated_Source\PSoC4/BLE_1_eventHandler.c ****             {
1891:Generated_Source\PSoC4/BLE_1_eventHandler.c ****                 (void)CyBle_HidssWriteEventHandler((CYBLE_GATTS_WRITE_REQ_PARAM_T *)eventParam);
1892:Generated_Source\PSoC4/BLE_1_eventHandler.c ****             }
1893:Generated_Source\PSoC4/BLE_1_eventHandler.c ****         #endif /* CYBLE_HIDS_SERVER */
1894:Generated_Source\PSoC4/BLE_1_eventHandler.c ****         #ifdef CYBLE_PASS_SERVER
1895:Generated_Source\PSoC4/BLE_1_eventHandler.c ****             if((cyBle_eventHandlerFlag & CYBLE_CALLBACK) != 0u)
1896:Generated_Source\PSoC4/BLE_1_eventHandler.c ****             {
1897:Generated_Source\PSoC4/BLE_1_eventHandler.c ****                 (void)CyBle_PasssWriteCmdEventHandler((CYBLE_GATTS_WRITE_REQ_PARAM_T *)eventParam);
1898:Generated_Source\PSoC4/BLE_1_eventHandler.c ****             }
1899:Generated_Source\PSoC4/BLE_1_eventHandler.c ****         #endif /* CYBLE_PASS_SERVER */
1900:Generated_Source\PSoC4/BLE_1_eventHandler.c ****         #ifdef CYBLE_RTUS_SERVER
1901:Generated_Source\PSoC4/BLE_1_eventHandler.c ****             if((cyBle_eventHandlerFlag & CYBLE_CALLBACK) != 0u)
1902:Generated_Source\PSoC4/BLE_1_eventHandler.c ****             {
1903:Generated_Source\PSoC4/BLE_1_eventHandler.c ****                 (void)CyBle_RtussWriteCmdEventHandler((CYBLE_GATTS_WRITE_REQ_PARAM_T *)eventParam);
1904:Generated_Source\PSoC4/BLE_1_eventHandler.c ****             }
1905:Generated_Source\PSoC4/BLE_1_eventHandler.c ****         #endif /* CYBLE_RTUS_SERVER */
1906:Generated_Source\PSoC4/BLE_1_eventHandler.c ****         #ifdef CYBLE_SCPS_SERVER
1907:Generated_Source\PSoC4/BLE_1_eventHandler.c ****             if((cyBle_eventHandlerFlag & CYBLE_CALLBACK) != 0u)
ARM GAS  C:\Users\Sarah\AppData\Local\Temp\ccqSJLdk.s 			page 63


1908:Generated_Source\PSoC4/BLE_1_eventHandler.c ****             {
1909:Generated_Source\PSoC4/BLE_1_eventHandler.c ****                 (void)CyBle_ScpssWriteEventHandler((CYBLE_GATTS_WRITE_REQ_PARAM_T *)eventParam);
1910:Generated_Source\PSoC4/BLE_1_eventHandler.c ****             }
1911:Generated_Source\PSoC4/BLE_1_eventHandler.c ****         #endif /* CYBLE_SCPS_SERVER */
1912:Generated_Source\PSoC4/BLE_1_eventHandler.c ****             break;
1913:Generated_Source\PSoC4/BLE_1_eventHandler.c ****         
1914:Generated_Source\PSoC4/BLE_1_eventHandler.c ****         case CYBLE_EVT_GATTS_PREP_WRITE_REQ:
1915:Generated_Source\PSoC4/BLE_1_eventHandler.c ****         #ifdef CYBLE_BMS_SERVER
1916:Generated_Source\PSoC4/BLE_1_eventHandler.c ****             CyBle_BmssPrepareWriteRequestEventHandler((CYBLE_GATTS_PREP_WRITE_REQ_PARAM_T *)eventPa
1917:Generated_Source\PSoC4/BLE_1_eventHandler.c ****         #endif /* CYBLE_BMS_SERVER */
1918:Generated_Source\PSoC4/BLE_1_eventHandler.c ****         #ifdef CYBLE_BTS_SERVER
1919:Generated_Source\PSoC4/BLE_1_eventHandler.c ****             if((cyBle_eventHandlerFlag & CYBLE_CALLBACK) != 0u)
1920:Generated_Source\PSoC4/BLE_1_eventHandler.c ****             {
1921:Generated_Source\PSoC4/BLE_1_eventHandler.c ****                 CyBle_BtssPrepareWriteRequestEventHandler((CYBLE_GATTS_PREP_WRITE_REQ_PARAM_T *)eve
1922:Generated_Source\PSoC4/BLE_1_eventHandler.c ****             }
1923:Generated_Source\PSoC4/BLE_1_eventHandler.c ****         #endif /* CYBLE_BTS_SERVER */
1924:Generated_Source\PSoC4/BLE_1_eventHandler.c ****         #ifdef CYBLE_ESS_SERVER
1925:Generated_Source\PSoC4/BLE_1_eventHandler.c ****             if((cyBle_eventHandlerFlag & CYBLE_CALLBACK) != 0u)
1926:Generated_Source\PSoC4/BLE_1_eventHandler.c ****             {
1927:Generated_Source\PSoC4/BLE_1_eventHandler.c ****                 CyBle_EsssPrepareWriteRequestEventHandler((CYBLE_GATTS_PREP_WRITE_REQ_PARAM_T *)eve
1928:Generated_Source\PSoC4/BLE_1_eventHandler.c ****             }
1929:Generated_Source\PSoC4/BLE_1_eventHandler.c ****         #endif /* CYBLE_ESS_SERVER */
1930:Generated_Source\PSoC4/BLE_1_eventHandler.c ****         #ifdef CYBLE_HPS_SERVER
1931:Generated_Source\PSoC4/BLE_1_eventHandler.c ****             if((cyBle_eventHandlerFlag & CYBLE_CALLBACK) != 0u)
1932:Generated_Source\PSoC4/BLE_1_eventHandler.c ****             {
1933:Generated_Source\PSoC4/BLE_1_eventHandler.c ****                 CyBle_HpssPrepareWriteRequestEventHandler((CYBLE_GATTS_PREP_WRITE_REQ_PARAM_T *)eve
1934:Generated_Source\PSoC4/BLE_1_eventHandler.c ****             }
1935:Generated_Source\PSoC4/BLE_1_eventHandler.c ****         #endif /* CYBLE_HPS_SERVER */
1936:Generated_Source\PSoC4/BLE_1_eventHandler.c ****         #ifdef CYBLE_IPS_SERVER
1937:Generated_Source\PSoC4/BLE_1_eventHandler.c ****             if((cyBle_eventHandlerFlag & CYBLE_CALLBACK) != 0u)
1938:Generated_Source\PSoC4/BLE_1_eventHandler.c ****             {
1939:Generated_Source\PSoC4/BLE_1_eventHandler.c ****                 CyBle_IpssPrepareWriteRequestEventHandler((CYBLE_GATTS_PREP_WRITE_REQ_PARAM_T *)eve
1940:Generated_Source\PSoC4/BLE_1_eventHandler.c ****             }
1941:Generated_Source\PSoC4/BLE_1_eventHandler.c ****         #endif /* CYBLE_IPS_SERVER */
1942:Generated_Source\PSoC4/BLE_1_eventHandler.c ****         #ifdef CYBLE_UDS_SERVER
1943:Generated_Source\PSoC4/BLE_1_eventHandler.c ****             if((cyBle_eventHandlerFlag & CYBLE_CALLBACK) != 0u)
1944:Generated_Source\PSoC4/BLE_1_eventHandler.c ****             {
1945:Generated_Source\PSoC4/BLE_1_eventHandler.c ****                 CyBle_UdssPrepareWriteRequestEventHandler((CYBLE_GATTS_PREP_WRITE_REQ_PARAM_T *)eve
1946:Generated_Source\PSoC4/BLE_1_eventHandler.c ****             }
1947:Generated_Source\PSoC4/BLE_1_eventHandler.c ****         #endif /* CYBLE_UDS_SERVER */
1948:Generated_Source\PSoC4/BLE_1_eventHandler.c ****             break;
1949:Generated_Source\PSoC4/BLE_1_eventHandler.c **** 
1950:Generated_Source\PSoC4/BLE_1_eventHandler.c ****         case CYBLE_EVT_GATTS_EXEC_WRITE_REQ:
1951:Generated_Source\PSoC4/BLE_1_eventHandler.c ****         #ifdef CYBLE_BMS_SERVER
1952:Generated_Source\PSoC4/BLE_1_eventHandler.c ****             CyBle_BmssExecuteWriteRequestEventHandler((CYBLE_GATTS_EXEC_WRITE_REQ_T *)eventParam);
1953:Generated_Source\PSoC4/BLE_1_eventHandler.c ****         #endif /* CYBLE_BMS_SERVER */
1954:Generated_Source\PSoC4/BLE_1_eventHandler.c ****         #ifdef CYBLE_BTS_SERVER
1955:Generated_Source\PSoC4/BLE_1_eventHandler.c ****             CyBle_BtssExecuteWriteRequestEventHandler((CYBLE_GATTS_EXEC_WRITE_REQ_T *)eventParam);
1956:Generated_Source\PSoC4/BLE_1_eventHandler.c ****         #endif /* CYBLE_BTS_SERVER */
1957:Generated_Source\PSoC4/BLE_1_eventHandler.c ****         #ifdef CYBLE_ESS_SERVER
1958:Generated_Source\PSoC4/BLE_1_eventHandler.c ****             CyBle_EsssExecuteWriteRequestEventHandler((CYBLE_GATTS_EXEC_WRITE_REQ_T *)eventParam);
1959:Generated_Source\PSoC4/BLE_1_eventHandler.c ****         #endif /* CYBLE_ESS_SERVER */
1960:Generated_Source\PSoC4/BLE_1_eventHandler.c ****         #ifdef CYBLE_HPS_SERVER
1961:Generated_Source\PSoC4/BLE_1_eventHandler.c ****             CyBle_HpssExecuteWriteRequestEventHandler((CYBLE_GATTS_EXEC_WRITE_REQ_T *)eventParam);
1962:Generated_Source\PSoC4/BLE_1_eventHandler.c ****         #endif /* CYBLE_HPS_SERVER */
1963:Generated_Source\PSoC4/BLE_1_eventHandler.c ****         #ifdef CYBLE_IPS_SERVER
1964:Generated_Source\PSoC4/BLE_1_eventHandler.c ****             CyBle_IpssExecuteWriteRequestEventHandler((CYBLE_GATTS_EXEC_WRITE_REQ_T *)eventParam);
ARM GAS  C:\Users\Sarah\AppData\Local\Temp\ccqSJLdk.s 			page 64


1965:Generated_Source\PSoC4/BLE_1_eventHandler.c ****         #endif /* CYBLE_IPS_SERVER */
1966:Generated_Source\PSoC4/BLE_1_eventHandler.c **** 		#ifdef CYBLE_UDS_SERVER
1967:Generated_Source\PSoC4/BLE_1_eventHandler.c ****             CyBle_UdssExecuteWriteRequestEventHandler((CYBLE_GATTS_EXEC_WRITE_REQ_T *)eventParam);
1968:Generated_Source\PSoC4/BLE_1_eventHandler.c ****         #endif /* CYBLE_UDS_SERVER */
1969:Generated_Source\PSoC4/BLE_1_eventHandler.c ****             break;
1970:Generated_Source\PSoC4/BLE_1_eventHandler.c ****         
1971:Generated_Source\PSoC4/BLE_1_eventHandler.c ****         case CYBLE_EVT_GATTS_HANDLE_VALUE_CNF:
1972:Generated_Source\PSoC4/BLE_1_eventHandler.c ****             CyBle_ValueConfirmation((CYBLE_CONN_HANDLE_T *)eventParam);
 1611              		.loc 1 1972 0
 1612 0294 3B68     		ldr	r3, [r7]
 1613 0296 181C     		mov	r0, r3
 1614 0298 FFF7FEFF 		bl	CyBle_ValueConfirmation
1973:Generated_Source\PSoC4/BLE_1_eventHandler.c ****             break;
 1615              		.loc 1 1973 0
 1616 029c 6BE0     		b	.L89
 1617              	.L68:
1974:Generated_Source\PSoC4/BLE_1_eventHandler.c ****             
1975:Generated_Source\PSoC4/BLE_1_eventHandler.c ****         case CYBLE_EVT_GATTS_READ_CHAR_VAL_ACCESS_REQ:
1976:Generated_Source\PSoC4/BLE_1_eventHandler.c ****         #ifdef CYBLE_UDS_SERVER
1977:Generated_Source\PSoC4/BLE_1_eventHandler.c ****             CyBle_UdssReadRequestEventHandler((CYBLE_GATTS_CHAR_VAL_READ_REQ_T *)eventParam);
1978:Generated_Source\PSoC4/BLE_1_eventHandler.c ****         #endif /* CYBLE_UDS_SERVER */
1979:Generated_Source\PSoC4/BLE_1_eventHandler.c ****             break;
1980:Generated_Source\PSoC4/BLE_1_eventHandler.c ****             
1981:Generated_Source\PSoC4/BLE_1_eventHandler.c ****     #endif /* CYBLE_GATT_ROLE_SERVER */
1982:Generated_Source\PSoC4/BLE_1_eventHandler.c **** 
1983:Generated_Source\PSoC4/BLE_1_eventHandler.c ****     #if (CYBLE_GATT_ROLE_CLIENT)
1984:Generated_Source\PSoC4/BLE_1_eventHandler.c ****         
1985:Generated_Source\PSoC4/BLE_1_eventHandler.c ****         case CYBLE_EVT_GATTC_READ_BY_GROUP_TYPE_RSP:
1986:Generated_Source\PSoC4/BLE_1_eventHandler.c ****             CyBle_ReadByGroupEventHandler((CYBLE_GATTC_READ_BY_GRP_RSP_PARAM_T *)eventParam);
 1618              		.loc 1 1986 0
 1619 029e 3B68     		ldr	r3, [r7]
 1620 02a0 181C     		mov	r0, r3
 1621 02a2 FFF7FEFF 		bl	CyBle_ReadByGroupEventHandler
1987:Generated_Source\PSoC4/BLE_1_eventHandler.c ****             break;
 1622              		.loc 1 1987 0
 1623 02a6 66E0     		b	.L89
 1624              	.L69:
1988:Generated_Source\PSoC4/BLE_1_eventHandler.c **** 
1989:Generated_Source\PSoC4/BLE_1_eventHandler.c ****         case CYBLE_EVT_GATTC_READ_BY_TYPE_RSP:
1990:Generated_Source\PSoC4/BLE_1_eventHandler.c ****             CyBle_ReadByTypeEventHandler((CYBLE_GATTC_READ_BY_TYPE_RSP_PARAM_T *)eventParam);
 1625              		.loc 1 1990 0
 1626 02a8 3B68     		ldr	r3, [r7]
 1627 02aa 181C     		mov	r0, r3
 1628 02ac FFF7FEFF 		bl	CyBle_ReadByTypeEventHandler
1991:Generated_Source\PSoC4/BLE_1_eventHandler.c ****             break;
 1629              		.loc 1 1991 0
 1630 02b0 61E0     		b	.L89
 1631              	.L84:
1992:Generated_Source\PSoC4/BLE_1_eventHandler.c **** 
1993:Generated_Source\PSoC4/BLE_1_eventHandler.c ****         case CYBLE_EVT_GATTC_READ_BLOB_RSP:
1994:Generated_Source\PSoC4/BLE_1_eventHandler.c ****         #ifdef CYBLE_ESS_CLIENT
1995:Generated_Source\PSoC4/BLE_1_eventHandler.c ****             CyBle_EsscReadLongRespEventHandler((CYBLE_GATTC_READ_RSP_PARAM_T *)eventParam);
1996:Generated_Source\PSoC4/BLE_1_eventHandler.c ****         #endif /* CYBLE_ESS_CLIENT */
1997:Generated_Source\PSoC4/BLE_1_eventHandler.c ****         #ifdef CYBLE_HPS_CLIENT
1998:Generated_Source\PSoC4/BLE_1_eventHandler.c ****             CyBle_HpscReadLongRespEventHandler((CYBLE_GATTC_READ_RSP_PARAM_T *)eventParam);
1999:Generated_Source\PSoC4/BLE_1_eventHandler.c ****         #endif /* CYBLE_HPS_CLIENT */
2000:Generated_Source\PSoC4/BLE_1_eventHandler.c **** 		#ifdef CYBLE_IPS_CLIENT
ARM GAS  C:\Users\Sarah\AppData\Local\Temp\ccqSJLdk.s 			page 65


2001:Generated_Source\PSoC4/BLE_1_eventHandler.c ****             CyBle_IpscReadLongRespEventHandler((CYBLE_GATTC_READ_RSP_PARAM_T *)eventParam);
2002:Generated_Source\PSoC4/BLE_1_eventHandler.c ****         #endif /* CYBLE_IPS_CLIENT */
2003:Generated_Source\PSoC4/BLE_1_eventHandler.c ****         #ifdef CYBLE_UDS_CLIENT
2004:Generated_Source\PSoC4/BLE_1_eventHandler.c ****             if((cyBle_eventHandlerFlag & CYBLE_CALLBACK) != 0u)
2005:Generated_Source\PSoC4/BLE_1_eventHandler.c ****             {
2006:Generated_Source\PSoC4/BLE_1_eventHandler.c ****                 CyBle_UdscReadLongRespEventHandler((CYBLE_GATTC_READ_RSP_PARAM_T *)eventParam);
2007:Generated_Source\PSoC4/BLE_1_eventHandler.c ****             }
2008:Generated_Source\PSoC4/BLE_1_eventHandler.c ****         #endif /* CYBLE_UDS_CLIENT */
2009:Generated_Source\PSoC4/BLE_1_eventHandler.c ****             break;
2010:Generated_Source\PSoC4/BLE_1_eventHandler.c ****         
2011:Generated_Source\PSoC4/BLE_1_eventHandler.c ****         case CYBLE_EVT_GATTC_LONG_PROCEDURE_END:
2012:Generated_Source\PSoC4/BLE_1_eventHandler.c ****             CyBle_LongProcedureEndEventHandler();
 1632              		.loc 1 2012 0
 1633 02b2 FFF7FEFF 		bl	CyBle_LongProcedureEndEventHandler
2013:Generated_Source\PSoC4/BLE_1_eventHandler.c ****             break;
 1634              		.loc 1 2013 0
 1635 02b6 5EE0     		b	.L89
 1636              	.L70:
2014:Generated_Source\PSoC4/BLE_1_eventHandler.c ****         
2015:Generated_Source\PSoC4/BLE_1_eventHandler.c ****         case CYBLE_EVT_GATTC_FIND_INFO_RSP:
2016:Generated_Source\PSoC4/BLE_1_eventHandler.c ****             CyBle_FindInfoEventHandler((CYBLE_GATTC_FIND_INFO_RSP_PARAM_T *)eventParam);
 1637              		.loc 1 2016 0
 1638 02b8 3B68     		ldr	r3, [r7]
 1639 02ba 181C     		mov	r0, r3
 1640 02bc FFF7FEFF 		bl	CyBle_FindInfoEventHandler
2017:Generated_Source\PSoC4/BLE_1_eventHandler.c ****             break;
 1641              		.loc 1 2017 0
 1642 02c0 59E0     		b	.L89
 1643              	.L64:
2018:Generated_Source\PSoC4/BLE_1_eventHandler.c **** 
2019:Generated_Source\PSoC4/BLE_1_eventHandler.c ****         case CYBLE_EVT_GATTC_ERROR_RSP:
2020:Generated_Source\PSoC4/BLE_1_eventHandler.c ****             CyBle_ErrorResponseEventHandler((CYBLE_GATTC_ERR_RSP_PARAM_T *)eventParam);
 1644              		.loc 1 2020 0
 1645 02c2 3B68     		ldr	r3, [r7]
 1646 02c4 181C     		mov	r0, r3
 1647 02c6 FFF7FEFF 		bl	CyBle_ErrorResponseEventHandler
2021:Generated_Source\PSoC4/BLE_1_eventHandler.c ****             break;
 1648              		.loc 1 2021 0
 1649 02ca 54E0     		b	.L89
 1650              	.L80:
2022:Generated_Source\PSoC4/BLE_1_eventHandler.c **** 
2023:Generated_Source\PSoC4/BLE_1_eventHandler.c ****         case CYBLE_EVT_GATTC_HANDLE_VALUE_NTF:
2024:Generated_Source\PSoC4/BLE_1_eventHandler.c ****             CyBle_NotificationEventHandler((CYBLE_GATTC_HANDLE_VALUE_NTF_PARAM_T *)eventParam);
 1651              		.loc 1 2024 0
 1652 02cc 3B68     		ldr	r3, [r7]
 1653 02ce 181C     		mov	r0, r3
 1654 02d0 FFF7FEFF 		bl	CyBle_NotificationEventHandler
2025:Generated_Source\PSoC4/BLE_1_eventHandler.c ****             break;
 1655              		.loc 1 2025 0
 1656 02d4 4FE0     		b	.L89
 1657              	.L81:
2026:Generated_Source\PSoC4/BLE_1_eventHandler.c **** 
2027:Generated_Source\PSoC4/BLE_1_eventHandler.c ****         case CYBLE_EVT_GATTC_HANDLE_VALUE_IND:
2028:Generated_Source\PSoC4/BLE_1_eventHandler.c ****             CyBle_GattcIndicationEventHandler((CYBLE_GATTC_HANDLE_VALUE_IND_PARAM_T *)eventParam);
 1658              		.loc 1 2028 0
 1659 02d6 3B68     		ldr	r3, [r7]
 1660 02d8 181C     		mov	r0, r3
ARM GAS  C:\Users\Sarah\AppData\Local\Temp\ccqSJLdk.s 			page 66


 1661 02da FFF7FEFF 		bl	CyBle_GattcIndicationEventHandler
2029:Generated_Source\PSoC4/BLE_1_eventHandler.c ****             CyBle_IndicationEventHandler((CYBLE_GATTC_HANDLE_VALUE_IND_PARAM_T *)eventParam);
 1662              		.loc 1 2029 0
 1663 02de 3B68     		ldr	r3, [r7]
 1664 02e0 181C     		mov	r0, r3
 1665 02e2 FFF7FEFF 		bl	CyBle_IndicationEventHandler
2030:Generated_Source\PSoC4/BLE_1_eventHandler.c ****         
2031:Generated_Source\PSoC4/BLE_1_eventHandler.c ****             /* Respond with a Handle Value Confirmation when request handled */
2032:Generated_Source\PSoC4/BLE_1_eventHandler.c ****             if((cyBle_eventHandlerFlag & CYBLE_CALLBACK) == 0u)
 1666              		.loc 1 2032 0
 1667 02e6 124B     		ldr	r3, .L103
 1668 02e8 1B78     		ldrb	r3, [r3]
 1669 02ea DBB2     		uxtb	r3, r3
 1670 02ec 1A1C     		mov	r2, r3
 1671 02ee 0123     		mov	r3, #1
 1672 02f0 1340     		and	r3, r2
 1673 02f2 04D1     		bne	.L100
2033:Generated_Source\PSoC4/BLE_1_eventHandler.c ****             {
