ARM GAS  C:\Users\Sarah\AppData\Local\Temp\ccHPZEGf.s 			page 1


   1              		.cpu cortex-m0
   2              		.fpu softvfp
   3              		.eabi_attribute 20, 1
   4              		.eabi_attribute 21, 1
   5              		.eabi_attribute 23, 3
   6              		.eabi_attribute 24, 1
   7              		.eabi_attribute 25, 1
   8              		.eabi_attribute 26, 1
   9              		.eabi_attribute 30, 6
  10              		.eabi_attribute 34, 0
  11              		.eabi_attribute 18, 4
  12              		.code	16
  13              		.file	"main.c"
  14              		.text
  15              	.Ltext0:
  16              		.cfi_sections	.debug_frame
  17              		.global	ble_state
  18              		.data
  19              		.type	ble_state, %object
  20              		.size	ble_state, 1
  21              	ble_state:
  22 0000 01       		.byte	1
  23              		.global	deviceConnected
  24              		.bss
  25              		.type	deviceConnected, %object
  26              		.size	deviceConnected, 1
  27              	deviceConnected:
  28 0000 00       		.space	1
  29              		.comm	connectPeriphDevice,7,4
  30              		.comm	periphAddress,6,4
  31              		.global	periphFound
  32              		.type	periphFound, %object
  33              		.size	periphFound, 1
  34              	periphFound:
  35 0001 00       		.space	1
  36              		.global	addedDevices
  37              		.type	addedDevices, %object
  38              		.size	addedDevices, 1
  39              	addedDevices:
  40 0002 00       		.space	1
  41              		.comm	address_store,60,4
  42              		.global	restartScanning
  43              		.type	restartScanning, %object
  44              		.size	restartScanning, 1
  45              	restartScanning:
  46 0003 00       		.space	1
  47              		.comm	list_of_devices,200,4
  48              		.comm	connectionHandle,2,4
  49              		.section	.text.Stack_Handler,"ax",%progbits
  50              		.align	2
  51              		.global	Stack_Handler
  52              		.code	16
  53              		.thumb_func
  54              		.type	Stack_Handler, %function
  55              	Stack_Handler:
  56              	.LFB37:
  57              		.file 1 "main.c"
ARM GAS  C:\Users\Sarah\AppData\Local\Temp\ccHPZEGf.s 			page 2


   1:main.c        **** /* ========================================
   2:main.c        ****  *
   3:main.c        ****  * Copyright YOUR COMPANY, THE YEAR
   4:main.c        ****  * All Rights Reserved
   5:main.c        ****  * UNPUBLISHED, LICENSED SOFTWARE.
   6:main.c        ****  *
   7:main.c        ****  * CONFIDENTIAL AND PROPRIETARY INFORMATION
   8:main.c        ****  * WHICH IS THE PROPERTY OF your company.
   9:main.c        ****  *
  10:main.c        ****  * ========================================
  11:main.c        **** */
  12:main.c        **** #include <project.h>
  13:main.c        **** 
  14:main.c        **** #define CYBLE_MAX_ADV_DEVICES        10u
  15:main.c        **** 
  16:main.c        **** /* BLE State Macros used for LED status updates*/
  17:main.c        **** #define BLE_DISCONNECTED				0x01
  18:main.c        **** #define BLE_SCANNING					0x02
  19:main.c        **** #define BLE_SERVICE_DISCOVERY			0x03
  20:main.c        **** #define BLE_CONNECTED					0x04
  21:main.c        **** 
  22:main.c        **** 
  23:main.c        **** uint8 ble_state = BLE_DISCONNECTED;
  24:main.c        **** 
  25:main.c        **** 
  26:main.c        **** uint8 deviceConnected = 0;
  27:main.c        **** 
  28:main.c        **** CYBLE_GAP_BD_ADDR_T connectPeriphDevice;
  29:main.c        **** 
  30:main.c        **** uint8 periphAddress[6];
  31:main.c        **** uint8 periphFound = 0;
  32:main.c        **** 
  33:main.c        **** uint8 addedDevices = 0;
  34:main.c        **** 
  35:main.c        **** uint8 address_store[10][6];
  36:main.c        **** 
  37:main.c        **** 
  38:main.c        **** uint8 restartScanning = 0;
  39:main.c        **** 
  40:main.c        **** 
  41:main.c        **** CYBLE_GAPC_ADV_REPORT_T 	list_of_devices[CYBLE_MAX_ADV_DEVICES];
  42:main.c        **** 
  43:main.c        **** /* BD Address Length*/
  44:main.c        **** #define ADV_ADDR_LEN				0x06
  45:main.c        **** 	
  46:main.c        **** /* Public Address indication used for Scanning */
  47:main.c        **** #define PUBLIC_ADDR_TYPE			0x00
  48:main.c        **** 	
  49:main.c        **** /* Random Address indication used for Scanning */
  50:main.c        **** #define RANDOM_ADDR_TYPE			0x01
  51:main.c        **** 
  52:main.c        **** CYBLE_CONN_HANDLE_T			connectionHandle;
  53:main.c        **** 
  54:main.c        **** void HandleScanDevices(CYBLE_GAPC_ADV_REPORT_T* scanReport);
  55:main.c        **** 
  56:main.c        **** 
  57:main.c        **** void Stack_Handler(uint32 eventCode, void* eventParam)
ARM GAS  C:\Users\Sarah\AppData\Local\Temp\ccHPZEGf.s 			page 3


  58:main.c        **** {
  58              		.loc 1 58 0
  59              		.cfi_startproc
  60 0000 90B5     		push	{r4, r7, lr}
  61              		.cfi_def_cfa_offset 12
  62              		.cfi_offset 4, -12
  63              		.cfi_offset 7, -8
  64              		.cfi_offset 14, -4
  65 0002 89B0     		sub	sp, sp, #36
  66              		.cfi_def_cfa_offset 48
  67 0004 00AF     		add	r7, sp, #0
  68              		.cfi_def_cfa_register 7
  69 0006 7860     		str	r0, [r7, #4]
  70 0008 3960     		str	r1, [r7]
  59:main.c        ****     CYBLE_API_RESULT_T 			apiResult;
  60:main.c        ****     
  61:main.c        ****     CYBLE_GAPC_ADV_REPORT_T scanReport;
  62:main.c        ****     
  63:main.c        ****     uint16 i = 0;
  71              		.loc 1 63 0
  72 000a 1E23     		mov	r3, #30
  73 000c FB18     		add	r3, r7, r3
  74 000e 0022     		mov	r2, #0
  75 0010 1A80     		strh	r2, [r3]
  64:main.c        ****     
  65:main.c        ****     switch(eventCode)
  76              		.loc 1 65 0
  77 0012 7B68     		ldr	r3, [r7, #4]
  78 0014 282B     		cmp	r3, #40
  79 0016 56D0     		beq	.L3
  80 0018 06D8     		bhi	.L4
  81 001a 202B     		cmp	r3, #32
  82 001c 25D0     		beq	.L5
  83 001e 272B     		cmp	r3, #39
  84 0020 3BD0     		beq	.L6
  85 0022 012B     		cmp	r3, #1
  86 0024 0AD0     		beq	.L7
  66:main.c        ****     {
  67:main.c        ****         case CYBLE_EVT_STACK_ON:
  68:main.c        ****             restartScanning = 1;
  69:main.c        ****         case CYBLE_EVT_GAPC_SCAN_START_STOP:
  70:main.c        ****             if (CyBle_GetState() == CYBLE_STATE_DISCONNECTED)
  71:main.c        ****             {
  72:main.c        ****                 ble_state = BLE_DISCONNECTED;
  73:main.c        ****                 if (!periphFound)
  74:main.c        ****                 {
  75:main.c        ****                     restartScanning = 1;
  76:main.c        ****                 }
  77:main.c        ****             }
  78:main.c        ****             else
  79:main.c        ****                 ble_state = BLE_SCANNING;
  80:main.c        ****             break;
  81:main.c        ****         case CYBLE_EVT_GAPC_SCAN_PROGRESS_RESULT:
  82:main.c        ****             //if (CYBLE_STATE_CONNECTED == CyBle_GetState())
  83:main.c        ****             //{
  84:main.c        ****             scanReport = *(CYBLE_GAPC_ADV_REPORT_T*) eventParam;
  85:main.c        ****             HandleScanDevices(&scanReport);
ARM GAS  C:\Users\Sarah\AppData\Local\Temp\ccHPZEGf.s 			page 4


  86:main.c        ****             //}
  87:main.c        ****             break;
  88:main.c        ****         case CYBLE_EVT_GATT_CONNECT_IND:
  89:main.c        ****             connectionHandle = *(CYBLE_CONN_HANDLE_T*)eventParam;
  90:main.c        ****             break;
  91:main.c        ****         case CYBLE_EVT_GAP_DEVICE_CONNECTED:
  92:main.c        ****             apiResult = CyBle_GattcStartDiscovery(connectionHandle);
  93:main.c        ****             ble_state = BLE_SERVICE_DISCOVERY;
  94:main.c        ****             break;
  95:main.c        ****         case CYBLE_EVT_GAP_DEVICE_DISCONNECTED:
  96:main.c        ****             for (i = 0; i < addedDevices; i++)
  97:main.c        ****             {
  98:main.c        ****                 list_of_devices[i].peerBdAddr[0] = 0;
  99:main.c        ****                 list_of_devices[i].peerBdAddr[1] = 0;
 100:main.c        ****                 list_of_devices[i].peerBdAddr[2] = 0;
 101:main.c        ****                 list_of_devices[i].peerBdAddr[3] = 0;
 102:main.c        ****                 list_of_devices[i].peerBdAddr[4] = 0;
 103:main.c        ****                 list_of_devices[i].peerBdAddr[5] = 0;
 104:main.c        ****             }
 105:main.c        ****             
 106:main.c        ****             addedDevices = 0;
 107:main.c        ****             periphFound = 0;
 108:main.c        ****             deviceConnected = 0;
 109:main.c        ****             ble_state = BLE_DISCONNECTED;
 110:main.c        ****             
 111:main.c        ****             restartScanning = 1;
 112:main.c        ****             
 113:main.c        ****             break;
 114:main.c        ****         case CYBLE_EVT_GATTC_DISCOVERY_COMPLETE:
 115:main.c        ****             deviceConnected = 1;
 116:main.c        ****             ble_state = BLE_CONNECTED;
 117:main.c        ****             break;
 118:main.c        ****             
 119:main.c        ****         default:
 120:main.c        ****             break;
  87              		.loc 1 120 0
  88 0026 C6E0     		b	.L1
  89              	.L4:
  65:main.c        ****     {
  90              		.loc 1 65 0
  91 0028 412B     		cmp	r3, #65
  92 002a 2BD0     		beq	.L8
  93 002c 1222     		mov	r2, #18
  94 002e FF32     		add	r2, r2, #255
  95 0030 9342     		cmp	r3, r2
  96 0032 00D1     		bne	.LCB39
  97 0034 B8E0     		b	.L9	@long jump
  98              	.LCB39:
  99 0036 2B2B     		cmp	r3, #43
 100 0038 03D0     		beq	.L10
 101              		.loc 1 120 0
 102 003a BCE0     		b	.L1
 103              	.L7:
  68:main.c        ****         case CYBLE_EVT_GAPC_SCAN_START_STOP:
 104              		.loc 1 68 0
 105 003c 5F4B     		ldr	r3, .L17
 106 003e 0122     		mov	r2, #1
ARM GAS  C:\Users\Sarah\AppData\Local\Temp\ccHPZEGf.s 			page 5


 107 0040 1A70     		strb	r2, [r3]
 108              	.L10:
  70:main.c        ****             {
 109              		.loc 1 70 0
 110 0042 5F4B     		ldr	r3, .L17+4
 111 0044 1B78     		ldrb	r3, [r3]
 112 0046 052B     		cmp	r3, #5
 113 0048 0AD1     		bne	.L11
  72:main.c        ****                 if (!periphFound)
 114              		.loc 1 72 0
 115 004a 5E4B     		ldr	r3, .L17+8
 116 004c 0122     		mov	r2, #1
 117 004e 1A70     		strb	r2, [r3]
  73:main.c        ****                 {
 118              		.loc 1 73 0
 119 0050 5D4B     		ldr	r3, .L17+12
 120 0052 1B78     		ldrb	r3, [r3]
 121 0054 002B     		cmp	r3, #0
 122 0056 07D1     		bne	.L13
  75:main.c        ****                 }
 123              		.loc 1 75 0
 124 0058 584B     		ldr	r3, .L17
 125 005a 0122     		mov	r2, #1
 126 005c 1A70     		strb	r2, [r3]
  80:main.c        ****         case CYBLE_EVT_GAPC_SCAN_PROGRESS_RESULT:
 127              		.loc 1 80 0
 128 005e AAE0     		b	.L1
 129              	.L11:
  79:main.c        ****             break;
 130              		.loc 1 79 0
 131 0060 584B     		ldr	r3, .L17+8
 132 0062 0222     		mov	r2, #2
 133 0064 1A70     		strb	r2, [r3]
  80:main.c        ****         case CYBLE_EVT_GAPC_SCAN_PROGRESS_RESULT:
 134              		.loc 1 80 0
 135 0066 A6E0     		b	.L1
 136              	.L13:
  80:main.c        ****         case CYBLE_EVT_GAPC_SCAN_PROGRESS_RESULT:
 137              		.loc 1 80 0 is_stmt 0 discriminator 1
 138 0068 A5E0     		b	.L1
 139              	.L5:
  84:main.c        ****             HandleScanDevices(&scanReport);
 140              		.loc 1 84 0 is_stmt 1
 141 006a 0823     		mov	r3, #8
 142 006c FB18     		add	r3, r7, r3
 143 006e 3A68     		ldr	r2, [r7]
 144 0070 13CA     		ldmia	r2!, {r0, r1, r4}
 145 0072 13C3     		stmia	r3!, {r0, r1, r4}
 146 0074 03CA     		ldmia	r2!, {r0, r1}
 147 0076 03C3     		stmia	r3!, {r0, r1}
  85:main.c        ****             //}
 148              		.loc 1 85 0
 149 0078 0823     		mov	r3, #8
 150 007a FB18     		add	r3, r7, r3
 151 007c 181C     		mov	r0, r3
 152 007e FFF7FEFF 		bl	HandleScanDevices
  87:main.c        ****         case CYBLE_EVT_GATT_CONNECT_IND:
ARM GAS  C:\Users\Sarah\AppData\Local\Temp\ccHPZEGf.s 			page 6


 153              		.loc 1 87 0
 154 0082 98E0     		b	.L1
 155              	.L8:
  89:main.c        ****             break;
 156              		.loc 1 89 0
 157 0084 514A     		ldr	r2, .L17+16
 158 0086 3B68     		ldr	r3, [r7]
 159 0088 111C     		mov	r1, r2
 160 008a 1A1C     		mov	r2, r3
 161 008c 0223     		mov	r3, #2
 162 008e 081C     		mov	r0, r1
 163 0090 111C     		mov	r1, r2
 164 0092 1A1C     		mov	r2, r3
 165 0094 FFF7FEFF 		bl	memcpy
  90:main.c        ****         case CYBLE_EVT_GAP_DEVICE_CONNECTED:
 166              		.loc 1 90 0
 167 0098 8DE0     		b	.L1
 168              	.L6:
  92:main.c        ****             ble_state = BLE_SERVICE_DISCOVERY;
 169              		.loc 1 92 0
 170 009a 1C23     		mov	r3, #28
 171 009c FC18     		add	r4, r7, r3
 172 009e 4B4B     		ldr	r3, .L17+16
 173 00a0 1A78     		ldrb	r2, [r3]
 174 00a2 5B78     		ldrb	r3, [r3, #1]
 175 00a4 1B02     		lsl	r3, r3, #8
 176 00a6 1A43     		orr	r2, r3
 177 00a8 0023     		mov	r3, #0
 178 00aa 1204     		lsl	r2, r2, #16
 179 00ac 120C     		lsr	r2, r2, #16
 180 00ae 1B0C     		lsr	r3, r3, #16
 181 00b0 1B04     		lsl	r3, r3, #16
 182 00b2 1343     		orr	r3, r2
 183 00b4 181C     		mov	r0, r3
 184 00b6 FFF7FEFF 		bl	CyBle_GattcStartDiscovery
 185 00ba 031C     		mov	r3, r0
 186 00bc 2380     		strh	r3, [r4]
  93:main.c        ****             break;
 187              		.loc 1 93 0
 188 00be 414B     		ldr	r3, .L17+8
 189 00c0 0322     		mov	r2, #3
 190 00c2 1A70     		strb	r2, [r3]
  94:main.c        ****         case CYBLE_EVT_GAP_DEVICE_DISCONNECTED:
 191              		.loc 1 94 0
 192 00c4 77E0     		b	.L1
 193              	.L3:
  96:main.c        ****             {
 194              		.loc 1 96 0
 195 00c6 1E23     		mov	r3, #30
 196 00c8 FB18     		add	r3, r7, r3
 197 00ca 0022     		mov	r2, #0
 198 00cc 1A80     		strh	r2, [r3]
 199 00ce 53E0     		b	.L15
 200              	.L16:
  98:main.c        ****                 list_of_devices[i].peerBdAddr[1] = 0;
 201              		.loc 1 98 0 discriminator 3
 202 00d0 1E23     		mov	r3, #30
ARM GAS  C:\Users\Sarah\AppData\Local\Temp\ccHPZEGf.s 			page 7


 203 00d2 FB18     		add	r3, r7, r3
 204 00d4 1A88     		ldrh	r2, [r3]
 205 00d6 3E49     		ldr	r1, .L17+20
 206 00d8 131C     		mov	r3, r2
 207 00da 9B00     		lsl	r3, r3, #2
 208 00dc 9B18     		add	r3, r3, r2
 209 00de 9B00     		lsl	r3, r3, #2
 210 00e0 CB18     		add	r3, r1, r3
 211 00e2 5B68     		ldr	r3, [r3, #4]
 212 00e4 0022     		mov	r2, #0
 213 00e6 1A70     		strb	r2, [r3]
  99:main.c        ****                 list_of_devices[i].peerBdAddr[2] = 0;
 214              		.loc 1 99 0 discriminator 3
 215 00e8 1E23     		mov	r3, #30
 216 00ea FB18     		add	r3, r7, r3
 217 00ec 1A88     		ldrh	r2, [r3]
 218 00ee 3849     		ldr	r1, .L17+20
 219 00f0 131C     		mov	r3, r2
 220 00f2 9B00     		lsl	r3, r3, #2
 221 00f4 9B18     		add	r3, r3, r2
 222 00f6 9B00     		lsl	r3, r3, #2
 223 00f8 CB18     		add	r3, r1, r3
 224 00fa 5B68     		ldr	r3, [r3, #4]
 225 00fc 0133     		add	r3, r3, #1
 226 00fe 0022     		mov	r2, #0
 227 0100 1A70     		strb	r2, [r3]
 100:main.c        ****                 list_of_devices[i].peerBdAddr[3] = 0;
 228              		.loc 1 100 0 discriminator 3
 229 0102 1E23     		mov	r3, #30
 230 0104 FB18     		add	r3, r7, r3
 231 0106 1A88     		ldrh	r2, [r3]
 232 0108 3149     		ldr	r1, .L17+20
 233 010a 131C     		mov	r3, r2
 234 010c 9B00     		lsl	r3, r3, #2
 235 010e 9B18     		add	r3, r3, r2
 236 0110 9B00     		lsl	r3, r3, #2
 237 0112 CB18     		add	r3, r1, r3
 238 0114 5B68     		ldr	r3, [r3, #4]
 239 0116 0233     		add	r3, r3, #2
 240 0118 0022     		mov	r2, #0
 241 011a 1A70     		strb	r2, [r3]
 101:main.c        ****                 list_of_devices[i].peerBdAddr[4] = 0;
 242              		.loc 1 101 0 discriminator 3
 243 011c 1E23     		mov	r3, #30
 244 011e FB18     		add	r3, r7, r3
 245 0120 1A88     		ldrh	r2, [r3]
 246 0122 2B49     		ldr	r1, .L17+20
 247 0124 131C     		mov	r3, r2
 248 0126 9B00     		lsl	r3, r3, #2
 249 0128 9B18     		add	r3, r3, r2
 250 012a 9B00     		lsl	r3, r3, #2
 251 012c CB18     		add	r3, r1, r3
 252 012e 5B68     		ldr	r3, [r3, #4]
 253 0130 0333     		add	r3, r3, #3
 254 0132 0022     		mov	r2, #0
 255 0134 1A70     		strb	r2, [r3]
 102:main.c        ****                 list_of_devices[i].peerBdAddr[5] = 0;
ARM GAS  C:\Users\Sarah\AppData\Local\Temp\ccHPZEGf.s 			page 8


 256              		.loc 1 102 0 discriminator 3
 257 0136 1E23     		mov	r3, #30
 258 0138 FB18     		add	r3, r7, r3
 259 013a 1A88     		ldrh	r2, [r3]
 260 013c 2449     		ldr	r1, .L17+20
 261 013e 131C     		mov	r3, r2
 262 0140 9B00     		lsl	r3, r3, #2
 263 0142 9B18     		add	r3, r3, r2
 264 0144 9B00     		lsl	r3, r3, #2
 265 0146 CB18     		add	r3, r1, r3
 266 0148 5B68     		ldr	r3, [r3, #4]
 267 014a 0433     		add	r3, r3, #4
 268 014c 0022     		mov	r2, #0
 269 014e 1A70     		strb	r2, [r3]
 103:main.c        ****             }
 270              		.loc 1 103 0 discriminator 3
 271 0150 1E23     		mov	r3, #30
 272 0152 FB18     		add	r3, r7, r3
 273 0154 1A88     		ldrh	r2, [r3]
 274 0156 1E49     		ldr	r1, .L17+20
 275 0158 131C     		mov	r3, r2
 276 015a 9B00     		lsl	r3, r3, #2
 277 015c 9B18     		add	r3, r3, r2
 278 015e 9B00     		lsl	r3, r3, #2
 279 0160 CB18     		add	r3, r1, r3
 280 0162 5B68     		ldr	r3, [r3, #4]
 281 0164 0533     		add	r3, r3, #5
 282 0166 0022     		mov	r2, #0
 283 0168 1A70     		strb	r2, [r3]
  96:main.c        ****             {
 284              		.loc 1 96 0 discriminator 3
 285 016a 1E23     		mov	r3, #30
 286 016c FB18     		add	r3, r7, r3
 287 016e 1A88     		ldrh	r2, [r3]
 288 0170 1E23     		mov	r3, #30
 289 0172 FB18     		add	r3, r7, r3
 290 0174 0132     		add	r2, r2, #1
 291 0176 1A80     		strh	r2, [r3]
 292              	.L15:
  96:main.c        ****             {
 293              		.loc 1 96 0 is_stmt 0 discriminator 1
 294 0178 164B     		ldr	r3, .L17+24
 295 017a 1B78     		ldrb	r3, [r3]
 296 017c 9BB2     		uxth	r3, r3
 297 017e 1E22     		mov	r2, #30
 298 0180 BA18     		add	r2, r7, r2
 299 0182 1288     		ldrh	r2, [r2]
 300 0184 9A42     		cmp	r2, r3
 301 0186 A3D3     		bcc	.L16
 106:main.c        ****             periphFound = 0;
 302              		.loc 1 106 0 is_stmt 1
 303 0188 124B     		ldr	r3, .L17+24
 304 018a 0022     		mov	r2, #0
 305 018c 1A70     		strb	r2, [r3]
 107:main.c        ****             deviceConnected = 0;
 306              		.loc 1 107 0
 307 018e 0E4B     		ldr	r3, .L17+12
ARM GAS  C:\Users\Sarah\AppData\Local\Temp\ccHPZEGf.s 			page 9


 308 0190 0022     		mov	r2, #0
 309 0192 1A70     		strb	r2, [r3]
 108:main.c        ****             ble_state = BLE_DISCONNECTED;
 310              		.loc 1 108 0
 311 0194 104B     		ldr	r3, .L17+28
 312 0196 0022     		mov	r2, #0
 313 0198 1A70     		strb	r2, [r3]
 109:main.c        ****             
 314              		.loc 1 109 0
 315 019a 0A4B     		ldr	r3, .L17+8
 316 019c 0122     		mov	r2, #1
 317 019e 1A70     		strb	r2, [r3]
 111:main.c        ****             
 318              		.loc 1 111 0
 319 01a0 064B     		ldr	r3, .L17
 320 01a2 0122     		mov	r2, #1
 321 01a4 1A70     		strb	r2, [r3]
 113:main.c        ****         case CYBLE_EVT_GATTC_DISCOVERY_COMPLETE:
 322              		.loc 1 113 0
 323 01a6 06E0     		b	.L1
 324              	.L9:
 115:main.c        ****             ble_state = BLE_CONNECTED;
 325              		.loc 1 115 0
 326 01a8 0B4B     		ldr	r3, .L17+28
 327 01aa 0122     		mov	r2, #1
 328 01ac 1A70     		strb	r2, [r3]
 116:main.c        ****             break;
 329              		.loc 1 116 0
 330 01ae 054B     		ldr	r3, .L17+8
 331 01b0 0422     		mov	r2, #4
 332 01b2 1A70     		strb	r2, [r3]
 117:main.c        ****             
 333              		.loc 1 117 0
 334 01b4 C046     		mov	r8, r8
 335              	.L1:
 121:main.c        ****     }
 122:main.c        **** 
 123:main.c        **** }
 336              		.loc 1 123 0
 337 01b6 BD46     		mov	sp, r7
 338 01b8 09B0     		add	sp, sp, #36
 339              		@ sp needed
 340 01ba 90BD     		pop	{r4, r7, pc}
 341              	.L18:
 342              		.align	2
 343              	.L17:
 344 01bc 00000000 		.word	restartScanning
 345 01c0 00000000 		.word	cyBle_state
 346 01c4 00000000 		.word	ble_state
 347 01c8 00000000 		.word	periphFound
 348 01cc 00000000 		.word	connectionHandle
 349 01d0 00000000 		.word	list_of_devices
 350 01d4 00000000 		.word	addedDevices
 351 01d8 00000000 		.word	deviceConnected
 352              		.cfi_endproc
 353              	.LFE37:
 354              		.size	Stack_Handler, .-Stack_Handler
ARM GAS  C:\Users\Sarah\AppData\Local\Temp\ccHPZEGf.s 			page 10


 355              		.section	.text.HandleScanDevices,"ax",%progbits
 356              		.align	2
 357              		.global	HandleScanDevices
 358              		.code	16
 359              		.thumb_func
 360              		.type	HandleScanDevices, %function
 361              	HandleScanDevices:
 362              	.LFB38:
 124:main.c        **** void HandleScanDevices(CYBLE_GAPC_ADV_REPORT_T* scanReport)
 125:main.c        **** {
 363              		.loc 1 125 0
 364              		.cfi_startproc
 365 0000 80B5     		push	{r7, lr}
 366              		.cfi_def_cfa_offset 8
 367              		.cfi_offset 7, -8
 368              		.cfi_offset 14, -4
 369 0002 84B0     		sub	sp, sp, #16
 370              		.cfi_def_cfa_offset 24
 371 0004 00AF     		add	r7, sp, #0
 372              		.cfi_def_cfa_register 7
 373 0006 7860     		str	r0, [r7, #4]
 126:main.c        **** 	uint16 i;
 127:main.c        **** 	uint8 newDevice = 1;
 374              		.loc 1 127 0
 375 0008 0D23     		mov	r3, #13
 376 000a FB18     		add	r3, r7, r3
 377 000c 0122     		mov	r2, #1
 378 000e 1A70     		strb	r2, [r3]
 128:main.c        **** 	
 129:main.c        **** 	if((addedDevices < CYBLE_MAX_ADV_DEVICES))
 379              		.loc 1 129 0
 380 0010 9E4B     		ldr	r3, .L27
 381 0012 1B78     		ldrb	r3, [r3]
 382 0014 092B     		cmp	r3, #9
 383 0016 00D9     		bls	.LCB303
 384 0018 35E1     		b	.L19	@long jump
 385              	.LCB303:
 130:main.c        **** 	{
 131:main.c        **** 		for(i = 0; i < addedDevices; i++)
 386              		.loc 1 131 0
 387 001a 0E23     		mov	r3, #14
 388 001c FB18     		add	r3, r7, r3
 389 001e 0022     		mov	r2, #0
 390 0020 1A80     		strh	r2, [r3]
 391 0022 31E0     		b	.L21
 392              	.L24:
 132:main.c        **** 		{
 133:main.c        **** 			/* Initialize the peerBdAddr element of our list.*/
 134:main.c        **** 			list_of_devices[i].peerBdAddr = &address_store[i][0];
 393              		.loc 1 134 0
 394 0024 0E23     		mov	r3, #14
 395 0026 FB18     		add	r3, r7, r3
 396 0028 1A88     		ldrh	r2, [r3]
 397 002a 0E23     		mov	r3, #14
 398 002c FB18     		add	r3, r7, r3
 399 002e 1988     		ldrh	r1, [r3]
 400 0030 0B1C     		mov	r3, r1
ARM GAS  C:\Users\Sarah\AppData\Local\Temp\ccHPZEGf.s 			page 11


 401 0032 5B00     		lsl	r3, r3, #1
 402 0034 5B18     		add	r3, r3, r1
 403 0036 5B00     		lsl	r3, r3, #1
 404 0038 9549     		ldr	r1, .L27+4
 405 003a 5918     		add	r1, r3, r1
 406 003c 9548     		ldr	r0, .L27+8
 407 003e 131C     		mov	r3, r2
 408 0040 9B00     		lsl	r3, r3, #2
 409 0042 9B18     		add	r3, r3, r2
 410 0044 9B00     		lsl	r3, r3, #2
 411 0046 C318     		add	r3, r0, r3
 412 0048 5960     		str	r1, [r3, #4]
 135:main.c        **** 			
 136:main.c        **** 			/* In this for loop, compare the new device address with the existing addresses in the list to 
 137:main.c        **** 				determine if the address is new or not. If the address exists in the list, then the device 
 138:main.c        **** 				is not new.*/
 139:main.c        **** 			if(0 == memcmp(list_of_devices[i].peerBdAddr, scanReport->peerBdAddr, ADV_ADDR_LEN))
 413              		.loc 1 139 0
 414 004a 0E23     		mov	r3, #14
 415 004c FB18     		add	r3, r7, r3
 416 004e 1A88     		ldrh	r2, [r3]
 417 0050 9049     		ldr	r1, .L27+8
 418 0052 131C     		mov	r3, r2
 419 0054 9B00     		lsl	r3, r3, #2
 420 0056 9B18     		add	r3, r3, r2
 421 0058 9B00     		lsl	r3, r3, #2
 422 005a CB18     		add	r3, r1, r3
 423 005c 5A68     		ldr	r2, [r3, #4]
 424 005e 7B68     		ldr	r3, [r7, #4]
 425 0060 5B68     		ldr	r3, [r3, #4]
 426 0062 101C     		mov	r0, r2
 427 0064 191C     		mov	r1, r3
 428 0066 0622     		mov	r2, #6
 429 0068 FFF7FEFF 		bl	memcmp
 430 006c 031E     		sub	r3, r0, #0
 431 006e 04D1     		bne	.L22
 140:main.c        **** 			{
 141:main.c        **** 				newDevice = 0;
 432              		.loc 1 141 0
 433 0070 0D23     		mov	r3, #13
 434 0072 FB18     		add	r3, r7, r3
 435 0074 0022     		mov	r2, #0
 436 0076 1A70     		strb	r2, [r3]
 142:main.c        **** 				break;
 437              		.loc 1 142 0
 438 0078 0EE0     		b	.L23
 439              	.L22:
 131:main.c        **** 		{
 440              		.loc 1 131 0 discriminator 2
 441 007a 0E23     		mov	r3, #14
 442 007c FB18     		add	r3, r7, r3
 443 007e 1A88     		ldrh	r2, [r3]
 444 0080 0E23     		mov	r3, #14
 445 0082 FB18     		add	r3, r7, r3
 446 0084 0132     		add	r2, r2, #1
 447 0086 1A80     		strh	r2, [r3]
 448              	.L21:
ARM GAS  C:\Users\Sarah\AppData\Local\Temp\ccHPZEGf.s 			page 12


 131:main.c        **** 		{
 449              		.loc 1 131 0 is_stmt 0 discriminator 1
 450 0088 804B     		ldr	r3, .L27
 451 008a 1B78     		ldrb	r3, [r3]
 452 008c 9BB2     		uxth	r3, r3
 453 008e 0E22     		mov	r2, #14
 454 0090 BA18     		add	r2, r7, r2
 455 0092 1288     		ldrh	r2, [r2]
 456 0094 9A42     		cmp	r2, r3
 457 0096 C5D3     		bcc	.L24
 458              	.L23:
 143:main.c        **** 			}
 144:main.c        **** 		}
 145:main.c        **** 		
 146:main.c        **** 		if(newDevice)
 459              		.loc 1 146 0 is_stmt 1
 460 0098 0D23     		mov	r3, #13
 461 009a FB18     		add	r3, r7, r3
 462 009c 1B78     		ldrb	r3, [r3]
 463 009e 002B     		cmp	r3, #0
 464 00a0 00D1     		bne	.LCB380
 465 00a2 ECE0     		b	.L25	@long jump
 466              	.LCB380:
 147:main.c        **** 		{
 148:main.c        **** 			/* If the device address is new, then add the device to our existing list and compare the addres
 149:main.c        **** 				with our expected address to see if the desired peripheral is advertising or not.*/
 150:main.c        **** 			
 151:main.c        **** 			list_of_devices[addedDevices].peerBdAddr = &address_store[addedDevices][0];
 467              		.loc 1 151 0
 468 00a4 794B     		ldr	r3, .L27
 469 00a6 1B78     		ldrb	r3, [r3]
 470 00a8 181C     		mov	r0, r3
 471 00aa 784B     		ldr	r3, .L27
 472 00ac 1B78     		ldrb	r3, [r3]
 473 00ae 1A1C     		mov	r2, r3
 474 00b0 131C     		mov	r3, r2
 475 00b2 5B00     		lsl	r3, r3, #1
 476 00b4 9B18     		add	r3, r3, r2
 477 00b6 5B00     		lsl	r3, r3, #1
 478 00b8 754A     		ldr	r2, .L27+4
 479 00ba 9A18     		add	r2, r3, r2
 480 00bc 7549     		ldr	r1, .L27+8
 481 00be 031C     		mov	r3, r0
 482 00c0 9B00     		lsl	r3, r3, #2
 483 00c2 1B18     		add	r3, r3, r0
 484 00c4 9B00     		lsl	r3, r3, #2
 485 00c6 CB18     		add	r3, r1, r3
 486 00c8 5A60     		str	r2, [r3, #4]
 152:main.c        **** 			
 153:main.c        **** 			/* Store the data*/
 154:main.c        **** 			list_of_devices[addedDevices].dataLen = scanReport->dataLen;
 487              		.loc 1 154 0
 488 00ca 704B     		ldr	r3, .L27
 489 00cc 1B78     		ldrb	r3, [r3]
 490 00ce 191C     		mov	r1, r3
 491 00d0 7B68     		ldr	r3, [r7, #4]
 492 00d2 187A     		ldrb	r0, [r3, #8]
ARM GAS  C:\Users\Sarah\AppData\Local\Temp\ccHPZEGf.s 			page 13


 493 00d4 6F4A     		ldr	r2, .L27+8
 494 00d6 0B1C     		mov	r3, r1
 495 00d8 9B00     		lsl	r3, r3, #2
 496 00da 5B18     		add	r3, r3, r1
 497 00dc 9B00     		lsl	r3, r3, #2
 498 00de D318     		add	r3, r2, r3
 499 00e0 0833     		add	r3, r3, #8
 500 00e2 021C     		add	r2, r0, #0
 501 00e4 1A70     		strb	r2, [r3]
 155:main.c        **** 			
 156:main.c        **** 			list_of_devices[addedDevices].data = scanReport->data;
 502              		.loc 1 156 0
 503 00e6 694B     		ldr	r3, .L27
 504 00e8 1B78     		ldrb	r3, [r3]
 505 00ea 181C     		mov	r0, r3
 506 00ec 7B68     		ldr	r3, [r7, #4]
 507 00ee DA68     		ldr	r2, [r3, #12]
 508 00f0 6849     		ldr	r1, .L27+8
 509 00f2 031C     		mov	r3, r0
 510 00f4 9B00     		lsl	r3, r3, #2
 511 00f6 1B18     		add	r3, r3, r0
 512 00f8 9B00     		lsl	r3, r3, #2
 513 00fa CB18     		add	r3, r1, r3
 514 00fc 0833     		add	r3, r3, #8
 515 00fe 5A60     		str	r2, [r3, #4]
 157:main.c        **** 			
 158:main.c        **** 			list_of_devices[addedDevices].eventType = scanReport->eventType;
 516              		.loc 1 158 0
 517 0100 624B     		ldr	r3, .L27
 518 0102 1B78     		ldrb	r3, [r3]
 519 0104 191C     		mov	r1, r3
 520 0106 7B68     		ldr	r3, [r7, #4]
 521 0108 1878     		ldrb	r0, [r3]
 522 010a 624A     		ldr	r2, .L27+8
 523 010c 0B1C     		mov	r3, r1
 524 010e 9B00     		lsl	r3, r3, #2
 525 0110 5B18     		add	r3, r3, r1
 526 0112 9B00     		lsl	r3, r3, #2
 527 0114 011C     		add	r1, r0, #0
 528 0116 9954     		strb	r1, [r3, r2]
 159:main.c        **** 			/* Record the address type, Public or Random, of the advertising peripheral.*/
 160:main.c        **** 			list_of_devices[addedDevices].peerAddrType = scanReport->peerAddrType;
 529              		.loc 1 160 0
 530 0118 5C4B     		ldr	r3, .L27
 531 011a 1B78     		ldrb	r3, [r3]
 532 011c 191C     		mov	r1, r3
 533 011e 7B68     		ldr	r3, [r7, #4]
 534 0120 5878     		ldrb	r0, [r3, #1]
 535 0122 5C4A     		ldr	r2, .L27+8
 536 0124 0B1C     		mov	r3, r1
 537 0126 9B00     		lsl	r3, r3, #2
 538 0128 5B18     		add	r3, r3, r1
 539 012a 9B00     		lsl	r3, r3, #2
 540 012c D318     		add	r3, r2, r3
 541 012e 021C     		add	r2, r0, #0
 542 0130 5A70     		strb	r2, [r3, #1]
 161:main.c        **** 			
ARM GAS  C:\Users\Sarah\AppData\Local\Temp\ccHPZEGf.s 			page 14


 162:main.c        **** 			/* Save the BD addresses */
 163:main.c        **** 			list_of_devices[addedDevices].peerBdAddr[0] = scanReport->peerBdAddr[0];
 543              		.loc 1 163 0
 544 0132 564B     		ldr	r3, .L27
 545 0134 1B78     		ldrb	r3, [r3]
 546 0136 191C     		mov	r1, r3
 547 0138 564A     		ldr	r2, .L27+8
 548 013a 0B1C     		mov	r3, r1
 549 013c 9B00     		lsl	r3, r3, #2
 550 013e 5B18     		add	r3, r3, r1
 551 0140 9B00     		lsl	r3, r3, #2
 552 0142 D318     		add	r3, r2, r3
 553 0144 5A68     		ldr	r2, [r3, #4]
 554 0146 7B68     		ldr	r3, [r7, #4]
 555 0148 5B68     		ldr	r3, [r3, #4]
 556 014a 1B78     		ldrb	r3, [r3]
 557 014c 1370     		strb	r3, [r2]
 164:main.c        **** 			list_of_devices[addedDevices].peerBdAddr[1] = scanReport->peerBdAddr[1];
 558              		.loc 1 164 0
 559 014e 4F4B     		ldr	r3, .L27
 560 0150 1B78     		ldrb	r3, [r3]
 561 0152 191C     		mov	r1, r3
 562 0154 4F4A     		ldr	r2, .L27+8
 563 0156 0B1C     		mov	r3, r1
 564 0158 9B00     		lsl	r3, r3, #2
 565 015a 5B18     		add	r3, r3, r1
 566 015c 9B00     		lsl	r3, r3, #2
 567 015e D318     		add	r3, r2, r3
 568 0160 5B68     		ldr	r3, [r3, #4]
 569 0162 5A1C     		add	r2, r3, #1
 570 0164 7B68     		ldr	r3, [r7, #4]
 571 0166 5B68     		ldr	r3, [r3, #4]
 572 0168 5B78     		ldrb	r3, [r3, #1]
 573 016a 1370     		strb	r3, [r2]
 165:main.c        **** 			list_of_devices[addedDevices].peerBdAddr[2] = scanReport->peerBdAddr[2];
 574              		.loc 1 165 0
 575 016c 474B     		ldr	r3, .L27
 576 016e 1B78     		ldrb	r3, [r3]
 577 0170 191C     		mov	r1, r3
 578 0172 484A     		ldr	r2, .L27+8
 579 0174 0B1C     		mov	r3, r1
 580 0176 9B00     		lsl	r3, r3, #2
 581 0178 5B18     		add	r3, r3, r1
 582 017a 9B00     		lsl	r3, r3, #2
 583 017c D318     		add	r3, r2, r3
 584 017e 5B68     		ldr	r3, [r3, #4]
 585 0180 9A1C     		add	r2, r3, #2
 586 0182 7B68     		ldr	r3, [r7, #4]
 587 0184 5B68     		ldr	r3, [r3, #4]
 588 0186 9B78     		ldrb	r3, [r3, #2]
 589 0188 1370     		strb	r3, [r2]
 166:main.c        **** 			list_of_devices[addedDevices].peerBdAddr[3] = scanReport->peerBdAddr[3];
 590              		.loc 1 166 0
 591 018a 404B     		ldr	r3, .L27
 592 018c 1B78     		ldrb	r3, [r3]
 593 018e 191C     		mov	r1, r3
 594 0190 404A     		ldr	r2, .L27+8
ARM GAS  C:\Users\Sarah\AppData\Local\Temp\ccHPZEGf.s 			page 15


 595 0192 0B1C     		mov	r3, r1
 596 0194 9B00     		lsl	r3, r3, #2
 597 0196 5B18     		add	r3, r3, r1
 598 0198 9B00     		lsl	r3, r3, #2
 599 019a D318     		add	r3, r2, r3
 600 019c 5B68     		ldr	r3, [r3, #4]
 601 019e DA1C     		add	r2, r3, #3
 602 01a0 7B68     		ldr	r3, [r7, #4]
 603 01a2 5B68     		ldr	r3, [r3, #4]
 604 01a4 DB78     		ldrb	r3, [r3, #3]
 605 01a6 1370     		strb	r3, [r2]
 167:main.c        **** 			list_of_devices[addedDevices].peerBdAddr[4] = scanReport->peerBdAddr[4];
 606              		.loc 1 167 0
 607 01a8 384B     		ldr	r3, .L27
 608 01aa 1B78     		ldrb	r3, [r3]
 609 01ac 191C     		mov	r1, r3
 610 01ae 394A     		ldr	r2, .L27+8
 611 01b0 0B1C     		mov	r3, r1
 612 01b2 9B00     		lsl	r3, r3, #2
 613 01b4 5B18     		add	r3, r3, r1
 614 01b6 9B00     		lsl	r3, r3, #2
 615 01b8 D318     		add	r3, r2, r3
 616 01ba 5B68     		ldr	r3, [r3, #4]
 617 01bc 1A1D     		add	r2, r3, #4
 618 01be 7B68     		ldr	r3, [r7, #4]
 619 01c0 5B68     		ldr	r3, [r3, #4]
 620 01c2 1B79     		ldrb	r3, [r3, #4]
 621 01c4 1370     		strb	r3, [r2]
 168:main.c        **** 			list_of_devices[addedDevices].peerBdAddr[5] = scanReport->peerBdAddr[5];
 622              		.loc 1 168 0
 623 01c6 314B     		ldr	r3, .L27
 624 01c8 1B78     		ldrb	r3, [r3]
 625 01ca 191C     		mov	r1, r3
 626 01cc 314A     		ldr	r2, .L27+8
 627 01ce 0B1C     		mov	r3, r1
 628 01d0 9B00     		lsl	r3, r3, #2
 629 01d2 5B18     		add	r3, r3, r1
 630 01d4 9B00     		lsl	r3, r3, #2
 631 01d6 D318     		add	r3, r2, r3
 632 01d8 5B68     		ldr	r3, [r3, #4]
 633 01da 5A1D     		add	r2, r3, #5
 634 01dc 7B68     		ldr	r3, [r7, #4]
 635 01de 5B68     		ldr	r3, [r3, #4]
 636 01e0 5B79     		ldrb	r3, [r3, #5]
 637 01e2 1370     		strb	r3, [r2]
 169:main.c        **** 			
 170:main.c        **** 			list_of_devices[addedDevices].rssi = scanReport->rssi;
 638              		.loc 1 170 0
 639 01e4 294B     		ldr	r3, .L27
 640 01e6 1B78     		ldrb	r3, [r3]
 641 01e8 191C     		mov	r1, r3
 642 01ea 7B68     		ldr	r3, [r7, #4]
 643 01ec 187C     		ldrb	r0, [r3, #16]
 644 01ee 294A     		ldr	r2, .L27+8
 645 01f0 0B1C     		mov	r3, r1
 646 01f2 9B00     		lsl	r3, r3, #2
 647 01f4 5B18     		add	r3, r3, r1
ARM GAS  C:\Users\Sarah\AppData\Local\Temp\ccHPZEGf.s 			page 16


 648 01f6 9B00     		lsl	r3, r3, #2
 649 01f8 D318     		add	r3, r2, r3
 650 01fa 1033     		add	r3, r3, #16
 651 01fc 021C     		add	r2, r0, #0
 652 01fe 1A70     		strb	r2, [r3]
 171:main.c        **** 			
 172:main.c        **** 			/* If the new BD address found matches the desired BD address, the Dongle has been found*/
 173:main.c        **** 			if(0 == memcmp(periphAddress, scanReport->peerBdAddr, ADV_ADDR_LEN))
 653              		.loc 1 173 0
 654 0200 7B68     		ldr	r3, [r7, #4]
 655 0202 5B68     		ldr	r3, [r3, #4]
 656 0204 244A     		ldr	r2, .L27+12
 657 0206 101C     		mov	r0, r2
 658 0208 191C     		mov	r1, r3
 659 020a 0622     		mov	r2, #6
 660 020c FFF7FEFF 		bl	memcmp
 661 0210 031E     		sub	r3, r0, #0
 662 0212 2ED1     		bne	.L26
 174:main.c        **** 			{
 175:main.c        **** 				/* Save the connected device BD Address and Type*/
 176:main.c        **** 				connectPeriphDevice.bdAddr[0] = scanReport->peerBdAddr[0];
 663              		.loc 1 176 0
 664 0214 7B68     		ldr	r3, [r7, #4]
 665 0216 5B68     		ldr	r3, [r3, #4]
 666 0218 1A78     		ldrb	r2, [r3]
 667 021a 204B     		ldr	r3, .L27+16
 668 021c 1A70     		strb	r2, [r3]
 177:main.c        **** 				connectPeriphDevice.bdAddr[1] = scanReport->peerBdAddr[1];
 669              		.loc 1 177 0
 670 021e 7B68     		ldr	r3, [r7, #4]
 671 0220 5B68     		ldr	r3, [r3, #4]
 672 0222 5A78     		ldrb	r2, [r3, #1]
 673 0224 1D4B     		ldr	r3, .L27+16
 674 0226 5A70     		strb	r2, [r3, #1]
 178:main.c        **** 				connectPeriphDevice.bdAddr[2] = scanReport->peerBdAddr[2];
 675              		.loc 1 178 0
 676 0228 7B68     		ldr	r3, [r7, #4]
 677 022a 5B68     		ldr	r3, [r3, #4]
 678 022c 9A78     		ldrb	r2, [r3, #2]
 679 022e 1B4B     		ldr	r3, .L27+16
 680 0230 9A70     		strb	r2, [r3, #2]
 179:main.c        **** 				connectPeriphDevice.bdAddr[3] = scanReport->peerBdAddr[3];
 681              		.loc 1 179 0
 682 0232 7B68     		ldr	r3, [r7, #4]
 683 0234 5B68     		ldr	r3, [r3, #4]
 684 0236 DA78     		ldrb	r2, [r3, #3]
 685 0238 184B     		ldr	r3, .L27+16
 686 023a DA70     		strb	r2, [r3, #3]
 180:main.c        **** 				connectPeriphDevice.bdAddr[4] = scanReport->peerBdAddr[4];
 687              		.loc 1 180 0
 688 023c 7B68     		ldr	r3, [r7, #4]
 689 023e 5B68     		ldr	r3, [r3, #4]
 690 0240 1A79     		ldrb	r2, [r3, #4]
 691 0242 164B     		ldr	r3, .L27+16
 692 0244 1A71     		strb	r2, [r3, #4]
 181:main.c        **** 				connectPeriphDevice.bdAddr[5] = scanReport->peerBdAddr[5];
 693              		.loc 1 181 0
ARM GAS  C:\Users\Sarah\AppData\Local\Temp\ccHPZEGf.s 			page 17


 694 0246 7B68     		ldr	r3, [r7, #4]
 695 0248 5B68     		ldr	r3, [r3, #4]
 696 024a 5A79     		ldrb	r2, [r3, #5]
 697 024c 134B     		ldr	r3, .L27+16
 698 024e 5A71     		strb	r2, [r3, #5]
 182:main.c        **** 				
 183:main.c        **** 				connectPeriphDevice.type = list_of_devices[addedDevices].peerAddrType;
 699              		.loc 1 183 0
 700 0250 0E4B     		ldr	r3, .L27
 701 0252 1B78     		ldrb	r3, [r3]
 702 0254 191C     		mov	r1, r3
 703 0256 0F4A     		ldr	r2, .L27+8
 704 0258 0B1C     		mov	r3, r1
 705 025a 9B00     		lsl	r3, r3, #2
 706 025c 5B18     		add	r3, r3, r1
 707 025e 9B00     		lsl	r3, r3, #2
 708 0260 D318     		add	r3, r2, r3
 709 0262 5A78     		ldrb	r2, [r3, #1]
 710 0264 0D4B     		ldr	r3, .L27+16
 711 0266 9A71     		strb	r2, [r3, #6]
 184:main.c        **** 					
 185:main.c        **** 				/* Set the flag to notify application of a connected peripheral device */
 186:main.c        **** 				periphFound = 1;	
 712              		.loc 1 186 0
 713 0268 0D4B     		ldr	r3, .L27+20
 714 026a 0122     		mov	r2, #1
 715 026c 1A70     		strb	r2, [r3]
 187:main.c        **** 				
 188:main.c        **** 				/* Stop existing BLE Scan */
 189:main.c        **** 				CyBle_GapcStopScan();
 716              		.loc 1 189 0
 717 026e FFF7FEFF 		bl	CyBle_GapcStopScan
 718              	.L26:
 190:main.c        **** 			}
 191:main.c        **** 			
 192:main.c        **** 			addedDevices++;
 719              		.loc 1 192 0
 720 0272 064B     		ldr	r3, .L27
 721 0274 1B78     		ldrb	r3, [r3]
 722 0276 0133     		add	r3, r3, #1
 723 0278 DAB2     		uxtb	r2, r3
 724 027a 044B     		ldr	r3, .L27
 725 027c 1A70     		strb	r2, [r3]
 726              	.L25:
 193:main.c        **** 		}
 194:main.c        **** 		
 195:main.c        **** 		newDevice = 1;
 727              		.loc 1 195 0
 728 027e 0D23     		mov	r3, #13
 729 0280 FB18     		add	r3, r7, r3
 730 0282 0122     		mov	r2, #1
 731 0284 1A70     		strb	r2, [r3]
 732              	.L19:
 196:main.c        **** 	}
 197:main.c        **** }
 733              		.loc 1 197 0
 734 0286 BD46     		mov	sp, r7
ARM GAS  C:\Users\Sarah\AppData\Local\Temp\ccHPZEGf.s 			page 18


 735 0288 04B0     		add	sp, sp, #16
 736              		@ sp needed
 737 028a 80BD     		pop	{r7, pc}
 738              	.L28:
 739              		.align	2
 740              	.L27:
 741 028c 00000000 		.word	addedDevices
 742 0290 00000000 		.word	address_store
 743 0294 00000000 		.word	list_of_devices
 744 0298 00000000 		.word	periphAddress
 745 029c 00000000 		.word	connectPeriphDevice
 746 02a0 00000000 		.word	periphFound
 747              		.cfi_endproc
 748              	.LFE38:
 749              		.size	HandleScanDevices, .-HandleScanDevices
 750              		.section	.text.main,"ax",%progbits
 751              		.align	2
 752              		.global	main
 753              		.code	16
 754              		.thumb_func
 755              		.type	main, %function
 756              	main:
 757              	.LFB39:
 198:main.c        **** int main()
 199:main.c        **** {
 758              		.loc 1 199 0
 759              		.cfi_startproc
 760 0000 80B5     		push	{r7, lr}
 761              		.cfi_def_cfa_offset 8
 762              		.cfi_offset 7, -8
 763              		.cfi_offset 14, -4
 764 0002 00AF     		add	r7, sp, #0
 765              		.cfi_def_cfa_register 7
 200:main.c        ****     /* Place your initialization/startup code here (e.g. MyInst_Start()) */
 201:main.c        **** 
 202:main.c        ****     CyGlobalIntEnable; /* Uncomment this line to enable global interrupts. */
 766              		.loc 1 202 0
 767              	@ 202 "main.c" 1
 768 0004 62B6     		CPSIE   i
 769              	@ 0 "" 2
 203:main.c        ****     
 204:main.c        ****     CyBle_Start(Stack_Handler);
 770              		.loc 1 204 0
 771              		.code	16
 772 0006 184B     		ldr	r3, .L33
 773 0008 181C     		mov	r0, r3
 774 000a FFF7FEFF 		bl	CyBle_Start
 205:main.c        ****     //periphAddress = 0x00A050CC2313
 206:main.c        ****     periphAddress[5] = 0x00;
 775              		.loc 1 206 0
 776 000e 174B     		ldr	r3, .L33+4
 777 0010 0022     		mov	r2, #0
 778 0012 5A71     		strb	r2, [r3, #5]
 207:main.c        ****     periphAddress[4] = 0xA0;
 779              		.loc 1 207 0
 780 0014 154B     		ldr	r3, .L33+4
 781 0016 A022     		mov	r2, #160
ARM GAS  C:\Users\Sarah\AppData\Local\Temp\ccHPZEGf.s 			page 19


 782 0018 1A71     		strb	r2, [r3, #4]
 208:main.c        ****     periphAddress[3] = 0x50;
 783              		.loc 1 208 0
 784 001a 144B     		ldr	r3, .L33+4
 785 001c 5022     		mov	r2, #80
 786 001e DA70     		strb	r2, [r3, #3]
 209:main.c        ****     periphAddress[2] = 0xCC;
 787              		.loc 1 209 0
 788 0020 124B     		ldr	r3, .L33+4
 789 0022 CC22     		mov	r2, #204
 790 0024 9A70     		strb	r2, [r3, #2]
 210:main.c        ****     periphAddress[1] = 0x23;
 791              		.loc 1 210 0
 792 0026 114B     		ldr	r3, .L33+4
 793 0028 2322     		mov	r2, #35
 794 002a 5A70     		strb	r2, [r3, #1]
 211:main.c        ****     periphAddress[0] = 0x13;
 795              		.loc 1 211 0
 796 002c 0F4B     		ldr	r3, .L33+4
 797 002e 1322     		mov	r2, #19
 798 0030 1A70     		strb	r2, [r3]
 799              	.L32:
 212:main.c        ****     
 213:main.c        ****     
 214:main.c        ****     for(;;)
 215:main.c        ****     {
 216:main.c        ****         /* Place your application code here. */
 217:main.c        ****         CyBle_ProcessEvents();
 800              		.loc 1 217 0
 801 0032 FFF7FEFF 		bl	CyBle_ProcessEvents
 218:main.c        ****         if (periphFound)
 802              		.loc 1 218 0
 803 0036 0E4B     		ldr	r3, .L33+8
 804 0038 1B78     		ldrb	r3, [r3]
 805 003a 002B     		cmp	r3, #0
 806 003c 08D0     		beq	.L30
 219:main.c        ****         {
 220:main.c        ****             CyBle_GapcConnectDevice(&connectPeriphDevice);
 807              		.loc 1 220 0
 808 003e 0D4B     		ldr	r3, .L33+12
 809 0040 181C     		mov	r0, r3
 810 0042 FFF7FEFF 		bl	CyBle_GapcConnectDevice
 221:main.c        ****             
 222:main.c        ****             CyBle_ProcessEvents();
 811              		.loc 1 222 0
 812 0046 FFF7FEFF 		bl	CyBle_ProcessEvents
 223:main.c        ****             periphFound = 0;
 813              		.loc 1 223 0
 814 004a 094B     		ldr	r3, .L33+8
 815 004c 0022     		mov	r2, #0
 816 004e 1A70     		strb	r2, [r3]
 817              	.L30:
 224:main.c        ****         }
 225:main.c        ****         if (deviceConnected)
 226:main.c        ****         {
 227:main.c        ****             
 228:main.c        ****         }
ARM GAS  C:\Users\Sarah\AppData\Local\Temp\ccHPZEGf.s 			page 20


 229:main.c        ****         if (restartScanning)
 818              		.loc 1 229 0
 819 0050 094B     		ldr	r3, .L33+16
 820 0052 1B78     		ldrb	r3, [r3]
 821 0054 002B     		cmp	r3, #0
 822 0056 05D0     		beq	.L31
 230:main.c        ****         {
 231:main.c        ****             restartScanning = 0;
 823              		.loc 1 231 0
 824 0058 074B     		ldr	r3, .L33+16
 825 005a 0022     		mov	r2, #0
 826 005c 1A70     		strb	r2, [r3]
 232:main.c        ****             
 233:main.c        ****             CyBle_GapcStartScan(CYBLE_SCANNING_FAST);
 827              		.loc 1 233 0
 828 005e 0020     		mov	r0, #0
 829 0060 FFF7FEFF 		bl	CyBle_GapcStartScan
 830              	.L31:
 234:main.c        ****         }
 235:main.c        ****     }
 831              		.loc 1 235 0
 832 0064 E5E7     		b	.L32
 833              	.L34:
 834 0066 C046     		.align	2
 835              	.L33:
 836 0068 00000000 		.word	Stack_Handler
 837 006c 00000000 		.word	periphAddress
 838 0070 00000000 		.word	periphFound
 839 0074 00000000 		.word	connectPeriphDevice
 840 0078 00000000 		.word	restartScanning
 841              		.cfi_endproc
 842              	.LFE39:
 843              		.size	main, .-main
 844              		.text
 845              	.Letext0:
 846              		.file 2 "Generated_Source\\PSoC4/cytypes.h"
 847              		.file 3 "Generated_Source\\PSoC4/BLE_1_Stack.h"
 848              		.file 4 "Generated_Source\\PSoC4/BLE_1_StackGap.h"
 849              		.file 5 "Generated_Source\\PSoC4/BLE_1_StackGatt.h"
 850              		.file 6 "Generated_Source\\PSoC4/BLE_1_eventHandler.h"