ARM GAS  C:\Users\Sarah\AppData\Local\Temp\cczbChtB.s 			page 1


   1              		.cpu cortex-m0
   2              		.fpu softvfp
   3              		.eabi_attribute 20, 1
   4              		.eabi_attribute 21, 1
   5              		.eabi_attribute 23, 3
   6              		.eabi_attribute 24, 1
   7              		.eabi_attribute 25, 1
   8              		.eabi_attribute 26, 1
   9              		.eabi_attribute 30, 6
  10              		.eabi_attribute 34, 0
  11              		.eabi_attribute 18, 4
  12              		.code	16
  13              		.file	"SCB_1_SPI.c"
  14              		.text
  15              	.Ltext0:
  16              		.cfi_sections	.debug_frame
  17              		.section	.text.SCB_1_SpiInit,"ax",%progbits
  18              		.align	2
  19              		.global	SCB_1_SpiInit
  20              		.code	16
  21              		.thumb_func
  22              		.type	SCB_1_SpiInit, %function
  23              	SCB_1_SpiInit:
  24              	.LFB2:
  25              		.file 1 "Generated_Source\\PSoC4\\SCB_1_SPI.c"
   1:Generated_Source\PSoC4/SCB_1_SPI.c **** /***************************************************************************//**
   2:Generated_Source\PSoC4/SCB_1_SPI.c **** * \file SCB_1_SPI.c
   3:Generated_Source\PSoC4/SCB_1_SPI.c **** * \version 3.20
   4:Generated_Source\PSoC4/SCB_1_SPI.c **** *
   5:Generated_Source\PSoC4/SCB_1_SPI.c **** * \brief
   6:Generated_Source\PSoC4/SCB_1_SPI.c **** *  This file provides the source code to the API for the SCB Component in
   7:Generated_Source\PSoC4/SCB_1_SPI.c **** *  SPI mode.
   8:Generated_Source\PSoC4/SCB_1_SPI.c **** *
   9:Generated_Source\PSoC4/SCB_1_SPI.c **** * Note:
  10:Generated_Source\PSoC4/SCB_1_SPI.c **** *
  11:Generated_Source\PSoC4/SCB_1_SPI.c **** *******************************************************************************
  12:Generated_Source\PSoC4/SCB_1_SPI.c **** * \copyright
  13:Generated_Source\PSoC4/SCB_1_SPI.c **** * Copyright 2013-2016, Cypress Semiconductor Corporation.  All rights reserved.
  14:Generated_Source\PSoC4/SCB_1_SPI.c **** * You may use this file only in accordance with the license, terms, conditions,
  15:Generated_Source\PSoC4/SCB_1_SPI.c **** * disclaimers, and limitations in the end user license agreement accompanying
  16:Generated_Source\PSoC4/SCB_1_SPI.c **** * the software package with which this file was provided.
  17:Generated_Source\PSoC4/SCB_1_SPI.c **** *******************************************************************************/
  18:Generated_Source\PSoC4/SCB_1_SPI.c **** 
  19:Generated_Source\PSoC4/SCB_1_SPI.c **** #include "SCB_1_PVT.h"
  20:Generated_Source\PSoC4/SCB_1_SPI.c **** #include "SCB_1_SPI_UART_PVT.h"
  21:Generated_Source\PSoC4/SCB_1_SPI.c **** 
  22:Generated_Source\PSoC4/SCB_1_SPI.c **** #if(SCB_1_SCB_MODE_UNCONFIG_CONST_CFG)
  23:Generated_Source\PSoC4/SCB_1_SPI.c **** 
  24:Generated_Source\PSoC4/SCB_1_SPI.c ****     /***************************************
  25:Generated_Source\PSoC4/SCB_1_SPI.c ****     *  Configuration Structure Initialization
  26:Generated_Source\PSoC4/SCB_1_SPI.c ****     ***************************************/
  27:Generated_Source\PSoC4/SCB_1_SPI.c **** 
  28:Generated_Source\PSoC4/SCB_1_SPI.c ****     const SCB_1_SPI_INIT_STRUCT SCB_1_configSpi =
  29:Generated_Source\PSoC4/SCB_1_SPI.c ****     {
  30:Generated_Source\PSoC4/SCB_1_SPI.c ****         SCB_1_SPI_MODE,
  31:Generated_Source\PSoC4/SCB_1_SPI.c ****         SCB_1_SPI_SUB_MODE,
  32:Generated_Source\PSoC4/SCB_1_SPI.c ****         SCB_1_SPI_CLOCK_MODE,
ARM GAS  C:\Users\Sarah\AppData\Local\Temp\cczbChtB.s 			page 2


  33:Generated_Source\PSoC4/SCB_1_SPI.c ****         SCB_1_SPI_OVS_FACTOR,
  34:Generated_Source\PSoC4/SCB_1_SPI.c ****         SCB_1_SPI_MEDIAN_FILTER_ENABLE,
  35:Generated_Source\PSoC4/SCB_1_SPI.c ****         SCB_1_SPI_LATE_MISO_SAMPLE_ENABLE,
  36:Generated_Source\PSoC4/SCB_1_SPI.c ****         SCB_1_SPI_WAKE_ENABLE,
  37:Generated_Source\PSoC4/SCB_1_SPI.c ****         SCB_1_SPI_RX_DATA_BITS_NUM,
  38:Generated_Source\PSoC4/SCB_1_SPI.c ****         SCB_1_SPI_TX_DATA_BITS_NUM,
  39:Generated_Source\PSoC4/SCB_1_SPI.c ****         SCB_1_SPI_BITS_ORDER,
  40:Generated_Source\PSoC4/SCB_1_SPI.c ****         SCB_1_SPI_TRANSFER_SEPARATION,
  41:Generated_Source\PSoC4/SCB_1_SPI.c ****         0u,
  42:Generated_Source\PSoC4/SCB_1_SPI.c ****         NULL,
  43:Generated_Source\PSoC4/SCB_1_SPI.c ****         0u,
  44:Generated_Source\PSoC4/SCB_1_SPI.c ****         NULL,
  45:Generated_Source\PSoC4/SCB_1_SPI.c ****         (uint32) SCB_1_SCB_IRQ_INTERNAL,
  46:Generated_Source\PSoC4/SCB_1_SPI.c ****         SCB_1_SPI_INTR_RX_MASK,
  47:Generated_Source\PSoC4/SCB_1_SPI.c ****         SCB_1_SPI_RX_TRIGGER_LEVEL,
  48:Generated_Source\PSoC4/SCB_1_SPI.c ****         SCB_1_SPI_INTR_TX_MASK,
  49:Generated_Source\PSoC4/SCB_1_SPI.c ****         SCB_1_SPI_TX_TRIGGER_LEVEL,
  50:Generated_Source\PSoC4/SCB_1_SPI.c ****         (uint8) SCB_1_SPI_BYTE_MODE_ENABLE,
  51:Generated_Source\PSoC4/SCB_1_SPI.c ****         (uint8) SCB_1_SPI_FREE_RUN_SCLK_ENABLE,
  52:Generated_Source\PSoC4/SCB_1_SPI.c ****         (uint8) SCB_1_SPI_SS_POLARITY
  53:Generated_Source\PSoC4/SCB_1_SPI.c ****     };
  54:Generated_Source\PSoC4/SCB_1_SPI.c **** 
  55:Generated_Source\PSoC4/SCB_1_SPI.c **** 
  56:Generated_Source\PSoC4/SCB_1_SPI.c ****     /*******************************************************************************
  57:Generated_Source\PSoC4/SCB_1_SPI.c ****     * Function Name: SCB_1_SpiInit
  58:Generated_Source\PSoC4/SCB_1_SPI.c ****     ****************************************************************************//**
  59:Generated_Source\PSoC4/SCB_1_SPI.c ****     *
  60:Generated_Source\PSoC4/SCB_1_SPI.c ****     *  Configures the SCB_1 for SPI operation.
  61:Generated_Source\PSoC4/SCB_1_SPI.c ****     *
  62:Generated_Source\PSoC4/SCB_1_SPI.c ****     *  This function is intended specifically to be used when the SCB_1 
  63:Generated_Source\PSoC4/SCB_1_SPI.c ****     *  configuration is set to “Unconfigured SCB_1” in the customizer. 
  64:Generated_Source\PSoC4/SCB_1_SPI.c ****     *  After initializing the SCB_1 in SPI mode using this function, 
  65:Generated_Source\PSoC4/SCB_1_SPI.c ****     *  the component can be enabled using the SCB_1_Start() or 
  66:Generated_Source\PSoC4/SCB_1_SPI.c ****     * SCB_1_Enable() function.
  67:Generated_Source\PSoC4/SCB_1_SPI.c ****     *  This function uses a pointer to a structure that provides the configuration 
  68:Generated_Source\PSoC4/SCB_1_SPI.c ****     *  settings. This structure contains the same information that would otherwise 
  69:Generated_Source\PSoC4/SCB_1_SPI.c ****     *  be provided by the customizer settings.
  70:Generated_Source\PSoC4/SCB_1_SPI.c ****     *
  71:Generated_Source\PSoC4/SCB_1_SPI.c ****     *  \param config: pointer to a structure that contains the following list of 
  72:Generated_Source\PSoC4/SCB_1_SPI.c ****     *   fields. These fields match the selections available in the customizer. 
  73:Generated_Source\PSoC4/SCB_1_SPI.c ****     *   Refer to the customizer for further description of the settings.
  74:Generated_Source\PSoC4/SCB_1_SPI.c ****     *
  75:Generated_Source\PSoC4/SCB_1_SPI.c ****     *******************************************************************************/
  76:Generated_Source\PSoC4/SCB_1_SPI.c ****     void SCB_1_SpiInit(const SCB_1_SPI_INIT_STRUCT *config)
  77:Generated_Source\PSoC4/SCB_1_SPI.c ****     {
  78:Generated_Source\PSoC4/SCB_1_SPI.c ****         if(NULL == config)
  79:Generated_Source\PSoC4/SCB_1_SPI.c ****         {
  80:Generated_Source\PSoC4/SCB_1_SPI.c ****             CYASSERT(0u != 0u); /* Halt execution due to bad function parameter */
  81:Generated_Source\PSoC4/SCB_1_SPI.c ****         }
  82:Generated_Source\PSoC4/SCB_1_SPI.c ****         else
  83:Generated_Source\PSoC4/SCB_1_SPI.c ****         {
  84:Generated_Source\PSoC4/SCB_1_SPI.c ****             /* Configure pins */
  85:Generated_Source\PSoC4/SCB_1_SPI.c ****             SCB_1_SetPins(SCB_1_SCB_MODE_SPI, config->mode, SCB_1_DUMMY_PARAM);
  86:Generated_Source\PSoC4/SCB_1_SPI.c **** 
  87:Generated_Source\PSoC4/SCB_1_SPI.c ****             /* Store internal configuration */
  88:Generated_Source\PSoC4/SCB_1_SPI.c ****             SCB_1_scbMode       = (uint8) SCB_1_SCB_MODE_SPI;
  89:Generated_Source\PSoC4/SCB_1_SPI.c ****             SCB_1_scbEnableWake = (uint8) config->enableWake;
ARM GAS  C:\Users\Sarah\AppData\Local\Temp\cczbChtB.s 			page 3


  90:Generated_Source\PSoC4/SCB_1_SPI.c ****             SCB_1_scbEnableIntr = (uint8) config->enableInterrupt;
  91:Generated_Source\PSoC4/SCB_1_SPI.c **** 
  92:Generated_Source\PSoC4/SCB_1_SPI.c ****             /* Set RX direction internal variables */
  93:Generated_Source\PSoC4/SCB_1_SPI.c ****             SCB_1_rxBuffer      =         config->rxBuffer;
  94:Generated_Source\PSoC4/SCB_1_SPI.c ****             SCB_1_rxDataBits    = (uint8) config->rxDataBits;
  95:Generated_Source\PSoC4/SCB_1_SPI.c ****             SCB_1_rxBufferSize  = (uint8) config->rxBufferSize;
  96:Generated_Source\PSoC4/SCB_1_SPI.c **** 
  97:Generated_Source\PSoC4/SCB_1_SPI.c ****             /* Set TX direction internal variables */
  98:Generated_Source\PSoC4/SCB_1_SPI.c ****             SCB_1_txBuffer      =         config->txBuffer;
  99:Generated_Source\PSoC4/SCB_1_SPI.c ****             SCB_1_txDataBits    = (uint8) config->txDataBits;
 100:Generated_Source\PSoC4/SCB_1_SPI.c ****             SCB_1_txBufferSize  = (uint8) config->txBufferSize;
 101:Generated_Source\PSoC4/SCB_1_SPI.c **** 
 102:Generated_Source\PSoC4/SCB_1_SPI.c ****             /* Configure SPI interface */
 103:Generated_Source\PSoC4/SCB_1_SPI.c ****             SCB_1_CTRL_REG     = SCB_1_GET_CTRL_OVS(config->oversample)           |
 104:Generated_Source\PSoC4/SCB_1_SPI.c ****                                             SCB_1_GET_CTRL_BYTE_MODE(config->enableByteMode) |
 105:Generated_Source\PSoC4/SCB_1_SPI.c ****                                             SCB_1_GET_CTRL_EC_AM_MODE(config->enableWake)    |
 106:Generated_Source\PSoC4/SCB_1_SPI.c ****                                             SCB_1_CTRL_SPI;
 107:Generated_Source\PSoC4/SCB_1_SPI.c **** 
 108:Generated_Source\PSoC4/SCB_1_SPI.c ****             SCB_1_SPI_CTRL_REG = SCB_1_GET_SPI_CTRL_CONTINUOUS    (config->transferSeperation)  |
 109:Generated_Source\PSoC4/SCB_1_SPI.c ****                                             SCB_1_GET_SPI_CTRL_SELECT_PRECEDE(config->submode &
 110:Generated_Source\PSoC4/SCB_1_SPI.c ****                                                                           SCB_1_SPI_MODE_TI_PRECEDE
 111:Generated_Source\PSoC4/SCB_1_SPI.c ****                                             SCB_1_GET_SPI_CTRL_SCLK_MODE     (config->sclkMode)    
 112:Generated_Source\PSoC4/SCB_1_SPI.c ****                                             SCB_1_GET_SPI_CTRL_LATE_MISO_SAMPLE(config->enableLateS
 113:Generated_Source\PSoC4/SCB_1_SPI.c ****                                             SCB_1_GET_SPI_CTRL_SCLK_CONTINUOUS(config->enableFreeRu
 114:Generated_Source\PSoC4/SCB_1_SPI.c ****                                             SCB_1_GET_SPI_CTRL_SSEL_POLARITY (config->polaritySs)  
 115:Generated_Source\PSoC4/SCB_1_SPI.c ****                                             SCB_1_GET_SPI_CTRL_SUB_MODE      (config->submode)     
 116:Generated_Source\PSoC4/SCB_1_SPI.c ****                                             SCB_1_GET_SPI_CTRL_MASTER_MODE   (config->mode);
 117:Generated_Source\PSoC4/SCB_1_SPI.c **** 
 118:Generated_Source\PSoC4/SCB_1_SPI.c ****             /* Configure RX direction */
 119:Generated_Source\PSoC4/SCB_1_SPI.c ****             SCB_1_RX_CTRL_REG     =  SCB_1_GET_RX_CTRL_DATA_WIDTH(config->rxDataBits)         |
 120:Generated_Source\PSoC4/SCB_1_SPI.c ****                                                 SCB_1_GET_RX_CTRL_BIT_ORDER (config->bitOrder)     
 121:Generated_Source\PSoC4/SCB_1_SPI.c ****                                                 SCB_1_GET_RX_CTRL_MEDIAN    (config->enableMedianFi
 122:Generated_Source\PSoC4/SCB_1_SPI.c ****                                                 SCB_1_SPI_RX_CTRL;
 123:Generated_Source\PSoC4/SCB_1_SPI.c **** 
 124:Generated_Source\PSoC4/SCB_1_SPI.c ****             SCB_1_RX_FIFO_CTRL_REG = SCB_1_GET_RX_FIFO_CTRL_TRIGGER_LEVEL(config->rxTriggerLevel);
 125:Generated_Source\PSoC4/SCB_1_SPI.c **** 
 126:Generated_Source\PSoC4/SCB_1_SPI.c ****             /* Configure TX direction */
 127:Generated_Source\PSoC4/SCB_1_SPI.c ****             SCB_1_TX_CTRL_REG      = SCB_1_GET_TX_CTRL_DATA_WIDTH(config->txDataBits) |
 128:Generated_Source\PSoC4/SCB_1_SPI.c ****                                                 SCB_1_GET_TX_CTRL_BIT_ORDER (config->bitOrder)   |
 129:Generated_Source\PSoC4/SCB_1_SPI.c ****                                                 SCB_1_SPI_TX_CTRL;
 130:Generated_Source\PSoC4/SCB_1_SPI.c **** 
 131:Generated_Source\PSoC4/SCB_1_SPI.c ****             SCB_1_TX_FIFO_CTRL_REG = SCB_1_GET_TX_FIFO_CTRL_TRIGGER_LEVEL(config->txTriggerLevel);
 132:Generated_Source\PSoC4/SCB_1_SPI.c **** 
 133:Generated_Source\PSoC4/SCB_1_SPI.c ****             /* Configure interrupt with SPI handler but do not enable it */
 134:Generated_Source\PSoC4/SCB_1_SPI.c ****             CyIntDisable    (SCB_1_ISR_NUMBER);
 135:Generated_Source\PSoC4/SCB_1_SPI.c ****             CyIntSetPriority(SCB_1_ISR_NUMBER, SCB_1_ISR_PRIORITY);
 136:Generated_Source\PSoC4/SCB_1_SPI.c ****             (void) CyIntSetVector(SCB_1_ISR_NUMBER, &SCB_1_SPI_UART_ISR);
 137:Generated_Source\PSoC4/SCB_1_SPI.c **** 
 138:Generated_Source\PSoC4/SCB_1_SPI.c ****             /* Configure interrupt sources */
 139:Generated_Source\PSoC4/SCB_1_SPI.c ****             SCB_1_INTR_I2C_EC_MASK_REG = SCB_1_NO_INTR_SOURCES;
 140:Generated_Source\PSoC4/SCB_1_SPI.c ****             SCB_1_INTR_SPI_EC_MASK_REG = SCB_1_NO_INTR_SOURCES;
 141:Generated_Source\PSoC4/SCB_1_SPI.c ****             SCB_1_INTR_SLAVE_MASK_REG  = SCB_1_GET_SPI_INTR_SLAVE_MASK(config->rxInterruptMask);
 142:Generated_Source\PSoC4/SCB_1_SPI.c ****             SCB_1_INTR_MASTER_MASK_REG = SCB_1_GET_SPI_INTR_MASTER_MASK(config->txInterruptMask);
 143:Generated_Source\PSoC4/SCB_1_SPI.c ****             SCB_1_INTR_RX_MASK_REG     = SCB_1_GET_SPI_INTR_RX_MASK(config->rxInterruptMask);
 144:Generated_Source\PSoC4/SCB_1_SPI.c ****             SCB_1_INTR_TX_MASK_REG     = SCB_1_GET_SPI_INTR_TX_MASK(config->txInterruptMask);
 145:Generated_Source\PSoC4/SCB_1_SPI.c ****             
 146:Generated_Source\PSoC4/SCB_1_SPI.c ****             /* Configure TX interrupt sources to restore. */
ARM GAS  C:\Users\Sarah\AppData\Local\Temp\cczbChtB.s 			page 4


 147:Generated_Source\PSoC4/SCB_1_SPI.c ****             SCB_1_IntrTxMask = LO16(SCB_1_INTR_TX_MASK_REG);
 148:Generated_Source\PSoC4/SCB_1_SPI.c **** 
 149:Generated_Source\PSoC4/SCB_1_SPI.c ****             /* Set active SS0 */
 150:Generated_Source\PSoC4/SCB_1_SPI.c ****             SCB_1_SpiSetActiveSlaveSelect(SCB_1_SPI_SLAVE_SELECT0);
 151:Generated_Source\PSoC4/SCB_1_SPI.c **** 
 152:Generated_Source\PSoC4/SCB_1_SPI.c ****             /* Clear RX buffer indexes */
 153:Generated_Source\PSoC4/SCB_1_SPI.c ****             SCB_1_rxBufferHead     = 0u;
 154:Generated_Source\PSoC4/SCB_1_SPI.c ****             SCB_1_rxBufferTail     = 0u;
 155:Generated_Source\PSoC4/SCB_1_SPI.c ****             SCB_1_rxBufferOverflow = 0u;
 156:Generated_Source\PSoC4/SCB_1_SPI.c **** 
 157:Generated_Source\PSoC4/SCB_1_SPI.c ****             /* Clear TX buffer indexes */
 158:Generated_Source\PSoC4/SCB_1_SPI.c ****             SCB_1_txBufferHead = 0u;
 159:Generated_Source\PSoC4/SCB_1_SPI.c ****             SCB_1_txBufferTail = 0u;
 160:Generated_Source\PSoC4/SCB_1_SPI.c ****         }
 161:Generated_Source\PSoC4/SCB_1_SPI.c ****     }
 162:Generated_Source\PSoC4/SCB_1_SPI.c **** 
 163:Generated_Source\PSoC4/SCB_1_SPI.c **** #else
 164:Generated_Source\PSoC4/SCB_1_SPI.c **** 
 165:Generated_Source\PSoC4/SCB_1_SPI.c ****     /*******************************************************************************
 166:Generated_Source\PSoC4/SCB_1_SPI.c ****     * Function Name: SCB_1_SpiInit
 167:Generated_Source\PSoC4/SCB_1_SPI.c ****     ****************************************************************************//**
 168:Generated_Source\PSoC4/SCB_1_SPI.c ****     *
 169:Generated_Source\PSoC4/SCB_1_SPI.c ****     *  Configures the SCB for the SPI operation.
 170:Generated_Source\PSoC4/SCB_1_SPI.c ****     *
 171:Generated_Source\PSoC4/SCB_1_SPI.c ****     *******************************************************************************/
 172:Generated_Source\PSoC4/SCB_1_SPI.c ****     void SCB_1_SpiInit(void)
 173:Generated_Source\PSoC4/SCB_1_SPI.c ****     {
  26              		.loc 1 173 0
  27              		.cfi_startproc
  28 0000 80B5     		push	{r7, lr}
  29              		.cfi_def_cfa_offset 8
  30              		.cfi_offset 7, -8
  31              		.cfi_offset 14, -4
  32 0002 00AF     		add	r7, sp, #0
  33              		.cfi_def_cfa_register 7
 174:Generated_Source\PSoC4/SCB_1_SPI.c ****         /* Configure SPI interface */
 175:Generated_Source\PSoC4/SCB_1_SPI.c ****         SCB_1_CTRL_REG     = SCB_1_SPI_DEFAULT_CTRL;
  34              		.loc 1 175 0
  35 0004 164B     		ldr	r3, .L2
  36 0006 174A     		ldr	r2, .L2+4
  37 0008 1A60     		str	r2, [r3]
 176:Generated_Source\PSoC4/SCB_1_SPI.c ****         SCB_1_SPI_CTRL_REG = SCB_1_SPI_DEFAULT_SPI_CTRL;
  38              		.loc 1 176 0
  39 000a 174B     		ldr	r3, .L2+8
  40 000c 174A     		ldr	r2, .L2+12
  41 000e 1A60     		str	r2, [r3]
 177:Generated_Source\PSoC4/SCB_1_SPI.c **** 
 178:Generated_Source\PSoC4/SCB_1_SPI.c ****         /* Configure TX and RX direction */
 179:Generated_Source\PSoC4/SCB_1_SPI.c ****         SCB_1_RX_CTRL_REG      = SCB_1_SPI_DEFAULT_RX_CTRL;
  42              		.loc 1 179 0
  43 0010 174B     		ldr	r3, .L2+16
  44 0012 184A     		ldr	r2, .L2+20
  45 0014 1A60     		str	r2, [r3]
 180:Generated_Source\PSoC4/SCB_1_SPI.c ****         SCB_1_RX_FIFO_CTRL_REG = SCB_1_SPI_DEFAULT_RX_FIFO_CTRL;
  46              		.loc 1 180 0
  47 0016 184B     		ldr	r3, .L2+24
  48 0018 0722     		mov	r2, #7
ARM GAS  C:\Users\Sarah\AppData\Local\Temp\cczbChtB.s 			page 5


  49 001a 1A60     		str	r2, [r3]
 181:Generated_Source\PSoC4/SCB_1_SPI.c **** 
 182:Generated_Source\PSoC4/SCB_1_SPI.c ****         /* Configure TX and RX direction */
 183:Generated_Source\PSoC4/SCB_1_SPI.c ****         SCB_1_TX_CTRL_REG      = SCB_1_SPI_DEFAULT_TX_CTRL;
  50              		.loc 1 183 0
  51 001c 174B     		ldr	r3, .L2+28
  52 001e 154A     		ldr	r2, .L2+20
  53 0020 1A60     		str	r2, [r3]
 184:Generated_Source\PSoC4/SCB_1_SPI.c ****         SCB_1_TX_FIFO_CTRL_REG = SCB_1_SPI_DEFAULT_TX_FIFO_CTRL;
  54              		.loc 1 184 0
  55 0022 174B     		ldr	r3, .L2+32
  56 0024 0022     		mov	r2, #0
  57 0026 1A60     		str	r2, [r3]
 185:Generated_Source\PSoC4/SCB_1_SPI.c **** 
 186:Generated_Source\PSoC4/SCB_1_SPI.c ****         /* Configure interrupt with SPI handler but do not enable it */
 187:Generated_Source\PSoC4/SCB_1_SPI.c ****     #if(SCB_1_SCB_IRQ_INTERNAL)
 188:Generated_Source\PSoC4/SCB_1_SPI.c ****             CyIntDisable    (SCB_1_ISR_NUMBER);
 189:Generated_Source\PSoC4/SCB_1_SPI.c ****             CyIntSetPriority(SCB_1_ISR_NUMBER, SCB_1_ISR_PRIORITY);
 190:Generated_Source\PSoC4/SCB_1_SPI.c ****             (void) CyIntSetVector(SCB_1_ISR_NUMBER, &SCB_1_SPI_UART_ISR);
 191:Generated_Source\PSoC4/SCB_1_SPI.c ****     #endif /* (SCB_1_SCB_IRQ_INTERNAL) */
 192:Generated_Source\PSoC4/SCB_1_SPI.c **** 
 193:Generated_Source\PSoC4/SCB_1_SPI.c ****         /* Configure interrupt sources */
 194:Generated_Source\PSoC4/SCB_1_SPI.c ****         SCB_1_INTR_I2C_EC_MASK_REG = SCB_1_SPI_DEFAULT_INTR_I2C_EC_MASK;
  58              		.loc 1 194 0
  59 0028 164B     		ldr	r3, .L2+36
  60 002a 0022     		mov	r2, #0
  61 002c 1A60     		str	r2, [r3]
 195:Generated_Source\PSoC4/SCB_1_SPI.c ****         SCB_1_INTR_SPI_EC_MASK_REG = SCB_1_SPI_DEFAULT_INTR_SPI_EC_MASK;
  62              		.loc 1 195 0
  63 002e 164B     		ldr	r3, .L2+40
  64 0030 0022     		mov	r2, #0
  65 0032 1A60     		str	r2, [r3]
 196:Generated_Source\PSoC4/SCB_1_SPI.c ****         SCB_1_INTR_SLAVE_MASK_REG  = SCB_1_SPI_DEFAULT_INTR_SLAVE_MASK;
  66              		.loc 1 196 0
  67 0034 154B     		ldr	r3, .L2+44
  68 0036 0022     		mov	r2, #0
  69 0038 1A60     		str	r2, [r3]
 197:Generated_Source\PSoC4/SCB_1_SPI.c ****         SCB_1_INTR_MASTER_MASK_REG = SCB_1_SPI_DEFAULT_INTR_MASTER_MASK;
  70              		.loc 1 197 0
  71 003a 154B     		ldr	r3, .L2+48
  72 003c 0022     		mov	r2, #0
  73 003e 1A60     		str	r2, [r3]
 198:Generated_Source\PSoC4/SCB_1_SPI.c ****         SCB_1_INTR_RX_MASK_REG     = SCB_1_SPI_DEFAULT_INTR_RX_MASK;
  74              		.loc 1 198 0
  75 0040 144B     		ldr	r3, .L2+52
  76 0042 0022     		mov	r2, #0
  77 0044 1A60     		str	r2, [r3]
 199:Generated_Source\PSoC4/SCB_1_SPI.c ****         SCB_1_INTR_TX_MASK_REG     = SCB_1_SPI_DEFAULT_INTR_TX_MASK;
  78              		.loc 1 199 0
  79 0046 144B     		ldr	r3, .L2+56
  80 0048 0022     		mov	r2, #0
  81 004a 1A60     		str	r2, [r3]
 200:Generated_Source\PSoC4/SCB_1_SPI.c **** 
 201:Generated_Source\PSoC4/SCB_1_SPI.c ****         /* Configure TX interrupt sources to restore. */
 202:Generated_Source\PSoC4/SCB_1_SPI.c ****         SCB_1_IntrTxMask = LO16(SCB_1_INTR_TX_MASK_REG);
  82              		.loc 1 202 0
  83 004c 124B     		ldr	r3, .L2+56
ARM GAS  C:\Users\Sarah\AppData\Local\Temp\cczbChtB.s 			page 6


  84 004e 1B68     		ldr	r3, [r3]
  85 0050 9AB2     		uxth	r2, r3
  86 0052 124B     		ldr	r3, .L2+60
  87 0054 1A80     		strh	r2, [r3]
 203:Generated_Source\PSoC4/SCB_1_SPI.c ****             
 204:Generated_Source\PSoC4/SCB_1_SPI.c ****         /* Set active SS0 for master */
 205:Generated_Source\PSoC4/SCB_1_SPI.c ****     #if (SCB_1_SPI_MASTER_CONST)
 206:Generated_Source\PSoC4/SCB_1_SPI.c ****         SCB_1_SpiSetActiveSlaveSelect(SCB_1_SPI_SLAVE_SELECT0);
  88              		.loc 1 206 0
  89 0056 0020     		mov	r0, #0
  90 0058 FFF7FEFF 		bl	SCB_1_SpiSetActiveSlaveSelect
 207:Generated_Source\PSoC4/SCB_1_SPI.c ****     #endif /* (SCB_1_SPI_MASTER_CONST) */
 208:Generated_Source\PSoC4/SCB_1_SPI.c **** 
 209:Generated_Source\PSoC4/SCB_1_SPI.c ****     #if(SCB_1_INTERNAL_RX_SW_BUFFER_CONST)
 210:Generated_Source\PSoC4/SCB_1_SPI.c ****         SCB_1_rxBufferHead     = 0u;
 211:Generated_Source\PSoC4/SCB_1_SPI.c ****         SCB_1_rxBufferTail     = 0u;
 212:Generated_Source\PSoC4/SCB_1_SPI.c ****         SCB_1_rxBufferOverflow = 0u;
 213:Generated_Source\PSoC4/SCB_1_SPI.c ****     #endif /* (SCB_1_INTERNAL_RX_SW_BUFFER_CONST) */
 214:Generated_Source\PSoC4/SCB_1_SPI.c **** 
 215:Generated_Source\PSoC4/SCB_1_SPI.c ****     #if(SCB_1_INTERNAL_TX_SW_BUFFER_CONST)
 216:Generated_Source\PSoC4/SCB_1_SPI.c ****         SCB_1_txBufferHead = 0u;
 217:Generated_Source\PSoC4/SCB_1_SPI.c ****         SCB_1_txBufferTail = 0u;
 218:Generated_Source\PSoC4/SCB_1_SPI.c ****     #endif /* (SCB_1_INTERNAL_TX_SW_BUFFER_CONST) */
 219:Generated_Source\PSoC4/SCB_1_SPI.c ****     }
  91              		.loc 1 219 0
  92 005c BD46     		mov	sp, r7
  93              		@ sp needed
  94 005e 80BD     		pop	{r7, pc}
  95              	.L3:
  96              		.align	2
  97              	.L2:
  98 0060 00002440 		.word	1076101120
  99 0064 0F000001 		.word	16777231
 100 0068 20002440 		.word	1076101152
 101 006c 01000080 		.word	-2147483647
 102 0070 00032440 		.word	1076101888
 103 0074 07010080 		.word	-2147483385
 104 0078 04032440 		.word	1076101892
 105 007c 00022440 		.word	1076101632
 106 0080 04022440 		.word	1076101636
 107 0084 880E2440 		.word	1076104840
 108 0088 C80E2440 		.word	1076104904
 109 008c 480F2440 		.word	1076105032
 110 0090 080F2440 		.word	1076104968
 111 0094 C80F2440 		.word	1076105160
 112 0098 880F2440 		.word	1076105096
 113 009c 00000000 		.word	SCB_1_IntrTxMask
 114              		.cfi_endproc
 115              	.LFE2:
 116              		.size	SCB_1_SpiInit, .-SCB_1_SpiInit
 117              		.section	.text.SCB_1_SpiPostEnable,"ax",%progbits
 118              		.align	2
 119              		.global	SCB_1_SpiPostEnable
 120              		.code	16
 121              		.thumb_func
 122              		.type	SCB_1_SpiPostEnable, %function
 123              	SCB_1_SpiPostEnable:
ARM GAS  C:\Users\Sarah\AppData\Local\Temp\cczbChtB.s 			page 7


 124              	.LFB3:
 220:Generated_Source\PSoC4/SCB_1_SPI.c **** #endif /* (SCB_1_SCB_MODE_UNCONFIG_CONST_CFG) */
 221:Generated_Source\PSoC4/SCB_1_SPI.c **** 
 222:Generated_Source\PSoC4/SCB_1_SPI.c **** 
 223:Generated_Source\PSoC4/SCB_1_SPI.c **** /*******************************************************************************
 224:Generated_Source\PSoC4/SCB_1_SPI.c **** * Function Name: SCB_1_SpiPostEnable
 225:Generated_Source\PSoC4/SCB_1_SPI.c **** ****************************************************************************//**
 226:Generated_Source\PSoC4/SCB_1_SPI.c **** *
 227:Generated_Source\PSoC4/SCB_1_SPI.c **** *  Restores HSIOM settings for the SPI master output pins (SCLK and/or SS0-SS3) 
 228:Generated_Source\PSoC4/SCB_1_SPI.c **** *  to be controlled by the SCB SPI.
 229:Generated_Source\PSoC4/SCB_1_SPI.c **** *
 230:Generated_Source\PSoC4/SCB_1_SPI.c **** *******************************************************************************/
 231:Generated_Source\PSoC4/SCB_1_SPI.c **** void SCB_1_SpiPostEnable(void)
 232:Generated_Source\PSoC4/SCB_1_SPI.c **** {
 125              		.loc 1 232 0
 126              		.cfi_startproc
 127 0000 80B5     		push	{r7, lr}
 128              		.cfi_def_cfa_offset 8
 129              		.cfi_offset 7, -8
 130              		.cfi_offset 14, -4
 131 0002 00AF     		add	r7, sp, #0
 132              		.cfi_def_cfa_register 7
 233:Generated_Source\PSoC4/SCB_1_SPI.c **** #if(SCB_1_SCB_MODE_UNCONFIG_CONST_CFG)
 234:Generated_Source\PSoC4/SCB_1_SPI.c **** 
 235:Generated_Source\PSoC4/SCB_1_SPI.c ****     if (SCB_1_CHECK_SPI_MASTER)
 236:Generated_Source\PSoC4/SCB_1_SPI.c ****     {
 237:Generated_Source\PSoC4/SCB_1_SPI.c ****     #if (SCB_1_CTS_SCLK_PIN)
 238:Generated_Source\PSoC4/SCB_1_SPI.c ****         /* Set SCB SPI to drive output pin */
 239:Generated_Source\PSoC4/SCB_1_SPI.c ****         SCB_1_SET_HSIOM_SEL(SCB_1_CTS_SCLK_HSIOM_REG, SCB_1_CTS_SCLK_HSIOM_MASK,
 240:Generated_Source\PSoC4/SCB_1_SPI.c ****                                        SCB_1_CTS_SCLK_HSIOM_POS, SCB_1_CTS_SCLK_HSIOM_SEL_SPI);
 241:Generated_Source\PSoC4/SCB_1_SPI.c ****     #endif /* (SCB_1_CTS_SCLK_PIN) */
 242:Generated_Source\PSoC4/SCB_1_SPI.c **** 
 243:Generated_Source\PSoC4/SCB_1_SPI.c ****     #if (SCB_1_RTS_SS0_PIN)
 244:Generated_Source\PSoC4/SCB_1_SPI.c ****         /* Set SCB SPI to drive output pin */
 245:Generated_Source\PSoC4/SCB_1_SPI.c ****         SCB_1_SET_HSIOM_SEL(SCB_1_RTS_SS0_HSIOM_REG, SCB_1_RTS_SS0_HSIOM_MASK,
 246:Generated_Source\PSoC4/SCB_1_SPI.c ****                                        SCB_1_RTS_SS0_HSIOM_POS, SCB_1_RTS_SS0_HSIOM_SEL_SPI);
 247:Generated_Source\PSoC4/SCB_1_SPI.c ****     #endif /* (SCB_1_RTS_SS0_PIN) */
 248:Generated_Source\PSoC4/SCB_1_SPI.c **** 
 249:Generated_Source\PSoC4/SCB_1_SPI.c ****     #if (SCB_1_SS1_PIN)
 250:Generated_Source\PSoC4/SCB_1_SPI.c ****         /* Set SCB SPI to drive output pin */
 251:Generated_Source\PSoC4/SCB_1_SPI.c ****         SCB_1_SET_HSIOM_SEL(SCB_1_SS1_HSIOM_REG, SCB_1_SS1_HSIOM_MASK,
 252:Generated_Source\PSoC4/SCB_1_SPI.c ****                                        SCB_1_SS1_HSIOM_POS, SCB_1_SS1_HSIOM_SEL_SPI);
 253:Generated_Source\PSoC4/SCB_1_SPI.c ****     #endif /* (SCB_1_SS1_PIN) */
 254:Generated_Source\PSoC4/SCB_1_SPI.c **** 
 255:Generated_Source\PSoC4/SCB_1_SPI.c ****     #if (SCB_1_SS2_PIN)
 256:Generated_Source\PSoC4/SCB_1_SPI.c ****         /* Set SCB SPI to drive output pin */
 257:Generated_Source\PSoC4/SCB_1_SPI.c ****         SCB_1_SET_HSIOM_SEL(SCB_1_SS2_HSIOM_REG, SCB_1_SS2_HSIOM_MASK,
 258:Generated_Source\PSoC4/SCB_1_SPI.c ****                                        SCB_1_SS2_HSIOM_POS, SCB_1_SS2_HSIOM_SEL_SPI);
 259:Generated_Source\PSoC4/SCB_1_SPI.c ****     #endif /* (SCB_1_SS2_PIN) */
 260:Generated_Source\PSoC4/SCB_1_SPI.c **** 
 261:Generated_Source\PSoC4/SCB_1_SPI.c ****     #if (SCB_1_SS3_PIN)
 262:Generated_Source\PSoC4/SCB_1_SPI.c ****         /* Set SCB SPI to drive output pin */
 263:Generated_Source\PSoC4/SCB_1_SPI.c ****         SCB_1_SET_HSIOM_SEL(SCB_1_SS3_HSIOM_REG, SCB_1_SS3_HSIOM_MASK,
 264:Generated_Source\PSoC4/SCB_1_SPI.c ****                                        SCB_1_SS3_HSIOM_POS, SCB_1_SS3_HSIOM_SEL_SPI);
 265:Generated_Source\PSoC4/SCB_1_SPI.c ****     #endif /* (SCB_1_SS3_PIN) */
 266:Generated_Source\PSoC4/SCB_1_SPI.c ****     }
 267:Generated_Source\PSoC4/SCB_1_SPI.c **** 
ARM GAS  C:\Users\Sarah\AppData\Local\Temp\cczbChtB.s 			page 8


 268:Generated_Source\PSoC4/SCB_1_SPI.c **** #else
 269:Generated_Source\PSoC4/SCB_1_SPI.c **** 
 270:Generated_Source\PSoC4/SCB_1_SPI.c ****     #if (SCB_1_SPI_MASTER_SCLK_PIN)
 271:Generated_Source\PSoC4/SCB_1_SPI.c ****         /* Set SCB SPI to drive output pin */
 272:Generated_Source\PSoC4/SCB_1_SPI.c ****         SCB_1_SET_HSIOM_SEL(SCB_1_SCLK_M_HSIOM_REG, SCB_1_SCLK_M_HSIOM_MASK,
 133              		.loc 1 272 0
 134 0004 094B     		ldr	r3, .L5
 135 0006 094A     		ldr	r2, .L5
 136 0008 1268     		ldr	r2, [r2]
 137 000a F021     		mov	r1, #240
 138 000c 0906     		lsl	r1, r1, #24
 139 000e 0A43     		orr	r2, r1
 140 0010 1A60     		str	r2, [r3]
 273:Generated_Source\PSoC4/SCB_1_SPI.c ****                                        SCB_1_SCLK_M_HSIOM_POS, SCB_1_SCLK_M_HSIOM_SEL_SPI);
 274:Generated_Source\PSoC4/SCB_1_SPI.c ****     #endif /* (SCB_1_MISO_SDA_TX_PIN_PIN) */
 275:Generated_Source\PSoC4/SCB_1_SPI.c **** 
 276:Generated_Source\PSoC4/SCB_1_SPI.c ****     #if (SCB_1_SPI_MASTER_SS0_PIN)
 277:Generated_Source\PSoC4/SCB_1_SPI.c ****         /* Set SCB SPI to drive output pin */
 278:Generated_Source\PSoC4/SCB_1_SPI.c ****         SCB_1_SET_HSIOM_SEL(SCB_1_SS0_M_HSIOM_REG, SCB_1_SS0_M_HSIOM_MASK,
 141              		.loc 1 278 0
 142 0012 064B     		ldr	r3, .L5
 143 0014 054A     		ldr	r2, .L5
 144 0016 1268     		ldr	r2, [r2]
 145 0018 F021     		mov	r1, #240
 146 001a 0905     		lsl	r1, r1, #20
 147 001c 0A43     		orr	r2, r1
 148 001e 1A60     		str	r2, [r3]
 279:Generated_Source\PSoC4/SCB_1_SPI.c ****                                        SCB_1_SS0_M_HSIOM_POS, SCB_1_SS0_M_HSIOM_SEL_SPI);
 280:Generated_Source\PSoC4/SCB_1_SPI.c ****     #endif /* (SCB_1_SPI_MASTER_SS0_PIN) */
 281:Generated_Source\PSoC4/SCB_1_SPI.c **** 
 282:Generated_Source\PSoC4/SCB_1_SPI.c ****     #if (SCB_1_SPI_MASTER_SS1_PIN)
 283:Generated_Source\PSoC4/SCB_1_SPI.c ****         /* Set SCB SPI to drive output pin */
 284:Generated_Source\PSoC4/SCB_1_SPI.c ****         SCB_1_SET_HSIOM_SEL(SCB_1_SS1_M_HSIOM_REG, SCB_1_SS1_M_HSIOM_MASK,
 285:Generated_Source\PSoC4/SCB_1_SPI.c ****                                        SCB_1_SS1_M_HSIOM_POS, SCB_1_SS1_M_HSIOM_SEL_SPI);
 286:Generated_Source\PSoC4/SCB_1_SPI.c ****     #endif /* (SCB_1_SPI_MASTER_SS1_PIN) */
 287:Generated_Source\PSoC4/SCB_1_SPI.c **** 
 288:Generated_Source\PSoC4/SCB_1_SPI.c ****     #if (SCB_1_SPI_MASTER_SS2_PIN)
 289:Generated_Source\PSoC4/SCB_1_SPI.c ****         /* Set SCB SPI to drive output pin */
 290:Generated_Source\PSoC4/SCB_1_SPI.c ****         SCB_1_SET_HSIOM_SEL(SCB_1_SS2_M_HSIOM_REG, SCB_1_SS2_M_HSIOM_MASK,
 291:Generated_Source\PSoC4/SCB_1_SPI.c ****                                        SCB_1_SS2_M_HSIOM_POS, SCB_1_SS2_M_HSIOM_SEL_SPI);
 292:Generated_Source\PSoC4/SCB_1_SPI.c ****     #endif /* (SCB_1_SPI_MASTER_SS2_PIN) */
 293:Generated_Source\PSoC4/SCB_1_SPI.c **** 
 294:Generated_Source\PSoC4/SCB_1_SPI.c ****     #if (SCB_1_SPI_MASTER_SS3_PIN)
 295:Generated_Source\PSoC4/SCB_1_SPI.c ****         /* Set SCB SPI to drive output pin */
 296:Generated_Source\PSoC4/SCB_1_SPI.c ****         SCB_1_SET_HSIOM_SEL(SCB_1_SS3_M_HSIOM_REG, SCB_1_SS3_M_HSIOM_MASK,
 297:Generated_Source\PSoC4/SCB_1_SPI.c ****                                        SCB_1_SS3_M_HSIOM_POS, SCB_1_SS3_M_HSIOM_SEL_SPI);
 298:Generated_Source\PSoC4/SCB_1_SPI.c ****     #endif /* (SCB_1_SPI_MASTER_SS3_PIN) */
 299:Generated_Source\PSoC4/SCB_1_SPI.c **** 
 300:Generated_Source\PSoC4/SCB_1_SPI.c **** #endif /* (SCB_1_SCB_MODE_UNCONFIG_CONST_CFG) */
 301:Generated_Source\PSoC4/SCB_1_SPI.c **** 
 302:Generated_Source\PSoC4/SCB_1_SPI.c ****     /* Restore TX interrupt sources. */
 303:Generated_Source\PSoC4/SCB_1_SPI.c ****     SCB_1_SetTxInterruptMode(SCB_1_IntrTxMask);
 149              		.loc 1 303 0
 150 0020 034B     		ldr	r3, .L5+4
 151 0022 044A     		ldr	r2, .L5+8
 152 0024 1288     		ldrh	r2, [r2]
 153 0026 1A60     		str	r2, [r3]
ARM GAS  C:\Users\Sarah\AppData\Local\Temp\cczbChtB.s 			page 9


 304:Generated_Source\PSoC4/SCB_1_SPI.c **** }
 154              		.loc 1 304 0
 155 0028 BD46     		mov	sp, r7
 156              		@ sp needed
 157 002a 80BD     		pop	{r7, pc}
 158              	.L6:
 159              		.align	2
 160              	.L5:
 161 002c 00010240 		.word	1073873152
 162 0030 880F2440 		.word	1076105096
 163 0034 00000000 		.word	SCB_1_IntrTxMask
 164              		.cfi_endproc
 165              	.LFE3:
 166              		.size	SCB_1_SpiPostEnable, .-SCB_1_SpiPostEnable
 167              		.section	.text.SCB_1_SpiStop,"ax",%progbits
 168              		.align	2
 169              		.global	SCB_1_SpiStop
 170              		.code	16
 171              		.thumb_func
 172              		.type	SCB_1_SpiStop, %function
 173              	SCB_1_SpiStop:
 174              	.LFB4:
 305:Generated_Source\PSoC4/SCB_1_SPI.c **** 
 306:Generated_Source\PSoC4/SCB_1_SPI.c **** 
 307:Generated_Source\PSoC4/SCB_1_SPI.c **** /*******************************************************************************
 308:Generated_Source\PSoC4/SCB_1_SPI.c **** * Function Name: SCB_1_SpiStop
 309:Generated_Source\PSoC4/SCB_1_SPI.c **** ****************************************************************************//**
 310:Generated_Source\PSoC4/SCB_1_SPI.c **** *
 311:Generated_Source\PSoC4/SCB_1_SPI.c **** *  Changes the HSIOM settings for the SPI master output pins 
 312:Generated_Source\PSoC4/SCB_1_SPI.c **** *  (SCLK and/or SS0-SS3) to keep them inactive after the block is disabled. 
 313:Generated_Source\PSoC4/SCB_1_SPI.c **** *  The output pins are controlled by the GPIO data register.
 314:Generated_Source\PSoC4/SCB_1_SPI.c **** *
 315:Generated_Source\PSoC4/SCB_1_SPI.c **** *******************************************************************************/
 316:Generated_Source\PSoC4/SCB_1_SPI.c **** void SCB_1_SpiStop(void)
 317:Generated_Source\PSoC4/SCB_1_SPI.c **** {
 175              		.loc 1 317 0
 176              		.cfi_startproc
 177 0000 80B5     		push	{r7, lr}
 178              		.cfi_def_cfa_offset 8
 179              		.cfi_offset 7, -8
 180              		.cfi_offset 14, -4
 181 0002 00AF     		add	r7, sp, #0
 182              		.cfi_def_cfa_register 7
 318:Generated_Source\PSoC4/SCB_1_SPI.c **** #if(SCB_1_SCB_MODE_UNCONFIG_CONST_CFG)
 319:Generated_Source\PSoC4/SCB_1_SPI.c **** 
 320:Generated_Source\PSoC4/SCB_1_SPI.c ****     if (SCB_1_CHECK_SPI_MASTER)
 321:Generated_Source\PSoC4/SCB_1_SPI.c ****     {
 322:Generated_Source\PSoC4/SCB_1_SPI.c ****     #if (SCB_1_CTS_SCLK_PIN)
 323:Generated_Source\PSoC4/SCB_1_SPI.c ****         /* Set output pin state after block is disabled */
 324:Generated_Source\PSoC4/SCB_1_SPI.c ****         SCB_1_uart_cts_spi_sclk_Write(SCB_1_GET_SPI_SCLK_INACTIVE);
 325:Generated_Source\PSoC4/SCB_1_SPI.c **** 
 326:Generated_Source\PSoC4/SCB_1_SPI.c ****         /* Set GPIO to drive output pin */
 327:Generated_Source\PSoC4/SCB_1_SPI.c ****         SCB_1_SET_HSIOM_SEL(SCB_1_CTS_SCLK_HSIOM_REG, SCB_1_CTS_SCLK_HSIOM_MASK,
 328:Generated_Source\PSoC4/SCB_1_SPI.c ****                                        SCB_1_CTS_SCLK_HSIOM_POS, SCB_1_CTS_SCLK_HSIOM_SEL_GPIO);
 329:Generated_Source\PSoC4/SCB_1_SPI.c ****     #endif /* (SCB_1_uart_cts_spi_sclk_PIN) */
 330:Generated_Source\PSoC4/SCB_1_SPI.c **** 
 331:Generated_Source\PSoC4/SCB_1_SPI.c ****     #if (SCB_1_RTS_SS0_PIN)
ARM GAS  C:\Users\Sarah\AppData\Local\Temp\cczbChtB.s 			page 10


 332:Generated_Source\PSoC4/SCB_1_SPI.c ****         /* Set output pin state after block is disabled */
 333:Generated_Source\PSoC4/SCB_1_SPI.c ****         SCB_1_uart_rts_spi_ss0_Write(SCB_1_GET_SPI_SS0_INACTIVE);
 334:Generated_Source\PSoC4/SCB_1_SPI.c **** 
 335:Generated_Source\PSoC4/SCB_1_SPI.c ****         /* Set GPIO to drive output pin */
 336:Generated_Source\PSoC4/SCB_1_SPI.c ****         SCB_1_SET_HSIOM_SEL(SCB_1_RTS_SS0_HSIOM_REG, SCB_1_RTS_SS0_HSIOM_MASK,
 337:Generated_Source\PSoC4/SCB_1_SPI.c ****                                        SCB_1_RTS_SS0_HSIOM_POS, SCB_1_RTS_SS0_HSIOM_SEL_GPIO);
 338:Generated_Source\PSoC4/SCB_1_SPI.c ****     #endif /* (SCB_1_uart_rts_spi_ss0_PIN) */
 339:Generated_Source\PSoC4/SCB_1_SPI.c **** 
 340:Generated_Source\PSoC4/SCB_1_SPI.c ****     #if (SCB_1_SS1_PIN)
 341:Generated_Source\PSoC4/SCB_1_SPI.c ****         /* Set output pin state after block is disabled */
 342:Generated_Source\PSoC4/SCB_1_SPI.c ****         SCB_1_spi_ss1_Write(SCB_1_GET_SPI_SS1_INACTIVE);
 343:Generated_Source\PSoC4/SCB_1_SPI.c **** 
 344:Generated_Source\PSoC4/SCB_1_SPI.c ****         /* Set GPIO to drive output pin */
 345:Generated_Source\PSoC4/SCB_1_SPI.c ****         SCB_1_SET_HSIOM_SEL(SCB_1_SS1_HSIOM_REG, SCB_1_SS1_HSIOM_MASK,
 346:Generated_Source\PSoC4/SCB_1_SPI.c ****                                        SCB_1_SS1_HSIOM_POS, SCB_1_SS1_HSIOM_SEL_GPIO);
 347:Generated_Source\PSoC4/SCB_1_SPI.c ****     #endif /* (SCB_1_SS1_PIN) */
 348:Generated_Source\PSoC4/SCB_1_SPI.c **** 
 349:Generated_Source\PSoC4/SCB_1_SPI.c ****     #if (SCB_1_SS2_PIN)
 350:Generated_Source\PSoC4/SCB_1_SPI.c ****         /* Set output pin state after block is disabled */
 351:Generated_Source\PSoC4/SCB_1_SPI.c ****         SCB_1_spi_ss2_Write(SCB_1_GET_SPI_SS2_INACTIVE);
 352:Generated_Source\PSoC4/SCB_1_SPI.c **** 
 353:Generated_Source\PSoC4/SCB_1_SPI.c ****         /* Set GPIO to drive output pin */
 354:Generated_Source\PSoC4/SCB_1_SPI.c ****         SCB_1_SET_HSIOM_SEL(SCB_1_SS2_HSIOM_REG, SCB_1_SS2_HSIOM_MASK,
 355:Generated_Source\PSoC4/SCB_1_SPI.c ****                                        SCB_1_SS2_HSIOM_POS, SCB_1_SS2_HSIOM_SEL_GPIO);
 356:Generated_Source\PSoC4/SCB_1_SPI.c ****     #endif /* (SCB_1_SS2_PIN) */
 357:Generated_Source\PSoC4/SCB_1_SPI.c **** 
 358:Generated_Source\PSoC4/SCB_1_SPI.c ****     #if (SCB_1_SS3_PIN)
 359:Generated_Source\PSoC4/SCB_1_SPI.c ****         /* Set output pin state after block is disabled */
 360:Generated_Source\PSoC4/SCB_1_SPI.c ****         SCB_1_spi_ss3_Write(SCB_1_GET_SPI_SS3_INACTIVE);
 361:Generated_Source\PSoC4/SCB_1_SPI.c **** 
 362:Generated_Source\PSoC4/SCB_1_SPI.c ****         /* Set GPIO to drive output pin */
 363:Generated_Source\PSoC4/SCB_1_SPI.c ****         SCB_1_SET_HSIOM_SEL(SCB_1_SS3_HSIOM_REG, SCB_1_SS3_HSIOM_MASK,
 364:Generated_Source\PSoC4/SCB_1_SPI.c ****                                        SCB_1_SS3_HSIOM_POS, SCB_1_SS3_HSIOM_SEL_GPIO);
 365:Generated_Source\PSoC4/SCB_1_SPI.c ****     #endif /* (SCB_1_SS3_PIN) */
 366:Generated_Source\PSoC4/SCB_1_SPI.c ****     
 367:Generated_Source\PSoC4/SCB_1_SPI.c ****         /* Store TX interrupt sources (exclude level triggered) for master. */
 368:Generated_Source\PSoC4/SCB_1_SPI.c ****         SCB_1_IntrTxMask = LO16(SCB_1_GetTxInterruptMode() & SCB_1_INTR_SPIM_TX_RESTORE);
 369:Generated_Source\PSoC4/SCB_1_SPI.c ****     }
 370:Generated_Source\PSoC4/SCB_1_SPI.c ****     else
 371:Generated_Source\PSoC4/SCB_1_SPI.c ****     {
 372:Generated_Source\PSoC4/SCB_1_SPI.c ****         /* Store TX interrupt sources (exclude level triggered) for slave. */
 373:Generated_Source\PSoC4/SCB_1_SPI.c ****         SCB_1_IntrTxMask = LO16(SCB_1_GetTxInterruptMode() & SCB_1_INTR_SPIS_TX_RESTORE);
 374:Generated_Source\PSoC4/SCB_1_SPI.c ****     }
 375:Generated_Source\PSoC4/SCB_1_SPI.c **** 
 376:Generated_Source\PSoC4/SCB_1_SPI.c **** #else
 377:Generated_Source\PSoC4/SCB_1_SPI.c **** 
 378:Generated_Source\PSoC4/SCB_1_SPI.c **** #if (SCB_1_SPI_MASTER_SCLK_PIN)
 379:Generated_Source\PSoC4/SCB_1_SPI.c ****     /* Set output pin state after block is disabled */
 380:Generated_Source\PSoC4/SCB_1_SPI.c ****     SCB_1_sclk_m_Write(SCB_1_GET_SPI_SCLK_INACTIVE);
 183              		.loc 1 380 0
 184 0004 154B     		ldr	r3, .L8
 185 0006 1B68     		ldr	r3, [r3]
 186 0008 0822     		mov	r2, #8
 187 000a 1340     		and	r3, r2
 188 000c 5A1E     		sub	r2, r3, #1
 189 000e 9341     		sbc	r3, r3, r2
 190 0010 DBB2     		uxtb	r3, r3
ARM GAS  C:\Users\Sarah\AppData\Local\Temp\cczbChtB.s 			page 11


 191 0012 181C     		mov	r0, r3
 192 0014 FFF7FEFF 		bl	SCB_1_sclk_m_Write
 381:Generated_Source\PSoC4/SCB_1_SPI.c **** 
 382:Generated_Source\PSoC4/SCB_1_SPI.c ****     /* Set GPIO to drive output pin */
 383:Generated_Source\PSoC4/SCB_1_SPI.c ****     SCB_1_SET_HSIOM_SEL(SCB_1_SCLK_M_HSIOM_REG, SCB_1_SCLK_M_HSIOM_MASK,
 193              		.loc 1 383 0
 194 0018 114B     		ldr	r3, .L8+4
 195 001a 114A     		ldr	r2, .L8+4
 196 001c 1268     		ldr	r2, [r2]
 197 001e 1201     		lsl	r2, r2, #4
 198 0020 1209     		lsr	r2, r2, #4
 199 0022 1A60     		str	r2, [r3]
 384:Generated_Source\PSoC4/SCB_1_SPI.c ****                                    SCB_1_SCLK_M_HSIOM_POS, SCB_1_SCLK_M_HSIOM_SEL_GPIO);
 385:Generated_Source\PSoC4/SCB_1_SPI.c **** #endif /* (SCB_1_MISO_SDA_TX_PIN_PIN) */
 386:Generated_Source\PSoC4/SCB_1_SPI.c **** 
 387:Generated_Source\PSoC4/SCB_1_SPI.c **** #if (SCB_1_SPI_MASTER_SS0_PIN)
 388:Generated_Source\PSoC4/SCB_1_SPI.c ****     /* Set output pin state after block is disabled */
 389:Generated_Source\PSoC4/SCB_1_SPI.c ****     SCB_1_ss0_m_Write(SCB_1_GET_SPI_SS0_INACTIVE);
 200              		.loc 1 389 0
 201 0024 0D4B     		ldr	r3, .L8
 202 0026 1A68     		ldr	r2, [r3]
 203 0028 8023     		mov	r3, #128
 204 002a 5B00     		lsl	r3, r3, #1
 205 002c 1340     		and	r3, r2
 206 002e 5A42     		neg	r2, r3
 207 0030 5341     		adc	r3, r3, r2
 208 0032 DBB2     		uxtb	r3, r3
 209 0034 181C     		mov	r0, r3
 210 0036 FFF7FEFF 		bl	SCB_1_ss0_m_Write
 390:Generated_Source\PSoC4/SCB_1_SPI.c **** 
 391:Generated_Source\PSoC4/SCB_1_SPI.c ****     /* Set GPIO to drive output pin */
 392:Generated_Source\PSoC4/SCB_1_SPI.c ****     SCB_1_SET_HSIOM_SEL(SCB_1_SS0_M_HSIOM_REG, SCB_1_SS0_M_HSIOM_MASK,
 211              		.loc 1 392 0
 212 003a 094B     		ldr	r3, .L8+4
 213 003c 084A     		ldr	r2, .L8+4
 214 003e 1268     		ldr	r2, [r2]
 215 0040 0849     		ldr	r1, .L8+8
 216 0042 0A40     		and	r2, r1
 217 0044 1A60     		str	r2, [r3]
 393:Generated_Source\PSoC4/SCB_1_SPI.c ****                                    SCB_1_SS0_M_HSIOM_POS, SCB_1_SS0_M_HSIOM_SEL_GPIO);
 394:Generated_Source\PSoC4/SCB_1_SPI.c **** #endif /* (SCB_1_SPI_MASTER_SS0_PIN) */
 395:Generated_Source\PSoC4/SCB_1_SPI.c **** 
 396:Generated_Source\PSoC4/SCB_1_SPI.c **** #if (SCB_1_SPI_MASTER_SS1_PIN)
 397:Generated_Source\PSoC4/SCB_1_SPI.c ****     /* Set output pin state after block is disabled */
 398:Generated_Source\PSoC4/SCB_1_SPI.c ****     SCB_1_ss1_m_Write(SCB_1_GET_SPI_SS1_INACTIVE);
 399:Generated_Source\PSoC4/SCB_1_SPI.c **** 
 400:Generated_Source\PSoC4/SCB_1_SPI.c ****     /* Set GPIO to drive output pin */
 401:Generated_Source\PSoC4/SCB_1_SPI.c ****     SCB_1_SET_HSIOM_SEL(SCB_1_SS1_M_HSIOM_REG, SCB_1_SS1_M_HSIOM_MASK,
 402:Generated_Source\PSoC4/SCB_1_SPI.c ****                                    SCB_1_SS1_M_HSIOM_POS, SCB_1_SS1_M_HSIOM_SEL_GPIO);
 403:Generated_Source\PSoC4/SCB_1_SPI.c **** #endif /* (SCB_1_SPI_MASTER_SS1_PIN) */
 404:Generated_Source\PSoC4/SCB_1_SPI.c **** 
 405:Generated_Source\PSoC4/SCB_1_SPI.c **** #if (SCB_1_SPI_MASTER_SS2_PIN)
 406:Generated_Source\PSoC4/SCB_1_SPI.c ****     /* Set output pin state after block is disabled */
 407:Generated_Source\PSoC4/SCB_1_SPI.c ****     SCB_1_ss2_m_Write(SCB_1_GET_SPI_SS2_INACTIVE);
 408:Generated_Source\PSoC4/SCB_1_SPI.c **** 
 409:Generated_Source\PSoC4/SCB_1_SPI.c ****     /* Set GPIO to drive output pin */
 410:Generated_Source\PSoC4/SCB_1_SPI.c ****     SCB_1_SET_HSIOM_SEL(SCB_1_SS2_M_HSIOM_REG, SCB_1_SS2_M_HSIOM_MASK,
ARM GAS  C:\Users\Sarah\AppData\Local\Temp\cczbChtB.s 			page 12


 411:Generated_Source\PSoC4/SCB_1_SPI.c ****                                    SCB_1_SS2_M_HSIOM_POS, SCB_1_SS2_M_HSIOM_SEL_GPIO);
 412:Generated_Source\PSoC4/SCB_1_SPI.c **** #endif /* (SCB_1_SPI_MASTER_SS2_PIN) */
 413:Generated_Source\PSoC4/SCB_1_SPI.c **** 
 414:Generated_Source\PSoC4/SCB_1_SPI.c **** #if (SCB_1_SPI_MASTER_SS3_PIN)
 415:Generated_Source\PSoC4/SCB_1_SPI.c ****     /* Set output pin state after block is disabled */
 416:Generated_Source\PSoC4/SCB_1_SPI.c ****     SCB_1_ss3_m_Write(SCB_1_GET_SPI_SS3_INACTIVE);
 417:Generated_Source\PSoC4/SCB_1_SPI.c **** 
 418:Generated_Source\PSoC4/SCB_1_SPI.c ****     /* Set GPIO to drive output pin */
 419:Generated_Source\PSoC4/SCB_1_SPI.c ****     SCB_1_SET_HSIOM_SEL(SCB_1_SS3_M_HSIOM_REG, SCB_1_SS3_M_HSIOM_MASK,
 420:Generated_Source\PSoC4/SCB_1_SPI.c ****                                    SCB_1_SS3_M_HSIOM_POS, SCB_1_SS3_M_HSIOM_SEL_GPIO);
 421:Generated_Source\PSoC4/SCB_1_SPI.c **** #endif /* (SCB_1_SPI_MASTER_SS3_PIN) */
 422:Generated_Source\PSoC4/SCB_1_SPI.c **** 
 423:Generated_Source\PSoC4/SCB_1_SPI.c ****     #if (SCB_1_SPI_MASTER_CONST)
 424:Generated_Source\PSoC4/SCB_1_SPI.c ****         /* Store TX interrupt sources (exclude level triggered). */
 425:Generated_Source\PSoC4/SCB_1_SPI.c ****         SCB_1_IntrTxMask = LO16(SCB_1_GetTxInterruptMode() & SCB_1_INTR_SPIM_TX_RESTORE);
 218              		.loc 1 425 0
 219 0046 084B     		ldr	r3, .L8+12
 220 0048 1B68     		ldr	r3, [r3]
 221 004a 9BB2     		uxth	r3, r3
 222 004c 2022     		mov	r2, #32
 223 004e 1340     		and	r3, r2
 224 0050 9AB2     		uxth	r2, r3
 225 0052 064B     		ldr	r3, .L8+16
 226 0054 1A80     		strh	r2, [r3]
 426:Generated_Source\PSoC4/SCB_1_SPI.c ****     #else
 427:Generated_Source\PSoC4/SCB_1_SPI.c ****         /* Store TX interrupt sources (exclude level triggered). */
 428:Generated_Source\PSoC4/SCB_1_SPI.c ****         SCB_1_IntrTxMask = LO16(SCB_1_GetTxInterruptMode() & SCB_1_INTR_SPIS_TX_RESTORE);
 429:Generated_Source\PSoC4/SCB_1_SPI.c ****     #endif /* (SCB_1_SPI_MASTER_CONST) */
 430:Generated_Source\PSoC4/SCB_1_SPI.c **** 
 431:Generated_Source\PSoC4/SCB_1_SPI.c **** #endif /* (SCB_1_SCB_MODE_UNCONFIG_CONST_CFG) */
 432:Generated_Source\PSoC4/SCB_1_SPI.c **** }
 227              		.loc 1 432 0
 228 0056 BD46     		mov	sp, r7
 229              		@ sp needed
 230 0058 80BD     		pop	{r7, pc}
 231              	.L9:
 232 005a C046     		.align	2
 233              	.L8:
 234 005c 20002440 		.word	1076101152
 235 0060 00010240 		.word	1073873152
 236 0064 FFFFFFF0 		.word	-251658241
 237 0068 880F2440 		.word	1076105096
 238 006c 00000000 		.word	SCB_1_IntrTxMask
 239              		.cfi_endproc
 240              	.LFE4:
 241              		.size	SCB_1_SpiStop, .-SCB_1_SpiStop
 242              		.section	.text.SCB_1_SpiSetActiveSlaveSelect,"ax",%progbits
 243              		.align	2
 244              		.global	SCB_1_SpiSetActiveSlaveSelect
 245              		.code	16
 246              		.thumb_func
 247              		.type	SCB_1_SpiSetActiveSlaveSelect, %function
 248              	SCB_1_SpiSetActiveSlaveSelect:
 249              	.LFB5:
 433:Generated_Source\PSoC4/SCB_1_SPI.c **** 
 434:Generated_Source\PSoC4/SCB_1_SPI.c **** 
 435:Generated_Source\PSoC4/SCB_1_SPI.c **** #if (SCB_1_SPI_MASTER_CONST)
ARM GAS  C:\Users\Sarah\AppData\Local\Temp\cczbChtB.s 			page 13


 436:Generated_Source\PSoC4/SCB_1_SPI.c ****     /*******************************************************************************
 437:Generated_Source\PSoC4/SCB_1_SPI.c ****     * Function Name: SCB_1_SetActiveSlaveSelect
 438:Generated_Source\PSoC4/SCB_1_SPI.c ****     ****************************************************************************//**
 439:Generated_Source\PSoC4/SCB_1_SPI.c ****     *
 440:Generated_Source\PSoC4/SCB_1_SPI.c ****     *  Selects one of the four slave select lines to be active during the transfer.
 441:Generated_Source\PSoC4/SCB_1_SPI.c ****     *  After initialization the active slave select line is 0.
 442:Generated_Source\PSoC4/SCB_1_SPI.c ****     *  The component should be in one of the following states to change the active
 443:Generated_Source\PSoC4/SCB_1_SPI.c ****     *  slave select signal source correctly:
 444:Generated_Source\PSoC4/SCB_1_SPI.c ****     *   - The component is disabled.
 445:Generated_Source\PSoC4/SCB_1_SPI.c ****     *   - The component has completed transfer (TX FIFO is empty and the
 446:Generated_Source\PSoC4/SCB_1_SPI.c ****     *     SCB_INTR_MASTER_SPI_DONE status is set).
 447:Generated_Source\PSoC4/SCB_1_SPI.c ****     *
 448:Generated_Source\PSoC4/SCB_1_SPI.c ****     *  This function does not check that these conditions are met.
 449:Generated_Source\PSoC4/SCB_1_SPI.c ****     *  This function is only applicable to SPI Master mode of operation.
 450:Generated_Source\PSoC4/SCB_1_SPI.c ****     *
 451:Generated_Source\PSoC4/SCB_1_SPI.c ****     *  \param slaveSelect: slave select line which will be active while the following
 452:Generated_Source\PSoC4/SCB_1_SPI.c ****     *   transfer.
 453:Generated_Source\PSoC4/SCB_1_SPI.c ****     *   - SCB_1_SPI_SLAVE_SELECT0 - Slave select 0.
 454:Generated_Source\PSoC4/SCB_1_SPI.c ****     *   - SCB_1_SPI_SLAVE_SELECT1 - Slave select 1.
 455:Generated_Source\PSoC4/SCB_1_SPI.c ****     *   - SCB_1_SPI_SLAVE_SELECT2 - Slave select 2.
 456:Generated_Source\PSoC4/SCB_1_SPI.c ****     *   - SCB_1_SPI_SLAVE_SELECT3 - Slave select 3.
 457:Generated_Source\PSoC4/SCB_1_SPI.c ****     *
 458:Generated_Source\PSoC4/SCB_1_SPI.c ****     *******************************************************************************/
 459:Generated_Source\PSoC4/SCB_1_SPI.c ****     void SCB_1_SpiSetActiveSlaveSelect(uint32 slaveSelect)
 460:Generated_Source\PSoC4/SCB_1_SPI.c ****     {
 250              		.loc 1 460 0
 251              		.cfi_startproc
 252 0000 80B5     		push	{r7, lr}
 253              		.cfi_def_cfa_offset 8
 254              		.cfi_offset 7, -8
 255              		.cfi_offset 14, -4
 256 0002 84B0     		sub	sp, sp, #16
 257              		.cfi_def_cfa_offset 24
 258 0004 00AF     		add	r7, sp, #0
 259              		.cfi_def_cfa_register 7
 260 0006 7860     		str	r0, [r7, #4]
 461:Generated_Source\PSoC4/SCB_1_SPI.c ****         uint32 spiCtrl;
 462:Generated_Source\PSoC4/SCB_1_SPI.c **** 
 463:Generated_Source\PSoC4/SCB_1_SPI.c ****         spiCtrl = SCB_1_SPI_CTRL_REG;
 261              		.loc 1 463 0
 262 0008 0A4B     		ldr	r3, .L11
 263 000a 1B68     		ldr	r3, [r3]
 264 000c FB60     		str	r3, [r7, #12]
 464:Generated_Source\PSoC4/SCB_1_SPI.c **** 
 465:Generated_Source\PSoC4/SCB_1_SPI.c ****         spiCtrl &= (uint32) ~SCB_1_SPI_CTRL_SLAVE_SELECT_MASK;
 265              		.loc 1 465 0
 266 000e FB68     		ldr	r3, [r7, #12]
 267 0010 094A     		ldr	r2, .L11+4
 268 0012 1340     		and	r3, r2
 269 0014 FB60     		str	r3, [r7, #12]
 466:Generated_Source\PSoC4/SCB_1_SPI.c ****         spiCtrl |= (uint32)  SCB_1_GET_SPI_CTRL_SS(slaveSelect);
 270              		.loc 1 466 0
 271 0016 7B68     		ldr	r3, [r7, #4]
 272 0018 9A06     		lsl	r2, r3, #26
 273 001a C023     		mov	r3, #192
 274 001c 1B05     		lsl	r3, r3, #20
 275 001e 1340     		and	r3, r2
ARM GAS  C:\Users\Sarah\AppData\Local\Temp\cczbChtB.s 			page 14


 276 0020 FA68     		ldr	r2, [r7, #12]
 277 0022 1343     		orr	r3, r2
 278 0024 FB60     		str	r3, [r7, #12]
 467:Generated_Source\PSoC4/SCB_1_SPI.c **** 
 468:Generated_Source\PSoC4/SCB_1_SPI.c ****         SCB_1_SPI_CTRL_REG = spiCtrl;
 279              		.loc 1 468 0
 280 0026 034B     		ldr	r3, .L11
 281 0028 FA68     		ldr	r2, [r7, #12]
 282 002a 1A60     		str	r2, [r3]
 469:Generated_Source\PSoC4/SCB_1_SPI.c ****     }
 283              		.loc 1 469 0
 284 002c BD46     		mov	sp, r7
 285 002e 04B0     		add	sp, sp, #16
 286              		@ sp needed
 287 0030 80BD     		pop	{r7, pc}
 288              	.L12:
 289 0032 C046     		.align	2
 290              	.L11:
 291 0034 20002440 		.word	1076101152
 292 0038 FFFFFFF3 		.word	-201326593
 293              		.cfi_endproc
 294              	.LFE5:
 295              		.size	SCB_1_SpiSetActiveSlaveSelect, .-SCB_1_SpiSetActiveSlaveSelect
 296              		.section	.text.SCB_1_SpiSetSlaveSelectPolarity,"ax",%progbits
 297              		.align	2
 298              		.global	SCB_1_SpiSetSlaveSelectPolarity
 299              		.code	16
 300              		.thumb_func
 301              		.type	SCB_1_SpiSetSlaveSelectPolarity, %function
 302              	SCB_1_SpiSetSlaveSelectPolarity:
 303              	.LFB6:
 470:Generated_Source\PSoC4/SCB_1_SPI.c **** #endif /* (SCB_1_SPI_MASTER_CONST) */
 471:Generated_Source\PSoC4/SCB_1_SPI.c **** 
 472:Generated_Source\PSoC4/SCB_1_SPI.c **** 
 473:Generated_Source\PSoC4/SCB_1_SPI.c **** #if !(SCB_1_CY_SCBIP_V0 || SCB_1_CY_SCBIP_V1)
 474:Generated_Source\PSoC4/SCB_1_SPI.c ****     /*******************************************************************************
 475:Generated_Source\PSoC4/SCB_1_SPI.c ****     * Function Name: SCB_1_SpiSetSlaveSelectPolarity
 476:Generated_Source\PSoC4/SCB_1_SPI.c ****     ****************************************************************************//**
 477:Generated_Source\PSoC4/SCB_1_SPI.c ****     *
 478:Generated_Source\PSoC4/SCB_1_SPI.c ****     *  Sets active polarity for slave select line.
 479:Generated_Source\PSoC4/SCB_1_SPI.c ****     *  The component should be in one of the following states to change the active
 480:Generated_Source\PSoC4/SCB_1_SPI.c ****     *  slave select signal source correctly:
 481:Generated_Source\PSoC4/SCB_1_SPI.c ****     *   - The component is disabled.
 482:Generated_Source\PSoC4/SCB_1_SPI.c ****     *   - The component has completed transfer.
 483:Generated_Source\PSoC4/SCB_1_SPI.c ****     *  
 484:Generated_Source\PSoC4/SCB_1_SPI.c ****     *  This function does not check that these conditions are met.
 485:Generated_Source\PSoC4/SCB_1_SPI.c ****     *
 486:Generated_Source\PSoC4/SCB_1_SPI.c ****     *  \param slaveSelect: slave select line to change active polarity.
 487:Generated_Source\PSoC4/SCB_1_SPI.c ****     *   - SCB_1_SPI_SLAVE_SELECT0 - Slave select 0.
 488:Generated_Source\PSoC4/SCB_1_SPI.c ****     *   - SCB_1_SPI_SLAVE_SELECT1 - Slave select 1.
 489:Generated_Source\PSoC4/SCB_1_SPI.c ****     *   - SCB_1_SPI_SLAVE_SELECT2 - Slave select 2.
 490:Generated_Source\PSoC4/SCB_1_SPI.c ****     *   - SCB_1_SPI_SLAVE_SELECT3 - Slave select 3.
 491:Generated_Source\PSoC4/SCB_1_SPI.c ****     *
 492:Generated_Source\PSoC4/SCB_1_SPI.c ****     *  \param polarity: active polarity of slave select line.
 493:Generated_Source\PSoC4/SCB_1_SPI.c ****     *   - SCB_1_SPI_SS_ACTIVE_LOW  - Slave select is active low.
 494:Generated_Source\PSoC4/SCB_1_SPI.c ****     *   - SCB_1_SPI_SS_ACTIVE_HIGH - Slave select is active high.
 495:Generated_Source\PSoC4/SCB_1_SPI.c ****     *
ARM GAS  C:\Users\Sarah\AppData\Local\Temp\cczbChtB.s 			page 15


 496:Generated_Source\PSoC4/SCB_1_SPI.c ****     *******************************************************************************/
 497:Generated_Source\PSoC4/SCB_1_SPI.c ****     void SCB_1_SpiSetSlaveSelectPolarity(uint32 slaveSelect, uint32 polarity)
 498:Generated_Source\PSoC4/SCB_1_SPI.c ****     {
 304              		.loc 1 498 0
 305              		.cfi_startproc
 306 0000 80B5     		push	{r7, lr}
 307              		.cfi_def_cfa_offset 8
 308              		.cfi_offset 7, -8
 309              		.cfi_offset 14, -4
 310 0002 84B0     		sub	sp, sp, #16
 311              		.cfi_def_cfa_offset 24
 312 0004 00AF     		add	r7, sp, #0
 313              		.cfi_def_cfa_register 7
 314 0006 7860     		str	r0, [r7, #4]
 315 0008 3960     		str	r1, [r7]
 499:Generated_Source\PSoC4/SCB_1_SPI.c ****         uint32 ssPolarity;
 500:Generated_Source\PSoC4/SCB_1_SPI.c **** 
 501:Generated_Source\PSoC4/SCB_1_SPI.c ****         /* Get position of the polarity bit associated with slave select line */
 502:Generated_Source\PSoC4/SCB_1_SPI.c ****         ssPolarity = SCB_1_GET_SPI_CTRL_SSEL_POLARITY((uint32) 1u << slaveSelect);
 316              		.loc 1 502 0
 317 000a 7B68     		ldr	r3, [r7, #4]
 318 000c 0122     		mov	r2, #1
 319 000e 9A40     		lsl	r2, r2, r3
 320 0010 131C     		mov	r3, r2
 321 0012 1A02     		lsl	r2, r3, #8
 322 0014 F023     		mov	r3, #240
 323 0016 1B01     		lsl	r3, r3, #4
 324 0018 1340     		and	r3, r2
 325 001a FB60     		str	r3, [r7, #12]
 503:Generated_Source\PSoC4/SCB_1_SPI.c **** 
 504:Generated_Source\PSoC4/SCB_1_SPI.c ****         if (0u != polarity)
 326              		.loc 1 504 0
 327 001c 3B68     		ldr	r3, [r7]
 328 001e 002B     		cmp	r3, #0
 329 0020 06D0     		beq	.L14
 505:Generated_Source\PSoC4/SCB_1_SPI.c ****         {
 506:Generated_Source\PSoC4/SCB_1_SPI.c ****             SCB_1_SPI_CTRL_REG |= (uint32)  ssPolarity;
 330              		.loc 1 506 0
 331 0022 084B     		ldr	r3, .L16
 332 0024 074A     		ldr	r2, .L16
 333 0026 1168     		ldr	r1, [r2]
 334 0028 FA68     		ldr	r2, [r7, #12]
 335 002a 0A43     		orr	r2, r1
 336 002c 1A60     		str	r2, [r3]
 337 002e 06E0     		b	.L13
 338              	.L14:
 507:Generated_Source\PSoC4/SCB_1_SPI.c ****         }
 508:Generated_Source\PSoC4/SCB_1_SPI.c ****         else
 509:Generated_Source\PSoC4/SCB_1_SPI.c ****         {
 510:Generated_Source\PSoC4/SCB_1_SPI.c ****             SCB_1_SPI_CTRL_REG &= (uint32) ~ssPolarity;
 339              		.loc 1 510 0
 340 0030 044B     		ldr	r3, .L16
 341 0032 044A     		ldr	r2, .L16
 342 0034 1268     		ldr	r2, [r2]
 343 0036 F968     		ldr	r1, [r7, #12]
 344 0038 C943     		mvn	r1, r1
 345 003a 0A40     		and	r2, r1
ARM GAS  C:\Users\Sarah\AppData\Local\Temp\cczbChtB.s 			page 16


 346 003c 1A60     		str	r2, [r3]
 347              	.L13:
 511:Generated_Source\PSoC4/SCB_1_SPI.c ****         }
 512:Generated_Source\PSoC4/SCB_1_SPI.c ****     }
 348              		.loc 1 512 0
 349 003e BD46     		mov	sp, r7
 350 0040 04B0     		add	sp, sp, #16
 351              		@ sp needed
 352 0042 80BD     		pop	{r7, pc}
 353              	.L17:
 354              		.align	2
 355              	.L16:
 356 0044 20002440 		.word	1076101152
 357              		.cfi_endproc
 358              	.LFE6:
 359              		.size	SCB_1_SpiSetSlaveSelectPolarity, .-SCB_1_SpiSetSlaveSelectPolarity
 360              		.text
 361              	.Letext0:
 362              		.file 2 "Generated_Source\\PSoC4/cytypes.h"
 363              		.file 3 "Generated_Source\\PSoC4\\SCB_1_PVT.h"