ARM GAS  C:\Users\Sarah\AppData\Local\Temp\cc9TMdi9.s 			page 1


   1              		.cpu cortex-m0
   2              		.fpu softvfp
   3              		.eabi_attribute 20, 1
   4              		.eabi_attribute 21, 1
   5              		.eabi_attribute 23, 3
   6              		.eabi_attribute 24, 1
   7              		.eabi_attribute 25, 1
   8              		.eabi_attribute 26, 1
   9              		.eabi_attribute 30, 1
  10              		.eabi_attribute 34, 0
  11              		.eabi_attribute 18, 4
  12              		.code	16
  13              		.file	"BLE.c"
  14              		.text
  15              	.Ltext0:
  16              		.cfi_sections	.debug_frame
  17              		.section	.text.CyBle_ServiceInit,"ax",%progbits
  18              		.align	2
  19              		.global	CyBle_ServiceInit
  20              		.code	16
  21              		.thumb_func
  22              		.type	CyBle_ServiceInit, %function
  23              	CyBle_ServiceInit:
  24              	.LFB3:
  25              		.file 1 "Generated_Source\\PSoC4\\BLE.c"
   1:Generated_Source\PSoC4/BLE.c **** /***************************************************************************//**
   2:Generated_Source\PSoC4/BLE.c **** * \file CYBLE.c
   3:Generated_Source\PSoC4/BLE.c **** * \version 3.20
   4:Generated_Source\PSoC4/BLE.c **** * 
   5:Generated_Source\PSoC4/BLE.c **** * \brief
   6:Generated_Source\PSoC4/BLE.c **** *  This file contains the source code for the Common APIs of the BLE Component.
   7:Generated_Source\PSoC4/BLE.c **** * 
   8:Generated_Source\PSoC4/BLE.c **** ********************************************************************************
   9:Generated_Source\PSoC4/BLE.c **** * \copyright
  10:Generated_Source\PSoC4/BLE.c **** * Copyright 2014-2016, Cypress Semiconductor Corporation.  All rights reserved.
  11:Generated_Source\PSoC4/BLE.c **** * You may use this file only in accordance with the license, terms, conditions,
  12:Generated_Source\PSoC4/BLE.c **** * disclaimers, and limitations in the end user license agreement accompanying
  13:Generated_Source\PSoC4/BLE.c **** * the software package with which this file was provided.
  14:Generated_Source\PSoC4/BLE.c **** *******************************************************************************/
  15:Generated_Source\PSoC4/BLE.c **** 
  16:Generated_Source\PSoC4/BLE.c **** #include "BLE_eventHandler.h"
  17:Generated_Source\PSoC4/BLE.c **** #include "BLE_HAL_PVT.h"
  18:Generated_Source\PSoC4/BLE.c **** #include <stdlib.h>
  19:Generated_Source\PSoC4/BLE.c **** 
  20:Generated_Source\PSoC4/BLE.c **** 
  21:Generated_Source\PSoC4/BLE.c **** /***************************************
  22:Generated_Source\PSoC4/BLE.c **** * Function Prototypes
  23:Generated_Source\PSoC4/BLE.c **** ***************************************/
  24:Generated_Source\PSoC4/BLE.c **** 
  25:Generated_Source\PSoC4/BLE.c **** #if(CYBLE_GATT_ROLE_SERVER)
  26:Generated_Source\PSoC4/BLE.c ****     #if(CYBLE_GAP_ROLE_PERIPHERAL)
  27:Generated_Source\PSoC4/BLE.c ****         static void CyBle_ChangeAdLocalName(const char8 name[], uint8 dest);
  28:Generated_Source\PSoC4/BLE.c ****     #endif /* (CYBLE_GAP_ROLE_PERIPHERAL) */
  29:Generated_Source\PSoC4/BLE.c **** #endif /* (CYBLE_GATT_ROLE_SERVER) */
  30:Generated_Source\PSoC4/BLE.c ****     
  31:Generated_Source\PSoC4/BLE.c **** 
  32:Generated_Source\PSoC4/BLE.c **** /***************************************
ARM GAS  C:\Users\Sarah\AppData\Local\Temp\cc9TMdi9.s 			page 2


  33:Generated_Source\PSoC4/BLE.c **** * Global Variables
  34:Generated_Source\PSoC4/BLE.c **** ***************************************/
  35:Generated_Source\PSoC4/BLE.c **** 
  36:Generated_Source\PSoC4/BLE.c **** /* Indicates whether the BLE has been initialized. The variable is initialized to
  37:Generated_Source\PSoC4/BLE.c ****    0 and set to 1 the first time CyBle_Start() is called. This allows the component
  38:Generated_Source\PSoC4/BLE.c ****    to restart without reinitialization after the first call to the CyBle_Start() 
  39:Generated_Source\PSoC4/BLE.c ****    routine. If reinitialization of the component is required, the variable should 
  40:Generated_Source\PSoC4/BLE.c ****    be set to 0 before the CyBle_Start() routine is called. Alternatively, the BLE
  41:Generated_Source\PSoC4/BLE.c ****    can be reinitialized by calling the CyBle_Init() function.
  42:Generated_Source\PSoC4/BLE.c **** */
  43:Generated_Source\PSoC4/BLE.c **** uint8  cyBle_initVar = 0u;
  44:Generated_Source\PSoC4/BLE.c **** 
  45:Generated_Source\PSoC4/BLE.c **** /* Allocate RAM memory for stack. This buffer could be reused by application when 
  46:Generated_Source\PSoC4/BLE.c ****    BLE component is stopped. For export mode buffer is allocated in heap.
  47:Generated_Source\PSoC4/BLE.c **** */
  48:Generated_Source\PSoC4/BLE.c **** #if(CYBLE_SHARING_MODE_EXPORT)
  49:Generated_Source\PSoC4/BLE.c ****     
  50:Generated_Source\PSoC4/BLE.c **** uint8 *cyBle_stackMemoryRam = NULL;
  51:Generated_Source\PSoC4/BLE.c **** 
  52:Generated_Source\PSoC4/BLE.c **** #else
  53:Generated_Source\PSoC4/BLE.c **** 
  54:Generated_Source\PSoC4/BLE.c **** CYBLE_CYALIGNED_BEGIN CY_NOINIT uint8 cyBle_stackMemoryRam[CYBLE_STACK_RAM_SIZE] CYBLE_CYALIGNED_EN
  55:Generated_Source\PSoC4/BLE.c **** 
  56:Generated_Source\PSoC4/BLE.c **** #endif  /* CYBLE_SHARING_MODE_EXPORT */
  57:Generated_Source\PSoC4/BLE.c **** 
  58:Generated_Source\PSoC4/BLE.c **** #if(CYBLE_GAP_ROLE_PERIPHERAL || CYBLE_GAP_ROLE_BROADCASTER)
  59:Generated_Source\PSoC4/BLE.c **** 
  60:Generated_Source\PSoC4/BLE.c **** 
  61:Generated_Source\PSoC4/BLE.c **** 
  62:Generated_Source\PSoC4/BLE.c **** #endif /* CYBLE_GAP_ROLE_PERIPHERAL || CYBLE_GAP_ROLE_BROADCASTER */
  63:Generated_Source\PSoC4/BLE.c **** 
  64:Generated_Source\PSoC4/BLE.c **** #if(CYBLE_GAP_ROLE_CENTRAL)
  65:Generated_Source\PSoC4/BLE.c ****     
  66:Generated_Source\PSoC4/BLE.c **** CYBLE_GAPC_CONN_PARAM_T cyBle_connectionParameters;
  67:Generated_Source\PSoC4/BLE.c **** 
  68:Generated_Source\PSoC4/BLE.c **** /* Connecting timeout is set to 30 seconds in CyBle_Init function. 
  69:Generated_Source\PSoC4/BLE.c ****    Not zero value starts timer in CyBle_GapcConnectDevice API.
  70:Generated_Source\PSoC4/BLE.c **** */
  71:Generated_Source\PSoC4/BLE.c **** uint16 cyBle_connectingTimeout;
  72:Generated_Source\PSoC4/BLE.c ****     
  73:Generated_Source\PSoC4/BLE.c **** #endif /* CYBLE_GAP_ROLE_CENTRAL */
  74:Generated_Source\PSoC4/BLE.c **** 
  75:Generated_Source\PSoC4/BLE.c **** #if(CYBLE_GAP_ROLE_CENTRAL || CYBLE_GAP_ROLE_OBSERVER)
  76:Generated_Source\PSoC4/BLE.c ****     
  77:Generated_Source\PSoC4/BLE.c **** /* This variable of type CYBLE_GAPC_DISC_INFO_T is present only when  
  78:Generated_Source\PSoC4/BLE.c ****    the BLE component is configured for Central GAP role or Central and  
  79:Generated_Source\PSoC4/BLE.c ****    Peripheral GAP role. It contains the Scan settings entered in the  
  80:Generated_Source\PSoC4/BLE.c ****    customizer. This variable can be used by advanced users to change Scan  
  81:Generated_Source\PSoC4/BLE.c ****    settings in runtime.
  82:Generated_Source\PSoC4/BLE.c **** */
  83:Generated_Source\PSoC4/BLE.c **** CYBLE_GAPC_DISC_INFO_T cyBle_discoveryInfo =
  84:Generated_Source\PSoC4/BLE.c **** {
  85:Generated_Source\PSoC4/BLE.c ****     0x02u,      /* discProcedure */
  86:Generated_Source\PSoC4/BLE.c ****     0x01u,      /* scanType */
  87:Generated_Source\PSoC4/BLE.c ****     0x0030u,    /* scanInterval */
  88:Generated_Source\PSoC4/BLE.c ****     0x0030u,    /* scanWindow */
  89:Generated_Source\PSoC4/BLE.c ****     0x00u,      /* ownAddrType */
ARM GAS  C:\Users\Sarah\AppData\Local\Temp\cc9TMdi9.s 			page 3


  90:Generated_Source\PSoC4/BLE.c ****     0x00u,      /* scanFilterPolicy */
  91:Generated_Source\PSoC4/BLE.c ****     0x001Eu,    /* scanTO */
  92:Generated_Source\PSoC4/BLE.c ****     0x00u,      /* filterDuplicates */
  93:Generated_Source\PSoC4/BLE.c **** };
  94:Generated_Source\PSoC4/BLE.c ****     
  95:Generated_Source\PSoC4/BLE.c **** #endif /* CYBLE_GAP_ROLE_CENTRAL || CYBLE_GAP_ROLE_OBSERVER */
  96:Generated_Source\PSoC4/BLE.c **** 
  97:Generated_Source\PSoC4/BLE.c **** #if((CYBLE_GAP_ROLE_PERIPHERAL || CYBLE_GAP_ROLE_CENTRAL) && (CYBLE_BONDING_REQUIREMENT == CYBLE_BO
  98:Generated_Source\PSoC4/BLE.c **** 
  99:Generated_Source\PSoC4/BLE.c **** uint8 cyBle_peerBonding;
 100:Generated_Source\PSoC4/BLE.c **** uint8 cyBle_pendingFlashWrite;
 101:Generated_Source\PSoC4/BLE.c ****     
 102:Generated_Source\PSoC4/BLE.c **** #if(CYBLE_GATT_DB_CCCD_COUNT != 0u)
 103:Generated_Source\PSoC4/BLE.c ****     static uint8 cyBle_pendingFlashClearCccdHandle;
 104:Generated_Source\PSoC4/BLE.c **** #endif /* CYBLE_GATT_DB_CCCD_COUNT != 0u */
 105:Generated_Source\PSoC4/BLE.c ****     
 106:Generated_Source\PSoC4/BLE.c **** #endif  /* (CYBLE_BONDING_REQUIREMENT == CYBLE_BONDING_YES) */
 107:Generated_Source\PSoC4/BLE.c **** 
 108:Generated_Source\PSoC4/BLE.c **** CYBLE_CALLBACK_T CyBle_ApplCallback;
 109:Generated_Source\PSoC4/BLE.c **** CYBLE_GAP_BD_ADDR_T cyBle_deviceAddress = {{0x00u, 0x00u, 0x00u, 0x50u, 0xA0u, 0x00u}, 0x00u };
 110:Generated_Source\PSoC4/BLE.c **** CYBLE_GAP_BD_ADDR_T * cyBle_sflashDeviceAddress = CYBLE_SFLASH_DEVICE_ADDRESS_PTR;
 111:Generated_Source\PSoC4/BLE.c **** 
 112:Generated_Source\PSoC4/BLE.c **** 
 113:Generated_Source\PSoC4/BLE.c **** /******************************************************************************
 114:Generated_Source\PSoC4/BLE.c **** * Function Name: CyBle_Init
 115:Generated_Source\PSoC4/BLE.c **** ***************************************************************************//**
 116:Generated_Source\PSoC4/BLE.c **** *
 117:Generated_Source\PSoC4/BLE.c **** *   Initializes the component with the parameters set in the customizer.
 118:Generated_Source\PSoC4/BLE.c **** * 
 119:Generated_Source\PSoC4/BLE.c **** *  \return
 120:Generated_Source\PSoC4/BLE.c **** *   None
 121:Generated_Source\PSoC4/BLE.c **** * 
 122:Generated_Source\PSoC4/BLE.c **** ******************************************************************************/
 123:Generated_Source\PSoC4/BLE.c **** void CyBle_Init(void)
 124:Generated_Source\PSoC4/BLE.c **** {
 125:Generated_Source\PSoC4/BLE.c ****     cyBle_eventHandlerFlag = 0u;
 126:Generated_Source\PSoC4/BLE.c ****     cyBle_busyStatus = CYBLE_STACK_STATE_FREE;
 127:Generated_Source\PSoC4/BLE.c **** 
 128:Generated_Source\PSoC4/BLE.c ****     #if(CYBLE_GAP_ROLE_PERIPHERAL || CYBLE_GAP_ROLE_BROADCASTER) 
 129:Generated_Source\PSoC4/BLE.c ****         cyBle_advertisingIntervalType = CYBLE_ADVERTISING_FAST; 
 130:Generated_Source\PSoC4/BLE.c ****     #endif /* (CYBLE_GAP_ROLE_PERIPHERAL || CYBLE_GAP_ROLE_BROADCASTER)  */
 131:Generated_Source\PSoC4/BLE.c ****     #if(CYBLE_GAP_ROLE_CENTRAL || CYBLE_GAP_ROLE_OBSERVER)
 132:Generated_Source\PSoC4/BLE.c ****         cyBle_scanningIntervalType = CYBLE_SCANNING_FAST; 
 133:Generated_Source\PSoC4/BLE.c ****     #endif /* (CYBLE_GAP_ROLE_CENTRAL || CYBLE_GAP_ROLE_OBSERVER) */
 134:Generated_Source\PSoC4/BLE.c ****         
 135:Generated_Source\PSoC4/BLE.c ****     /* Init default connection parameters. 
 136:Generated_Source\PSoC4/BLE.c ****        Application may change it before initiating a connection */
 137:Generated_Source\PSoC4/BLE.c ****     #if(CYBLE_GAP_ROLE_CENTRAL)
 138:Generated_Source\PSoC4/BLE.c ****         cyBle_connectionParameters.scanIntv = cyBle_discoveryInfo.scanIntv;
 139:Generated_Source\PSoC4/BLE.c ****         cyBle_connectionParameters.scanWindow = cyBle_discoveryInfo.scanWindow;
 140:Generated_Source\PSoC4/BLE.c ****         cyBle_connectionParameters.ownAddrType = cyBle_discoveryInfo.ownAddrType;
 141:Generated_Source\PSoC4/BLE.c ****         cyBle_connectionParameters.initiatorFilterPolicy = cyBle_discoveryInfo.scanFilterPolicy;
 142:Generated_Source\PSoC4/BLE.c ****         cyBle_connectionParameters.connIntvMin = CYBLE_GAPC_CONNECTION_INTERVAL_MIN;
 143:Generated_Source\PSoC4/BLE.c ****         cyBle_connectionParameters.connIntvMax = CYBLE_GAPC_CONNECTION_INTERVAL_MAX;
 144:Generated_Source\PSoC4/BLE.c ****         cyBle_connectionParameters.connLatency = CYBLE_GAPC_CONNECTION_SLAVE_LATENCY;
 145:Generated_Source\PSoC4/BLE.c ****         cyBle_connectionParameters.supervisionTO = CYBLE_GAPC_CONNECTION_TIME_OUT;
 146:Generated_Source\PSoC4/BLE.c ****         cyBle_connectionParameters.minCeLength = 0x0000u;
ARM GAS  C:\Users\Sarah\AppData\Local\Temp\cc9TMdi9.s 			page 4


 147:Generated_Source\PSoC4/BLE.c ****         cyBle_connectionParameters.maxCeLength = 0xFFFFu;
 148:Generated_Source\PSoC4/BLE.c ****         
 149:Generated_Source\PSoC4/BLE.c ****         cyBle_connectingTimeout = CYBLE_GAPC_CONNECTING_TIMEOUT;
 150:Generated_Source\PSoC4/BLE.c ****     #endif /* CYBLE_GAP_ROLE_CENTRAL */
 151:Generated_Source\PSoC4/BLE.c **** 
 152:Generated_Source\PSoC4/BLE.c ****     CyBle_ServiceInit();
 153:Generated_Source\PSoC4/BLE.c **** 
 154:Generated_Source\PSoC4/BLE.c ****     #if((CYBLE_GAP_ROLE_PERIPHERAL || CYBLE_GAP_ROLE_CENTRAL) && (CYBLE_BONDING_REQUIREMENT == CYBL
 155:Generated_Source\PSoC4/BLE.c ****         cyBle_pendingFlashWrite = 0u;
 156:Generated_Source\PSoC4/BLE.c ****         cyBle_peerBonding = CYBLE_GAP_BONDING_NONE;
 157:Generated_Source\PSoC4/BLE.c ****     #endif  /* (CYBLE_BONDING_REQUIREMENT == CYBLE_BONDING_YES) */
 158:Generated_Source\PSoC4/BLE.c **** 
 159:Generated_Source\PSoC4/BLE.c **** }
 160:Generated_Source\PSoC4/BLE.c **** 
 161:Generated_Source\PSoC4/BLE.c **** 
 162:Generated_Source\PSoC4/BLE.c **** /******************************************************************************
 163:Generated_Source\PSoC4/BLE.c **** * Function Name: CyBle_ServiceInit
 164:Generated_Source\PSoC4/BLE.c **** ***************************************************************************//**
 165:Generated_Source\PSoC4/BLE.c **** * 
 166:Generated_Source\PSoC4/BLE.c **** *  Initializes all included services.
 167:Generated_Source\PSoC4/BLE.c **** * 
 168:Generated_Source\PSoC4/BLE.c **** * \return
 169:Generated_Source\PSoC4/BLE.c **** *  None
 170:Generated_Source\PSoC4/BLE.c **** * 
 171:Generated_Source\PSoC4/BLE.c **** ******************************************************************************/
 172:Generated_Source\PSoC4/BLE.c **** void CyBle_ServiceInit(void)
 173:Generated_Source\PSoC4/BLE.c **** {
  26              		.loc 1 173 0
  27              		.cfi_startproc
  28 0000 08B5     		push	{r3, lr}
  29              		.cfi_def_cfa_offset 8
  30              		.cfi_offset 3, -8
  31              		.cfi_offset 14, -4
 174:Generated_Source\PSoC4/BLE.c ****     #if(CYBLE_GATT_ROLE_CLIENT)
 175:Generated_Source\PSoC4/BLE.c ****         /* Check service range before clearing to support partial discovery */
 176:Generated_Source\PSoC4/BLE.c ****         if(cyBle_serverInfo[CYBLE_SRVI_GAP].range.startHandle == CYBLE_GATT_INVALID_ATTR_HANDLE_VAL
 177:Generated_Source\PSoC4/BLE.c ****         {
 178:Generated_Source\PSoC4/BLE.c ****             (void)memset(&cyBle_gapc, 0, sizeof(cyBle_gapc));
 179:Generated_Source\PSoC4/BLE.c ****         }
 180:Generated_Source\PSoC4/BLE.c ****         if(cyBle_serverInfo[CYBLE_SRVI_GATT].range.startHandle == CYBLE_GATT_INVALID_ATTR_HANDLE_VA
 181:Generated_Source\PSoC4/BLE.c ****         {
 182:Generated_Source\PSoC4/BLE.c ****             (void)memset(&cyBle_gattc, 0, sizeof(cyBle_gattc));
 183:Generated_Source\PSoC4/BLE.c ****         }
 184:Generated_Source\PSoC4/BLE.c ****     #endif /* CYBLE_GATT_ROLE_CLIENT */
 185:Generated_Source\PSoC4/BLE.c ****     
 186:Generated_Source\PSoC4/BLE.c **** 	#ifdef CYBLE_ANCS
 187:Generated_Source\PSoC4/BLE.c ****         CyBle_AncsInit();
 188:Generated_Source\PSoC4/BLE.c ****     #endif /* CYBLE_ANCS */
 189:Generated_Source\PSoC4/BLE.c **** 	
 190:Generated_Source\PSoC4/BLE.c ****     #ifdef CYBLE_ANS
 191:Generated_Source\PSoC4/BLE.c ****         CyBle_AnsInit();
  32              		.loc 1 191 0
  33 0002 FFF7FEFF 		bl	CyBle_AnsInit
  34              	.LVL0:
 192:Generated_Source\PSoC4/BLE.c ****     #endif /* CYBLE_ANS */
 193:Generated_Source\PSoC4/BLE.c ****     
 194:Generated_Source\PSoC4/BLE.c ****     #ifdef CYBLE_BAS
ARM GAS  C:\Users\Sarah\AppData\Local\Temp\cc9TMdi9.s 			page 5


 195:Generated_Source\PSoC4/BLE.c ****         CyBle_BasInit();
 196:Generated_Source\PSoC4/BLE.c ****     #endif /* CYBLE_BAS */
 197:Generated_Source\PSoC4/BLE.c ****     
 198:Generated_Source\PSoC4/BLE.c ****     #ifdef CYBLE_BCS
 199:Generated_Source\PSoC4/BLE.c ****         CyBle_BcsInit();
 200:Generated_Source\PSoC4/BLE.c ****     #endif /* CYBLE_BCS */
 201:Generated_Source\PSoC4/BLE.c **** 
 202:Generated_Source\PSoC4/BLE.c ****     #ifdef CYBLE_BLS
 203:Generated_Source\PSoC4/BLE.c ****         CyBle_BlsInit();
 204:Generated_Source\PSoC4/BLE.c ****     #endif /* CYBLE_BLS */
 205:Generated_Source\PSoC4/BLE.c ****     
 206:Generated_Source\PSoC4/BLE.c ****     #ifdef CYBLE_BMS
 207:Generated_Source\PSoC4/BLE.c ****         CyBle_BmsInit();
 208:Generated_Source\PSoC4/BLE.c ****     #endif /* CYBLE_BMS */
 209:Generated_Source\PSoC4/BLE.c ****     
 210:Generated_Source\PSoC4/BLE.c ****     #ifdef CYBLE_CGMS
 211:Generated_Source\PSoC4/BLE.c ****         CyBle_CgmsInit();
 212:Generated_Source\PSoC4/BLE.c ****     #endif /* CYBLE_CGMS */
 213:Generated_Source\PSoC4/BLE.c **** 
 214:Generated_Source\PSoC4/BLE.c ****     #ifdef CYBLE_CPS
 215:Generated_Source\PSoC4/BLE.c ****         CyBle_CpsInit();
 216:Generated_Source\PSoC4/BLE.c ****     #endif /* CYBLE_CPS */
 217:Generated_Source\PSoC4/BLE.c **** 
 218:Generated_Source\PSoC4/BLE.c ****     #ifdef CYBLE_CSCS
 219:Generated_Source\PSoC4/BLE.c ****         CyBle_CscsInit();
 220:Generated_Source\PSoC4/BLE.c ****     #endif /* CYBLE_CSCS */
 221:Generated_Source\PSoC4/BLE.c ****     
 222:Generated_Source\PSoC4/BLE.c ****     #ifdef CYBLE_CTS
 223:Generated_Source\PSoC4/BLE.c ****         CyBle_CtsInit();
 224:Generated_Source\PSoC4/BLE.c ****     #endif /* CYBLE_CTS */
 225:Generated_Source\PSoC4/BLE.c **** 
 226:Generated_Source\PSoC4/BLE.c ****     #ifdef CYBLE_CUSTOM
 227:Generated_Source\PSoC4/BLE.c ****         CyBle_CustomInit();
 228:Generated_Source\PSoC4/BLE.c ****     #endif /* CYBLE_CUSTOM */
 229:Generated_Source\PSoC4/BLE.c **** 
 230:Generated_Source\PSoC4/BLE.c ****     #ifdef CYBLE_DIS
 231:Generated_Source\PSoC4/BLE.c ****         CyBle_DisInit();
 232:Generated_Source\PSoC4/BLE.c ****     #endif /* CYBLE_DIS */
 233:Generated_Source\PSoC4/BLE.c **** 
 234:Generated_Source\PSoC4/BLE.c ****     #ifdef CYBLE_ESS
 235:Generated_Source\PSoC4/BLE.c ****         CyBle_EssInit();
 236:Generated_Source\PSoC4/BLE.c ****     #endif /* CYBLE_ESS */
 237:Generated_Source\PSoC4/BLE.c ****     
 238:Generated_Source\PSoC4/BLE.c ****     #ifdef CYBLE_GLS
 239:Generated_Source\PSoC4/BLE.c ****         CyBle_GlsInit();
 240:Generated_Source\PSoC4/BLE.c ****     #endif /* CYBLE_GLS */
 241:Generated_Source\PSoC4/BLE.c ****     
 242:Generated_Source\PSoC4/BLE.c ****     #ifdef CYBLE_HIDS
 243:Generated_Source\PSoC4/BLE.c ****         CyBle_HidsInit();
 244:Generated_Source\PSoC4/BLE.c ****     #endif /* CYBLE_HIDS */
 245:Generated_Source\PSoC4/BLE.c **** 
 246:Generated_Source\PSoC4/BLE.c ****     #ifdef CYBLE_HPS
 247:Generated_Source\PSoC4/BLE.c ****         CyBle_HpsInit();
 248:Generated_Source\PSoC4/BLE.c ****     #endif /* CYBLE_HPS */
 249:Generated_Source\PSoC4/BLE.c **** 
 250:Generated_Source\PSoC4/BLE.c ****     #ifdef CYBLE_HRS
 251:Generated_Source\PSoC4/BLE.c ****         CyBle_HrsInit();
ARM GAS  C:\Users\Sarah\AppData\Local\Temp\cc9TMdi9.s 			page 6


 252:Generated_Source\PSoC4/BLE.c ****     #endif /* CYBLE_HRS */
 253:Generated_Source\PSoC4/BLE.c ****     
 254:Generated_Source\PSoC4/BLE.c ****     #ifdef CYBLE_HTS
 255:Generated_Source\PSoC4/BLE.c ****         CyBle_HtsInit();
 256:Generated_Source\PSoC4/BLE.c ****     #endif /* CYBLE_RSCS */
 257:Generated_Source\PSoC4/BLE.c **** 
 258:Generated_Source\PSoC4/BLE.c ****     #ifdef CYBLE_IAS
 259:Generated_Source\PSoC4/BLE.c ****         CyBle_IasInit();
 260:Generated_Source\PSoC4/BLE.c ****     #endif /* CYBLE_IAS */
 261:Generated_Source\PSoC4/BLE.c **** 
 262:Generated_Source\PSoC4/BLE.c ****     #ifdef CYBLE_IPS
 263:Generated_Source\PSoC4/BLE.c ****         CyBle_IpsInit();
 264:Generated_Source\PSoC4/BLE.c ****     #endif /* CYBLE_IPS */
 265:Generated_Source\PSoC4/BLE.c ****     
 266:Generated_Source\PSoC4/BLE.c ****     #ifdef CYBLE_LLS
 267:Generated_Source\PSoC4/BLE.c ****         CyBle_LlsInit();
 268:Generated_Source\PSoC4/BLE.c ****     #endif /* CYBLE_LLS */
 269:Generated_Source\PSoC4/BLE.c **** 
 270:Generated_Source\PSoC4/BLE.c ****     #ifdef CYBLE_LNS
 271:Generated_Source\PSoC4/BLE.c ****         CyBle_LnsInit();
 272:Generated_Source\PSoC4/BLE.c ****     #endif /* CYBLE_LNS */
 273:Generated_Source\PSoC4/BLE.c ****     
 274:Generated_Source\PSoC4/BLE.c ****     #ifdef CYBLE_NDCS
 275:Generated_Source\PSoC4/BLE.c ****         CyBle_NdcsInit();
 276:Generated_Source\PSoC4/BLE.c ****     #endif /* CYBLE_NDCS */
 277:Generated_Source\PSoC4/BLE.c ****     
 278:Generated_Source\PSoC4/BLE.c ****     #ifdef CYBLE_PASS
 279:Generated_Source\PSoC4/BLE.c ****         CyBle_PassInit();
 280:Generated_Source\PSoC4/BLE.c ****     #endif /* CYBLE_PASS */
 281:Generated_Source\PSoC4/BLE.c ****     
 282:Generated_Source\PSoC4/BLE.c ****     #ifdef CYBLE_PLXS
 283:Generated_Source\PSoC4/BLE.c ****         CyBle_PlxsInit();
 284:Generated_Source\PSoC4/BLE.c ****     #endif /* CYBLE_PLXS */
 285:Generated_Source\PSoC4/BLE.c ****     
 286:Generated_Source\PSoC4/BLE.c ****     #ifdef CYBLE_RSCS
 287:Generated_Source\PSoC4/BLE.c ****         CyBle_RscsInit();
 288:Generated_Source\PSoC4/BLE.c ****     #endif /* CYBLE_RSCS */
 289:Generated_Source\PSoC4/BLE.c **** 
 290:Generated_Source\PSoC4/BLE.c ****     #ifdef CYBLE_RTUS
 291:Generated_Source\PSoC4/BLE.c ****         CyBle_RtusInit();
 292:Generated_Source\PSoC4/BLE.c ****     #endif /* CYBLE_RTUS */
 293:Generated_Source\PSoC4/BLE.c **** 
 294:Generated_Source\PSoC4/BLE.c ****     #ifdef CYBLE_SCPS
 295:Generated_Source\PSoC4/BLE.c ****         CyBle_ScpsInit();
 296:Generated_Source\PSoC4/BLE.c ****     #endif /* CYBLE_SCPS */
 297:Generated_Source\PSoC4/BLE.c ****     
 298:Generated_Source\PSoC4/BLE.c ****     #ifdef CYBLE_TPS
 299:Generated_Source\PSoC4/BLE.c ****         CyBle_TpsInit();
 300:Generated_Source\PSoC4/BLE.c ****     #endif /* CYBLE_TPS */
 301:Generated_Source\PSoC4/BLE.c ****     
 302:Generated_Source\PSoC4/BLE.c ****     #ifdef CYBLE_UDS
 303:Generated_Source\PSoC4/BLE.c ****         CyBle_UdsInit();
 304:Generated_Source\PSoC4/BLE.c ****     #endif /* CYBLE_UDS */
 305:Generated_Source\PSoC4/BLE.c **** 
 306:Generated_Source\PSoC4/BLE.c ****     #ifdef CYBLE_WPTS
 307:Generated_Source\PSoC4/BLE.c ****         CyBle_WptsInit();
 308:Generated_Source\PSoC4/BLE.c ****     #endif /* CYBLE_WPTS */
ARM GAS  C:\Users\Sarah\AppData\Local\Temp\cc9TMdi9.s 			page 7


 309:Generated_Source\PSoC4/BLE.c **** 
 310:Generated_Source\PSoC4/BLE.c ****     #ifdef CYBLE_WSS
 311:Generated_Source\PSoC4/BLE.c ****         CyBle_WssInit();
 312:Generated_Source\PSoC4/BLE.c ****     #endif /* CYBLE_WSS */
 313:Generated_Source\PSoC4/BLE.c **** }
  35              		.loc 1 313 0
  36              		@ sp needed
  37 0006 08BD     		pop	{r3, pc}
  38              		.cfi_endproc
  39              	.LFE3:
  40              		.size	CyBle_ServiceInit, .-CyBle_ServiceInit
  41              		.section	.text.CyBle_Init,"ax",%progbits
  42              		.align	2
  43              		.global	CyBle_Init
  44              		.code	16
  45              		.thumb_func
  46              		.type	CyBle_Init, %function
  47              	CyBle_Init:
  48              	.LFB2:
 124:Generated_Source\PSoC4/BLE.c ****     cyBle_eventHandlerFlag = 0u;
  49              		.loc 1 124 0
  50              		.cfi_startproc
  51 0000 10B5     		push	{r4, lr}
  52              		.cfi_def_cfa_offset 8
  53              		.cfi_offset 4, -8
  54              		.cfi_offset 14, -4
 125:Generated_Source\PSoC4/BLE.c ****     cyBle_busyStatus = CYBLE_STACK_STATE_FREE;
  55              		.loc 1 125 0
  56 0002 0022     		mov	r2, #0
  57 0004 124B     		ldr	r3, .L3
  58 0006 1A70     		strb	r2, [r3]
 126:Generated_Source\PSoC4/BLE.c **** 
  59              		.loc 1 126 0
  60 0008 124B     		ldr	r3, .L3+4
  61 000a 1A70     		strb	r2, [r3]
 132:Generated_Source\PSoC4/BLE.c ****     #endif /* (CYBLE_GAP_ROLE_CENTRAL || CYBLE_GAP_ROLE_OBSERVER) */
  62              		.loc 1 132 0
  63 000c 124B     		ldr	r3, .L3+8
  64 000e 1A70     		strb	r2, [r3]
 138:Generated_Source\PSoC4/BLE.c ****         cyBle_connectionParameters.scanWindow = cyBle_discoveryInfo.scanWindow;
  65              		.loc 1 138 0
  66 0010 1249     		ldr	r1, .L3+12
  67 0012 4888     		ldrh	r0, [r1, #2]
  68 0014 124B     		ldr	r3, .L3+16
  69 0016 1880     		strh	r0, [r3]
 139:Generated_Source\PSoC4/BLE.c ****         cyBle_connectionParameters.ownAddrType = cyBle_discoveryInfo.ownAddrType;
  70              		.loc 1 139 0
  71 0018 8888     		ldrh	r0, [r1, #4]
  72 001a 5880     		strh	r0, [r3, #2]
 140:Generated_Source\PSoC4/BLE.c ****         cyBle_connectionParameters.initiatorFilterPolicy = cyBle_discoveryInfo.scanFilterPolicy;
  73              		.loc 1 140 0
  74 001c 8879     		ldrb	r0, [r1, #6]
  75 001e 1873     		strb	r0, [r3, #12]
 141:Generated_Source\PSoC4/BLE.c ****         cyBle_connectionParameters.connIntvMin = CYBLE_GAPC_CONNECTION_INTERVAL_MIN;
  76              		.loc 1 141 0
  77 0020 C979     		ldrb	r1, [r1, #7]
  78 0022 1971     		strb	r1, [r3, #4]
ARM GAS  C:\Users\Sarah\AppData\Local\Temp\cc9TMdi9.s 			page 8


 142:Generated_Source\PSoC4/BLE.c ****         cyBle_connectionParameters.connIntvMax = CYBLE_GAPC_CONNECTION_INTERVAL_MAX;
  79              		.loc 1 142 0
  80 0024 0621     		mov	r1, #6
  81 0026 D981     		strh	r1, [r3, #14]
 143:Generated_Source\PSoC4/BLE.c ****         cyBle_connectionParameters.connLatency = CYBLE_GAPC_CONNECTION_SLAVE_LATENCY;
  82              		.loc 1 143 0
  83 0028 2231     		add	r1, r1, #34
  84 002a 1982     		strh	r1, [r3, #16]
 144:Generated_Source\PSoC4/BLE.c ****         cyBle_connectionParameters.supervisionTO = CYBLE_GAPC_CONNECTION_TIME_OUT;
  85              		.loc 1 144 0
  86 002c 0024     		mov	r4, #0
  87 002e 5A82     		strh	r2, [r3, #18]
 145:Generated_Source\PSoC4/BLE.c ****         cyBle_connectionParameters.minCeLength = 0x0000u;
  88              		.loc 1 145 0
  89 0030 FA21     		mov	r1, #250
  90 0032 8900     		lsl	r1, r1, #2
  91 0034 9982     		strh	r1, [r3, #20]
 146:Generated_Source\PSoC4/BLE.c ****         cyBle_connectionParameters.maxCeLength = 0xFFFFu;
  92              		.loc 1 146 0
  93 0036 DA82     		strh	r2, [r3, #22]
 147:Generated_Source\PSoC4/BLE.c ****         
  94              		.loc 1 147 0
  95 0038 013A     		sub	r2, r2, #1
  96 003a 1A83     		strh	r2, [r3, #24]
 149:Generated_Source\PSoC4/BLE.c ****     #endif /* CYBLE_GAP_ROLE_CENTRAL */
  97              		.loc 1 149 0
  98 003c 1F32     		add	r2, r2, #31
  99 003e 094B     		ldr	r3, .L3+20
 100 0040 1A80     		strh	r2, [r3]
 152:Generated_Source\PSoC4/BLE.c **** 
 101              		.loc 1 152 0
 102 0042 FFF7FEFF 		bl	CyBle_ServiceInit
 103              	.LVL1:
 155:Generated_Source\PSoC4/BLE.c ****         cyBle_peerBonding = CYBLE_GAP_BONDING_NONE;
 104              		.loc 1 155 0
 105 0046 084B     		ldr	r3, .L3+24
 106 0048 1C70     		strb	r4, [r3]
 156:Generated_Source\PSoC4/BLE.c ****     #endif  /* (CYBLE_BONDING_REQUIREMENT == CYBLE_BONDING_YES) */
 107              		.loc 1 156 0
 108 004a 084B     		ldr	r3, .L3+28
 109 004c 1C70     		strb	r4, [r3]
 159:Generated_Source\PSoC4/BLE.c **** 
 110              		.loc 1 159 0
 111              		@ sp needed
 112 004e 10BD     		pop	{r4, pc}
 113              	.L4:
 114              		.align	2
 115              	.L3:
 116 0050 00000000 		.word	cyBle_eventHandlerFlag
 117 0054 00000000 		.word	cyBle_busyStatus
 118 0058 00000000 		.word	cyBle_scanningIntervalType
 119 005c 00000000 		.word	.LANCHOR0
 120 0060 00000000 		.word	cyBle_connectionParameters
 121 0064 00000000 		.word	cyBle_connectingTimeout
 122 0068 00000000 		.word	cyBle_pendingFlashWrite
 123 006c 00000000 		.word	cyBle_peerBonding
 124              		.cfi_endproc
ARM GAS  C:\Users\Sarah\AppData\Local\Temp\cc9TMdi9.s 			page 9


 125              	.LFE2:
 126              		.size	CyBle_Init, .-CyBle_Init
 127              		.section	.text.CyBle_Start,"ax",%progbits
 128              		.align	2
 129              		.global	CyBle_Start
 130              		.code	16
 131              		.thumb_func
 132              		.type	CyBle_Start, %function
 133              	CyBle_Start:
 134              	.LFB4:
 314:Generated_Source\PSoC4/BLE.c **** 
 315:Generated_Source\PSoC4/BLE.c **** 
 316:Generated_Source\PSoC4/BLE.c **** /******************************************************************************
 317:Generated_Source\PSoC4/BLE.c **** * Function Name: CyBle_Start
 318:Generated_Source\PSoC4/BLE.c **** ***************************************************************************//**
 319:Generated_Source\PSoC4/BLE.c **** * 
 320:Generated_Source\PSoC4/BLE.c **** *  This function initializes the BLE Stack, which consists of the BLE Stack 
 321:Generated_Source\PSoC4/BLE.c **** *  Manager, BLE Controller, and BLE Host modules. It takes care of initializing
 322:Generated_Source\PSoC4/BLE.c **** *  the Profile layer, schedulers, Timer and other platform related
 323:Generated_Source\PSoC4/BLE.c **** *  resources required for the BLE component. It also registers the callback 
 324:Generated_Source\PSoC4/BLE.c **** *  function for BLE events that will be registered in the BLE stack.
 325:Generated_Source\PSoC4/BLE.c **** * 
 326:Generated_Source\PSoC4/BLE.c **** *  Note that this function does not reset the BLE Stack.
 327:Generated_Source\PSoC4/BLE.c **** * 
 328:Generated_Source\PSoC4/BLE.c **** *  For HCI-Mode of operation, this function will not initialize the BLE Host 
 329:Generated_Source\PSoC4/BLE.c **** *  module.
 330:Generated_Source\PSoC4/BLE.c **** * 
 331:Generated_Source\PSoC4/BLE.c **** *  Calling this function results in the generation of CYBLE_EVT_STACK_ON event
 332:Generated_Source\PSoC4/BLE.c **** *  on successful initialization of the BLE Stack.
 333:Generated_Source\PSoC4/BLE.c **** * 
 334:Generated_Source\PSoC4/BLE.c **** *  \param callbackFunc: Event callback function to receive events from BLE stack.
 335:Generated_Source\PSoC4/BLE.c **** *   CYBLE_CALLBACK_T is a function pointer type.
 336:Generated_Source\PSoC4/BLE.c **** * 
 337:Generated_Source\PSoC4/BLE.c **** * \return
 338:Generated_Source\PSoC4/BLE.c **** *  CYBLE_API_RESULT_T : Return value indicates if the function succeeded or 
 339:Generated_Source\PSoC4/BLE.c **** *  failed. Following are the possible error codes.
 340:Generated_Source\PSoC4/BLE.c **** * 
 341:Generated_Source\PSoC4/BLE.c **** *   <table>
 342:Generated_Source\PSoC4/BLE.c **** *  	  <tr>
 343:Generated_Source\PSoC4/BLE.c **** *       <th>Error codes</th>
 344:Generated_Source\PSoC4/BLE.c **** *       <th>Description</th>
 345:Generated_Source\PSoC4/BLE.c **** *     </tr>
 346:Generated_Source\PSoC4/BLE.c **** *     <tr>
 347:Generated_Source\PSoC4/BLE.c **** *       <td>CYBLE_ERROR_OK</td>
 348:Generated_Source\PSoC4/BLE.c **** *       <td>On successful operation.</td>
 349:Generated_Source\PSoC4/BLE.c **** *     </tr>
 350:Generated_Source\PSoC4/BLE.c **** *     <tr>
 351:Generated_Source\PSoC4/BLE.c **** *       <td>CYBLE_ERROR_INVALID_PARAMETER</td>
 352:Generated_Source\PSoC4/BLE.c **** *       <td>On passing a NULL pointer to the function when the BLE stack is not built in HCI mode. 
 353:Generated_Source\PSoC4/BLE.c **** *			CYBLE_ERROR_INVALID_PARAMETER is never returned in HCI mode.</td>
 354:Generated_Source\PSoC4/BLE.c **** *     </tr>
 355:Generated_Source\PSoC4/BLE.c **** *     <tr>
 356:Generated_Source\PSoC4/BLE.c **** *       <td>CYBLE_ERROR_REPEATED_ATTEMPTS</td>
 357:Generated_Source\PSoC4/BLE.c **** *       <td>On invoking this function more than once without calling CyBle_Shutdown() 
 358:Generated_Source\PSoC4/BLE.c **** *           function between calls to this function.</td>
 359:Generated_Source\PSoC4/BLE.c **** *     </tr>
 360:Generated_Source\PSoC4/BLE.c **** *     <tr>
ARM GAS  C:\Users\Sarah\AppData\Local\Temp\cc9TMdi9.s 			page 10


 361:Generated_Source\PSoC4/BLE.c **** *       <td>CYBLE_ERROR_MEMORY_ALLOCATION_FAILED</td>
 362:Generated_Source\PSoC4/BLE.c **** *       <td>There is insufficient memory available.</td>
 363:Generated_Source\PSoC4/BLE.c **** *     </tr>
 364:Generated_Source\PSoC4/BLE.c **** *   </table>
 365:Generated_Source\PSoC4/BLE.c **** * 
 366:Generated_Source\PSoC4/BLE.c **** *  \globalvars
 367:Generated_Source\PSoC4/BLE.c **** *   The CyBle_initVar variable is used to indicate initial
 368:Generated_Source\PSoC4/BLE.c **** *   configuration of this component. The variable is initialized to zero (0u)
 369:Generated_Source\PSoC4/BLE.c **** *   and set to one (1u) the first time CyBle_Start() is called. This
 370:Generated_Source\PSoC4/BLE.c **** *   allows for component initialization without re-initialization in all
 371:Generated_Source\PSoC4/BLE.c **** *   subsequent calls to the CyBle_Start() routine.
 372:Generated_Source\PSoC4/BLE.c **** * 
 373:Generated_Source\PSoC4/BLE.c **** ******************************************************************************/
 374:Generated_Source\PSoC4/BLE.c **** CYBLE_API_RESULT_T CyBle_Start(CYBLE_CALLBACK_T callbackFunc)
 375:Generated_Source\PSoC4/BLE.c **** {
 135              		.loc 1 375 0
 136              		.cfi_startproc
 137              	.LVL2:
 138 0000 10B5     		push	{r4, lr}
 139              		.cfi_def_cfa_offset 8
 140              		.cfi_offset 4, -8
 141              		.cfi_offset 14, -4
 142 0002 90B0     		sub	sp, sp, #64
 143              		.cfi_def_cfa_offset 72
 144 0004 041C     		mov	r4, r0
 145              	.LVL3:
 376:Generated_Source\PSoC4/BLE.c ****     CYBLE_API_RESULT_T apiResult = CYBLE_ERROR_OK;
 377:Generated_Source\PSoC4/BLE.c ****     
 378:Generated_Source\PSoC4/BLE.c ****     #if(CYBLE_MODE_PROFILE)
 379:Generated_Source\PSoC4/BLE.c ****     
 380:Generated_Source\PSoC4/BLE.c ****     CYBLE_STK_APP_DATA_BUFF_T cyBle_stackDataBuff[CYBLE_STACK_APP_MIN_POOL] = 
 146              		.loc 1 380 0
 147 0006 0BA8     		add	r0, sp, #44
 148              	.LVL4:
 149 0008 2149     		ldr	r1, .L9
 150 000a 1422     		mov	r2, #20
 151 000c FFF7FEFF 		bl	memcpy
 152              	.LVL5:
 381:Generated_Source\PSoC4/BLE.c ****     {
 382:Generated_Source\PSoC4/BLE.c ****         {CYBLE_GATT_MTU_PLUS_L2CAP_MEM_EXT, CYBLE_GATT_MTU_BUFF_COUNT + CYBLE_GATT_MAX_ATTR_BUFF_CO
 383:Generated_Source\PSoC4/BLE.c ****         {CYBLE_L2CAP_PSM_PLUS_L2CAP_MEM_EXT, CYBLE_L2CAP_PSM_COUNT},
 384:Generated_Source\PSoC4/BLE.c ****         {CYBLE_L2CAP_CBFC_PLUS_L2CAP_MEM_EXT, 2u * CYBLE_L2CAP_LOGICAL_CHANNEL_COUNT},
 385:Generated_Source\PSoC4/BLE.c ****         {CYBLE_L2CAP_MTU_PLUS_L2CAP_MEM_EXT, CYBLE_L2CAP_LOGICAL_CHANNEL_COUNT},
 386:Generated_Source\PSoC4/BLE.c ****         {CYBLE_L2CAP_MPS_PLUS_L2CAP_MEM_EXT, CYBLE_L2CAP_LOGICAL_CHANNEL_COUNT * (CYBLE_L2CAP_MTU_M
 387:Generated_Source\PSoC4/BLE.c ****     }; 
 388:Generated_Source\PSoC4/BLE.c **** 
 389:Generated_Source\PSoC4/BLE.c ****     #endif /* CYBLE_MODE_PROFILE */
 390:Generated_Source\PSoC4/BLE.c ****     
 391:Generated_Source\PSoC4/BLE.c ****     /* If not initialized then initialize all the required hardware and software */
 392:Generated_Source\PSoC4/BLE.c ****     if(cyBle_initVar == 0u)
 153              		.loc 1 392 0
 154 0010 204B     		ldr	r3, .L9+4
 155 0012 1B78     		ldrb	r3, [r3]
 156 0014 002B     		cmp	r3, #0
 157 0016 04D1     		bne	.L6
 393:Generated_Source\PSoC4/BLE.c ****     {
 394:Generated_Source\PSoC4/BLE.c ****         CyBle_Init();
ARM GAS  C:\Users\Sarah\AppData\Local\Temp\cc9TMdi9.s 			page 11


 158              		.loc 1 394 0
 159 0018 FFF7FEFF 		bl	CyBle_Init
 160              	.LVL6:
 395:Generated_Source\PSoC4/BLE.c ****         cyBle_initVar = 1u;
 161              		.loc 1 395 0
 162 001c 0122     		mov	r2, #1
 163 001e 1D4B     		ldr	r3, .L9+4
 164 0020 1A70     		strb	r2, [r3]
 165              	.L6:
 396:Generated_Source\PSoC4/BLE.c ****     }
 397:Generated_Source\PSoC4/BLE.c ****     
 398:Generated_Source\PSoC4/BLE.c ****     if(callbackFunc != NULL)
 166              		.loc 1 398 0
 167 0022 002C     		cmp	r4, #0
 168 0024 30D0     		beq	.L8
 399:Generated_Source\PSoC4/BLE.c ****     {
 400:Generated_Source\PSoC4/BLE.c ****         CyBle_ApplCallback = callbackFunc;
 169              		.loc 1 400 0
 170 0026 1C4B     		ldr	r3, .L9+8
 171 0028 1C60     		str	r4, [r3]
 172              	.LBB2:
 401:Generated_Source\PSoC4/BLE.c ****         
 402:Generated_Source\PSoC4/BLE.c ****     #if(CYBLE_SHARING_MODE_EXPORT)
 403:Generated_Source\PSoC4/BLE.c ****         if(cyBle_stackMemoryRam == NULL)
 404:Generated_Source\PSoC4/BLE.c ****         {
 405:Generated_Source\PSoC4/BLE.c ****             cyBle_stackMemoryRam = (uint8 *)malloc(CYBLE_STACK_RAM_SIZE);
 406:Generated_Source\PSoC4/BLE.c ****             if(cyBle_stackMemoryRam == NULL)
 407:Generated_Source\PSoC4/BLE.c ****             {
 408:Generated_Source\PSoC4/BLE.c ****                 apiResult = CYBLE_ERROR_MEMORY_ALLOCATION_FAILED;
 409:Generated_Source\PSoC4/BLE.c ****             }
 410:Generated_Source\PSoC4/BLE.c ****         }
 411:Generated_Source\PSoC4/BLE.c ****     #endif /* CYBLE_SHARING_MODE_EXPORT */
 412:Generated_Source\PSoC4/BLE.c ****         if(apiResult == CYBLE_ERROR_OK)
 413:Generated_Source\PSoC4/BLE.c ****         {
 414:Generated_Source\PSoC4/BLE.c ****             CYBLE_DLE_CONFIG_PARAM_T dleConfigParams;
 415:Generated_Source\PSoC4/BLE.c ****             CYBLE_PRIVACY_1_2_CONFIG_PARAM_T privacyConfigParams;
 416:Generated_Source\PSoC4/BLE.c ****             CYBLE_STACK_CONFIG_PARAM_T stackConfig;
 417:Generated_Source\PSoC4/BLE.c ****             uint16 featureHeapReq;
 418:Generated_Source\PSoC4/BLE.c ****             
 419:Generated_Source\PSoC4/BLE.c ****             stackConfig.privacyConfig = &privacyConfigParams;
 173              		.loc 1 419 0
 174 002a 08AC     		add	r4, sp, #32
 175              	.LVL7:
 176 002c 05AA     		add	r2, sp, #20
 177 002e 0992     		str	r2, [sp, #36]
 420:Generated_Source\PSoC4/BLE.c ****             stackConfig.dleConfig = &dleConfigParams;
 178              		.loc 1 420 0
 179 0030 06AB     		add	r3, sp, #24
 180 0032 0893     		str	r3, [sp, #32]
 421:Generated_Source\PSoC4/BLE.c ****             
 422:Generated_Source\PSoC4/BLE.c ****             /* Configure default BLE 4.1 features and enabled 4.2 features */
 423:Generated_Source\PSoC4/BLE.c ****             stackConfig.feature_mask = CYBLE_DLE_FEATURE | CYBLE_LL_PRIVACY_FEATURE | 
 181              		.loc 1 423 0
 182 0034 0221     		mov	r1, #2
 183 0036 2181     		strh	r1, [r4, #8]
 424:Generated_Source\PSoC4/BLE.c ****                                        CYBLE_SECURE_CONN_FEATURE;
 425:Generated_Source\PSoC4/BLE.c **** 
ARM GAS  C:\Users\Sarah\AppData\Local\Temp\cc9TMdi9.s 			page 12


 426:Generated_Source\PSoC4/BLE.c ****             /* Configure DLE */
 427:Generated_Source\PSoC4/BLE.c ****             dleConfigParams.dleMaxTxCapability = CYBLE_LL_MAX_TX_PAYLOAD_SIZE;
 184              		.loc 1 427 0
 185 0038 1931     		add	r1, r1, #25
 186 003a 1980     		strh	r1, [r3]
 428:Generated_Source\PSoC4/BLE.c ****             dleConfigParams.dleMaxRxCapability = CYBLE_LL_MAX_RX_PAYLOAD_SIZE;
 187              		.loc 1 428 0
 188 003c 5980     		strh	r1, [r3, #2]
 429:Generated_Source\PSoC4/BLE.c ****             dleConfigParams.dleNumTxBuffer = CYBLE_LL_DEFAULT_NUM_ACL_TX_PACKETS;
 189              		.loc 1 429 0
 190 003e 1739     		sub	r1, r1, #23
 191 0040 1971     		strb	r1, [r3, #4]
 430:Generated_Source\PSoC4/BLE.c ****         #if(CYBLE_DLE_FEATURE_ENABLED)
 431:Generated_Source\PSoC4/BLE.c ****             CyBle_EnableDleFeature();              /* Enable DLE code in stack */
 432:Generated_Source\PSoC4/BLE.c ****         #endif /* CYBLE_DLE_FEATURE_ENABLED */
 433:Generated_Source\PSoC4/BLE.c ****         
 434:Generated_Source\PSoC4/BLE.c ****             /* Configure LL Privacy */
 435:Generated_Source\PSoC4/BLE.c ****             privacyConfigParams.resolvingListSize = CYBLE_MAX_RESOLVABLE_DEVICES;
 192              		.loc 1 435 0
 193 0042 0823     		mov	r3, #8
 194 0044 1370     		strb	r3, [r2]
 436:Generated_Source\PSoC4/BLE.c ****         #if(CYBLE_LL_PRIVACY_FEATURE_ENABLED)
 437:Generated_Source\PSoC4/BLE.c ****             CyBle_EnablePrivacyFeature();          /* Enable LL Privacy code in stack */
 195              		.loc 1 437 0
 196 0046 FFF7FEFF 		bl	CyBle_EnablePrivacyFeature
 197              	.LVL8:
 438:Generated_Source\PSoC4/BLE.c ****         #endif /* CYBLE_LL_PRIVACY_FEATURE_ENABLED */
 439:Generated_Source\PSoC4/BLE.c **** 
 440:Generated_Source\PSoC4/BLE.c ****             apiResult = CyBle_StackSetFeatureConfig(&stackConfig, &featureHeapReq);
 198              		.loc 1 440 0
 199 004a 201C     		mov	r0, r4
 200 004c 1621     		mov	r1, #22
 201 004e 6944     		add	r1, r1, sp
 202 0050 FFF7FEFF 		bl	CyBle_StackSetFeatureConfig
 203              	.LVL9:
 204              	.LBE2:
 441:Generated_Source\PSoC4/BLE.c ****             }
 442:Generated_Source\PSoC4/BLE.c ****     
 443:Generated_Source\PSoC4/BLE.c ****         if(apiResult == CYBLE_ERROR_OK)
 205              		.loc 1 443 0
 206 0054 0028     		cmp	r0, #0
 207 0056 18D1     		bne	.L7
 444:Generated_Source\PSoC4/BLE.c ****         {
 445:Generated_Source\PSoC4/BLE.c ****         
 446:Generated_Source\PSoC4/BLE.c ****         #if(CYBLE_MODE_PROFILE)
 447:Generated_Source\PSoC4/BLE.c ****             #if(CYBLE_BONDING_REQUIREMENT == CYBLE_BONDING_YES)
 448:Generated_Source\PSoC4/BLE.c ****                 apiResult = CyBle_StackInit(&CyBle_EventHandler, cyBle_stackMemoryRam, 
 208              		.loc 1 448 0
 209 0058 0523     		mov	r3, #5
 210 005a 0093     		str	r3, [sp]
 211 005c 0F4B     		ldr	r3, .L9+12
 212 005e 0193     		str	r3, [sp, #4]
 213 0060 0F4B     		ldr	r3, .L9+16
 214 0062 0293     		str	r3, [sp, #8]
 215 0064 0F48     		ldr	r0, .L9+20
 216              	.LVL10:
 217 0066 1049     		ldr	r1, .L9+24
ARM GAS  C:\Users\Sarah\AppData\Local\Temp\cc9TMdi9.s 			page 13


 218 0068 D822     		mov	r2, #216
 219 006a 1201     		lsl	r2, r2, #4
 220 006c 0BAB     		add	r3, sp, #44
 221 006e FFF7FEFF 		bl	CyBle_StackInit
 222              	.LVL11:
 449:Generated_Source\PSoC4/BLE.c ****                     CYBLE_STACK_RAM_SIZE - CYBLE_GATT_PREPARE_WRITE_BUFF_LEN, cyBle_stackDataBuff, 
 450:Generated_Source\PSoC4/BLE.c ****                     CYBLE_STACK_APP_MIN_POOL, cyBle_flashStorage.stackFlashptr, CYBLE_STACK_FLASH_S
 451:Generated_Source\PSoC4/BLE.c ****             #else
 452:Generated_Source\PSoC4/BLE.c ****                 apiResult = CyBle_StackInit(&CyBle_EventHandler, cyBle_stackMemoryRam, 
 453:Generated_Source\PSoC4/BLE.c ****                     CYBLE_STACK_RAM_SIZE - CYBLE_GATT_PREPARE_WRITE_BUFF_LEN, cyBle_stackDataBuff, 
 454:Generated_Source\PSoC4/BLE.c ****                     CYBLE_STACK_APP_MIN_POOL, NULL, 0u);
 455:Generated_Source\PSoC4/BLE.c ****             #endif  /* CYBLE_BONDING_REQUIREMENT == CYBLE_BONDING_YES */
 456:Generated_Source\PSoC4/BLE.c ****         #else
 457:Generated_Source\PSoC4/BLE.c ****             apiResult = CyBle_StackInit(&CyBle_EventHandler, cyBle_stackMemoryRam, CYBLE_STACK_RAM_
 458:Generated_Source\PSoC4/BLE.c ****                 NULL, 0u, NULL, 0u);
 459:Generated_Source\PSoC4/BLE.c ****         #endif /* CYBLE_MODE_PROFILE */
 460:Generated_Source\PSoC4/BLE.c **** 
 461:Generated_Source\PSoC4/BLE.c ****             if(apiResult == CYBLE_ERROR_OK)
 223              		.loc 1 461 0
 224 0072 0028     		cmp	r0, #0
 225 0074 09D1     		bne	.L7
 462:Generated_Source\PSoC4/BLE.c ****             {
 463:Generated_Source\PSoC4/BLE.c ****                 CyBle_SetState(CYBLE_STATE_INITIALIZING);
 226              		.loc 1 463 0
 227 0076 0122     		mov	r2, #1
 228 0078 0C4B     		ldr	r3, .L9+28
 229 007a 1A70     		strb	r2, [r3]
 464:Generated_Source\PSoC4/BLE.c ****                 
 465:Generated_Source\PSoC4/BLE.c ****             #if (CYBLE_GATT_ROLE_CLIENT)
 466:Generated_Source\PSoC4/BLE.c ****                 CyBle_SetClientState(CYBLE_CLIENT_STATE_DISCONNECTED);
 467:Generated_Source\PSoC4/BLE.c ****             #endif /* CYBLE_GATT_ROLE_CLIENT */
 468:Generated_Source\PSoC4/BLE.c ****                 
 469:Generated_Source\PSoC4/BLE.c ****             #if(CYBLE_GATT_ROLE_SERVER)
 470:Generated_Source\PSoC4/BLE.c ****                 apiResult = CyBle_GattsDbRegister(cyBle_gattDB, CYBLE_GATT_DB_INDEX_COUNT, CYBLE_GA
 230              		.loc 1 470 0
 231 007c 0C48     		ldr	r0, .L9+32
 232              	.LVL12:
 233 007e 1A21     		mov	r1, #26
 234 0080 0732     		add	r2, r2, #7
 235 0082 FFF7FEFF 		bl	CyBle_GattsDbRegister
 236              	.LVL13:
 237 0086 00E0     		b	.L7
 238              	.LVL14:
 239              	.L8:
 471:Generated_Source\PSoC4/BLE.c ****             #endif /* CYBLE_GATT_ROLE_SERVER */
 472:Generated_Source\PSoC4/BLE.c ****             }
 473:Generated_Source\PSoC4/BLE.c ****         }
 474:Generated_Source\PSoC4/BLE.c ****     }
 475:Generated_Source\PSoC4/BLE.c ****     else
 476:Generated_Source\PSoC4/BLE.c ****     {
 477:Generated_Source\PSoC4/BLE.c ****         apiResult = CYBLE_ERROR_INVALID_PARAMETER;
 240              		.loc 1 477 0
 241 0088 0120     		mov	r0, #1
 242              	.LVL15:
 243              	.L7:
 478:Generated_Source\PSoC4/BLE.c ****     }
 479:Generated_Source\PSoC4/BLE.c **** 
ARM GAS  C:\Users\Sarah\AppData\Local\Temp\cc9TMdi9.s 			page 14


 480:Generated_Source\PSoC4/BLE.c ****     return (apiResult);
 481:Generated_Source\PSoC4/BLE.c **** }
 244              		.loc 1 481 0
 245 008a 10B0     		add	sp, sp, #64
 246              		@ sp needed
 247 008c 10BD     		pop	{r4, pc}
 248              	.L10:
 249 008e C046     		.align	2
 250              	.L9:
 251 0090 00000000 		.word	.LANCHOR1
 252 0094 00000000 		.word	.LANCHOR2
 253 0098 00000000 		.word	CyBle_ApplCallback
 254 009c 00000000 		.word	cyBle_flashStorage
 255 00a0 79020000 		.word	633
 256 00a4 00000000 		.word	CyBle_EventHandler
 257 00a8 00000000 		.word	.LANCHOR3
 258 00ac 00000000 		.word	cyBle_state
 259 00b0 00000000 		.word	cyBle_gattDB
 260              		.cfi_endproc
 261              	.LFE4:
 262              		.size	CyBle_Start, .-CyBle_Start
 263              		.section	.text.CyBle_Stop,"ax",%progbits
 264              		.align	2
 265              		.global	CyBle_Stop
 266              		.code	16
 267              		.thumb_func
 268              		.type	CyBle_Stop, %function
 269              	CyBle_Stop:
 270              	.LFB5:
 482:Generated_Source\PSoC4/BLE.c **** 
 483:Generated_Source\PSoC4/BLE.c **** 
 484:Generated_Source\PSoC4/BLE.c **** /******************************************************************************
 485:Generated_Source\PSoC4/BLE.c **** * Function Name: CyBle_Stop
 486:Generated_Source\PSoC4/BLE.c **** ***************************************************************************//**
 487:Generated_Source\PSoC4/BLE.c **** * 
 488:Generated_Source\PSoC4/BLE.c **** *  This function stops any ongoing operation in the BLE Stack and forces the 
 489:Generated_Source\PSoC4/BLE.c **** *  BLE Stack to shut down. The only function that can be called after calling
 490:Generated_Source\PSoC4/BLE.c **** *  this function is CyBle_Start(). 
 491:Generated_Source\PSoC4/BLE.c **** * 
 492:Generated_Source\PSoC4/BLE.c **** * \return
 493:Generated_Source\PSoC4/BLE.c **** *  None
 494:Generated_Source\PSoC4/BLE.c **** * 
 495:Generated_Source\PSoC4/BLE.c **** ******************************************************************************/
 496:Generated_Source\PSoC4/BLE.c **** void CyBle_Stop(void)
 497:Generated_Source\PSoC4/BLE.c **** {
 271              		.loc 1 497 0
 272              		.cfi_startproc
 273 0000 08B5     		push	{r3, lr}
 274              		.cfi_def_cfa_offset 8
 275              		.cfi_offset 3, -8
 276              		.cfi_offset 14, -4
 498:Generated_Source\PSoC4/BLE.c ****     CyBle_Shutdown();                         /* Stop all ongoing activities */
 277              		.loc 1 498 0
 278 0002 FFF7FEFF 		bl	CyBle_Shutdown
 279              	.LVL16:
 499:Generated_Source\PSoC4/BLE.c ****     CyBle_SetState(CYBLE_STATE_STOPPED);
 280              		.loc 1 499 0
ARM GAS  C:\Users\Sarah\AppData\Local\Temp\cc9TMdi9.s 			page 15


 281 0006 0022     		mov	r2, #0
 282 0008 014B     		ldr	r3, .L12
 283 000a 1A70     		strb	r2, [r3]
 500:Generated_Source\PSoC4/BLE.c ****     #if(CYBLE_SHARING_MODE_EXPORT)
 501:Generated_Source\PSoC4/BLE.c ****         if(cyBle_stackMemoryRam != NULL)
 502:Generated_Source\PSoC4/BLE.c ****         {
 503:Generated_Source\PSoC4/BLE.c ****             free(cyBle_stackMemoryRam);
 504:Generated_Source\PSoC4/BLE.c ****         }
 505:Generated_Source\PSoC4/BLE.c ****     #endif /* CYBLE_SHARING_MODE_EXPORT */
 506:Generated_Source\PSoC4/BLE.c **** }
 284              		.loc 1 506 0
 285              		@ sp needed
 286 000c 08BD     		pop	{r3, pc}
 287              	.L13:
 288 000e C046     		.align	2
 289              	.L12:
 290 0010 00000000 		.word	cyBle_state
 291              		.cfi_endproc
 292              	.LFE5:
 293              		.size	CyBle_Stop, .-CyBle_Stop
 294              		.section	.text.CyBle_StoreBondingData,"ax",%progbits
 295              		.align	2
 296              		.global	CyBle_StoreBondingData
 297              		.code	16
 298              		.thumb_func
 299              		.type	CyBle_StoreBondingData, %function
 300              	CyBle_StoreBondingData:
 301              	.LFB6:
 507:Generated_Source\PSoC4/BLE.c **** 
 508:Generated_Source\PSoC4/BLE.c **** 
 509:Generated_Source\PSoC4/BLE.c **** #if((CYBLE_GAP_ROLE_PERIPHERAL || CYBLE_GAP_ROLE_CENTRAL) && (CYBLE_BONDING_REQUIREMENT == CYBLE_BO
 510:Generated_Source\PSoC4/BLE.c **** 
 511:Generated_Source\PSoC4/BLE.c ****     
 512:Generated_Source\PSoC4/BLE.c **** /******************************************************************************
 513:Generated_Source\PSoC4/BLE.c **** * Function Name: CyBle_StoreBondingData
 514:Generated_Source\PSoC4/BLE.c **** ***************************************************************************//**
 515:Generated_Source\PSoC4/BLE.c **** * 
 516:Generated_Source\PSoC4/BLE.c **** *  This function writes the new bonding data from RAM to the dedicated Flash 
 517:Generated_Source\PSoC4/BLE.c **** *  location as defined by the component. It performs data comparing between RAM
 518:Generated_Source\PSoC4/BLE.c **** *  and Flash before writing to Flash. If there is no change between RAM and Flash
 519:Generated_Source\PSoC4/BLE.c **** *  data, then no write is performed. It writes only one flash row in one call.
 520:Generated_Source\PSoC4/BLE.c **** *  Application should keep calling this function till API return CYBLE_ERROR_OK. 
 521:Generated_Source\PSoC4/BLE.c **** *  This function is available only when Bonding requirement is selected in
 522:Generated_Source\PSoC4/BLE.c **** *  Security settings.    
 523:Generated_Source\PSoC4/BLE.c **** * 
 524:Generated_Source\PSoC4/BLE.c **** *  \param isForceWrite:  If value is set to 0, then stack will check if flash write 
 525:Generated_Source\PSoC4/BLE.c **** *                 is permissible. 
 526:Generated_Source\PSoC4/BLE.c **** *  
 527:Generated_Source\PSoC4/BLE.c **** * \return
 528:Generated_Source\PSoC4/BLE.c **** *  Return value is of type CYBLE_API_RESULT_T.
 529:Generated_Source\PSoC4/BLE.c **** *
 530:Generated_Source\PSoC4/BLE.c **** *   Errors codes                         | Description
 531:Generated_Source\PSoC4/BLE.c **** *   ----------------------------------   | ------------------------------------
 532:Generated_Source\PSoC4/BLE.c **** *   CYBLE_ERROR_OK                       | On successful operation
 533:Generated_Source\PSoC4/BLE.c **** *   CYBLE_ERROR_FLASH_WRITE_NOT_PERMITED | Flash Write is not complete
 534:Generated_Source\PSoC4/BLE.c **** *   CYBLE_ERROR_INVALID_PARAMETER        | Invalid input parameter  
 535:Generated_Source\PSoC4/BLE.c **** *   CYBLE_ERROR_FLASH_WRITE              | Error in flash Write	
ARM GAS  C:\Users\Sarah\AppData\Local\Temp\cc9TMdi9.s 			page 16


 536:Generated_Source\PSoC4/BLE.c ****     
 537:Generated_Source\PSoC4/BLE.c **** *  \sideeffect
 538:Generated_Source\PSoC4/BLE.c **** *   For BLE devices with 128K of Flash memory this API will automatically 
 539:Generated_Source\PSoC4/BLE.c **** *   modify the clock settings for the device.
 540:Generated_Source\PSoC4/BLE.c **** *   Writing to flash requires changes to be done to the IMO (set to 48 MHz)
 541:Generated_Source\PSoC4/BLE.c **** *   and HFCLK (source set to IMO) settings. The configuration is restored before
 542:Generated_Source\PSoC4/BLE.c **** *   returning. This will impact the operation of most of the hardware in the
 543:Generated_Source\PSoC4/BLE.c **** *   device.
 544:Generated_Source\PSoC4/BLE.c **** * 
 545:Generated_Source\PSoC4/BLE.c **** *  \globalvars
 546:Generated_Source\PSoC4/BLE.c **** *   The cyBle_pendingFlashWrite variable is used to detect status
 547:Generated_Source\PSoC4/BLE.c **** *   of pending write to flash operation for stack data and CCCD.
 548:Generated_Source\PSoC4/BLE.c **** *   This API automatically clears pending bits after write operation complete.
 549:Generated_Source\PSoC4/BLE.c **** *     
 550:Generated_Source\PSoC4/BLE.c **** ******************************************************************************/
 551:Generated_Source\PSoC4/BLE.c **** CYBLE_API_RESULT_T CyBle_StoreBondingData(uint8 isForceWrite)
 552:Generated_Source\PSoC4/BLE.c **** {
 302              		.loc 1 552 0
 303              		.cfi_startproc
 304              	.LVL17:
 305 0000 10B5     		push	{r4, lr}
 306              		.cfi_def_cfa_offset 8
 307              		.cfi_offset 4, -8
 308              		.cfi_offset 14, -4
 309 0002 88B0     		sub	sp, sp, #32
 310              		.cfi_def_cfa_offset 40
 311 0004 041C     		mov	r4, r0
 312              	.LVL18:
 553:Generated_Source\PSoC4/BLE.c ****     CYBLE_API_RESULT_T apiResult = CYBLE_ERROR_OK;
 554:Generated_Source\PSoC4/BLE.c ****     
 555:Generated_Source\PSoC4/BLE.c ****     /* Store Stack data */
 556:Generated_Source\PSoC4/BLE.c ****     if((cyBle_pendingFlashWrite & CYBLE_PENDING_STACK_FLASH_WRITE_BIT) != 0u)
 313              		.loc 1 556 0
 314 0006 384B     		ldr	r3, .L25
 315 0008 1B78     		ldrb	r3, [r3]
 316 000a DB07     		lsl	r3, r3, #31
 317 000c 0BD5     		bpl	.L23
 557:Generated_Source\PSoC4/BLE.c ****     {
 558:Generated_Source\PSoC4/BLE.c ****         apiResult = CyBle_StoreStackData(isForceWrite);
 318              		.loc 1 558 0
 319 000e FFF7FEFF 		bl	CyBle_StoreStackData
 320              	.LVL19:
 559:Generated_Source\PSoC4/BLE.c ****         if(apiResult == CYBLE_ERROR_OK)
 321              		.loc 1 559 0
 322 0012 0028     		cmp	r0, #0
 323 0014 0AD1     		bne	.L15
 560:Generated_Source\PSoC4/BLE.c ****         {
 561:Generated_Source\PSoC4/BLE.c ****             cyBle_pendingFlashWrite &= (uint8)~CYBLE_PENDING_STACK_FLASH_WRITE_BIT;
 324              		.loc 1 561 0
 325 0016 344A     		ldr	r2, .L25
 326 0018 1378     		ldrb	r3, [r2]
 327 001a 0121     		mov	r1, #1
 328 001c 8B43     		bic	r3, r1
 329 001e 1370     		strb	r3, [r2]
 562:Generated_Source\PSoC4/BLE.c ****             /* Change apiResult if there are more pending data to store */
 563:Generated_Source\PSoC4/BLE.c ****             if((cyBle_pendingFlashWrite & CYBLE_PENDING_CCCD_FLASH_WRITE_BIT) != 0u)
 330              		.loc 1 563 0
ARM GAS  C:\Users\Sarah\AppData\Local\Temp\cc9TMdi9.s 			page 17


 331 0020 9B07     		lsl	r3, r3, #30
 332 0022 02D4     		bmi	.L24
 333 0024 02E0     		b	.L15
 334              	.LVL20:
 335              	.L23:
 553:Generated_Source\PSoC4/BLE.c ****     
 336              		.loc 1 553 0
 337 0026 0020     		mov	r0, #0
 338              	.LVL21:
 339 0028 00E0     		b	.L15
 340              	.LVL22:
 341              	.L24:
 564:Generated_Source\PSoC4/BLE.c ****             {
 565:Generated_Source\PSoC4/BLE.c ****                 apiResult = CYBLE_ERROR_FLASH_WRITE_NOT_PERMITED;
 342              		.loc 1 565 0
 343 002a 2820     		mov	r0, #40
 344              	.LVL23:
 345              	.L15:
 566:Generated_Source\PSoC4/BLE.c ****             }
 567:Generated_Source\PSoC4/BLE.c ****         }
 568:Generated_Source\PSoC4/BLE.c ****     }
 569:Generated_Source\PSoC4/BLE.c **** #if(CYBLE_GATT_DB_CCCD_COUNT != 0u)
 570:Generated_Source\PSoC4/BLE.c ****     /* Store CCCD values */
 571:Generated_Source\PSoC4/BLE.c ****     if( ((apiResult == CYBLE_ERROR_OK) || (isForceWrite != 0u)) && 
 346              		.loc 1 571 0
 347 002c 0028     		cmp	r0, #0
 348 002e 01D0     		beq	.L16
 349              		.loc 1 571 0 is_stmt 0 discriminator 2
 350 0030 002C     		cmp	r4, #0
 351 0032 1AD0     		beq	.L17
 352              	.L16:
 572:Generated_Source\PSoC4/BLE.c ****         ((cyBle_pendingFlashWrite & CYBLE_PENDING_CCCD_FLASH_WRITE_BIT) != 0u) &&
 353              		.loc 1 572 0 is_stmt 1 discriminator 3
 354 0034 2C4B     		ldr	r3, .L25
 355 0036 1B78     		ldrb	r3, [r3]
 571:Generated_Source\PSoC4/BLE.c ****         ((cyBle_pendingFlashWrite & CYBLE_PENDING_CCCD_FLASH_WRITE_BIT) != 0u) &&
 356              		.loc 1 571 0 discriminator 3
 357 0038 9B07     		lsl	r3, r3, #30
 358 003a 16D5     		bpl	.L17
 573:Generated_Source\PSoC4/BLE.c ****         (cyBle_connHandle.bdHandle <= CYBLE_GAP_MAX_BONDED_DEVICE))
 359              		.loc 1 573 0
 360 003c 2B4B     		ldr	r3, .L25+4
 361 003e 1B78     		ldrb	r3, [r3]
 572:Generated_Source\PSoC4/BLE.c ****         ((cyBle_pendingFlashWrite & CYBLE_PENDING_CCCD_FLASH_WRITE_BIT) != 0u) &&
 362              		.loc 1 572 0
 363 0040 042B     		cmp	r3, #4
 364 0042 12D8     		bhi	.L17
 574:Generated_Source\PSoC4/BLE.c ****     {
 575:Generated_Source\PSoC4/BLE.c ****         apiResult = CyBle_StoreAppData(cyBle_attValuesCCCD, cyBle_flashStorage.attValuesCCCDFlashMe
 365              		.loc 1 575 0
 366 0044 5900     		lsl	r1, r3, #1
 367 0046 CB18     		add	r3, r1, r3
 368 0048 5B00     		lsl	r3, r3, #1
 369 004a 2949     		ldr	r1, .L25+8
 370 004c CB18     		add	r3, r1, r3
 371 004e 294A     		ldr	r2, .L25+12
 372 0050 9918     		add	r1, r3, r2
ARM GAS  C:\Users\Sarah\AppData\Local\Temp\cc9TMdi9.s 			page 18


 373 0052 2948     		ldr	r0, .L25+16
 374              	.LVL24:
 375 0054 0622     		mov	r2, #6
 376 0056 231C     		mov	r3, r4
 377 0058 FFF7FEFF 		bl	CyBle_StoreAppData
 378              	.LVL25:
 576:Generated_Source\PSoC4/BLE.c ****                         cyBle_connHandle.bdHandle], CYBLE_GATT_DB_CCCD_COUNT, isForceWrite);
 577:Generated_Source\PSoC4/BLE.c ****         if(apiResult == CYBLE_ERROR_OK)
 379              		.loc 1 577 0
 380 005c 0028     		cmp	r0, #0
 381 005e 04D1     		bne	.L17
 578:Generated_Source\PSoC4/BLE.c ****         {
 579:Generated_Source\PSoC4/BLE.c ****             cyBle_pendingFlashWrite &= (uint8)~CYBLE_PENDING_CCCD_FLASH_WRITE_BIT;
 382              		.loc 1 579 0
 383 0060 214A     		ldr	r2, .L25
 384 0062 1378     		ldrb	r3, [r2]
 385 0064 0221     		mov	r1, #2
 386 0066 8B43     		bic	r3, r1
 387 0068 1370     		strb	r3, [r2]
 388              	.LVL26:
 389              	.L17:
 580:Generated_Source\PSoC4/BLE.c ****         }
 581:Generated_Source\PSoC4/BLE.c ****     }
 582:Generated_Source\PSoC4/BLE.c ****     /* Clear requested CCCD values */
 583:Generated_Source\PSoC4/BLE.c ****     if( ((apiResult == CYBLE_ERROR_OK) || (isForceWrite != 0u)) && 
 390              		.loc 1 583 0
 391 006a 0028     		cmp	r0, #0
 392 006c 01D0     		beq	.L18
 393              		.loc 1 583 0 is_stmt 0 discriminator 2
 394 006e 002C     		cmp	r4, #0
 395 0070 38D0     		beq	.L19
 396              	.L18:
 584:Generated_Source\PSoC4/BLE.c ****         ((cyBle_pendingFlashWrite & CYBLE_PENDING_CCCD_FLASH_CLEAR_MASK) != 0u) )
 397              		.loc 1 584 0 is_stmt 1 discriminator 3
 398 0072 1D4B     		ldr	r3, .L25
 399 0074 1B78     		ldrb	r3, [r3]
 583:Generated_Source\PSoC4/BLE.c ****         ((cyBle_pendingFlashWrite & CYBLE_PENDING_CCCD_FLASH_CLEAR_MASK) != 0u) )
 400              		.loc 1 583 0 discriminator 3
 401 0076 0C22     		mov	r2, #12
 402 0078 1A42     		tst	r2, r3
 403 007a 33D0     		beq	.L19
 585:Generated_Source\PSoC4/BLE.c ****     {
 586:Generated_Source\PSoC4/BLE.c ****         if((cyBle_pendingFlashWrite & CYBLE_PENDING_CCCD_FLASH_CLEAR_ALL_BIT) != 0u)
 404              		.loc 1 586 0
 405 007c 1B07     		lsl	r3, r3, #28
 406 007e 17D5     		bpl	.L20
 407              	.LBB3:
 587:Generated_Source\PSoC4/BLE.c ****         {
 588:Generated_Source\PSoC4/BLE.c ****             /* Remove cccd values for all bonded devices */
 589:Generated_Source\PSoC4/BLE.c ****             uint8 defaultValuesCCCD[CYBLE_GAP_MAX_BONDED_DEVICE + 1u][CYBLE_GATT_DB_CCCD_COUNT];
 590:Generated_Source\PSoC4/BLE.c ****             
 591:Generated_Source\PSoC4/BLE.c ****             (void)memset(defaultValuesCCCD, 0, sizeof(defaultValuesCCCD));
 408              		.loc 1 591 0
 409 0080 0023     		mov	r3, #0
 410 0082 0093     		str	r3, [sp]
 411 0084 0193     		str	r3, [sp, #4]
 412 0086 0293     		str	r3, [sp, #8]
ARM GAS  C:\Users\Sarah\AppData\Local\Temp\cc9TMdi9.s 			page 19


 413 0088 0393     		str	r3, [sp, #12]
 414 008a 0493     		str	r3, [sp, #16]
 415 008c 0593     		str	r3, [sp, #20]
 416 008e 0693     		str	r3, [sp, #24]
 417 0090 6A46     		mov	r2, sp
 418 0092 9383     		strh	r3, [r2, #28]
 592:Generated_Source\PSoC4/BLE.c **** 
 593:Generated_Source\PSoC4/BLE.c ****             apiResult = CyBle_StoreAppData((uint8 *)defaultValuesCCCD, 
 419              		.loc 1 593 0
 420 0094 6846     		mov	r0, sp
 421              	.LVL27:
 422 0096 1949     		ldr	r1, .L25+20
 423 0098 1E22     		mov	r2, #30
 424 009a 231C     		mov	r3, r4
 425 009c FFF7FEFF 		bl	CyBle_StoreAppData
 426              	.LVL28:
 594:Generated_Source\PSoC4/BLE.c ****                 (const uint8 *)cyBle_flashStorage.attValuesCCCDFlashMemory, sizeof(defaultValuesCCC
 595:Generated_Source\PSoC4/BLE.c ****             if(apiResult == CYBLE_ERROR_OK)
 427              		.loc 1 595 0
 428 00a0 0028     		cmp	r0, #0
 429 00a2 1FD1     		bne	.L19
 596:Generated_Source\PSoC4/BLE.c ****             {
 597:Generated_Source\PSoC4/BLE.c ****                 cyBle_pendingFlashWrite &= (uint8)~CYBLE_PENDING_CCCD_FLASH_CLEAR_ALL_BIT;
 430              		.loc 1 597 0
 431 00a4 104A     		ldr	r2, .L25
 432 00a6 1378     		ldrb	r3, [r2]
 433 00a8 0821     		mov	r1, #8
 434 00aa 8B43     		bic	r3, r1
 435 00ac 1370     		strb	r3, [r2]
 436 00ae 19E0     		b	.L19
 437              	.L20:
 438              	.LBE3:
 439              	.LBB4:
 598:Generated_Source\PSoC4/BLE.c ****             }
 599:Generated_Source\PSoC4/BLE.c ****         }
 600:Generated_Source\PSoC4/BLE.c ****         else /* Remove cccd values for particular device */
 601:Generated_Source\PSoC4/BLE.c ****         {
 602:Generated_Source\PSoC4/BLE.c ****             uint8 defaultValuesCCCD[CYBLE_GATT_DB_CCCD_COUNT] = {0u};
 440              		.loc 1 602 0
 441 00b0 0023     		mov	r3, #0
 442 00b2 0093     		str	r3, [sp]
 443 00b4 6A46     		mov	r2, sp
 444 00b6 9380     		strh	r3, [r2, #4]
 603:Generated_Source\PSoC4/BLE.c ****             
 604:Generated_Source\PSoC4/BLE.c ****             apiResult = CyBle_StoreAppData(defaultValuesCCCD, cyBle_flashStorage.attValuesCCCDFlash
 445              		.loc 1 604 0
 446 00b8 114B     		ldr	r3, .L25+24
 447 00ba 5B78     		ldrb	r3, [r3, #1]
 448 00bc 5900     		lsl	r1, r3, #1
 449 00be CB18     		add	r3, r1, r3
 450 00c0 5B00     		lsl	r3, r3, #1
 451 00c2 0B49     		ldr	r1, .L25+8
 452 00c4 C918     		add	r1, r1, r3
 453 00c6 0B4B     		ldr	r3, .L25+12
 454 00c8 9C46     		mov	ip, r3
 455 00ca 6144     		add	r1, r1, ip
 456 00cc 6846     		mov	r0, sp
ARM GAS  C:\Users\Sarah\AppData\Local\Temp\cc9TMdi9.s 			page 20


 457              	.LVL29:
 458 00ce 0622     		mov	r2, #6
 459 00d0 231C     		mov	r3, r4
 460 00d2 FFF7FEFF 		bl	CyBle_StoreAppData
 461              	.LVL30:
 605:Generated_Source\PSoC4/BLE.c ****                                     cyBle_pendingFlashClearCccdHandle], CYBLE_GATT_DB_CCCD_COUNT, i
 606:Generated_Source\PSoC4/BLE.c ****             if(apiResult == CYBLE_ERROR_OK)
 462              		.loc 1 606 0
 463 00d6 0028     		cmp	r0, #0
 464 00d8 04D1     		bne	.L19
 607:Generated_Source\PSoC4/BLE.c ****             {
 608:Generated_Source\PSoC4/BLE.c ****                 cyBle_pendingFlashWrite &= (uint8)~CYBLE_PENDING_CCCD_FLASH_CLEAR_BIT;
 465              		.loc 1 608 0
 466 00da 034A     		ldr	r2, .L25
 467 00dc 1378     		ldrb	r3, [r2]
 468 00de 0421     		mov	r1, #4
 469 00e0 8B43     		bic	r3, r1
 470 00e2 1370     		strb	r3, [r2]
 471              	.LVL31:
 472              	.L19:
 473              	.LBE4:
 609:Generated_Source\PSoC4/BLE.c ****             }
 610:Generated_Source\PSoC4/BLE.c ****         }
 611:Generated_Source\PSoC4/BLE.c ****     }
 612:Generated_Source\PSoC4/BLE.c **** #endif /* CYBLE_GATT_DB_CCCD_COUNT != 0u */
 613:Generated_Source\PSoC4/BLE.c ****     return(apiResult);
 614:Generated_Source\PSoC4/BLE.c **** }
 474              		.loc 1 614 0
 475 00e4 08B0     		add	sp, sp, #32
 476              		@ sp needed
 477 00e6 10BD     		pop	{r4, pc}
 478              	.L26:
 479              		.align	2
 480              	.L25:
 481 00e8 00000000 		.word	cyBle_pendingFlashWrite
 482 00ec 00000000 		.word	cyBle_connHandle
 483 00f0 00000000 		.word	cyBle_flashStorage
 484 00f4 79020000 		.word	633
 485 00f8 00000000 		.word	cyBle_attValuesCCCD
 486 00fc 79020000 		.word	cyBle_flashStorage+633
 487 0100 00000000 		.word	.LANCHOR2
 488              		.cfi_endproc
 489              	.LFE6:
 490              		.size	CyBle_StoreBondingData, .-CyBle_StoreBondingData
 491              		.section	.text.CyBle_GapRemoveBondedDevice,"ax",%progbits
 492              		.align	2
 493              		.global	CyBle_GapRemoveBondedDevice
 494              		.code	16
 495              		.thumb_func
 496              		.type	CyBle_GapRemoveBondedDevice, %function
 497              	CyBle_GapRemoveBondedDevice:
 498              	.LFB7:
 615:Generated_Source\PSoC4/BLE.c **** 
 616:Generated_Source\PSoC4/BLE.c **** 
 617:Generated_Source\PSoC4/BLE.c **** /******************************************************************************
 618:Generated_Source\PSoC4/BLE.c **** * Function Name: CyBle_GapRemoveBondedDevice
 619:Generated_Source\PSoC4/BLE.c **** ***************************************************************************//**
ARM GAS  C:\Users\Sarah\AppData\Local\Temp\cc9TMdi9.s 			page 21


 620:Generated_Source\PSoC4/BLE.c **** * 
 621:Generated_Source\PSoC4/BLE.c **** *  This function marks the device untrusted. It removes the bonding information
 622:Generated_Source\PSoC4/BLE.c **** *  of the device including CCCD values. This function removes device from the
 623:Generated_Source\PSoC4/BLE.c **** *  white list also when autopopulate white list with bonded devices option is
 624:Generated_Source\PSoC4/BLE.c **** *  enabled.
 625:Generated_Source\PSoC4/BLE.c **** * 
 626:Generated_Source\PSoC4/BLE.c **** *  This function is available only when Bonding requirement is selected in
 627:Generated_Source\PSoC4/BLE.c **** *  Security settings.    
 628:Generated_Source\PSoC4/BLE.c **** *
 629:Generated_Source\PSoC4/BLE.c **** *  \param bdAddr: Pointer to peer device address, of type CYBLE_GAP_BD_ADDR_T.
 630:Generated_Source\PSoC4/BLE.c **** *                 If device address is set to 0, then all devices shall be
 631:Generated_Source\PSoC4/BLE.c **** *                 removed from trusted list and white list.
 632:Generated_Source\PSoC4/BLE.c **** *
 633:Generated_Source\PSoC4/BLE.c **** * \return
 634:Generated_Source\PSoC4/BLE.c **** *  CYBLE_API_RESULT_T : Return value indicates if the function succeeded or
 635:Generated_Source\PSoC4/BLE.c **** *  failed. Following are the possible error codes.
 636:Generated_Source\PSoC4/BLE.c **** *
 637:Generated_Source\PSoC4/BLE.c **** *   Errors codes                     | Description
 638:Generated_Source\PSoC4/BLE.c **** *   ---------------------------------| ------------------------------------
 639:Generated_Source\PSoC4/BLE.c **** *   CYBLE_ERROR_OK                   | On successful operation.
 640:Generated_Source\PSoC4/BLE.c **** *   CYBLE_ERROR_INVALID_PARAMETER    | On specifying NULL as input parameter for 'bdAddr'.
 641:Generated_Source\PSoC4/BLE.c **** *   CYBLE_ERROR_INVALID_OPERATION    | Whitelist is already in use or there is pending write to fla
 642:Generated_Source\PSoC4/BLE.c **** *   CYBLE_ERROR_NO_DEVICE_ENTITY     | Device does not exist in the bond list.
 643:Generated_Source\PSoC4/BLE.c **** *
 644:Generated_Source\PSoC4/BLE.c **** *  \globalvars
 645:Generated_Source\PSoC4/BLE.c **** *   The bdHandle is set in cyBle_pendingFlashWrite variable to indicate that
 646:Generated_Source\PSoC4/BLE.c **** *   data should be stored to flash by CyBle_StoreBondingData afterwards. 
 647:Generated_Source\PSoC4/BLE.c **** *     
 648:Generated_Source\PSoC4/BLE.c **** ******************************************************************************/
 649:Generated_Source\PSoC4/BLE.c **** CYBLE_API_RESULT_T CyBle_GapRemoveBondedDevice(CYBLE_GAP_BD_ADDR_T* bdAddr)
 650:Generated_Source\PSoC4/BLE.c **** {
 499              		.loc 1 650 0
 500              		.cfi_startproc
 501              	.LVL32:
 502 0000 30B5     		push	{r4, r5, lr}
 503              		.cfi_def_cfa_offset 12
 504              		.cfi_offset 4, -12
 505              		.cfi_offset 5, -8
 506              		.cfi_offset 14, -4
 507 0002 85B0     		sub	sp, sp, #20
 508              		.cfi_def_cfa_offset 32
 509              	.LVL33:
 651:Generated_Source\PSoC4/BLE.c ****     CYBLE_API_RESULT_T apiResult = CYBLE_ERROR_OK;
 652:Generated_Source\PSoC4/BLE.c ****     
 653:Generated_Source\PSoC4/BLE.c ****     if(cyBle_pendingFlashWrite == 0u)
 510              		.loc 1 653 0
 511 0004 184B     		ldr	r3, .L33
 512 0006 1D78     		ldrb	r5, [r3]
 513 0008 002D     		cmp	r5, #0
 514 000a 29D1     		bne	.L32
 515 000c 041C     		mov	r4, r0
 516              	.LBB5:
 654:Generated_Source\PSoC4/BLE.c ****     {
 655:Generated_Source\PSoC4/BLE.c ****         
 656:Generated_Source\PSoC4/BLE.c ****     #if(CYBLE_GATT_DB_CCCD_COUNT != 0u)
 657:Generated_Source\PSoC4/BLE.c ****         /* Request to clear CCCD values which will be done by CyBle_StoreBondingData API */
 658:Generated_Source\PSoC4/BLE.c ****         uint8 bDevHandle;
ARM GAS  C:\Users\Sarah\AppData\Local\Temp\cc9TMdi9.s 			page 22


 659:Generated_Source\PSoC4/BLE.c ****         CYBLE_GAP_BD_ADDR_T invalidBdAddr = {{0u,0u,0u,0u,0u,0u}, 0u};
 517              		.loc 1 659 0
 518 000e 02A9     		add	r1, sp, #8
 519 0010 0023     		mov	r3, #0
 520 0012 0B70     		strb	r3, [r1]
 521 0014 4B70     		strb	r3, [r1, #1]
 522 0016 8B70     		strb	r3, [r1, #2]
 523 0018 CB70     		strb	r3, [r1, #3]
 524 001a 0B71     		strb	r3, [r1, #4]
 525 001c 4B71     		strb	r3, [r1, #5]
 526 001e 8B71     		strb	r3, [r1, #6]
 660:Generated_Source\PSoC4/BLE.c **** 
 661:Generated_Source\PSoC4/BLE.c ****         if(memcmp(((uint8 *) &(bdAddr->bdAddr)), ((uint8 *) &(invalidBdAddr.bdAddr)), CYBLE_GAP_BD_
 527              		.loc 1 661 0
 528 0020 0622     		mov	r2, #6
 529 0022 FFF7FEFF 		bl	memcmp
 530              	.LVL34:
 531 0026 0028     		cmp	r0, #0
 532 0028 04D1     		bne	.L29
 662:Generated_Source\PSoC4/BLE.c **** 	    {
 663:Generated_Source\PSoC4/BLE.c ****             /* Request to remove all bonded devices by cyBle_StoreBondingData API */
 664:Generated_Source\PSoC4/BLE.c ****             cyBle_pendingFlashWrite |= CYBLE_PENDING_CCCD_FLASH_CLEAR_ALL_BIT;
 533              		.loc 1 664 0
 534 002a 0823     		mov	r3, #8
 535 002c 1D43     		orr	r5, r3
 536 002e 0E4B     		ldr	r3, .L33
 537 0030 1D70     		strb	r5, [r3]
 538 0032 0FE0     		b	.L30
 539              	.L29:
 665:Generated_Source\PSoC4/BLE.c ****         }
 666:Generated_Source\PSoC4/BLE.c ****         else
 667:Generated_Source\PSoC4/BLE.c ****         {
 668:Generated_Source\PSoC4/BLE.c ****             /* Get the BD handle from Address */
 669:Generated_Source\PSoC4/BLE.c ****             apiResult = CyBle_GapGetPeerBdHandle(&bDevHandle, bdAddr);
 540              		.loc 1 669 0
 541 0034 6B46     		mov	r3, sp
 542 0036 D81D     		add	r0, r3, #7
 543 0038 211C     		mov	r1, r4
 544 003a FFF7FEFF 		bl	CyBle_GapGetPeerBdHandle
 545              	.LVL35:
 670:Generated_Source\PSoC4/BLE.c ****             if(apiResult == CYBLE_ERROR_OK)
 546              		.loc 1 670 0
 547 003e 0028     		cmp	r0, #0
 548 0040 08D1     		bne	.L30
 671:Generated_Source\PSoC4/BLE.c ****             {
 672:Generated_Source\PSoC4/BLE.c ****                 /* Store BD handle to clear cccd values by CyBle_StoreBondingData API */
 673:Generated_Source\PSoC4/BLE.c ****                 cyBle_pendingFlashWrite |= CYBLE_PENDING_CCCD_FLASH_CLEAR_BIT;
 549              		.loc 1 673 0
 550 0042 094A     		ldr	r2, .L33
 551 0044 1178     		ldrb	r1, [r2]
 552 0046 0423     		mov	r3, #4
 553 0048 0B43     		orr	r3, r1
 554 004a 1370     		strb	r3, [r2]
 674:Generated_Source\PSoC4/BLE.c ****                 cyBle_pendingFlashClearCccdHandle = bDevHandle;
 555              		.loc 1 674 0
 556 004c 6B46     		mov	r3, sp
 557 004e DA79     		ldrb	r2, [r3, #7]
ARM GAS  C:\Users\Sarah\AppData\Local\Temp\cc9TMdi9.s 			page 23


 558 0050 064B     		ldr	r3, .L33+4
 559 0052 5A70     		strb	r2, [r3, #1]
 560              	.LVL36:
 561              	.L30:
 675:Generated_Source\PSoC4/BLE.c ****             }
 676:Generated_Source\PSoC4/BLE.c ****         }
 677:Generated_Source\PSoC4/BLE.c ****     #endif /* CYBLE_GATT_DB_CCCD_COUNT != 0u */
 678:Generated_Source\PSoC4/BLE.c ****         if(apiResult == CYBLE_ERROR_OK)
 562              		.loc 1 678 0
 563 0054 0028     		cmp	r0, #0
 564 0056 04D1     		bne	.L28
 679:Generated_Source\PSoC4/BLE.c ****         {
 680:Generated_Source\PSoC4/BLE.c ****             #if(CYBLE_AUTO_POPULATE_WHITELIST != 0u)
 681:Generated_Source\PSoC4/BLE.c ****                 apiResult = CyBle_GapRemoveDeviceFromWhiteList(bdAddr);
 565              		.loc 1 681 0
 566 0058 201C     		mov	r0, r4
 567              	.LVL37:
 568 005a FFF7FEFF 		bl	CyBle_GapRemoveDeviceFromWhiteList
 569              	.LVL38:
 570 005e 00E0     		b	.L28
 571              	.LVL39:
 572              	.L32:
 573              	.LBE5:
 682:Generated_Source\PSoC4/BLE.c ****             #else
 683:Generated_Source\PSoC4/BLE.c ****                 apiResult = CyBle_GapRemDeviceFromBondList(bdAddr);
 684:Generated_Source\PSoC4/BLE.c ****             #endif
 685:Generated_Source\PSoC4/BLE.c ****         }
 686:Generated_Source\PSoC4/BLE.c ****     }
 687:Generated_Source\PSoC4/BLE.c ****     else
 688:Generated_Source\PSoC4/BLE.c ****     {
 689:Generated_Source\PSoC4/BLE.c ****         apiResult = CYBLE_ERROR_INVALID_OPERATION;
 574              		.loc 1 689 0
 575 0060 0220     		mov	r0, #2
 576              	.LVL40:
 577              	.L28:
 690:Generated_Source\PSoC4/BLE.c ****     }
 691:Generated_Source\PSoC4/BLE.c ****     
 692:Generated_Source\PSoC4/BLE.c ****     return(apiResult);
 693:Generated_Source\PSoC4/BLE.c **** }
 578              		.loc 1 693 0
 579 0062 05B0     		add	sp, sp, #20
 580              		@ sp needed
 581 0064 30BD     		pop	{r4, r5, pc}
 582              	.L34:
 583 0066 C046     		.align	2
 584              	.L33:
 585 0068 00000000 		.word	cyBle_pendingFlashWrite
 586 006c 00000000 		.word	.LANCHOR2
 587              		.cfi_endproc
 588              	.LFE7:
 589              		.size	CyBle_GapRemoveBondedDevice, .-CyBle_GapRemoveBondedDevice
 590              		.section	.text.CyBle_GapcStartScan,"ax",%progbits
 591              		.align	2
 592              		.global	CyBle_GapcStartScan
 593              		.code	16
 594              		.thumb_func
 595              		.type	CyBle_GapcStartScan, %function
ARM GAS  C:\Users\Sarah\AppData\Local\Temp\cc9TMdi9.s 			page 24


 596              	CyBle_GapcStartScan:
 597              	.LFB8:
 694:Generated_Source\PSoC4/BLE.c **** 
 695:Generated_Source\PSoC4/BLE.c **** 
 696:Generated_Source\PSoC4/BLE.c **** #endif /* (CYBLE_GAP_ROLE_PERIPHERAL || CYBLE_GAP_ROLE_CENTRAL) && (CYBLE_BONDING_REQUIREMENT == CY
 697:Generated_Source\PSoC4/BLE.c **** 
 698:Generated_Source\PSoC4/BLE.c **** 
 699:Generated_Source\PSoC4/BLE.c **** #if(CYBLE_GAP_ROLE_PERIPHERAL || CYBLE_GAP_ROLE_BROADCASTER)
 700:Generated_Source\PSoC4/BLE.c **** 
 701:Generated_Source\PSoC4/BLE.c ****     /******************************************************************************
 702:Generated_Source\PSoC4/BLE.c ****     *  Function Name: CyBle_GappStartAdvertisement
 703:Generated_Source\PSoC4/BLE.c ****     ***************************************************************************//**
 704:Generated_Source\PSoC4/BLE.c ****     *     
 705:Generated_Source\PSoC4/BLE.c ****     *  This function is used to start the advertisement using the advertisement data 
 706:Generated_Source\PSoC4/BLE.c ****     *  set in the component customizer's GUI. After invoking this API, the device 
 707:Generated_Source\PSoC4/BLE.c ****     *  will be available for connection by the devices configured for GAP central 
 708:Generated_Source\PSoC4/BLE.c ****     *  role. It is only included if the device is configured for GAP Peripheral or 
 709:Generated_Source\PSoC4/BLE.c ****     *  GAP Peripheral + Central role.
 710:Generated_Source\PSoC4/BLE.c ****     *  
 711:Generated_Source\PSoC4/BLE.c ****     *  On start of advertisement, GAP Peripheral receives the
 712:Generated_Source\PSoC4/BLE.c ****     *  CYBLE_EVT_GAPP_ADVERTISEMENT_START_STOP event. The following events are 
 713:Generated_Source\PSoC4/BLE.c ****     *  possible on invoking this function:
 714:Generated_Source\PSoC4/BLE.c ****     *  
 715:Generated_Source\PSoC4/BLE.c ****     *  * CYBLE_EVT_GAP_DEVICE_CONNECTED - If the device connects to a GAP Central and 
 716:Generated_Source\PSoC4/BLE.c ****     *    Link Layer Privacy is disabled in component customizer.
 717:Generated_Source\PSoC4/BLE.c ****     *  * CYBLE_EVT_GAP_ENHANCE_CONN_COMPLETE - If the device connects to a GAP Central and 
 718:Generated_Source\PSoC4/BLE.c ****     *    Link Layer Privacy is enabled in component customizer.
 719:Generated_Source\PSoC4/BLE.c ****     *  * CYBLE_EVT_TIMEOUT: If no device in GAP Central mode connects to this 
 720:Generated_Source\PSoC4/BLE.c ****     *                       device within the specified timeout limit. Stack 
 721:Generated_Source\PSoC4/BLE.c ****     *                       automatically initiate stop advertising when Slow 
 722:Generated_Source\PSoC4/BLE.c ****     *                       advertising was initiated, or starts Slow advertising
 723:Generated_Source\PSoC4/BLE.c ****     *                       after Fast advertising timeout occur.
 724:Generated_Source\PSoC4/BLE.c ****     *  * CYBLE_EVT_GAPP_ADVERTISEMENT_START_STOP: If device started or stopped
 725:Generated_Source\PSoC4/BLE.c ****     *                                               advertising. Use CyBle_GetState()
 726:Generated_Source\PSoC4/BLE.c ****     *                                               to determine the state. Sequential 
 727:Generated_Source\PSoC4/BLE.c ****     *                                               advertising could be started when
 728:Generated_Source\PSoC4/BLE.c ****     *                                               CYBLE_STATE_DISCONNECTED state is
 729:Generated_Source\PSoC4/BLE.c ****     *                                               returned.
 730:Generated_Source\PSoC4/BLE.c ****     * 
 731:Generated_Source\PSoC4/BLE.c ****     *  \param advertisingIntervalType: Fast or slow advertising interval with timings
 732:Generated_Source\PSoC4/BLE.c ****     *                                 entered in Advertising settings section of the
 733:Generated_Source\PSoC4/BLE.c ****     *                                 customizer.
 734:Generated_Source\PSoC4/BLE.c ****     *  * CYBLE_ADVERTISING_FAST   0x00u
 735:Generated_Source\PSoC4/BLE.c ****     *  * CYBLE_ADVERTISING_SLOW   0x01u
 736:Generated_Source\PSoC4/BLE.c ****     *  * CYBLE_ADVERTISING_CUSTOM 0x02u
 737:Generated_Source\PSoC4/BLE.c ****     * 
 738:Generated_Source\PSoC4/BLE.c ****     * \return
 739:Generated_Source\PSoC4/BLE.c ****     *  CYBLE_API_RESULT_T : Return value indicates if the function succeeded or
 740:Generated_Source\PSoC4/BLE.c ****     *  failed. Following are the possible error codes.
 741:Generated_Source\PSoC4/BLE.c ****     * 
 742:Generated_Source\PSoC4/BLE.c ****     *   Errors codes                      |  Description
 743:Generated_Source\PSoC4/BLE.c ****     *   --------------------------------- |  --------------------------------
 744:Generated_Source\PSoC4/BLE.c ****     *   CYBLE_ERROR_OK                    |  On successful operation.
 745:Generated_Source\PSoC4/BLE.c ****     *   CYBLE_ERROR_INVALID_PARAMETER     |  On passing an invalid parameter.
 746:Generated_Source\PSoC4/BLE.c ****     *   CYBLE_ERROR_INVALID_STATE         |  On calling this API not in Disconnected state.
 747:Generated_Source\PSoC4/BLE.c ****     *
 748:Generated_Source\PSoC4/BLE.c ****     * 
ARM GAS  C:\Users\Sarah\AppData\Local\Temp\cc9TMdi9.s 			page 25


 749:Generated_Source\PSoC4/BLE.c ****     *******************************************************************************/
 750:Generated_Source\PSoC4/BLE.c ****     CYBLE_API_RESULT_T CyBle_GappStartAdvertisement(uint8 advertisingIntervalType)
 751:Generated_Source\PSoC4/BLE.c ****     {
 752:Generated_Source\PSoC4/BLE.c ****         CYBLE_API_RESULT_T apiResult;
 753:Generated_Source\PSoC4/BLE.c ****         
 754:Generated_Source\PSoC4/BLE.c ****         if(advertisingIntervalType > CYBLE_ADVERTISING_CUSTOM)
 755:Generated_Source\PSoC4/BLE.c ****         {
 756:Generated_Source\PSoC4/BLE.c ****             apiResult = CYBLE_ERROR_INVALID_PARAMETER;
 757:Generated_Source\PSoC4/BLE.c ****         }
 758:Generated_Source\PSoC4/BLE.c ****         else if((CYBLE_STATE_DISCONNECTED == CyBle_GetState()) && ((cyBle_eventHandlerFlag & CYBLE_
 759:Generated_Source\PSoC4/BLE.c ****         {   
 760:Generated_Source\PSoC4/BLE.c ****             if(advertisingIntervalType == CYBLE_ADVERTISING_FAST)
 761:Generated_Source\PSoC4/BLE.c ****             {
 762:Generated_Source\PSoC4/BLE.c ****                 cyBle_discoveryModeInfo.advTo = CYBLE_FAST_ADV_TIMEOUT;
 763:Generated_Source\PSoC4/BLE.c ****                 cyBle_discoveryModeInfo.advParam->advIntvMin = CYBLE_FAST_ADV_INT_MIN;
 764:Generated_Source\PSoC4/BLE.c ****                 cyBle_discoveryModeInfo.advParam->advIntvMax = CYBLE_FAST_ADV_INT_MAX;
 765:Generated_Source\PSoC4/BLE.c ****             }
 766:Generated_Source\PSoC4/BLE.c ****             else if(advertisingIntervalType == CYBLE_ADVERTISING_SLOW)
 767:Generated_Source\PSoC4/BLE.c ****             {
 768:Generated_Source\PSoC4/BLE.c ****                 cyBle_discoveryModeInfo.advTo = CYBLE_SLOW_ADV_TIMEOUT;
 769:Generated_Source\PSoC4/BLE.c ****                 cyBle_discoveryModeInfo.advParam->advIntvMin = CYBLE_SLOW_ADV_INT_MIN;
 770:Generated_Source\PSoC4/BLE.c ****                 cyBle_discoveryModeInfo.advParam->advIntvMax = CYBLE_SLOW_ADV_INT_MAX;
 771:Generated_Source\PSoC4/BLE.c ****             }       
 772:Generated_Source\PSoC4/BLE.c ****             else /* Do not update advertising intervals */
 773:Generated_Source\PSoC4/BLE.c ****             {
 774:Generated_Source\PSoC4/BLE.c ****             }
 775:Generated_Source\PSoC4/BLE.c ****             cyBle_advertisingIntervalType = advertisingIntervalType;
 776:Generated_Source\PSoC4/BLE.c ****             apiResult = CyBle_GappEnterDiscoveryMode(&cyBle_discoveryModeInfo);
 777:Generated_Source\PSoC4/BLE.c ****         
 778:Generated_Source\PSoC4/BLE.c ****             if(apiResult == CYBLE_ERROR_OK)
 779:Generated_Source\PSoC4/BLE.c ****             {
 780:Generated_Source\PSoC4/BLE.c ****                 cyBle_eventHandlerFlag |= CYBLE_START_FLAG;
 781:Generated_Source\PSoC4/BLE.c ****             }
 782:Generated_Source\PSoC4/BLE.c ****         }
 783:Generated_Source\PSoC4/BLE.c ****         else
 784:Generated_Source\PSoC4/BLE.c ****         {
 785:Generated_Source\PSoC4/BLE.c ****             apiResult = CYBLE_ERROR_INVALID_STATE;
 786:Generated_Source\PSoC4/BLE.c ****         }
 787:Generated_Source\PSoC4/BLE.c **** 
 788:Generated_Source\PSoC4/BLE.c ****         return (apiResult);
 789:Generated_Source\PSoC4/BLE.c ****     }
 790:Generated_Source\PSoC4/BLE.c **** 
 791:Generated_Source\PSoC4/BLE.c ****     
 792:Generated_Source\PSoC4/BLE.c ****     /******************************************************************************
 793:Generated_Source\PSoC4/BLE.c ****     * Function Name: CyBle_GappStopAdvertisement
 794:Generated_Source\PSoC4/BLE.c ****     ***************************************************************************//**
 795:Generated_Source\PSoC4/BLE.c ****     * 
 796:Generated_Source\PSoC4/BLE.c ****     *   This function can be used to exit from discovery mode. After the execution 
 797:Generated_Source\PSoC4/BLE.c ****     *   of this function, there will no longer be any advertisements. On stopping 
 798:Generated_Source\PSoC4/BLE.c ****     *   advertising, GAP Peripheral receives CYBLE_EVT_GAPP_ADVERTISEMENT_START_STOP
 799:Generated_Source\PSoC4/BLE.c ****     *   event. It is expected that the application layer tracks the function call 
 800:Generated_Source\PSoC4/BLE.c ****     *   performed before occurrence of this event as this event can occur on making 
 801:Generated_Source\PSoC4/BLE.c ****     *   a call to Cy_BleGappStartAdvertisement(), CyBle_GappEnterDiscoveryMode(), 
 802:Generated_Source\PSoC4/BLE.c ****     *   or CyBle_GappStartAdvertisement() functions as well.
 803:Generated_Source\PSoC4/BLE.c ****     *   
 804:Generated_Source\PSoC4/BLE.c ****     *   The following event occurs on invoking this function:
 805:Generated_Source\PSoC4/BLE.c ****     *   * CYBLE_EVT_GAPP_ADVERTISEMENT_START_STOP
ARM GAS  C:\Users\Sarah\AppData\Local\Temp\cc9TMdi9.s 			page 26


 806:Generated_Source\PSoC4/BLE.c ****     * 
 807:Generated_Source\PSoC4/BLE.c ****     *  \return
 808:Generated_Source\PSoC4/BLE.c ****     *   None
 809:Generated_Source\PSoC4/BLE.c ****     * 
 810:Generated_Source\PSoC4/BLE.c ****     *******************************************************************************/
 811:Generated_Source\PSoC4/BLE.c ****     void CyBle_GappStopAdvertisement(void)
 812:Generated_Source\PSoC4/BLE.c ****     {
 813:Generated_Source\PSoC4/BLE.c ****         CyBle_GappExitDiscoveryMode();
 814:Generated_Source\PSoC4/BLE.c ****         cyBle_eventHandlerFlag |= CYBLE_STOP_FLAG;
 815:Generated_Source\PSoC4/BLE.c ****     }
 816:Generated_Source\PSoC4/BLE.c ****     
 817:Generated_Source\PSoC4/BLE.c ****     
 818:Generated_Source\PSoC4/BLE.c ****     /******************************************************************************
 819:Generated_Source\PSoC4/BLE.c ****     * Function Name: CyBle_ChangeAdDeviceAddress
 820:Generated_Source\PSoC4/BLE.c ****     ***************************************************************************//**
 821:Generated_Source\PSoC4/BLE.c ****     * 
 822:Generated_Source\PSoC4/BLE.c ****     *  This API is used to set the Bluetooth device address into the advertisement 
 823:Generated_Source\PSoC4/BLE.c ****     *  or scan response data structure.
 824:Generated_Source\PSoC4/BLE.c ****     * 
 825:Generated_Source\PSoC4/BLE.c ****     *  \param bdAddr: Bluetooth Device address. The variable is of type CYBLE_GAP_BD_ADDR_T
 826:Generated_Source\PSoC4/BLE.c ****     *  \param dest: 0 - selects advertisement structure, not zero value selects scan 
 827:Generated_Source\PSoC4/BLE.c ****     *               response structure.
 828:Generated_Source\PSoC4/BLE.c ****     * 
 829:Generated_Source\PSoC4/BLE.c ****     * \return
 830:Generated_Source\PSoC4/BLE.c ****     *  None
 831:Generated_Source\PSoC4/BLE.c ****     *  
 832:Generated_Source\PSoC4/BLE.c ****     *******************************************************************************/
 833:Generated_Source\PSoC4/BLE.c ****     void CyBle_ChangeAdDeviceAddress(const CYBLE_GAP_BD_ADDR_T* bdAddr, uint8 dest)
 834:Generated_Source\PSoC4/BLE.c ****     {
 835:Generated_Source\PSoC4/BLE.c ****         uint8 i;
 836:Generated_Source\PSoC4/BLE.c ****         uint8 *destBuffer = NULL;
 837:Generated_Source\PSoC4/BLE.c ****         
 838:Generated_Source\PSoC4/BLE.c ****         if(dest == 0u)      /* Destination - advertising structure */
 839:Generated_Source\PSoC4/BLE.c ****         {
 840:Generated_Source\PSoC4/BLE.c ****             #ifdef CYBLE_ADV_PKT_INDEX_BLUETOOTH_DEVICE_ADDRESS
 841:Generated_Source\PSoC4/BLE.c ****                 destBuffer = &cyBle_discoveryData.advData[CYBLE_ADV_PKT_INDEX_BLUETOOTH_DEVICE_ADDR
 842:Generated_Source\PSoC4/BLE.c ****             #endif /* CYBLE_ADV_PKT_INDEX_BLUETOOTH_DEVICE_ADDRESS */
 843:Generated_Source\PSoC4/BLE.c ****         }
 844:Generated_Source\PSoC4/BLE.c ****         else                /* Destination - scan response structure */
 845:Generated_Source\PSoC4/BLE.c ****         {
 846:Generated_Source\PSoC4/BLE.c ****             #ifdef CYBLE_SCN_PKT_INDEX_BLUETOOTH_DEVICE_ADDRESS
 847:Generated_Source\PSoC4/BLE.c ****                 destBuffer = &cyBle_scanRspData.scanRspData[CYBLE_SCN_PKT_INDEX_BLUETOOTH_DEVICE_AD
 848:Generated_Source\PSoC4/BLE.c ****             #endif /* CYBLE_SCN_PKT_INDEX_BLUETOOTH_DEVICE_ADDRESS */    
 849:Generated_Source\PSoC4/BLE.c ****         }
 850:Generated_Source\PSoC4/BLE.c ****         
 851:Generated_Source\PSoC4/BLE.c ****         if(destBuffer != NULL)
 852:Generated_Source\PSoC4/BLE.c ****         {
 853:Generated_Source\PSoC4/BLE.c ****             /* Update Device Address type */
 854:Generated_Source\PSoC4/BLE.c ****             destBuffer[0u] = bdAddr->type;
 855:Generated_Source\PSoC4/BLE.c ****             
 856:Generated_Source\PSoC4/BLE.c ****             for(i = 0u; i < CYBLE_GAP_BD_ADDR_SIZE; i++)
 857:Generated_Source\PSoC4/BLE.c ****             {
 858:Generated_Source\PSoC4/BLE.c ****                 destBuffer[i + 1u] = bdAddr->bdAddr[i];
 859:Generated_Source\PSoC4/BLE.c ****             }
 860:Generated_Source\PSoC4/BLE.c ****         }
 861:Generated_Source\PSoC4/BLE.c ****     }
 862:Generated_Source\PSoC4/BLE.c ****   
ARM GAS  C:\Users\Sarah\AppData\Local\Temp\cc9TMdi9.s 			page 27


 863:Generated_Source\PSoC4/BLE.c **** #endif /* CYBLE_GAP_ROLE_PERIPHERAL || CYBLE_GAP_ROLE_BROADCASTER */
 864:Generated_Source\PSoC4/BLE.c **** 
 865:Generated_Source\PSoC4/BLE.c **** 
 866:Generated_Source\PSoC4/BLE.c **** #if(CYBLE_GAP_ROLE_CENTRAL || CYBLE_GAP_ROLE_OBSERVER)
 867:Generated_Source\PSoC4/BLE.c **** 
 868:Generated_Source\PSoC4/BLE.c ****     /******************************************************************************
 869:Generated_Source\PSoC4/BLE.c ****     * Function Name: CyBle_GapcStartScan
 870:Generated_Source\PSoC4/BLE.c ****     ***************************************************************************//**
 871:Generated_Source\PSoC4/BLE.c ****     * 
 872:Generated_Source\PSoC4/BLE.c ****     *   This function is used for discovering GAP peripheral devices that are 
 873:Generated_Source\PSoC4/BLE.c ****     *   available for connection. It performs the scanning routine using the 
 874:Generated_Source\PSoC4/BLE.c ****     *   parameters entered in the component's customizer.
 875:Generated_Source\PSoC4/BLE.c ****     *   
 876:Generated_Source\PSoC4/BLE.c ****     *   As soon as the discovery operation starts, CYBLE_EVT_GAPC_SCAN_START_STOP 
 877:Generated_Source\PSoC4/BLE.c ****     *   event is generated. The CYBLE_EVT_GAPC_SCAN_PROGRESS_RESULT event is 
 878:Generated_Source\PSoC4/BLE.c ****     *   generated when a GAP peripheral device is located. There are three discovery
 879:Generated_Source\PSoC4/BLE.c ****     *   procedures can be selected in the customizer's GUI:
 880:Generated_Source\PSoC4/BLE.c ****     *   
 881:Generated_Source\PSoC4/BLE.c ****     *   * Observation procedure: A device performing the observer role receives only
 882:Generated_Source\PSoC4/BLE.c ****     *                            advertisement data from devices irrespective of 
 883:Generated_Source\PSoC4/BLE.c ****     *                            their discoverable mode settings. Advertisement 
 884:Generated_Source\PSoC4/BLE.c ****     *                            data received is provided by the event,      
 885:Generated_Source\PSoC4/BLE.c ****     *                            CYBLE_EVT_GAPC_SCAN_PROGRESS_RESULT. This procedure
 886:Generated_Source\PSoC4/BLE.c ****     *                            requires the scanType sub parameter to be passive
 887:Generated_Source\PSoC4/BLE.c ****     *                            scanning. 
 888:Generated_Source\PSoC4/BLE.c ****     *   
 889:Generated_Source\PSoC4/BLE.c ****     *   * Limited Discovery procedure: A device performing the limited discovery
 890:Generated_Source\PSoC4/BLE.c ****     *                                  procedure receives advertisement data and 
 891:Generated_Source\PSoC4/BLE.c ****     *                                  scan# response data from devices in the 
 892:Generated_Source\PSoC4/BLE.c ****     *                                  limited discoverable mode only. Received data
 893:Generated_Source\PSoC4/BLE.c ****     *                                  is provided by the event, 
 894:Generated_Source\PSoC4/BLE.c ****     *                                  CYBLE_EVT_GAPC_SCAN_PROGRESS_RESULT. This 
 895:Generated_Source\PSoC4/BLE.c ****     *                                  procedure requires the scanType sub-parameter 
 896:Generated_Source\PSoC4/BLE.c ****     *                                  to be active scanning.
 897:Generated_Source\PSoC4/BLE.c ****     *   
 898:Generated_Source\PSoC4/BLE.c ****     *   * General Discovery procedure: A device performing the general discovery 
 899:Generated_Source\PSoC4/BLE.c ****     *                                  procedure receives the advertisement data and
 900:Generated_Source\PSoC4/BLE.c ****     *                                  scan response data from devices in both 
 901:Generated_Source\PSoC4/BLE.c ****     *                                  limited discoverable mode and the general 
 902:Generated_Source\PSoC4/BLE.c ****     *                                  discoverable mode. Received data is provided
 903:Generated_Source\PSoC4/BLE.c ****     *                                  by the event,
 904:Generated_Source\PSoC4/BLE.c ****     *                                  CYBLE_EVT_GAPC_SCAN_PROGRESS_RESULT. This 
 905:Generated_Source\PSoC4/BLE.c ****     *                                  procedure requires the scanType sub-parameter
 906:Generated_Source\PSoC4/BLE.c ****     *                                  to be active scanning.
 907:Generated_Source\PSoC4/BLE.c ****     *   
 908:Generated_Source\PSoC4/BLE.c ****     *   Every Advertisement / Scan response packet received results in a new event, 
 909:Generated_Source\PSoC4/BLE.c ****     *   CYBLE_EVT_GAPC_SCAN_PROGRESS_RESULT.
 910:Generated_Source\PSoC4/BLE.c ****     *   If 'scanTo' sub-parameter is a non-zero value, then upon commencement of 
 911:Generated_Source\PSoC4/BLE.c ****     *   discovery procedure and elapsed time = 'scanTo', CYBLE_EVT_TIMEOUT event
 912:Generated_Source\PSoC4/BLE.c ****     *   is generated with the event parameter indicating CYBLE_GAP_SCAN_TO.
 913:Generated_Source\PSoC4/BLE.c ****     *   Possible generated events are:
 914:Generated_Source\PSoC4/BLE.c ****     *   * CYBLE_EVT_GAPC_SCAN_START_STOP: If a device started or stopped scanning. 
 915:Generated_Source\PSoC4/BLE.c ****     *                                     Use CyBle_GetState() to determine the 
 916:Generated_Source\PSoC4/BLE.c ****     *                                     state. Sequential scanning could be 
 917:Generated_Source\PSoC4/BLE.c ****     *                                     started when CYBLE_STATE_DISCONNECTED 
 918:Generated_Source\PSoC4/BLE.c ****     *                                     state is returned. 
 919:Generated_Source\PSoC4/BLE.c ****     *   * CYBLE_EVT_GAPC_SCAN_PROGRESS_RESULT 
ARM GAS  C:\Users\Sarah\AppData\Local\Temp\cc9TMdi9.s 			page 28


 920:Generated_Source\PSoC4/BLE.c ****     *   * CYBLE_EVT_TIMEOUT (CYBLE_GAP_SCAN_TO)
 921:Generated_Source\PSoC4/BLE.c ****     * 
 922:Generated_Source\PSoC4/BLE.c ****     *   \param scanningIntervalType:  Fast or slow scanning interval with
 923:Generated_Source\PSoC4/BLE.c ****     *       timings entered in Scan settings section of the customizer.
 924:Generated_Source\PSoC4/BLE.c ****     * 	  * CYBLE_SCANNING_FAST   0x00u
 925:Generated_Source\PSoC4/BLE.c ****     * 	  * CYBLE_SCANNING_SLOW   0x01u
 926:Generated_Source\PSoC4/BLE.c ****     * 	  * CYBLE_SCANNING_CUSTOM 0x02u
 927:Generated_Source\PSoC4/BLE.c ****     * 
 928:Generated_Source\PSoC4/BLE.c ****     * \return
 929:Generated_Source\PSoC4/BLE.c ****     *  CYBLE_API_RESULT_T : Return value indicates if the function succeeded or
 930:Generated_Source\PSoC4/BLE.c ****     *  failed. Following are the possible error codes.
 931:Generated_Source\PSoC4/BLE.c ****     *
 932:Generated_Source\PSoC4/BLE.c ****     *   Errors codes                       | Description
 933:Generated_Source\PSoC4/BLE.c ****     *   ---------------------------------- | -----------------------------------
 934:Generated_Source\PSoC4/BLE.c ****     *   CYBLE_ERROR_OK                     | On successful operation.
 935:Generated_Source\PSoC4/BLE.c ****     *   CYBLE_ERROR_STACK_INTERNAL         | An error occurred in the BLE stack.
 936:Generated_Source\PSoC4/BLE.c ****     *   CYBLE_ERROR_INVALID_PARAMETER      | On passing an invalid parameter.
 937:Generated_Source\PSoC4/BLE.c ****     *  
 938:Generated_Source\PSoC4/BLE.c ****     *******************************************************************************/
 939:Generated_Source\PSoC4/BLE.c ****     CYBLE_API_RESULT_T CyBle_GapcStartScan(uint8 scanningIntervalType)
 940:Generated_Source\PSoC4/BLE.c ****     {
 598              		.loc 1 940 0
 599              		.cfi_startproc
 600              	.LVL41:
 601 0000 08B5     		push	{r3, lr}
 602              		.cfi_def_cfa_offset 8
 603              		.cfi_offset 3, -8
 604              		.cfi_offset 14, -4
 941:Generated_Source\PSoC4/BLE.c ****         CYBLE_API_RESULT_T apiResult;
 942:Generated_Source\PSoC4/BLE.c **** 
 943:Generated_Source\PSoC4/BLE.c ****         if(scanningIntervalType > CYBLE_SCANNING_CUSTOM)
 605              		.loc 1 943 0
 606 0002 0228     		cmp	r0, #2
 607 0004 1FD8     		bhi	.L39
 944:Generated_Source\PSoC4/BLE.c ****         {
 945:Generated_Source\PSoC4/BLE.c ****             apiResult = CYBLE_ERROR_INVALID_PARAMETER;
 946:Generated_Source\PSoC4/BLE.c ****         }
 947:Generated_Source\PSoC4/BLE.c ****         else
 948:Generated_Source\PSoC4/BLE.c ****         {
 949:Generated_Source\PSoC4/BLE.c ****             if(scanningIntervalType == CYBLE_SCANNING_FAST)
 608              		.loc 1 949 0
 609 0006 0028     		cmp	r0, #0
 610 0008 06D1     		bne	.L37
 950:Generated_Source\PSoC4/BLE.c ****             {
 951:Generated_Source\PSoC4/BLE.c ****                 cyBle_discoveryInfo.scanTo = CYBLE_FAST_SCAN_TIMEOUT;
 611              		.loc 1 951 0
 612 000a 104B     		ldr	r3, .L40
 613 000c 1E22     		mov	r2, #30
 614 000e 1A81     		strh	r2, [r3, #8]
 952:Generated_Source\PSoC4/BLE.c ****                 cyBle_discoveryInfo.scanIntv = CYBLE_FAST_SCAN_INTERVAL;
 615              		.loc 1 952 0
 616 0010 1232     		add	r2, r2, #18
 617 0012 5A80     		strh	r2, [r3, #2]
 953:Generated_Source\PSoC4/BLE.c ****                 cyBle_discoveryInfo.scanWindow = CYBLE_FAST_SCAN_WINDOW;
 618              		.loc 1 953 0
 619 0014 9A80     		strh	r2, [r3, #4]
 620 0016 09E0     		b	.L38
ARM GAS  C:\Users\Sarah\AppData\Local\Temp\cc9TMdi9.s 			page 29


 621              	.L37:
 954:Generated_Source\PSoC4/BLE.c ****             }
 955:Generated_Source\PSoC4/BLE.c ****             else if(scanningIntervalType == CYBLE_SCANNING_SLOW)
 622              		.loc 1 955 0
 623 0018 0128     		cmp	r0, #1
 624 001a 07D1     		bne	.L38
 956:Generated_Source\PSoC4/BLE.c ****             {
 957:Generated_Source\PSoC4/BLE.c ****                 cyBle_discoveryInfo.scanTo = CYBLE_SLOW_SCAN_TIMEOUT;
 625              		.loc 1 957 0
 626 001c 0B4B     		ldr	r3, .L40
 627 001e 9622     		mov	r2, #150
 628 0020 1A81     		strh	r2, [r3, #8]
 958:Generated_Source\PSoC4/BLE.c ****                 cyBle_discoveryInfo.scanIntv = CYBLE_SLOW_SCAN_INTERVAL;
 629              		.loc 1 958 0
 630 0022 8022     		mov	r2, #128
 631 0024 1201     		lsl	r2, r2, #4
 632 0026 5A80     		strh	r2, [r3, #2]
 959:Generated_Source\PSoC4/BLE.c ****                 cyBle_discoveryInfo.scanWindow = CYBLE_SLOW_SCAN_WINDOW;
 633              		.loc 1 959 0
 634 0028 F83A     		sub	r2, r2, #248
 635 002a 9A80     		strh	r2, [r3, #4]
 636              	.L38:
 960:Generated_Source\PSoC4/BLE.c ****             }       
 961:Generated_Source\PSoC4/BLE.c ****             else /* Do not update scanning intervals */
 962:Generated_Source\PSoC4/BLE.c ****             {
 963:Generated_Source\PSoC4/BLE.c ****             }
 964:Generated_Source\PSoC4/BLE.c ****             
 965:Generated_Source\PSoC4/BLE.c ****             cyBle_scanningIntervalType = scanningIntervalType;
 637              		.loc 1 965 0
 638 002c 084B     		ldr	r3, .L40+4
 639 002e 1870     		strb	r0, [r3]
 966:Generated_Source\PSoC4/BLE.c ****             apiResult = CyBle_GapcStartDiscovery(&cyBle_discoveryInfo);
 640              		.loc 1 966 0
 641 0030 0648     		ldr	r0, .L40
 642              	.LVL42:
 643 0032 FFF7FEFF 		bl	CyBle_GapcStartDiscovery
 644              	.LVL43:
 967:Generated_Source\PSoC4/BLE.c ****         
 968:Generated_Source\PSoC4/BLE.c ****             if(apiResult == CYBLE_ERROR_OK)
 645              		.loc 1 968 0
 646 0036 0028     		cmp	r0, #0
 647 0038 06D1     		bne	.L36
 969:Generated_Source\PSoC4/BLE.c ****             {
 970:Generated_Source\PSoC4/BLE.c ****                 cyBle_eventHandlerFlag |= CYBLE_START_FLAG;
 648              		.loc 1 970 0
 649 003a 064A     		ldr	r2, .L40+8
 650 003c 1178     		ldrb	r1, [r2]
 651 003e 0423     		mov	r3, #4
 652 0040 0B43     		orr	r3, r1
 653 0042 1370     		strb	r3, [r2]
 654 0044 00E0     		b	.L36
 655              	.LVL44:
 656              	.L39:
 945:Generated_Source\PSoC4/BLE.c ****         }
 657              		.loc 1 945 0
 658 0046 0120     		mov	r0, #1
 659              	.LVL45:
ARM GAS  C:\Users\Sarah\AppData\Local\Temp\cc9TMdi9.s 			page 30


 660              	.L36:
 971:Generated_Source\PSoC4/BLE.c ****             }
 972:Generated_Source\PSoC4/BLE.c ****         }
 973:Generated_Source\PSoC4/BLE.c ****        
 974:Generated_Source\PSoC4/BLE.c ****         return (apiResult);
 975:Generated_Source\PSoC4/BLE.c ****     }
 661              		.loc 1 975 0
 662              		@ sp needed
 663 0048 08BD     		pop	{r3, pc}
 664              	.L41:
 665 004a C046     		.align	2
 666              	.L40:
 667 004c 00000000 		.word	.LANCHOR0
 668 0050 00000000 		.word	cyBle_scanningIntervalType
 669 0054 00000000 		.word	cyBle_eventHandlerFlag
 670              		.cfi_endproc
 671              	.LFE8:
 672              		.size	CyBle_GapcStartScan, .-CyBle_GapcStartScan
 673              		.section	.text.CyBle_GapcStopScan,"ax",%progbits
 674              		.align	2
 675              		.global	CyBle_GapcStopScan
 676              		.code	16
 677              		.thumb_func
 678              		.type	CyBle_GapcStopScan, %function
 679              	CyBle_GapcStopScan:
 680              	.LFB9:
 976:Generated_Source\PSoC4/BLE.c ****     
 977:Generated_Source\PSoC4/BLE.c ****     
 978:Generated_Source\PSoC4/BLE.c ****     /******************************************************************************
 979:Generated_Source\PSoC4/BLE.c ****     * Function Name: CyBle_GapcStopScan
 980:Generated_Source\PSoC4/BLE.c ****     ***************************************************************************//**
 981:Generated_Source\PSoC4/BLE.c ****     * 
 982:Generated_Source\PSoC4/BLE.c ****     *   This function used to stop the discovery of devices. On stopping discovery
 983:Generated_Source\PSoC4/BLE.c ****     *   operation, CYBLE_EVT_GAPC_SCAN_START_STOP event is generated. Application
 984:Generated_Source\PSoC4/BLE.c ****     *   layer needs to keep track of the function call made before receiving this
 985:Generated_Source\PSoC4/BLE.c ****     *   event to associate this event with either the start or stop discovery
 986:Generated_Source\PSoC4/BLE.c ****     *   function.
 987:Generated_Source\PSoC4/BLE.c ****     * 
 988:Generated_Source\PSoC4/BLE.c ****     *   Possible events generated are:
 989:Generated_Source\PSoC4/BLE.c ****     *    * CYBLE_EVT_GAPC_SCAN_START_STOP
 990:Generated_Source\PSoC4/BLE.c ****     * 
 991:Generated_Source\PSoC4/BLE.c ****     *  \return
 992:Generated_Source\PSoC4/BLE.c ****     *   None
 993:Generated_Source\PSoC4/BLE.c ****     * 
 994:Generated_Source\PSoC4/BLE.c ****     *******************************************************************************/
 995:Generated_Source\PSoC4/BLE.c ****     void CyBle_GapcStopScan(void)
 996:Generated_Source\PSoC4/BLE.c ****     {
 681              		.loc 1 996 0
 682              		.cfi_startproc
 683 0000 08B5     		push	{r3, lr}
 684              		.cfi_def_cfa_offset 8
 685              		.cfi_offset 3, -8
 686              		.cfi_offset 14, -4
 997:Generated_Source\PSoC4/BLE.c ****         CyBle_GapcStopDiscovery();
 687              		.loc 1 997 0
 688 0002 FFF7FEFF 		bl	CyBle_GapcStopDiscovery
 689              	.LVL46:
ARM GAS  C:\Users\Sarah\AppData\Local\Temp\cc9TMdi9.s 			page 31


 998:Generated_Source\PSoC4/BLE.c ****         
 999:Generated_Source\PSoC4/BLE.c ****         cyBle_eventHandlerFlag |= CYBLE_STOP_FLAG;
 690              		.loc 1 999 0
 691 0006 034A     		ldr	r2, .L43
 692 0008 1178     		ldrb	r1, [r2]
 693 000a 0823     		mov	r3, #8
 694 000c 0B43     		orr	r3, r1
 695 000e 1370     		strb	r3, [r2]
1000:Generated_Source\PSoC4/BLE.c ****     }
 696              		.loc 1 1000 0
 697              		@ sp needed
 698 0010 08BD     		pop	{r3, pc}
 699              	.L44:
 700 0012 C046     		.align	2
 701              	.L43:
 702 0014 00000000 		.word	cyBle_eventHandlerFlag
 703              		.cfi_endproc
 704              	.LFE9:
 705              		.size	CyBle_GapcStopScan, .-CyBle_GapcStopScan
 706              		.section	.text.CyBle_GapcConnectDevice,"ax",%progbits
 707              		.align	2
 708              		.global	CyBle_GapcConnectDevice
 709              		.code	16
 710              		.thumb_func
 711              		.type	CyBle_GapcConnectDevice, %function
 712              	CyBle_GapcConnectDevice:
 713              	.LFB10:
1001:Generated_Source\PSoC4/BLE.c **** 
1002:Generated_Source\PSoC4/BLE.c ****     
1003:Generated_Source\PSoC4/BLE.c **** #endif /* CYBLE_GAP_ROLE_CENTRAL || CYBLE_GAP_ROLE_OBSERVER */
1004:Generated_Source\PSoC4/BLE.c **** 
1005:Generated_Source\PSoC4/BLE.c **** 
1006:Generated_Source\PSoC4/BLE.c **** #if(CYBLE_GAP_ROLE_CENTRAL)
1007:Generated_Source\PSoC4/BLE.c **** 
1008:Generated_Source\PSoC4/BLE.c ****     /******************************************************************************
1009:Generated_Source\PSoC4/BLE.c ****     * Function Name: CyBle_GapcConnectDevice
1010:Generated_Source\PSoC4/BLE.c ****     ***************************************************************************//**
1011:Generated_Source\PSoC4/BLE.c ****     * 
1012:Generated_Source\PSoC4/BLE.c ****     *  This function is used to send a connection request to the remote device with
1013:Generated_Source\PSoC4/BLE.c ****     *  the connection parameters set in the component customizer. This function needs
1014:Generated_Source\PSoC4/BLE.c ****     *  to be called only once after the target device is discovered by 
1015:Generated_Source\PSoC4/BLE.c ****     *  CyBle_GapcStartScan() and further scanning has stopped. Scanning is 
1016:Generated_Source\PSoC4/BLE.c ****     *  successfully stopped on invoking CyBle_GapcStopScan() and then receiving the
1017:Generated_Source\PSoC4/BLE.c ****     *  event CYBLE_EVT_GAPC_SCAN_START_STOP with sub-parameter 'success' = 0x01u.
1018:Generated_Source\PSoC4/BLE.c ****     *  
1019:Generated_Source\PSoC4/BLE.c ****     *  On successful connection, the following events are generated at the GAP 
1020:Generated_Source\PSoC4/BLE.c ****     *  Central device (as well as the GAP Peripheral device), in the following order.
1021:Generated_Source\PSoC4/BLE.c ****     *  * CYBLE_EVT_GATT_CONNECT_IND
1022:Generated_Source\PSoC4/BLE.c ****     *  * CYBLE_EVT_GAP_DEVICE_CONNECTED - If the device connects to a GAP Central and 
1023:Generated_Source\PSoC4/BLE.c ****     *    Link Layer Privacy is disabled in component customizer.
1024:Generated_Source\PSoC4/BLE.c ****     *  * CYBLE_EVT_GAP_ENHANCE_CONN_COMPLETE - If the device connects to a GAP Central and 
1025:Generated_Source\PSoC4/BLE.c ****     *    Link Layer Privacy is enabled in component customizer.
1026:Generated_Source\PSoC4/BLE.c ****     *  * CYBLE_EVT_GAP_DEVICE_CONNECTED
1027:Generated_Source\PSoC4/BLE.c ****     *  
1028:Generated_Source\PSoC4/BLE.c ****     *  A procedure is considered to have timed out if a connection response packet is 
1029:Generated_Source\PSoC4/BLE.c ****     *  not received within time set by cyBle_connectingTimeout global variable
1030:Generated_Source\PSoC4/BLE.c ****     *  (30 seconds by default). CYBLE_EVT_TIMEOUT event with CYBLE_GENERIC_TO parameter
ARM GAS  C:\Users\Sarah\AppData\Local\Temp\cc9TMdi9.s 			page 32


1031:Generated_Source\PSoC4/BLE.c ****     *  will indicate about connection procedure timeout. Connection will automatically
1032:Generated_Source\PSoC4/BLE.c ****     *  be canceled and state will be changed to CYBLE_STATE_DISCONNECTED.
1033:Generated_Source\PSoC4/BLE.c ****     * 
1034:Generated_Source\PSoC4/BLE.c ****     *  \param address: The device address of the remote device to connect to. 
1035:Generated_Source\PSoC4/BLE.c ****     *  
1036:Generated_Source\PSoC4/BLE.c ****     * \return
1037:Generated_Source\PSoC4/BLE.c ****     *  CYBLE_API_RESULT_T : Return value indicates if the function succeeded or 
1038:Generated_Source\PSoC4/BLE.c ****     *  failed. Following are the possible error codes.
1039:Generated_Source\PSoC4/BLE.c ****     *
1040:Generated_Source\PSoC4/BLE.c ****     *   Errors codes                       | Description
1041:Generated_Source\PSoC4/BLE.c ****     *   ------------                       | -----------
1042:Generated_Source\PSoC4/BLE.c ****     *   CYBLE_ERROR_OK                     | On successful operation.
1043:Generated_Source\PSoC4/BLE.c ****     *   CYBLE_ERROR_STACK_INTERNAL         | On error occurred in the BLE stack.
1044:Generated_Source\PSoC4/BLE.c ****     *   CYBLE_ERROR_INVALID_PARAMETER      | On passing an invalid parameter.
1045:Generated_Source\PSoC4/BLE.c ****     *   CYBLE_ERROR_INVALID_STATE          | On calling this API not in Disconnected state.
1046:Generated_Source\PSoC4/BLE.c ****     *  
1047:Generated_Source\PSoC4/BLE.c ****     ******************************************************************************/
1048:Generated_Source\PSoC4/BLE.c ****     CYBLE_API_RESULT_T CyBle_GapcConnectDevice(const CYBLE_GAP_BD_ADDR_T * address)
1049:Generated_Source\PSoC4/BLE.c ****     {
 714              		.loc 1 1049 0
 715              		.cfi_startproc
 716              	.LVL47:
 717 0000 10B5     		push	{r4, lr}
 718              		.cfi_def_cfa_offset 8
 719              		.cfi_offset 4, -8
 720              		.cfi_offset 14, -4
1050:Generated_Source\PSoC4/BLE.c ****         CYBLE_API_RESULT_T apiResult;
1051:Generated_Source\PSoC4/BLE.c ****         uint8 i;
1052:Generated_Source\PSoC4/BLE.c **** 
1053:Generated_Source\PSoC4/BLE.c ****         if(CyBle_GetState() != CYBLE_STATE_DISCONNECTED)
 721              		.loc 1 1053 0
 722 0002 134B     		ldr	r3, .L51
 723 0004 1B78     		ldrb	r3, [r3]
 724 0006 052B     		cmp	r3, #5
 725 0008 1CD1     		bne	.L49
1054:Generated_Source\PSoC4/BLE.c ****         {
1055:Generated_Source\PSoC4/BLE.c ****             apiResult = CYBLE_ERROR_INVALID_STATE;
1056:Generated_Source\PSoC4/BLE.c ****         }
1057:Generated_Source\PSoC4/BLE.c ****         else if(address == NULL)
 726              		.loc 1 1057 0
 727 000a 0028     		cmp	r0, #0
 728 000c 1DD0     		beq	.L50
 729 000e 0023     		mov	r3, #0
 730 0010 05E0     		b	.L47
 731              	.LVL48:
 732              	.L48:
1058:Generated_Source\PSoC4/BLE.c ****         {
1059:Generated_Source\PSoC4/BLE.c ****             apiResult = CYBLE_ERROR_INVALID_PARAMETER;
1060:Generated_Source\PSoC4/BLE.c ****         }
1061:Generated_Source\PSoC4/BLE.c ****         else
1062:Generated_Source\PSoC4/BLE.c ****         {
1063:Generated_Source\PSoC4/BLE.c ****             for(i = 0u; i < CYBLE_GAP_BD_ADDR_SIZE; i++)
1064:Generated_Source\PSoC4/BLE.c ****             {
1065:Generated_Source\PSoC4/BLE.c ****                 cyBle_connectionParameters.peerBdAddr[i] = address->bdAddr[i];
 733              		.loc 1 1065 0 discriminator 3
 734 0012 C15C     		ldrb	r1, [r0, r3]
 735 0014 0F4A     		ldr	r2, .L51+4
ARM GAS  C:\Users\Sarah\AppData\Local\Temp\cc9TMdi9.s 			page 33


 736 0016 D218     		add	r2, r2, r3
 737 0018 5171     		strb	r1, [r2, #5]
1063:Generated_Source\PSoC4/BLE.c ****             {
 738              		.loc 1 1063 0 discriminator 3
 739 001a 0133     		add	r3, r3, #1
 740              	.LVL49:
 741 001c DBB2     		uxtb	r3, r3
 742              	.LVL50:
 743              	.L47:
1063:Generated_Source\PSoC4/BLE.c ****             {
 744              		.loc 1 1063 0 is_stmt 0 discriminator 1
 745 001e 052B     		cmp	r3, #5
 746 0020 F7D9     		bls	.L48
1066:Generated_Source\PSoC4/BLE.c ****             }
1067:Generated_Source\PSoC4/BLE.c ****             cyBle_connectionParameters.peerAddrType = address -> type;
 747              		.loc 1 1067 0 is_stmt 1
 748 0022 8379     		ldrb	r3, [r0, #6]
 749              	.LVL51:
 750 0024 0B48     		ldr	r0, .L51+4
 751              	.LVL52:
 752 0026 C372     		strb	r3, [r0, #11]
1068:Generated_Source\PSoC4/BLE.c ****             apiResult = CyBle_GapcInitConnection(&cyBle_connectionParameters);
 753              		.loc 1 1068 0
 754 0028 FFF7FEFF 		bl	CyBle_GapcInitConnection
 755              	.LVL53:
 756 002c 041E     		sub	r4, r0, #0
 757              	.LVL54:
1069:Generated_Source\PSoC4/BLE.c ****             
1070:Generated_Source\PSoC4/BLE.c ****             if(apiResult == CYBLE_ERROR_OK)
 758              		.loc 1 1070 0
 759 002e 0DD1     		bne	.L46
1071:Generated_Source\PSoC4/BLE.c ****             {
1072:Generated_Source\PSoC4/BLE.c ****                 CyBle_SetState(CYBLE_STATE_CONNECTING);
 760              		.loc 1 1072 0
 761 0030 0422     		mov	r2, #4
 762 0032 074B     		ldr	r3, .L51
 763 0034 1A70     		strb	r2, [r3]
1073:Generated_Source\PSoC4/BLE.c ****                 if(cyBle_connectingTimeout != 0u)
 764              		.loc 1 1073 0
 765 0036 084B     		ldr	r3, .L51+8
 766 0038 1888     		ldrh	r0, [r3]
 767              	.LVL55:
 768 003a 0028     		cmp	r0, #0
 769 003c 06D0     		beq	.L46
1074:Generated_Source\PSoC4/BLE.c ****                 {
1075:Generated_Source\PSoC4/BLE.c ****                     (void)CyBle_StartTimer(cyBle_connectingTimeout);
 770              		.loc 1 1075 0
 771 003e FFF7FEFF 		bl	CyBle_StartTimer
 772              	.LVL56:
 773 0042 03E0     		b	.L46
 774              	.LVL57:
 775              	.L49:
1055:Generated_Source\PSoC4/BLE.c ****         }
 776              		.loc 1 1055 0
 777 0044 0424     		mov	r4, #4
 778 0046 FF34     		add	r4, r4, #255
 779 0048 00E0     		b	.L46
ARM GAS  C:\Users\Sarah\AppData\Local\Temp\cc9TMdi9.s 			page 34


 780              	.L50:
1059:Generated_Source\PSoC4/BLE.c ****         }
 781              		.loc 1 1059 0
 782 004a 0124     		mov	r4, #1
 783              	.LVL58:
 784              	.L46:
1076:Generated_Source\PSoC4/BLE.c ****                 }
1077:Generated_Source\PSoC4/BLE.c ****             }
1078:Generated_Source\PSoC4/BLE.c ****         }
1079:Generated_Source\PSoC4/BLE.c ****         return (apiResult);
1080:Generated_Source\PSoC4/BLE.c ****     }
 785              		.loc 1 1080 0
 786 004c 201C     		mov	r0, r4
 787              		@ sp needed
 788              	.LVL59:
 789 004e 10BD     		pop	{r4, pc}
 790              	.L52:
 791              		.align	2
 792              	.L51:
 793 0050 00000000 		.word	cyBle_state
 794 0054 00000000 		.word	cyBle_connectionParameters
 795 0058 00000000 		.word	cyBle_connectingTimeout
 796              		.cfi_endproc
 797              	.LFE10:
 798              		.size	CyBle_GapcConnectDevice, .-CyBle_GapcConnectDevice
 799              		.section	.text.CyBle_GapcCancelDeviceConnection,"ax",%progbits
 800              		.align	2
 801              		.global	CyBle_GapcCancelDeviceConnection
 802              		.code	16
 803              		.thumb_func
 804              		.type	CyBle_GapcCancelDeviceConnection, %function
 805              	CyBle_GapcCancelDeviceConnection:
 806              	.LFB11:
1081:Generated_Source\PSoC4/BLE.c ****     
1082:Generated_Source\PSoC4/BLE.c **** 
1083:Generated_Source\PSoC4/BLE.c ****     /******************************************************************************
1084:Generated_Source\PSoC4/BLE.c ****     * Function Name: CyBle_GapcCancelDeviceConnection
1085:Generated_Source\PSoC4/BLE.c ****     ***************************************************************************//**
1086:Generated_Source\PSoC4/BLE.c ****     * 
1087:Generated_Source\PSoC4/BLE.c ****     *  This function cancels a previously initiated connection with the remote 
1088:Generated_Source\PSoC4/BLE.c ****     *  device. It is a blocking function. No event is generated on calling this 
1089:Generated_Source\PSoC4/BLE.c ****     *  function. If the devices are already connected then this function should not
1090:Generated_Source\PSoC4/BLE.c ****     *  be used. If you intend to disconnect from an existing connection, the function
1091:Generated_Source\PSoC4/BLE.c ****     *  CyBle_GapDisconnect() should be used.
1092:Generated_Source\PSoC4/BLE.c ****     * 
1093:Generated_Source\PSoC4/BLE.c ****     * \return
1094:Generated_Source\PSoC4/BLE.c ****     *  CYBLE_API_RESULT_T : Return value indicates if the function succeeded or 
1095:Generated_Source\PSoC4/BLE.c ****     *  failed. Following are the possible error codes.
1096:Generated_Source\PSoC4/BLE.c ****     *
1097:Generated_Source\PSoC4/BLE.c ****     *   Errors codes                       | Description
1098:Generated_Source\PSoC4/BLE.c ****     *   ---------------------------------- | --------------------------------------
1099:Generated_Source\PSoC4/BLE.c ****     *   CYBLE_ERROR_OK                     | On successful operation.
1100:Generated_Source\PSoC4/BLE.c ****     *   CYBLE_ERROR_STACK_INTERNAL         | An error occurred in the BLE stack.
1101:Generated_Source\PSoC4/BLE.c ****     *   CYBLE_ERROR_INVALID_STATE          | On calling this API not in Connecting state.
1102:Generated_Source\PSoC4/BLE.c ****     *  
1103:Generated_Source\PSoC4/BLE.c ****     *******************************************************************************/
1104:Generated_Source\PSoC4/BLE.c ****     CYBLE_API_RESULT_T CyBle_GapcCancelDeviceConnection(void)
ARM GAS  C:\Users\Sarah\AppData\Local\Temp\cc9TMdi9.s 			page 35


1105:Generated_Source\PSoC4/BLE.c ****     {
 807              		.loc 1 1105 0
 808              		.cfi_startproc
 809 0000 10B5     		push	{r4, lr}
 810              		.cfi_def_cfa_offset 8
 811              		.cfi_offset 4, -8
 812              		.cfi_offset 14, -4
1106:Generated_Source\PSoC4/BLE.c ****         CYBLE_API_RESULT_T apiResult;
1107:Generated_Source\PSoC4/BLE.c ****         
1108:Generated_Source\PSoC4/BLE.c ****         if(CyBle_GetState() != CYBLE_STATE_CONNECTING)
 813              		.loc 1 1108 0
 814 0002 0B4B     		ldr	r3, .L57
 815 0004 1B78     		ldrb	r3, [r3]
 816 0006 042B     		cmp	r3, #4
 817 0008 0ED1     		bne	.L56
1109:Generated_Source\PSoC4/BLE.c ****         {
1110:Generated_Source\PSoC4/BLE.c ****             apiResult = CYBLE_ERROR_INVALID_STATE;
1111:Generated_Source\PSoC4/BLE.c ****         }
1112:Generated_Source\PSoC4/BLE.c ****         else 
1113:Generated_Source\PSoC4/BLE.c ****         {
1114:Generated_Source\PSoC4/BLE.c ****             apiResult = CyBle_GapcCancelConnection();
 818              		.loc 1 1114 0
 819 000a FFF7FEFF 		bl	CyBle_GapcCancelConnection
 820              	.LVL60:
 821 000e 041C     		mov	r4, r0
 822              	.LVL61:
1115:Generated_Source\PSoC4/BLE.c ****             
1116:Generated_Source\PSoC4/BLE.c ****             if(cyBle_connectingTimeout != 0u)
 823              		.loc 1 1116 0
 824 0010 084B     		ldr	r3, .L57+4
 825 0012 1B88     		ldrh	r3, [r3]
 826 0014 002B     		cmp	r3, #0
 827 0016 01D0     		beq	.L55
1117:Generated_Source\PSoC4/BLE.c ****             {
1118:Generated_Source\PSoC4/BLE.c ****                 (void)CyBle_StopTimer();
 828              		.loc 1 1118 0
 829 0018 FFF7FEFF 		bl	CyBle_StopTimer
 830              	.LVL62:
 831              	.L55:
1119:Generated_Source\PSoC4/BLE.c ****             }
1120:Generated_Source\PSoC4/BLE.c **** 
1121:Generated_Source\PSoC4/BLE.c ****             if(apiResult == CYBLE_ERROR_OK)
 832              		.loc 1 1121 0
 833 001c 002C     		cmp	r4, #0
 834 001e 05D1     		bne	.L54
1122:Generated_Source\PSoC4/BLE.c ****             {
1123:Generated_Source\PSoC4/BLE.c ****                 CyBle_SetState(CYBLE_STATE_DISCONNECTED);
 835              		.loc 1 1123 0
 836 0020 0522     		mov	r2, #5
 837 0022 034B     		ldr	r3, .L57
 838 0024 1A70     		strb	r2, [r3]
 839 0026 01E0     		b	.L54
 840              	.LVL63:
 841              	.L56:
1110:Generated_Source\PSoC4/BLE.c ****         }
 842              		.loc 1 1110 0
 843 0028 0424     		mov	r4, #4
ARM GAS  C:\Users\Sarah\AppData\Local\Temp\cc9TMdi9.s 			page 36


 844 002a FF34     		add	r4, r4, #255
 845              	.L54:
 846              	.LVL64:
1124:Generated_Source\PSoC4/BLE.c ****             }
1125:Generated_Source\PSoC4/BLE.c ****         }
1126:Generated_Source\PSoC4/BLE.c ****         return (apiResult);
1127:Generated_Source\PSoC4/BLE.c ****     }    
 847              		.loc 1 1127 0
 848 002c 201C     		mov	r0, r4
 849              		@ sp needed
 850              	.LVL65:
 851 002e 10BD     		pop	{r4, pc}
 852              	.L58:
 853              		.align	2
 854              	.L57:
 855 0030 00000000 		.word	cyBle_state
 856 0034 00000000 		.word	cyBle_connectingTimeout
 857              		.cfi_endproc
 858              	.LFE11:
 859              		.size	CyBle_GapcCancelDeviceConnection, .-CyBle_GapcCancelDeviceConnection
 860              		.section	.text.CyBle_GapSetLocalName,"ax",%progbits
 861              		.align	2
 862              		.global	CyBle_GapSetLocalName
 863              		.code	16
 864              		.thumb_func
 865              		.type	CyBle_GapSetLocalName, %function
 866              	CyBle_GapSetLocalName:
 867              	.LFB12:
1128:Generated_Source\PSoC4/BLE.c **** 
1129:Generated_Source\PSoC4/BLE.c ****     
1130:Generated_Source\PSoC4/BLE.c **** #endif /* CYBLE_GAP_ROLE_CENTRAL */
1131:Generated_Source\PSoC4/BLE.c **** 
1132:Generated_Source\PSoC4/BLE.c **** 
1133:Generated_Source\PSoC4/BLE.c **** #if(CYBLE_GATT_ROLE_SERVER)
1134:Generated_Source\PSoC4/BLE.c **** 
1135:Generated_Source\PSoC4/BLE.c **** #if(CYBLE_GAP_ROLE_PERIPHERAL)
1136:Generated_Source\PSoC4/BLE.c **** 
1137:Generated_Source\PSoC4/BLE.c ****         /******************************************************************************
1138:Generated_Source\PSoC4/BLE.c ****         * Function Name: CyBle_ChangeAdLocalName
1139:Generated_Source\PSoC4/BLE.c ****         ***************************************************************************//**
1140:Generated_Source\PSoC4/BLE.c ****         *  This API is used to set the local device name in the advertisement or scan 
1141:Generated_Source\PSoC4/BLE.c ****         *  response data structure.
1142:Generated_Source\PSoC4/BLE.c ****         * 
1143:Generated_Source\PSoC4/BLE.c ****         *  \param name: The local device name string to be set in advertisement data 
1144:Generated_Source\PSoC4/BLE.c ****         *            structure.
1145:Generated_Source\PSoC4/BLE.c ****         *  \param dest: 0 - advertisement structure, not zero value selects scan response
1146:Generated_Source\PSoC4/BLE.c ****         *              structure.
1147:Generated_Source\PSoC4/BLE.c ****         * 
1148:Generated_Source\PSoC4/BLE.c ****         * \return
1149:Generated_Source\PSoC4/BLE.c ****         *  None
1150:Generated_Source\PSoC4/BLE.c ****         *  
1151:Generated_Source\PSoC4/BLE.c ****         *******************************************************************************/
1152:Generated_Source\PSoC4/BLE.c ****         static void CyBle_ChangeAdLocalName(const char8 name[], uint8 dest)
1153:Generated_Source\PSoC4/BLE.c ****         {
1154:Generated_Source\PSoC4/BLE.c ****             uint8 i;
1155:Generated_Source\PSoC4/BLE.c ****             uint8 flag = 0u;
1156:Generated_Source\PSoC4/BLE.c ****             uint8 adLength = 0u;
ARM GAS  C:\Users\Sarah\AppData\Local\Temp\cc9TMdi9.s 			page 37


1157:Generated_Source\PSoC4/BLE.c ****             uint8 byteCounter = 0u;
1158:Generated_Source\PSoC4/BLE.c ****             uint8 *destBuffer;
1159:Generated_Source\PSoC4/BLE.c ****             uint8 maxLength;
1160:Generated_Source\PSoC4/BLE.c ****             
1161:Generated_Source\PSoC4/BLE.c ****             if(dest == 0u)      /* Destination - advertising structure */
1162:Generated_Source\PSoC4/BLE.c ****             {
1163:Generated_Source\PSoC4/BLE.c ****                 destBuffer = cyBle_discoveryData.advData;
1164:Generated_Source\PSoC4/BLE.c ****                 maxLength = cyBle_discoveryData.advDataLen;
1165:Generated_Source\PSoC4/BLE.c ****             }
1166:Generated_Source\PSoC4/BLE.c ****             else                /* Destination - scan response structure */
1167:Generated_Source\PSoC4/BLE.c ****             {
1168:Generated_Source\PSoC4/BLE.c ****                 destBuffer = cyBle_scanRspData.scanRspData;
1169:Generated_Source\PSoC4/BLE.c ****                 maxLength = cyBle_scanRspData.scanRspDataLen;
1170:Generated_Source\PSoC4/BLE.c ****             }
1171:Generated_Source\PSoC4/BLE.c ****             
1172:Generated_Source\PSoC4/BLE.c ****             while((byteCounter < maxLength) && (flag == 0u))
1173:Generated_Source\PSoC4/BLE.c ****             {
1174:Generated_Source\PSoC4/BLE.c ****                 adLength = destBuffer[byteCounter];
1175:Generated_Source\PSoC4/BLE.c ****                 
1176:Generated_Source\PSoC4/BLE.c ****                 if(0u != adLength)
1177:Generated_Source\PSoC4/BLE.c ****                 {
1178:Generated_Source\PSoC4/BLE.c ****                     /* Increment byte counter so it can point to AD type */
1179:Generated_Source\PSoC4/BLE.c ****                     byteCounter++;
1180:Generated_Source\PSoC4/BLE.c ****                     
1181:Generated_Source\PSoC4/BLE.c ****                     if((destBuffer[byteCounter] == CYBLE_SHORT_LOCAL_NAME) || 
1182:Generated_Source\PSoC4/BLE.c ****                        (destBuffer[byteCounter] == CYBLE_COMPLETE_LOCAL_NAME))
1183:Generated_Source\PSoC4/BLE.c ****                     {
1184:Generated_Source\PSoC4/BLE.c ****                         /* Start of the Local Name AD type was fount. Set flag and exit the loop. *
1185:Generated_Source\PSoC4/BLE.c ****                         flag = 1u;
1186:Generated_Source\PSoC4/BLE.c ****                     }
1187:Generated_Source\PSoC4/BLE.c ****                     else
1188:Generated_Source\PSoC4/BLE.c ****                     {
1189:Generated_Source\PSoC4/BLE.c ****                         byteCounter += adLength;
1190:Generated_Source\PSoC4/BLE.c ****                     }
1191:Generated_Source\PSoC4/BLE.c ****                 }
1192:Generated_Source\PSoC4/BLE.c ****                 else
1193:Generated_Source\PSoC4/BLE.c ****                 {
1194:Generated_Source\PSoC4/BLE.c ****                     /* The end of advertisement data structure was encountered though exit the loop
1195:Generated_Source\PSoC4/BLE.c ****                     break;
1196:Generated_Source\PSoC4/BLE.c ****                 }
1197:Generated_Source\PSoC4/BLE.c ****             }
1198:Generated_Source\PSoC4/BLE.c ****             
1199:Generated_Source\PSoC4/BLE.c ****             if(0u != flag)
1200:Generated_Source\PSoC4/BLE.c ****             {
1201:Generated_Source\PSoC4/BLE.c ****                 /* Reuse "adLength" to hold location of the last character of local name in 
1202:Generated_Source\PSoC4/BLE.c ****                    AD structure. */
1203:Generated_Source\PSoC4/BLE.c ****                 adLength += byteCounter;
1204:Generated_Source\PSoC4/BLE.c ****                 
1205:Generated_Source\PSoC4/BLE.c ****                 /* Increment byte counter to point to start of the local Name string */
1206:Generated_Source\PSoC4/BLE.c ****                 byteCounter++;
1207:Generated_Source\PSoC4/BLE.c ****                 
1208:Generated_Source\PSoC4/BLE.c ****                 for(i = byteCounter; ((i < (adLength)) && (CYBLE_NULL_CHARCTER != name[i - byteCoun
1209:Generated_Source\PSoC4/BLE.c ****                 {
1210:Generated_Source\PSoC4/BLE.c ****                     destBuffer[i] = (uint8)name[i - byteCounter];
1211:Generated_Source\PSoC4/BLE.c ****                 }
1212:Generated_Source\PSoC4/BLE.c ****                 
1213:Generated_Source\PSoC4/BLE.c ****                 /* This loop handles the case when new local name is shorted than old one.
ARM GAS  C:\Users\Sarah\AppData\Local\Temp\cc9TMdi9.s 			page 38


1214:Generated_Source\PSoC4/BLE.c ****                    In this case all remaining characters should be null characters. */
1215:Generated_Source\PSoC4/BLE.c ****                 while(adLength > i)
1216:Generated_Source\PSoC4/BLE.c ****                 {
1217:Generated_Source\PSoC4/BLE.c ****                     /* Terminate string */
1218:Generated_Source\PSoC4/BLE.c ****                     destBuffer[i] = (uint8)CYBLE_NULL_CHARCTER;
1219:Generated_Source\PSoC4/BLE.c ****                     i++;
1220:Generated_Source\PSoC4/BLE.c ****                 }
1221:Generated_Source\PSoC4/BLE.c ****             }
1222:Generated_Source\PSoC4/BLE.c ****         }
1223:Generated_Source\PSoC4/BLE.c ****         
1224:Generated_Source\PSoC4/BLE.c **** #endif /* (CYBLE_GAP_ROLE_PERIPHERAL) */  
1225:Generated_Source\PSoC4/BLE.c ****     
1226:Generated_Source\PSoC4/BLE.c ****     
1227:Generated_Source\PSoC4/BLE.c ****     /******************************************************************************
1228:Generated_Source\PSoC4/BLE.c ****     * Function Name: CyBle_GapSetLocalName
1229:Generated_Source\PSoC4/BLE.c ****     ***************************************************************************//**
1230:Generated_Source\PSoC4/BLE.c ****     *  This API is used to set the local device name - a Characteristic of the 
1231:Generated_Source\PSoC4/BLE.c ****     *  GAP Service. If the characteristic length entered in the component customizer
1232:Generated_Source\PSoC4/BLE.c ****     *  is shorter than the string specified by the "name" parameter, the local device
1233:Generated_Source\PSoC4/BLE.c ****     *  name will be cut to the length specified in the customizer.
1234:Generated_Source\PSoC4/BLE.c ****     * 
1235:Generated_Source\PSoC4/BLE.c ****     *  \param name: The local device name string. The name string to be written as
1236:Generated_Source\PSoC4/BLE.c ****     *              the local device name. It represents a UTF-8 encoded User
1237:Generated_Source\PSoC4/BLE.c ****     *              Friendly Descriptive Name for the device. The length of the local
1238:Generated_Source\PSoC4/BLE.c ****     *              device string is entered into the component customizer and it can
1239:Generated_Source\PSoC4/BLE.c ****     *              be set to a value from 0 to 248 bytes. If the name contained in
1240:Generated_Source\PSoC4/BLE.c ****     *              the parameter is shorter than the length from the customizer, the
1241:Generated_Source\PSoC4/BLE.c ****     *              end of the name is indicated by a NULL octet (0x00).
1242:Generated_Source\PSoC4/BLE.c ****     * 
1243:Generated_Source\PSoC4/BLE.c ****     * \return
1244:Generated_Source\PSoC4/BLE.c ****     *  CYBLE_API_RESULT_T : Return value indicates if the function succeeded or 
1245:Generated_Source\PSoC4/BLE.c ****     *  failed. Following are the possible error codes.
1246:Generated_Source\PSoC4/BLE.c ****     *
1247:Generated_Source\PSoC4/BLE.c ****     *   Errors codes                       | Description
1248:Generated_Source\PSoC4/BLE.c ****     *   ------------                       | -----------
1249:Generated_Source\PSoC4/BLE.c ****     *   CYBLE_ERROR_OK                     | Function completed successfully.
1250:Generated_Source\PSoC4/BLE.c ****     *   CYBLE_ERROR_INVALID_PARAMETER      | On specifying NULL as input parameter
1251:Generated_Source\PSoC4/BLE.c ****     *  
1252:Generated_Source\PSoC4/BLE.c ****     *******************************************************************************/
1253:Generated_Source\PSoC4/BLE.c ****     CYBLE_API_RESULT_T CyBle_GapSetLocalName(const char8 name[])
1254:Generated_Source\PSoC4/BLE.c ****     {
 868              		.loc 1 1254 0
 869              		.cfi_startproc
 870              	.LVL66:
 871 0000 10B5     		push	{r4, lr}
 872              		.cfi_def_cfa_offset 8
 873              		.cfi_offset 4, -8
 874              		.cfi_offset 14, -4
 875              	.LVL67:
1255:Generated_Source\PSoC4/BLE.c ****         CYBLE_API_RESULT_T apiResult = CYBLE_ERROR_OK;
1256:Generated_Source\PSoC4/BLE.c ****         uint8 i;
1257:Generated_Source\PSoC4/BLE.c ****         char8 *ptr;
1258:Generated_Source\PSoC4/BLE.c ****         uint8 charLen;
1259:Generated_Source\PSoC4/BLE.c **** 
1260:Generated_Source\PSoC4/BLE.c ****         if(NULL != name)
 876              		.loc 1 1260 0
 877 0002 0028     		cmp	r0, #0
ARM GAS  C:\Users\Sarah\AppData\Local\Temp\cc9TMdi9.s 			page 39


 878 0004 15D0     		beq	.L64
1261:Generated_Source\PSoC4/BLE.c ****         {
1262:Generated_Source\PSoC4/BLE.c ****             /* Get the pointer to the Device Name characteristic  */
1263:Generated_Source\PSoC4/BLE.c ****             ptr = (char8 *) CYBLE_GATT_DB_ATTR_GET_ATTR_GEN_PTR(CYBLE_GAP_DEVICE_NAME_INDEX + 1u);
 879              		.loc 1 1263 0
 880 0006 0D4B     		ldr	r3, .L66
 881 0008 9A6B     		ldr	r2, [r3, #56]
 882 000a 5468     		ldr	r4, [r2, #4]
 883              	.LVL68:
1264:Generated_Source\PSoC4/BLE.c **** 
1265:Generated_Source\PSoC4/BLE.c ****             /* First need to get the maximum length of the characteristic data in the GATT
1266:Generated_Source\PSoC4/BLE.c ****                 database to make sure there is enough place for the data. The length
1267:Generated_Source\PSoC4/BLE.c ****                 can't be longer than 248, so only the LSB of 16 bit of length is to
1268:Generated_Source\PSoC4/BLE.c ****                 be used. */
1269:Generated_Source\PSoC4/BLE.c ****             charLen = (uint8)CYBLE_GATT_DB_ATTR_GET_ATTR_GEN_MAX_LEN(CYBLE_GAP_DEVICE_NAME_INDEX + 
 884              		.loc 1 1269 0
 885 000c 998E     		ldrh	r1, [r3, #52]
 886 000e C9B2     		uxtb	r1, r1
 887              	.LVL69:
1270:Generated_Source\PSoC4/BLE.c **** 
1271:Generated_Source\PSoC4/BLE.c ****             /* Copy name into characteristic */
1272:Generated_Source\PSoC4/BLE.c ****             for(i = 0u; ((i < charLen) && (CYBLE_NULL_CHARCTER != name[i])); i++)
 888              		.loc 1 1272 0
 889 0010 0023     		mov	r3, #0
 890 0012 02E0     		b	.L61
 891              	.LVL70:
 892              	.L63:
1273:Generated_Source\PSoC4/BLE.c ****             {
1274:Generated_Source\PSoC4/BLE.c ****                 ptr[i] = name[i];
 893              		.loc 1 1274 0 discriminator 4
 894 0014 E254     		strb	r2, [r4, r3]
1272:Generated_Source\PSoC4/BLE.c ****             {
 895              		.loc 1 1272 0 discriminator 4
 896 0016 0133     		add	r3, r3, #1
 897              	.LVL71:
 898 0018 DBB2     		uxtb	r3, r3
 899              	.LVL72:
 900              	.L61:
1272:Generated_Source\PSoC4/BLE.c ****             {
 901              		.loc 1 1272 0 is_stmt 0 discriminator 1
 902 001a 8B42     		cmp	r3, r1
 903 001c 02D2     		bcs	.L62
1272:Generated_Source\PSoC4/BLE.c ****             {
 904              		.loc 1 1272 0 discriminator 3
 905 001e C25C     		ldrb	r2, [r0, r3]
 906 0020 002A     		cmp	r2, #0
 907 0022 F7D1     		bne	.L63
 908              	.L62:
1275:Generated_Source\PSoC4/BLE.c ****             }
1276:Generated_Source\PSoC4/BLE.c **** 
1277:Generated_Source\PSoC4/BLE.c ****             if(i < charLen)
 909              		.loc 1 1277 0 is_stmt 1
 910 0024 8B42     		cmp	r3, r1
 911 0026 06D2     		bcs	.L65
1278:Generated_Source\PSoC4/BLE.c ****             {
1279:Generated_Source\PSoC4/BLE.c ****                 /* Terminate string */
1280:Generated_Source\PSoC4/BLE.c ****                 ptr[i] = CYBLE_NULL_CHARCTER;
ARM GAS  C:\Users\Sarah\AppData\Local\Temp\cc9TMdi9.s 			page 40


 912              		.loc 1 1280 0
 913 0028 E318     		add	r3, r4, r3
 914              	.LVL73:
 915 002a 0022     		mov	r2, #0
 916 002c 1A70     		strb	r2, [r3]
1255:Generated_Source\PSoC4/BLE.c ****         uint8 i;
 917              		.loc 1 1255 0
 918 002e 0020     		mov	r0, #0
 919              	.LVL74:
 920 0030 02E0     		b	.L60
 921              	.LVL75:
 922              	.L64:
1281:Generated_Source\PSoC4/BLE.c ****             }
1282:Generated_Source\PSoC4/BLE.c ****             
1283:Generated_Source\PSoC4/BLE.c ****             /* Set new actual length */
1284:Generated_Source\PSoC4/BLE.c ****             
1285:Generated_Source\PSoC4/BLE.c ****             /* Update device name in advertising and scan response structure */
1286:Generated_Source\PSoC4/BLE.c ****             #if(CYBLE_GAP_ROLE_PERIPHERAL)
1287:Generated_Source\PSoC4/BLE.c ****                 CyBle_ChangeAdLocalName(name, 0u);
1288:Generated_Source\PSoC4/BLE.c ****                 CyBle_ChangeAdLocalName(name, 1u);
1289:Generated_Source\PSoC4/BLE.c ****             #endif /* (CYBLE_GAP_ROLE_PERIPHERAL) */
1290:Generated_Source\PSoC4/BLE.c ****         }
1291:Generated_Source\PSoC4/BLE.c ****         else
1292:Generated_Source\PSoC4/BLE.c ****         {
1293:Generated_Source\PSoC4/BLE.c ****             apiResult = CYBLE_ERROR_INVALID_PARAMETER;
 923              		.loc 1 1293 0
 924 0032 0120     		mov	r0, #1
 925              	.LVL76:
 926 0034 00E0     		b	.L60
 927              	.LVL77:
 928              	.L65:
1255:Generated_Source\PSoC4/BLE.c ****         uint8 i;
 929              		.loc 1 1255 0
 930 0036 0020     		mov	r0, #0
 931              	.LVL78:
 932              	.L60:
1294:Generated_Source\PSoC4/BLE.c ****         }
1295:Generated_Source\PSoC4/BLE.c ****         
1296:Generated_Source\PSoC4/BLE.c ****         return(apiResult);
1297:Generated_Source\PSoC4/BLE.c ****     }
 933              		.loc 1 1297 0
 934              		@ sp needed
 935 0038 10BD     		pop	{r4, pc}
 936              	.L67:
 937 003a C046     		.align	2
 938              	.L66:
 939 003c 00000000 		.word	cyBle_gattDB
 940              		.cfi_endproc
 941              	.LFE12:
 942              		.size	CyBle_GapSetLocalName, .-CyBle_GapSetLocalName
 943              		.section	.text.CyBle_GapGetLocalName,"ax",%progbits
 944              		.align	2
 945              		.global	CyBle_GapGetLocalName
 946              		.code	16
 947              		.thumb_func
 948              		.type	CyBle_GapGetLocalName, %function
 949              	CyBle_GapGetLocalName:
ARM GAS  C:\Users\Sarah\AppData\Local\Temp\cc9TMdi9.s 			page 41


 950              	.LFB13:
1298:Generated_Source\PSoC4/BLE.c **** 
1299:Generated_Source\PSoC4/BLE.c **** 
1300:Generated_Source\PSoC4/BLE.c ****     /******************************************************************************
1301:Generated_Source\PSoC4/BLE.c ****     * Function Name: CyBle_GapGetLocalName
1302:Generated_Source\PSoC4/BLE.c ****     ***************************************************************************//**
1303:Generated_Source\PSoC4/BLE.c ****     *  
1304:Generated_Source\PSoC4/BLE.c ****     *  This API is used to read the local device name - a Characteristic of the 
1305:Generated_Source\PSoC4/BLE.c ****     *  GAP Service.
1306:Generated_Source\PSoC4/BLE.c ****     * 
1307:Generated_Source\PSoC4/BLE.c ****     * \param name: The local device name string. Used to read the local name to the
1308:Generated_Source\PSoC4/BLE.c ****     *             given string array. It represents a UTF-8 encoded User Friendly 
1309:Generated_Source\PSoC4/BLE.c ****     *             Descriptive Name for the device. The length of the local device
1310:Generated_Source\PSoC4/BLE.c ****     *             string is entered into the component customizer and it can be set
1311:Generated_Source\PSoC4/BLE.c ****     *             to a value from 0 to 248 bytes. If the name contained in the
1312:Generated_Source\PSoC4/BLE.c ****     *             parameter is shorter than the length from the customizer, the end
1313:Generated_Source\PSoC4/BLE.c ****     *             of the name is indicated by a NULL octet (0x00).
1314:Generated_Source\PSoC4/BLE.c ****     * 
1315:Generated_Source\PSoC4/BLE.c ****     * \return
1316:Generated_Source\PSoC4/BLE.c ****     *  CYBLE_API_RESULT_T : Return value indicates if the function succeeded or 
1317:Generated_Source\PSoC4/BLE.c ****     *  failed. Following are the possible error codes.
1318:Generated_Source\PSoC4/BLE.c ****     *
1319:Generated_Source\PSoC4/BLE.c ****     *   Errors codes                       | Description
1320:Generated_Source\PSoC4/BLE.c ****     *   ------------                       | -----------
1321:Generated_Source\PSoC4/BLE.c ****     *   CYBLE_ERROR_OK                     | Function completed successfully.
1322:Generated_Source\PSoC4/BLE.c ****     *   CYBLE_ERROR_INVALID_PARAMETER      | On specifying NULL as input parameter
1323:Generated_Source\PSoC4/BLE.c ****     *
1324:Generated_Source\PSoC4/BLE.c ****     *******************************************************************************/
1325:Generated_Source\PSoC4/BLE.c ****     CYBLE_API_RESULT_T CyBle_GapGetLocalName(char8 name[])
1326:Generated_Source\PSoC4/BLE.c ****     {
 951              		.loc 1 1326 0
 952              		.cfi_startproc
 953              	.LVL79:
 954 0000 10B5     		push	{r4, lr}
 955              		.cfi_def_cfa_offset 8
 956              		.cfi_offset 4, -8
 957              		.cfi_offset 14, -4
 958              	.LVL80:
1327:Generated_Source\PSoC4/BLE.c ****         CYBLE_API_RESULT_T apiResult = CYBLE_ERROR_OK;
1328:Generated_Source\PSoC4/BLE.c ****         uint8 charLen;
1329:Generated_Source\PSoC4/BLE.c ****         uint8 i;
1330:Generated_Source\PSoC4/BLE.c ****         char8 *ptr;
1331:Generated_Source\PSoC4/BLE.c **** 
1332:Generated_Source\PSoC4/BLE.c ****         if(NULL != name)
 959              		.loc 1 1332 0
 960 0002 0028     		cmp	r0, #0
 961 0004 12D0     		beq	.L73
1333:Generated_Source\PSoC4/BLE.c ****         {
1334:Generated_Source\PSoC4/BLE.c ****             /* Get the pointer to the Device Name characteristic  */
1335:Generated_Source\PSoC4/BLE.c ****             ptr = (char8 *) CYBLE_GATT_DB_ATTR_GET_ATTR_GEN_PTR(CYBLE_GAP_DEVICE_NAME_INDEX + 1u);
 962              		.loc 1 1335 0
 963 0006 0A4B     		ldr	r3, .L74
 964 0008 9B6B     		ldr	r3, [r3, #56]
 965 000a 5C68     		ldr	r4, [r3, #4]
 966              	.LVL81:
1336:Generated_Source\PSoC4/BLE.c **** 
1337:Generated_Source\PSoC4/BLE.c ****             /* First need to get the length of the characteristic data in the GATT
ARM GAS  C:\Users\Sarah\AppData\Local\Temp\cc9TMdi9.s 			page 42


1338:Generated_Source\PSoC4/BLE.c ****                 database to make sure there is enough place for the data. The length
1339:Generated_Source\PSoC4/BLE.c ****                 can't be longer than 248, so only the LSB of 16 bit of length is to
1340:Generated_Source\PSoC4/BLE.c ****                 be used. */
1341:Generated_Source\PSoC4/BLE.c ****             charLen = (uint8)CYBLE_GATT_DB_ATTR_GET_ATTR_GEN_LEN(CYBLE_GAP_DEVICE_NAME_INDEX + 1u);
 967              		.loc 1 1341 0
 968 000c 1978     		ldrb	r1, [r3]
 969              	.LVL82:
1342:Generated_Source\PSoC4/BLE.c **** 
1343:Generated_Source\PSoC4/BLE.c ****             /* Copy name from characteristic */
1344:Generated_Source\PSoC4/BLE.c ****             for(i = 0u; ((i < charLen) && (CYBLE_NULL_CHARCTER != ptr[i])); i++)
 970              		.loc 1 1344 0
 971 000e 0023     		mov	r3, #0
 972 0010 02E0     		b	.L70
 973              	.LVL83:
 974              	.L72:
1345:Generated_Source\PSoC4/BLE.c ****             {
1346:Generated_Source\PSoC4/BLE.c ****                 name[i] = ptr[i];
 975              		.loc 1 1346 0 discriminator 4
 976 0012 C254     		strb	r2, [r0, r3]
1344:Generated_Source\PSoC4/BLE.c ****             {
 977              		.loc 1 1344 0 discriminator 4
 978 0014 0133     		add	r3, r3, #1
 979              	.LVL84:
 980 0016 DBB2     		uxtb	r3, r3
 981              	.LVL85:
 982              	.L70:
1344:Generated_Source\PSoC4/BLE.c ****             {
 983              		.loc 1 1344 0 is_stmt 0 discriminator 1
 984 0018 8B42     		cmp	r3, r1
 985 001a 02D2     		bcs	.L71
1344:Generated_Source\PSoC4/BLE.c ****             {
 986              		.loc 1 1344 0 discriminator 3
 987 001c E25C     		ldrb	r2, [r4, r3]
 988 001e 002A     		cmp	r2, #0
 989 0020 F7D1     		bne	.L72
 990              	.L71:
1347:Generated_Source\PSoC4/BLE.c ****             }
1348:Generated_Source\PSoC4/BLE.c **** 
1349:Generated_Source\PSoC4/BLE.c ****             /* Terminate string */
1350:Generated_Source\PSoC4/BLE.c ****             name[i] = CYBLE_NULL_CHARCTER;
 991              		.loc 1 1350 0 is_stmt 1
 992 0022 C318     		add	r3, r0, r3
 993              	.LVL86:
 994 0024 0022     		mov	r2, #0
 995 0026 1A70     		strb	r2, [r3]
1327:Generated_Source\PSoC4/BLE.c ****         uint8 charLen;
 996              		.loc 1 1327 0
 997 0028 0020     		mov	r0, #0
 998              	.LVL87:
 999 002a 00E0     		b	.L69
 1000              	.LVL88:
 1001              	.L73:
1351:Generated_Source\PSoC4/BLE.c ****         }
1352:Generated_Source\PSoC4/BLE.c ****         else
1353:Generated_Source\PSoC4/BLE.c ****         {
1354:Generated_Source\PSoC4/BLE.c ****             apiResult = CYBLE_ERROR_INVALID_PARAMETER;
 1002              		.loc 1 1354 0
ARM GAS  C:\Users\Sarah\AppData\Local\Temp\cc9TMdi9.s 			page 43


 1003 002c 0120     		mov	r0, #1
 1004              	.LVL89:
 1005              	.L69:
1355:Generated_Source\PSoC4/BLE.c ****         }
1356:Generated_Source\PSoC4/BLE.c ****         
1357:Generated_Source\PSoC4/BLE.c ****         return(apiResult);
1358:Generated_Source\PSoC4/BLE.c ****     }
 1006              		.loc 1 1358 0
 1007              		@ sp needed
 1008 002e 10BD     		pop	{r4, pc}
 1009              	.L75:
 1010              		.align	2
 1011              	.L74:
 1012 0030 00000000 		.word	cyBle_gattDB
 1013              		.cfi_endproc
 1014              	.LFE13:
 1015              		.size	CyBle_GapGetLocalName, .-CyBle_GapGetLocalName
 1016              		.section	.text.CyBle_Get16ByPtr,"ax",%progbits
 1017              		.align	2
 1018              		.global	CyBle_Get16ByPtr
 1019              		.code	16
 1020              		.thumb_func
 1021              		.type	CyBle_Get16ByPtr, %function
 1022              	CyBle_Get16ByPtr:
 1023              	.LFB14:
1359:Generated_Source\PSoC4/BLE.c **** 
1360:Generated_Source\PSoC4/BLE.c **** #endif /* (CYBLE_GATT_ROLE_SERVER) */
1361:Generated_Source\PSoC4/BLE.c **** 
1362:Generated_Source\PSoC4/BLE.c **** 
1363:Generated_Source\PSoC4/BLE.c **** /******************************************************************************
1364:Generated_Source\PSoC4/BLE.c **** * Function Name: CyBle_Get16ByPtr
1365:Generated_Source\PSoC4/BLE.c **** ***************************************************************************//**
1366:Generated_Source\PSoC4/BLE.c **** * 
1367:Generated_Source\PSoC4/BLE.c **** *  Returns the two-bytes value by using a pointer to the LSB.
1368:Generated_Source\PSoC4/BLE.c **** * 
1369:Generated_Source\PSoC4/BLE.c **** *  \param ptr: Pointer to the LSB of two-bytes data (little endian).
1370:Generated_Source\PSoC4/BLE.c **** * 
1371:Generated_Source\PSoC4/BLE.c **** *  \return
1372:Generated_Source\PSoC4/BLE.c **** *  uint16: Two-bytes data.
1373:Generated_Source\PSoC4/BLE.c **** * 
1374:Generated_Source\PSoC4/BLE.c **** ******************************************************************************/
1375:Generated_Source\PSoC4/BLE.c **** uint16 CyBle_Get16ByPtr(const uint8 ptr[])
1376:Generated_Source\PSoC4/BLE.c **** {
 1024              		.loc 1 1376 0
 1025              		.cfi_startproc
 1026              	.LVL90:
1377:Generated_Source\PSoC4/BLE.c ****     return ((uint16) ptr[0u] | ((uint16) (((uint16) ptr[1u]) << 8u)));
 1027              		.loc 1 1377 0
 1028 0000 0378     		ldrb	r3, [r0]
 1029 0002 4078     		ldrb	r0, [r0, #1]
 1030              	.LVL91:
 1031 0004 0002     		lsl	r0, r0, #8
 1032 0006 1843     		orr	r0, r3
1378:Generated_Source\PSoC4/BLE.c **** }
 1033              		.loc 1 1378 0
 1034              		@ sp needed
 1035 0008 7047     		bx	lr
ARM GAS  C:\Users\Sarah\AppData\Local\Temp\cc9TMdi9.s 			page 44


 1036              		.cfi_endproc
 1037              	.LFE14:
 1038              		.size	CyBle_Get16ByPtr, .-CyBle_Get16ByPtr
 1039 000a C046     		.section	.text.CyBle_Set16ByPtr,"ax",%progbits
 1040              		.align	2
 1041              		.global	CyBle_Set16ByPtr
 1042              		.code	16
 1043              		.thumb_func
 1044              		.type	CyBle_Set16ByPtr, %function
 1045              	CyBle_Set16ByPtr:
 1046              	.LFB15:
1379:Generated_Source\PSoC4/BLE.c **** 
1380:Generated_Source\PSoC4/BLE.c **** 
1381:Generated_Source\PSoC4/BLE.c **** /******************************************************************************
1382:Generated_Source\PSoC4/BLE.c **** * Function Name: CyBle_Set16ByPtr
1383:Generated_Source\PSoC4/BLE.c **** ***************************************************************************//**
1384:Generated_Source\PSoC4/BLE.c **** * 
1385:Generated_Source\PSoC4/BLE.c **** *  Sets the two-bytes value by using a pointer to the LSB.
1386:Generated_Source\PSoC4/BLE.c **** * 
1387:Generated_Source\PSoC4/BLE.c **** *  \param ptr:    Pointer to the LSB of two-bytes data (little endian).
1388:Generated_Source\PSoC4/BLE.c **** *  \param value:  Two-bytes data to be written.
1389:Generated_Source\PSoC4/BLE.c **** * 
1390:Generated_Source\PSoC4/BLE.c **** *  \return
1391:Generated_Source\PSoC4/BLE.c **** *  None
1392:Generated_Source\PSoC4/BLE.c **** * 
1393:Generated_Source\PSoC4/BLE.c **** ******************************************************************************/
1394:Generated_Source\PSoC4/BLE.c **** void CyBle_Set16ByPtr(uint8 ptr[], uint16 value)
1395:Generated_Source\PSoC4/BLE.c **** {
 1047              		.loc 1 1395 0
 1048              		.cfi_startproc
 1049              	.LVL92:
1396:Generated_Source\PSoC4/BLE.c ****     ptr[0u] = (uint8) value;
 1050              		.loc 1 1396 0
 1051 0000 0170     		strb	r1, [r0]
1397:Generated_Source\PSoC4/BLE.c ****     ptr[1u] = (uint8) (value >> 8u);
 1052              		.loc 1 1397 0
 1053 0002 090A     		lsr	r1, r1, #8
 1054              	.LVL93:
 1055 0004 4170     		strb	r1, [r0, #1]
1398:Generated_Source\PSoC4/BLE.c **** }
 1056              		.loc 1 1398 0
 1057              		@ sp needed
 1058 0006 7047     		bx	lr
 1059              		.cfi_endproc
 1060              	.LFE15:
 1061              		.size	CyBle_Set16ByPtr, .-CyBle_Set16ByPtr
 1062              		.global	cyBle_sflashDeviceAddress
 1063              		.global	cyBle_deviceAddress
 1064              		.comm	CyBle_ApplCallback,4,4
 1065              		.comm	cyBle_pendingFlashWrite,1,1
 1066              		.comm	cyBle_peerBonding,1,1
 1067              		.global	cyBle_discoveryInfo
 1068              		.comm	cyBle_connectingTimeout,2,2
 1069              		.comm	cyBle_connectionParameters,26,4
 1070              		.global	cyBle_stackMemoryRam
 1071              		.global	cyBle_initVar
 1072              		.section	.rodata
ARM GAS  C:\Users\Sarah\AppData\Local\Temp\cc9TMdi9.s 			page 45


 1073              		.align	2
 1074              		.set	.LANCHOR1,. + 0
 1075              	.LC0:
 1076 0000 2400     		.short	36
 1077 0002 03       		.byte	3
 1078 0003 00       		.space	1
 1079 0004 3000     		.short	48
 1080 0006 01       		.byte	1
 1081 0007 00       		.space	1
 1082 0008 2800     		.short	40
 1083 000a 02       		.byte	2
 1084 000b 00       		.space	1
 1085 000c 2400     		.short	36
 1086 000e 01       		.byte	1
 1087 000f 00       		.space	1
 1088 0010 2400     		.short	36
 1089 0012 01       		.byte	1
 1090 0013 00       		.space	1
 1091              		.data
 1092              		.align	2
 1093              		.set	.LANCHOR0,. + 0
 1094              		.type	cyBle_discoveryInfo, %object
 1095              		.size	cyBle_discoveryInfo, 12
 1096              	cyBle_discoveryInfo:
 1097 0000 02       		.byte	2
 1098 0001 01       		.byte	1
 1099 0002 3000     		.short	48
 1100 0004 3000     		.short	48
 1101 0006 00       		.byte	0
 1102 0007 00       		.byte	0
 1103 0008 1E00     		.short	30
 1104 000a 00       		.byte	0
 1105 000b 00       		.space	1
 1106              		.type	cyBle_sflashDeviceAddress, %object
 1107              		.size	cyBle_sflashDeviceAddress, 4
 1108              	cyBle_sflashDeviceAddress:
 1109 000c 00F4FF0F 		.word	268432384
 1110              		.type	cyBle_deviceAddress, %object
 1111              		.size	cyBle_deviceAddress, 7
 1112              	cyBle_deviceAddress:
 1113 0010 00       		.byte	0
 1114 0011 00       		.byte	0
 1115 0012 00       		.byte	0
 1116 0013 50       		.byte	80
 1117 0014 A0       		.byte	-96
 1118 0015 00       		.byte	0
 1119 0016 00       		.byte	0
 1120 0017 00       		.section	.noinit,"aw",%progbits
 1121              		.align	3
 1122              		.set	.LANCHOR3,. + 0
 1123              		.type	cyBle_stackMemoryRam, %object
 1124              		.size	cyBle_stackMemoryRam, 3456
 1125              	cyBle_stackMemoryRam:
 1126 0000 00000000 		.space	3456
 1126      00000000 
 1126      00000000 
 1126      00000000 
ARM GAS  C:\Users\Sarah\AppData\Local\Temp\cc9TMdi9.s 			page 46


 1126      00000000 
 1127              		.bss
 1128              		.set	.LANCHOR2,. + 0
 1129              		.type	cyBle_initVar, %object
 1130              		.size	cyBle_initVar, 1
 1131              	cyBle_initVar:
 1132 0000 00       		.space	1
 1133              		.type	cyBle_pendingFlashClearCccdHandle, %object
 1134              		.size	cyBle_pendingFlashClearCccdHandle, 1
 1135              	cyBle_pendingFlashClearCccdHandle:
 1136 0001 00       		.space	1
 1137              		.text
 1138              	.Letext0:
 1139              		.file 2 "Generated_Source\\PSoC4\\cytypes.h"
 1140              		.file 3 "c:\\program files (x86)\\cypress\\psoc creator\\4.0\\psoc creator\\import\\gnu\\arm\\4.9.
 1141              		.file 4 "Generated_Source\\PSoC4\\BLE_Stack.h"
 1142              		.file 5 "Generated_Source\\PSoC4\\BLE_StackGap.h"
 1143              		.file 6 "Generated_Source\\PSoC4\\BLE_StackGatt.h"
 1144              		.file 7 "Generated_Source\\PSoC4\\BLE_StackGattDb.h"
 1145              		.file 8 "Generated_Source\\PSoC4\\BLE.h"
 1146              		.file 9 "Generated_Source\\PSoC4\\BLE_gatt.h"
 1147              		.file 10 "Generated_Source\\PSoC4\\BLE_ans.h"
 1148              		.file 11 "Generated_Source\\PSoC4\\BLE_eventHandler.h"
 1149              		.file 12 "Generated_Source\\PSoC4\\BLE_StackHostMain.h"
 1150              		.file 13 "c:\\program files (x86)\\cypress\\psoc creator\\4.0\\psoc creator\\import\\gnu\\arm\\4.9