ARM GAS  C:\Users\Sarah\AppData\Local\Temp\ccBcpum9.s 			page 1


   1              		.cpu cortex-m0
   2              		.fpu softvfp
   3              		.eabi_attribute 20, 1
   4              		.eabi_attribute 21, 1
   5              		.eabi_attribute 23, 3
   6              		.eabi_attribute 24, 1
   7              		.eabi_attribute 25, 1
   8              		.eabi_attribute 26, 1
   9              		.eabi_attribute 30, 1
  10              		.eabi_attribute 34, 0
  11              		.eabi_attribute 18, 4
  12              		.code	16
  13              		.file	"LCD_Seg_1.c"
  14              		.text
  15              	.Ltext0:
  16              		.cfi_sections	.debug_frame
  17              		.section	.text.LCD_Seg_1_WriteFrameBuffer,"ax",%progbits
  18              		.align	2
  19              		.code	16
  20              		.thumb_func
  21              		.type	LCD_Seg_1_WriteFrameBuffer, %function
  22              	LCD_Seg_1_WriteFrameBuffer:
  23              	.LFB2:
  24              		.file 1 "Generated_Source\\PSoC4\\LCD_Seg_1.c"
   1:Generated_Source\PSoC4/LCD_Seg_1.c **** /*******************************************************************************
   2:Generated_Source\PSoC4/LCD_Seg_1.c **** * File Name: LCD_Seg_1.c
   3:Generated_Source\PSoC4/LCD_Seg_1.c **** * Version 1.30
   4:Generated_Source\PSoC4/LCD_Seg_1.c **** *
   5:Generated_Source\PSoC4/LCD_Seg_1.c **** * Description:
   6:Generated_Source\PSoC4/LCD_Seg_1.c **** *  This file provides the source code to the API for the Segment LCD component.
   7:Generated_Source\PSoC4/LCD_Seg_1.c **** *
   8:Generated_Source\PSoC4/LCD_Seg_1.c **** * Note:
   9:Generated_Source\PSoC4/LCD_Seg_1.c **** *  None
  10:Generated_Source\PSoC4/LCD_Seg_1.c **** *
  11:Generated_Source\PSoC4/LCD_Seg_1.c **** ********************************************************************************
  12:Generated_Source\PSoC4/LCD_Seg_1.c **** * Copyright 2013-2015, Cypress Semiconductor Corporation.  All rights reserved.
  13:Generated_Source\PSoC4/LCD_Seg_1.c **** * You may use this file only in accordance with the license, terms, conditions,
  14:Generated_Source\PSoC4/LCD_Seg_1.c **** * disclaimers, and limitations in the end user license agreement accompanying
  15:Generated_Source\PSoC4/LCD_Seg_1.c **** * the software package with which this file was provided.
  16:Generated_Source\PSoC4/LCD_Seg_1.c **** *******************************************************************************/
  17:Generated_Source\PSoC4/LCD_Seg_1.c **** 
  18:Generated_Source\PSoC4/LCD_Seg_1.c **** #include "LCD_Seg_1.h"
  19:Generated_Source\PSoC4/LCD_Seg_1.c **** 
  20:Generated_Source\PSoC4/LCD_Seg_1.c **** static void LCD_Seg_1_WriteFrameBuffer(reg32 regAddr[], uint32 bitNumber, uint32 state);
  21:Generated_Source\PSoC4/LCD_Seg_1.c **** static uint32 LCD_Seg_1_ReadFrameBuffer(const reg32 regAddr[], uint32 bitNumber);
  22:Generated_Source\PSoC4/LCD_Seg_1.c **** 
  23:Generated_Source\PSoC4/LCD_Seg_1.c **** /* This section contains look-up tables for different kinds of displays. */
  24:Generated_Source\PSoC4/LCD_Seg_1.c **** #ifdef LCD_Seg_1_7SEG
  25:Generated_Source\PSoC4/LCD_Seg_1.c ****     static const uint8 LCD_Seg_1_7SegDigits[] = {
  26:Generated_Source\PSoC4/LCD_Seg_1.c ****       /*  '0'    '1'    '2'    '3'    '4'    '5'    '6'    '7' */
  27:Generated_Source\PSoC4/LCD_Seg_1.c ****         0x3fu, 0x06u, 0x5bu, 0x4fu, 0x66u, 0x6du, 0x7du, 0x07u,
  28:Generated_Source\PSoC4/LCD_Seg_1.c ****       /*  '8'    '9'    'A'    'B'    'C'    'D'    'E'    'F'   null */
  29:Generated_Source\PSoC4/LCD_Seg_1.c ****         0x7fu, 0x6fu, 0x77u, 0x7cu, 0x39u, 0x5eu, 0x79u, 0x71u, 0x00u};
  30:Generated_Source\PSoC4/LCD_Seg_1.c **** #endif /* LCD_Seg_1_7SEG */
  31:Generated_Source\PSoC4/LCD_Seg_1.c **** 
  32:Generated_Source\PSoC4/LCD_Seg_1.c **** #ifdef LCD_Seg_1_14SEG
  33:Generated_Source\PSoC4/LCD_Seg_1.c ****     static const uint16 LCD_Seg_1_14SegChars[] = {
ARM GAS  C:\Users\Sarah\AppData\Local\Temp\ccBcpum9.s 			page 2


  34:Generated_Source\PSoC4/LCD_Seg_1.c ****     /*------------------------------------------------------------*/
  35:Generated_Source\PSoC4/LCD_Seg_1.c ****     /*                           Blank                            */
  36:Generated_Source\PSoC4/LCD_Seg_1.c ****     /*------------------------------------------------------------*/
  37:Generated_Source\PSoC4/LCD_Seg_1.c ****     0x0000u,0x0000u,0x0000u,0x0000u,0x0000u,0x0000u,0x0000u,0x0000u,
  38:Generated_Source\PSoC4/LCD_Seg_1.c ****     0x0000u,0x0000u,0x0000u,0x0000u,0x0000u,0x0000u,0x0000u,0x0000u,
  39:Generated_Source\PSoC4/LCD_Seg_1.c ****     0x0000u,0x0000u,0x0000u,0x0000u,0x0000u,0x0000u,0x0000u,0x0000u,
  40:Generated_Source\PSoC4/LCD_Seg_1.c ****     0x0000u,0x0000u,0x0000u,0x0000u,0x0000u,0x0000u,0x0000u,0x0000u,
  41:Generated_Source\PSoC4/LCD_Seg_1.c ****     /*------------------------------------------------------------*/
  42:Generated_Source\PSoC4/LCD_Seg_1.c ****     /*         !       "       #       $       %       &       '  */
  43:Generated_Source\PSoC4/LCD_Seg_1.c ****     /*------------------------------------------------------------*/
  44:Generated_Source\PSoC4/LCD_Seg_1.c ****     0x0000u,0x0006u,0x0120u,0x3fffu,0x156du,0x2ee4u,0x2a8du,0x0200u,
  45:Generated_Source\PSoC4/LCD_Seg_1.c ****     /*------------------------------------------------------------*/
  46:Generated_Source\PSoC4/LCD_Seg_1.c ****     /* (       )       *       +       ,       -       .       /  */
  47:Generated_Source\PSoC4/LCD_Seg_1.c ****     /*------------------------------------------------------------*/
  48:Generated_Source\PSoC4/LCD_Seg_1.c ****     0x0a00u,0x2080u,0x3fc0u,0x1540u,0x2000u,0x0440u,0x1058u,0x2200u,
  49:Generated_Source\PSoC4/LCD_Seg_1.c ****     /*------------------------------------------------------------*/
  50:Generated_Source\PSoC4/LCD_Seg_1.c ****     /* 0       1       2       3       4       5       6       7  */
  51:Generated_Source\PSoC4/LCD_Seg_1.c ****     /*------------------------------------------------------------*/
  52:Generated_Source\PSoC4/LCD_Seg_1.c ****     0x223fu,0x0206u,0x045bu,0x040fu,0x0466u,0x0869u,0x047du,0x1201u,
  53:Generated_Source\PSoC4/LCD_Seg_1.c ****     /*------------------------------------------------------------*/
  54:Generated_Source\PSoC4/LCD_Seg_1.c ****     /* 8       9       :       ;       <       =       >       ?  */
  55:Generated_Source\PSoC4/LCD_Seg_1.c ****     /*------------------------------------------------------------*/
  56:Generated_Source\PSoC4/LCD_Seg_1.c ****     0x047fu,0x046fu,0x1100u,0x2100u,0x0a00u,0x0448u,0x2080u,0x1423u,
  57:Generated_Source\PSoC4/LCD_Seg_1.c ****     /*------------------------------------------------------------*/
  58:Generated_Source\PSoC4/LCD_Seg_1.c ****     /* @       A       B       C       D       E       F       G  */
  59:Generated_Source\PSoC4/LCD_Seg_1.c ****     /*------------------------------------------------------------*/
  60:Generated_Source\PSoC4/LCD_Seg_1.c ****     0x053bu,0x0477u,0x150fu,0x0039u,0x110Fu,0x0079u,0x0071u,0x043du,
  61:Generated_Source\PSoC4/LCD_Seg_1.c ****     /*------------------------------------------------------------*/
  62:Generated_Source\PSoC4/LCD_Seg_1.c ****     /* H       I       J       K       L       M       N       O  */
  63:Generated_Source\PSoC4/LCD_Seg_1.c ****     /*------------------------------------------------------------*/
  64:Generated_Source\PSoC4/LCD_Seg_1.c ****     0x0476u,0x1100u,0x001eu,0x0a70u,0x0038u,0x02b6u,0x08b6u,0x003fu,
  65:Generated_Source\PSoC4/LCD_Seg_1.c ****     /*------------------------------------------------------------*/
  66:Generated_Source\PSoC4/LCD_Seg_1.c ****     /* P       Q       R       S       T       U       V       W  */
  67:Generated_Source\PSoC4/LCD_Seg_1.c ****     /*------------------------------------------------------------*/
  68:Generated_Source\PSoC4/LCD_Seg_1.c ****     0x0473u,0x083fu,0x0C73u,0x046du,0x1101u,0x003eu,0x2230u,0x2836u,
  69:Generated_Source\PSoC4/LCD_Seg_1.c ****     /*------------------------------------------------------------*/
  70:Generated_Source\PSoC4/LCD_Seg_1.c ****     /* X       Y       Z       [       \       ]       ^       _  */
  71:Generated_Source\PSoC4/LCD_Seg_1.c ****     /*------------------------------------------------------------*/
  72:Generated_Source\PSoC4/LCD_Seg_1.c ****     0x2a80u,0x1462u,0x2209u,0x0039u,0x0880u,0x000fu,0x0003u,0x0008u,
  73:Generated_Source\PSoC4/LCD_Seg_1.c ****     /*------------------------------------------------------------*/
  74:Generated_Source\PSoC4/LCD_Seg_1.c ****     /* @       a       b       c       d       e       f       g  */
  75:Generated_Source\PSoC4/LCD_Seg_1.c ****     /*------------------------------------------------------------*/
  76:Generated_Source\PSoC4/LCD_Seg_1.c ****     0x053bu,0x0477u,0x150fu,0x0039u,0x110Fu,0x0079u,0x0071u,0x043du,
  77:Generated_Source\PSoC4/LCD_Seg_1.c ****     /*------------------------------------------------------------*/
  78:Generated_Source\PSoC4/LCD_Seg_1.c ****     /* h       i       j       k       l       m       n       o  */
  79:Generated_Source\PSoC4/LCD_Seg_1.c ****     /*------------------------------------------------------------*/
  80:Generated_Source\PSoC4/LCD_Seg_1.c ****     0x0476u,0x1100u,0x001eu,0x0a70u,0x0038u,0x02b6u,0x08b6u,0x003fu,
  81:Generated_Source\PSoC4/LCD_Seg_1.c ****     /*------------------------------------------------------------*/
  82:Generated_Source\PSoC4/LCD_Seg_1.c ****     /* p       q       r       s       t       u       v       w  */
  83:Generated_Source\PSoC4/LCD_Seg_1.c ****     /*------------------------------------------------------------*/
  84:Generated_Source\PSoC4/LCD_Seg_1.c ****     0x0473u,0x083fu,0x0C73u,0x046du,0x1101u,0x003eu,0x2230u,0x2836u,
  85:Generated_Source\PSoC4/LCD_Seg_1.c ****     /*------------------------------------------------------------*/
  86:Generated_Source\PSoC4/LCD_Seg_1.c ****     /* x       y       z       {       |       }        ~      O  */
  87:Generated_Source\PSoC4/LCD_Seg_1.c ****     /*------------------------------------------------------------*/
  88:Generated_Source\PSoC4/LCD_Seg_1.c ****     0x2a80u,0x1280u,0x2209u,0x0e00u,0x1100u,0x20C0u,0x0452u,0x003fu};
  89:Generated_Source\PSoC4/LCD_Seg_1.c **** #endif /* LCD_Seg_1_14SEG */
  90:Generated_Source\PSoC4/LCD_Seg_1.c **** 
ARM GAS  C:\Users\Sarah\AppData\Local\Temp\ccBcpum9.s 			page 3


  91:Generated_Source\PSoC4/LCD_Seg_1.c **** #ifdef LCD_Seg_1_16SEG
  92:Generated_Source\PSoC4/LCD_Seg_1.c ****     static const uint16 LCD_Seg_1_16SegChars[] = {
  93:Generated_Source\PSoC4/LCD_Seg_1.c ****     /*------------------------------------------------------------*/
  94:Generated_Source\PSoC4/LCD_Seg_1.c ****     /*                           Blank                            */
  95:Generated_Source\PSoC4/LCD_Seg_1.c ****     /*------------------------------------------------------------*/
  96:Generated_Source\PSoC4/LCD_Seg_1.c ****     0x0000u,0x0000u,0x0000u,0x0000u,0x0000u,0x0000u,0x0000u,0x0000u,
  97:Generated_Source\PSoC4/LCD_Seg_1.c ****     0x0000u,0x0000u,0x0000u,0x0000u,0x0000u,0x0000u,0x0000u,0x0000u,
  98:Generated_Source\PSoC4/LCD_Seg_1.c ****     0x0000u,0x0000u,0x0000u,0x0000u,0x0000u,0x0000u,0x0000u,0x0000u,
  99:Generated_Source\PSoC4/LCD_Seg_1.c ****     0x0000u,0x0000u,0x0000u,0x0000u,0x0000u,0x0000u,0x0000u,0x0000u,
 100:Generated_Source\PSoC4/LCD_Seg_1.c ****     /*------------------------------------------------------------*/
 101:Generated_Source\PSoC4/LCD_Seg_1.c ****     /*         !       "       #       $       %       &       '  */
 102:Generated_Source\PSoC4/LCD_Seg_1.c ****     /*------------------------------------------------------------*/
 103:Generated_Source\PSoC4/LCD_Seg_1.c ****     0x0000u,0x000cu,0x0480u,0xffffu,0x55bbu,0xdd99u,0xaa3bu,0x0800u,
 104:Generated_Source\PSoC4/LCD_Seg_1.c ****     /*------------------------------------------------------------*/
 105:Generated_Source\PSoC4/LCD_Seg_1.c ****     /* (       )       *       +       ,       -       .       /  */
 106:Generated_Source\PSoC4/LCD_Seg_1.c ****     /*------------------------------------------------------------*/
 107:Generated_Source\PSoC4/LCD_Seg_1.c ****     0x2800u,0x8200u,0xff00u,0x5500u,0x8000u,0x1100u,0x4160u,0x8800u,
 108:Generated_Source\PSoC4/LCD_Seg_1.c ****     /*------------------------------------------------------------*/
 109:Generated_Source\PSoC4/LCD_Seg_1.c ****     /* 0       1       2       3       4       5       6       7  */
 110:Generated_Source\PSoC4/LCD_Seg_1.c ****     /*------------------------------------------------------------*/
 111:Generated_Source\PSoC4/LCD_Seg_1.c ****     0x88ffu,0x000cu,0x1177u,0x103fu,0x118cu,0x21b3u,0x11fbu,0x4803u,
 112:Generated_Source\PSoC4/LCD_Seg_1.c ****     /*------------------------------------------------------------*/
 113:Generated_Source\PSoC4/LCD_Seg_1.c ****     /* 8       9       :       ;       <       =       >       ?  */
 114:Generated_Source\PSoC4/LCD_Seg_1.c ****     /*------------------------------------------------------------*/
 115:Generated_Source\PSoC4/LCD_Seg_1.c ****     0x11ffu,0x11bfu,0x4400u,0x8400u,0x2800u,0x1130u,0x8200u,0x5087u,
 116:Generated_Source\PSoC4/LCD_Seg_1.c ****     /*------------------------------------------------------------*/
 117:Generated_Source\PSoC4/LCD_Seg_1.c ****     /* @       A       B       C       D       E       F       G  */
 118:Generated_Source\PSoC4/LCD_Seg_1.c ****     /*------------------------------------------------------------*/
 119:Generated_Source\PSoC4/LCD_Seg_1.c ****     0x14f7u,0x11cfu,0x543fu,0x00f3u,0x443fu,0x01f3u,0x01c3u,0x10fbu,
 120:Generated_Source\PSoC4/LCD_Seg_1.c ****     /*------------------------------------------------------------*/
 121:Generated_Source\PSoC4/LCD_Seg_1.c ****     /* H       I       J       K       L       M       N       O  */
 122:Generated_Source\PSoC4/LCD_Seg_1.c ****     /*------------------------------------------------------------*/
 123:Generated_Source\PSoC4/LCD_Seg_1.c ****     0x11ccu,0x4400u,0x007eu,0x29c0u,0x00f0u,0x0accu,0x22ccu,0x00ffu,
 124:Generated_Source\PSoC4/LCD_Seg_1.c ****     /*------------------------------------------------------------*/
 125:Generated_Source\PSoC4/LCD_Seg_1.c ****     /* P       Q       R       S       T       U       V       W  */
 126:Generated_Source\PSoC4/LCD_Seg_1.c ****     /*------------------------------------------------------------*/
 127:Generated_Source\PSoC4/LCD_Seg_1.c ****     0x11c7u,0x20ffu,0x31c7u,0x11bbu,0x4403u,0x00fcu,0x88c0u,0xa0ccu,
 128:Generated_Source\PSoC4/LCD_Seg_1.c ****     /*------------------------------------------------------------*/
 129:Generated_Source\PSoC4/LCD_Seg_1.c ****     /* X       Y       Z       [       \       ]       ^       _  */
 130:Generated_Source\PSoC4/LCD_Seg_1.c ****     /*------------------------------------------------------------*/
 131:Generated_Source\PSoC4/LCD_Seg_1.c ****     0xaa00u,0x5184u,0x8833u,0x4412u,0x2200u,0x4421u,0x0006u,0x0030u,
 132:Generated_Source\PSoC4/LCD_Seg_1.c ****     /*------------------------------------------------------------*/
 133:Generated_Source\PSoC4/LCD_Seg_1.c ****     /* @       a       b       c       d       e       f       g  */
 134:Generated_Source\PSoC4/LCD_Seg_1.c ****     /*------------------------------------------------------------*/
 135:Generated_Source\PSoC4/LCD_Seg_1.c ****     0x14f7u,0x11cfu,0x543fu,0x00f3u,0x443fu,0x01f3u,0x01c3u,0x10fbu,
 136:Generated_Source\PSoC4/LCD_Seg_1.c ****     /*------------------------------------------------------------*/
 137:Generated_Source\PSoC4/LCD_Seg_1.c ****     /* h       i       j       k       l       m       n       o  */
 138:Generated_Source\PSoC4/LCD_Seg_1.c ****     /*------------------------------------------------------------*/
 139:Generated_Source\PSoC4/LCD_Seg_1.c ****     0x11ccu,0x4400u,0x007eu,0x29c0u,0x00f0u,0x0accu,0x22ccu,0x00ffu,
 140:Generated_Source\PSoC4/LCD_Seg_1.c ****     /*------------------------------------------------------------*/
 141:Generated_Source\PSoC4/LCD_Seg_1.c ****     /* p       q       r       s       t       u       v       w  */
 142:Generated_Source\PSoC4/LCD_Seg_1.c ****     /*------------------------------------------------------------*/
 143:Generated_Source\PSoC4/LCD_Seg_1.c ****     0x11c7u,0x20ffu,0x31c7u,0x11bbu,0x4403u,0x00fcu,0x88c0u,0xa0ccu,
 144:Generated_Source\PSoC4/LCD_Seg_1.c ****     /*------------------------------------------------------------*/
 145:Generated_Source\PSoC4/LCD_Seg_1.c ****     /* x       y       z       {       |       }        ~         */
 146:Generated_Source\PSoC4/LCD_Seg_1.c ****     /*------------------------------------------------------------*/
 147:Generated_Source\PSoC4/LCD_Seg_1.c ****     0xaa00u,0x4A00u,0x8833u,0x3800u,0x4400u,0x8300u,0x1144u,0x0000u};
ARM GAS  C:\Users\Sarah\AppData\Local\Temp\ccBcpum9.s 			page 4


 148:Generated_Source\PSoC4/LCD_Seg_1.c **** #endif /* LCD_Seg_1_16SEG */
 149:Generated_Source\PSoC4/LCD_Seg_1.c **** 
 150:Generated_Source\PSoC4/LCD_Seg_1.c **** #ifdef LCD_Seg_1_DOT_MATRIX
 151:Generated_Source\PSoC4/LCD_Seg_1.c ****     static const uint8 LCD_Seg_1_charDotMatrix[][LCD_Seg_1_DM_CHAR_WIDTH] = {
 152:Generated_Source\PSoC4/LCD_Seg_1.c ****         {0x00u, 0x00u, 0x00u, 0x00u, 0x00u}, {0x00u, 0x00u, 0x00u, 0x00u, 0x00u},
 153:Generated_Source\PSoC4/LCD_Seg_1.c ****         {0x00u, 0x00u, 0x00u, 0x00u, 0x00u}, {0x00u, 0x00u, 0x00u, 0x00u, 0x00u}, {0x00u, 0x00u, 0x
 154:Generated_Source\PSoC4/LCD_Seg_1.c ****         {0x00u, 0x00u, 0x00u, 0x00u, 0x00u}, {0x00u, 0x00u, 0x00u, 0x00u, 0x00u}, {0x00u, 0x00u, 0x
 155:Generated_Source\PSoC4/LCD_Seg_1.c ****         {0x00u, 0x00u, 0x00u, 0x00u, 0x00u}, {0x00u, 0x00u, 0x00u, 0x00u, 0x00u}, {0x00u, 0x00u, 0x
 156:Generated_Source\PSoC4/LCD_Seg_1.c ****         {0x00u, 0x00u, 0x00u, 0x00u, 0x00u}, {0x00u, 0x00u, 0x00u, 0x00u, 0x00u}, {0x00u, 0x00u, 0x
 157:Generated_Source\PSoC4/LCD_Seg_1.c ****         {0x00u, 0x00u, 0x00u, 0x00u, 0x00u}, {0x00u, 0x00u, 0x00u, 0x00u, 0x00u}, {0x3Eu, 0x1Cu, 0x
 158:Generated_Source\PSoC4/LCD_Seg_1.c ****         {0x08u, 0x08u, 0x1Cu, 0x1Cu, 0x3Eu}, {0x02u, 0x06u, 0x08u, 0x10u, 0x20u}, {0x00u, 0x4Fu, 0x
 159:Generated_Source\PSoC4/LCD_Seg_1.c ****         {0x06u, 0x0Fu, 0x7Fu, 0x01u, 0x7Fu}, {0x48u, 0x56u, 0x55u, 0x35u, 0x09u}, {0x0Cu, 0x0Cu, 0x
 160:Generated_Source\PSoC4/LCD_Seg_1.c ****         {0x10u, 0x38u, 0x54u, 0x10u, 0x1Fu}, {0x04u, 0x02u, 0x7Fu, 0x02u, 0x04u}, {0x10u, 0x20u, 0x
 161:Generated_Source\PSoC4/LCD_Seg_1.c ****         {0x7Fu, 0x3Eu, 0x1Cu, 0x08u, 0x7Fu}, {0x7Fu, 0x08u, 0x1Cu, 0x3Eu, 0x7Fu}, {0x7Fu, 0x08u, 0x
 162:Generated_Source\PSoC4/LCD_Seg_1.c ****         {0x08u, 0x1Cu, 0x2Au, 0x08u, 0x7Fu}, {0x02u, 0x0Eu, 0x3Eu, 0x0Eu, 0x02u}, {0x20u, 0x38u, 0x
 163:Generated_Source\PSoC4/LCD_Seg_1.c ****         {0x00u, 0x00u, 0x00u, 0x00u, 0x00u}, {0x00u, 0x00u, 0x4Fu, 0x00u, 0x00u}, {0x00u, 0x07u, 0x
 164:Generated_Source\PSoC4/LCD_Seg_1.c ****         {0x14u, 0x7Fu, 0x14u, 0x7Fu, 0x14u}, {0x24u, 0x2Au, 0x7Fu, 0x2Au, 0x12u}, {0x23u, 0x13u, 0x
 165:Generated_Source\PSoC4/LCD_Seg_1.c ****         {0x36u, 0x49u, 0x55u, 0x22u, 0x50u}, {0x00u, 0x05u, 0x03u, 0x00u, 0x00u}, {0x00u, 0x1Cu, 0x
 166:Generated_Source\PSoC4/LCD_Seg_1.c ****         {0x00u, 0x41u, 0x22u, 0x1Cu, 0x00u}, {0x14u, 0x08u, 0x3Eu, 0x08u, 0x14u}, {0x08u, 0x08u, 0x
 167:Generated_Source\PSoC4/LCD_Seg_1.c ****         {0x00u, 0x50u, 0x30u, 0x00u, 0x00u}, {0x08u, 0x08u, 0x08u, 0x08u, 0x08u}, {0x00u, 0x60u, 0x
 168:Generated_Source\PSoC4/LCD_Seg_1.c ****         {0x20u, 0x10u, 0x08u, 0x04u, 0x02u}, {0x3Eu, 0x51u, 0x49u, 0x45u, 0x3Eu}, {0x00u, 0x42u, 0x
 169:Generated_Source\PSoC4/LCD_Seg_1.c ****         {0x42u, 0x61u, 0x51u, 0x49u, 0x46u}, {0x21u, 0x41u, 0x45u, 0x4Bu, 0x31u}, {0x18u, 0x14u, 0x
 170:Generated_Source\PSoC4/LCD_Seg_1.c ****         {0x27u, 0x45u, 0x45u, 0x45u, 0x39u}, {0x3Cu, 0x4Au, 0x49u, 0x49u, 0x30u}, {0x01u, 0x71u, 0x
 171:Generated_Source\PSoC4/LCD_Seg_1.c ****         {0x36u, 0x49u, 0x49u, 0x49u, 0x36u}, {0x06u, 0x49u, 0x49u, 0x29u, 0x1Eu}, {0x00u, 0x36u, 0x
 172:Generated_Source\PSoC4/LCD_Seg_1.c ****         {0x00u, 0x56u, 0x36u, 0x00u, 0x00u}, {0x08u, 0x14u, 0x22u, 0x41u, 0x00u}, {0x14u, 0x14u, 0x
 173:Generated_Source\PSoC4/LCD_Seg_1.c ****         {0x00u, 0x41u, 0x22u, 0x14u, 0x08u}, {0x02u, 0x01u, 0x51u, 0x09u, 0x06u}, {0x32u, 0x49u, 0x
 174:Generated_Source\PSoC4/LCD_Seg_1.c ****         {0x7Eu, 0x11u, 0x11u, 0x11u, 0x7Eu}, {0x7Fu, 0x49u, 0x49u, 0x49u, 0x36u}, {0x3Eu, 0x41u, 0x
 175:Generated_Source\PSoC4/LCD_Seg_1.c ****         {0x7Fu, 0x41u, 0x41u, 0x22u, 0x1Cu}, {0x7Fu, 0x49u, 0x49u, 0x49u, 0x41u}, {0x7Fu, 0x09u, 0x
 176:Generated_Source\PSoC4/LCD_Seg_1.c ****         {0x3Eu, 0x41u, 0x49u, 0x49u, 0x3Au}, {0x7Fu, 0x08u, 0x08u, 0x08u, 0x7Fu}, {0x00u, 0x41u, 0x
 177:Generated_Source\PSoC4/LCD_Seg_1.c ****         {0x20u, 0x40u, 0x41u, 0x3Fu, 0x01u}, {0x7Fu, 0x08u, 0x14u, 0x22u, 0x41u}, {0x7Fu, 0x40u, 0x
 178:Generated_Source\PSoC4/LCD_Seg_1.c ****         {0x7Fu, 0x02u, 0x0Cu, 0x02u, 0x7Fu}, {0x7Fu, 0x04u, 0x08u, 0x10u, 0x7Fu}, {0x3Eu, 0x41u, 0x
 179:Generated_Source\PSoC4/LCD_Seg_1.c ****         {0x7Fu, 0x09u, 0x09u, 0x09u, 0x06u}, {0x3Eu, 0x41u, 0x51u, 0x21u, 0x5Eu}, {0x7Fu, 0x09u, 0x
 180:Generated_Source\PSoC4/LCD_Seg_1.c ****         {0x46u, 0x49u, 0x49u, 0x49u, 0x31u}, {0x01u, 0x01u, 0x7Fu, 0x01u, 0x01u}, {0x3Fu, 0x40u, 0x
 181:Generated_Source\PSoC4/LCD_Seg_1.c ****         {0x1Fu, 0x20u, 0x40u, 0x20u, 0x1Fu}, {0x3Fu, 0x40u, 0x38u, 0x40u, 0x3Fu}, {0x63u, 0x14u, 0x
 182:Generated_Source\PSoC4/LCD_Seg_1.c ****         {0x07u, 0x08u, 0x70u, 0x08u, 0x07u}, {0x61u, 0x51u, 0x49u, 0x45u, 0x43u}, {0x00u, 0x7Fu, 0x
 183:Generated_Source\PSoC4/LCD_Seg_1.c ****         {0x15u, 0x16u, 0x7Cu, 0x16u, 0x15u}, {0x00u, 0x41u, 0x41u, 0x7Fu, 0x00u}, {0x04u, 0x02u, 0x
 184:Generated_Source\PSoC4/LCD_Seg_1.c ****         {0x40u, 0x40u, 0x40u, 0x40u, 0x40u}, {0x00u, 0x01u, 0x02u, 0x04u, 0x00u}, {0x20u, 0x54u, 0x
 185:Generated_Source\PSoC4/LCD_Seg_1.c ****         {0x7Fu, 0x48u, 0x44u, 0x44u, 0x38u}, {0x38u, 0x44u, 0x44u, 0x44u, 0x40u}, {0x38u, 0x44u, 0x
 186:Generated_Source\PSoC4/LCD_Seg_1.c ****         {0x38u, 0x54u, 0x54u, 0x54u, 0x18u}, {0x08u, 0x7Eu, 0x09u, 0x01u, 0x02u}, {0x0Cu, 0x52u, 0x
 187:Generated_Source\PSoC4/LCD_Seg_1.c ****         {0x7Fu, 0x08u, 0x04u, 0x04u, 0x78u}, {0x00u, 0x44u, 0x7Du, 0x40u, 0x00u}, {0x20u, 0x40u, 0x
 188:Generated_Source\PSoC4/LCD_Seg_1.c ****         {0x7Fu, 0x10u, 0x28u, 0x44u, 0x00u}, {0x00u, 0x41u, 0x7Fu, 0x40u, 0x00u}, {0x7Cu, 0x04u, 0x
 189:Generated_Source\PSoC4/LCD_Seg_1.c ****         {0x7Cu, 0x08u, 0x04u, 0x04u, 0x78u}, {0x38u, 0x44u, 0x44u, 0x44u, 0x38u}, {0x7Cu, 0x14u, 0x
 190:Generated_Source\PSoC4/LCD_Seg_1.c ****         {0x08u, 0x14u, 0x14u, 0x18u, 0x7Cu}, {0x7Cu, 0x08u, 0x04u, 0x04u, 0x08u}, {0x48u, 0x54u, 0x
 191:Generated_Source\PSoC4/LCD_Seg_1.c ****         {0x04u, 0x3Fu, 0x44u, 0x40u, 0x20u}, {0x3Cu, 0x40u, 0x40u, 0x20u, 0x7Cu}, {0x1Cu, 0x20u, 0x
 192:Generated_Source\PSoC4/LCD_Seg_1.c ****         {0x3Cu, 0x40u, 0x30u, 0x40u, 0x3Cu}, {0x44u, 0x28u, 0x10u, 0x28u, 0x44u}, {0x0Cu, 0x50u, 0x
 193:Generated_Source\PSoC4/LCD_Seg_1.c ****         {0x44u, 0x64u, 0x54u, 0x4Cu, 0x44u}, {0x00u, 0x08u, 0x36u, 0x41u, 0x00u}, {0x00u, 0x00u, 0x
 194:Generated_Source\PSoC4/LCD_Seg_1.c ****         {0x00u, 0x41u, 0x36u, 0x08u, 0x00u}, {0x00u, 0x00u, 0x00u, 0x00u, 0x00u}, {0x08u, 0x08u, 0x
 195:Generated_Source\PSoC4/LCD_Seg_1.c ****         {0x44u, 0x44u, 0x5Fu, 0x44u, 0x44u}, {0x22u, 0x14u, 0x08u, 0x14u, 0x22u}, {0x1Cu, 0x3Eu, 0x
 196:Generated_Source\PSoC4/LCD_Seg_1.c ****         {0x7Fu, 0x41u, 0x41u, 0x41u, 0x7Fu}, {0x7Fu, 0x5Bu, 0x41u, 0x5Fu, 0x7Fu}, {0x7Fu, 0x4Du, 0x
 197:Generated_Source\PSoC4/LCD_Seg_1.c ****         {0x1Du, 0x15u, 0x17u, 0x00u, 0x00u}, {0x15u, 0x15u, 0x1Fu, 0x00u, 0x00u}, {0x17u, 0x08u, 0x
 198:Generated_Source\PSoC4/LCD_Seg_1.c ****         {0x17u, 0x08u, 0x24u, 0x32u, 0x79u}, {0x35u, 0x1Fu, 0x28u, 0x34u, 0x7Au}, {0x08u, 0x14u, 0x
 199:Generated_Source\PSoC4/LCD_Seg_1.c ****         {0x22u, 0x14u, 0x2Au, 0x14u, 0x08u}, {0x08u, 0x04u, 0x08u, 0x10u, 0x08u}, {0x14u, 0x0Au, 0x
 200:Generated_Source\PSoC4/LCD_Seg_1.c ****         {0x2Au, 0x55u, 0x2Au, 0x55u, 0x2Au}, {0x24u, 0x3Bu, 0x2Au, 0x7Eu, 0x2Au}, {0x40u, 0x3Fu, 0x
 201:Generated_Source\PSoC4/LCD_Seg_1.c ****         {0x46u, 0x20u, 0x1Fu, 0x20u, 0x46u}, {0x24u, 0x14u, 0x7Fu, 0x18u, 0x24u}, {0x24u, 0x14u, 0x
 202:Generated_Source\PSoC4/LCD_Seg_1.c ****         {0x44u, 0x6Au, 0x79u, 0x6Au, 0x44u}, {0x40u, 0x44u, 0x7Fu, 0x44u, 0x40u}, {0x7Fu, 0x49u, 0x
 203:Generated_Source\PSoC4/LCD_Seg_1.c ****         {0x02u, 0x4Cu, 0x30u, 0x0Cu, 0x02u}, {0x04u, 0x04u, 0x3Cu, 0x04u, 0x44u}, {0x49u, 0x55u, 0x
 204:Generated_Source\PSoC4/LCD_Seg_1.c ****         {0x3Au, 0x45u, 0x45u, 0x45u, 0x39u}, {0x40u, 0x3Eu, 0x10u, 0x10u, 0x1Eu}, {0x08u, 0x54u, 0x
ARM GAS  C:\Users\Sarah\AppData\Local\Temp\ccBcpum9.s 			page 5


 205:Generated_Source\PSoC4/LCD_Seg_1.c ****         {0x7Fu, 0x7Fu, 0x7Fu, 0x7Fu, 0x7Fu}, {0x55u, 0x2Au, 0x55u, 0x2Au, 0x55u}, {0x00u, 0x00u, 0x
 206:Generated_Source\PSoC4/LCD_Seg_1.c ****         {0x70u, 0x50u, 0x70u, 0x00u, 0x00u}, {0x00u, 0x00u, 0x0Fu, 0x01u, 0x01u}, {0x40u, 0x40u, 0x
 207:Generated_Source\PSoC4/LCD_Seg_1.c ****         {0x10u, 0x20u, 0x40u, 0x00u, 0x00u}, {0x00u, 0x18u, 0x18u, 0x00u, 0x00u}, {0x0Au, 0x0Au, 0x
 208:Generated_Source\PSoC4/LCD_Seg_1.c ****         {0x04u, 0x44u, 0x34u, 0x14u, 0x0Cu}, {0x20u, 0x10u, 0x78u, 0x04u, 0x00u}, {0x18u, 0x08u, 0x
 209:Generated_Source\PSoC4/LCD_Seg_1.c ****         {0x48u, 0x48u, 0x78u, 0x48u, 0x48u}, {0x48u, 0x28u, 0x18u, 0x78u, 0x08u}, {0x08u, 0x7Cu, 0x
 210:Generated_Source\PSoC4/LCD_Seg_1.c ****         {0x40u, 0x48u, 0x48u, 0x78u, 0x40u}, {0x54u, 0x54u, 0x54u, 0x7Cu, 0x00u}, {0x18u, 0x00u, 0x
 211:Generated_Source\PSoC4/LCD_Seg_1.c ****         {0x08u, 0x08u, 0x08u, 0x08u, 0x08u}, {0x01u, 0x41u, 0x3Du, 0x09u, 0x07u}, {0x10u, 0x08u, 0x
 212:Generated_Source\PSoC4/LCD_Seg_1.c ****         {0x06u, 0x02u, 0x43u, 0x22u, 0x1Eu}, {0x42u, 0x42u, 0x7Eu, 0x42u, 0x42u}, {0x22u, 0x12u, 0x
 213:Generated_Source\PSoC4/LCD_Seg_1.c ****         {0x42u, 0x3Fu, 0x02u, 0x42u, 0x3Eu}, {0x0Au, 0x0Au, 0x7Fu, 0x0Au, 0x0Au}, {0x08u, 0x46u, 0x
 214:Generated_Source\PSoC4/LCD_Seg_1.c ****         {0x04u, 0x03u, 0x42u, 0x3Eu, 0x02u}, {0x42u, 0x42u, 0x42u, 0x42u, 0x7Eu}, {0x02u, 0x4Fu, 0x
 215:Generated_Source\PSoC4/LCD_Seg_1.c ****         {0x4Au, 0x4Au, 0x40u, 0x20u, 0x1Cu}, {0x42u, 0x22u, 0x12u, 0x2Au, 0x46u}, {0x02u, 0x3Fu, 0x
 216:Generated_Source\PSoC4/LCD_Seg_1.c ****         {0x06u, 0x48u, 0x40u, 0x20u, 0x1Eu}, {0x08u, 0x46u, 0x4Au, 0x32u, 0x1Eu}, {0x0Au, 0x4Au, 0x
 217:Generated_Source\PSoC4/LCD_Seg_1.c ****         {0x0Eu, 0x00u, 0x4Eu, 0x20u, 0x1Eu}, {0x04u, 0x45u, 0x3Du, 0x05u, 0x04u}, {0x00u, 0x7Fu, 0x
 218:Generated_Source\PSoC4/LCD_Seg_1.c ****         {0x44u, 0x24u, 0x1Fu, 0x04u, 0x04u}, {0x40u, 0x42u, 0x42u, 0x42u, 0x40u}, {0x42u, 0x2Au, 0x
 219:Generated_Source\PSoC4/LCD_Seg_1.c ****         {0x22u, 0x12u, 0x7Au, 0x16u, 0x22u}, {0x00u, 0x40u, 0x20u, 0x1Fu, 0x00u}, {0x78u, 0x00u, 0x
 220:Generated_Source\PSoC4/LCD_Seg_1.c ****         {0x3Fu, 0x44u, 0x44u, 0x44u, 0x44u}, {0x02u, 0x42u, 0x42u, 0x22u, 0x1Eu}, {0x04u, 0x02u, 0x
 221:Generated_Source\PSoC4/LCD_Seg_1.c ****         {0x32u, 0x02u, 0x7Fu, 0x02u, 0x32u}, {0x02u, 0x12u, 0x22u, 0x52u, 0x0Eu}, {0x00u, 0x2Au, 0x
 222:Generated_Source\PSoC4/LCD_Seg_1.c ****         {0x38u, 0x24u, 0x22u, 0x20u, 0x1Eu}, {0x40u, 0x28u, 0x10u, 0x28u, 0x06u}, {0x0Au, 0x3Eu, 0x
 223:Generated_Source\PSoC4/LCD_Seg_1.c ****         {0x04u, 0x7Fu, 0x04u, 0x14u, 0x0Cu}, {0x40u, 0x42u, 0x42u, 0x7Eu, 0x40u}, {0x4Au, 0x4Au, 0x
 224:Generated_Source\PSoC4/LCD_Seg_1.c ****         {0x04u, 0x05u, 0x45u, 0x15u, 0x1Cu}, {0x0Fu, 0x40u, 0x20u, 0x1Fu, 0x00u}, {0x7Cu, 0x00u, 0x
 225:Generated_Source\PSoC4/LCD_Seg_1.c ****         {0x7Eu, 0x40u, 0x20u, 0x10u, 0x08u}, {0x7Eu, 0x7Eu, 0x7Eu, 0x7Eu, 0x7Eu}, {0x0Eu, 0x02u, 0x
 226:Generated_Source\PSoC4/LCD_Seg_1.c ****         {0x42u, 0x42u, 0x40u, 0x20u, 0x18u}, {0x02u, 0x04u, 0x01u, 0x02u, 0x00u}, {0x07u, 0x05u, 0x
 227:Generated_Source\PSoC4/LCD_Seg_1.c ****         {0x38u, 0x44u, 0x48u, 0x30u, 0x4Cu}, {0x20u, 0x55u, 0x55u, 0x55u, 0x38u}, {0xFEu, 0x15u, 0x
 228:Generated_Source\PSoC4/LCD_Seg_1.c ****         {0x28u, 0x54u, 0x54u, 0x44u, 0x20u}, {0xFFu, 0x10u, 0x10u, 0x08u, 0x1Fu}, {0x38u, 0x44u, 0x
 229:Generated_Source\PSoC4/LCD_Seg_1.c ****         {0xFCu, 0x12u, 0x11u, 0x11u, 0x0Eu}, {0x0Eu, 0xA1u, 0xA1u, 0xA1u, 0x7Fu}, {0x20u, 0x40u, 0x
 230:Generated_Source\PSoC4/LCD_Seg_1.c ****         {0x04u, 0x04u, 0x00u, 0x0Eu, 0x00u}, {0x40u, 0x80u, 0x81u, 0x7Fu, 0x00u}, {0x0Au, 0x04u, 0x
 231:Generated_Source\PSoC4/LCD_Seg_1.c ****         {0x18u, 0x24u, 0x7Eu, 0x24u, 0x10u}, {0x14u, 0x7Fu, 0x54u, 0x40u, 0x40u}, {0x7Cu, 0x0Au, 0x
 232:Generated_Source\PSoC4/LCD_Seg_1.c ****         {0x38u, 0x45u, 0x45u, 0x45u, 0x38u}, {0xFFu, 0x12u, 0x11u, 0x11u, 0x0Eu}, {0x0Eu, 0x11u, 0x
 233:Generated_Source\PSoC4/LCD_Seg_1.c ****         {0x3Cu, 0x4Au, 0x4Au, 0x4Au, 0x3Cu}, {0x30u, 0x28u, 0x10u, 0x28u, 0x18u}, {0x58u, 0x64u, 0x
 234:Generated_Source\PSoC4/LCD_Seg_1.c ****         {0x3Cu, 0x41u, 0x40u, 0x21u, 0x7Cu}, {0x63u, 0x55u, 0x4Au, 0x41u, 0x41u}, {0x44u, 0x3Cu, 0x
 235:Generated_Source\PSoC4/LCD_Seg_1.c ****         {0x45u, 0x29u, 0x11u, 0x29u, 0x45u}, {0x0Fu, 0x90u, 0x90u, 0x90u, 0x7Fu}, {0x14u, 0x14u, 0x
 236:Generated_Source\PSoC4/LCD_Seg_1.c ****         {0x44u, 0x3Cu, 0x14u, 0x14u, 0x74u}, {0x7Cu, 0x14u, 0x1Cu, 0x14u, 0x7Cu}, {0x10u, 0x10u, 0x
 237:Generated_Source\PSoC4/LCD_Seg_1.c ****         {0x00u, 0x00u, 0x00u, 0x00u, 0x00u}, {0xFFu, 0xFFu, 0xFFu, 0xFFu, 0xFFu}
 238:Generated_Source\PSoC4/LCD_Seg_1.c ****         };
 239:Generated_Source\PSoC4/LCD_Seg_1.c **** #endif /* LCD_Seg_1_DOT_MATRIX */
 240:Generated_Source\PSoC4/LCD_Seg_1.c **** 
 241:Generated_Source\PSoC4/LCD_Seg_1.c **** /* Start of customizer generated code */
 242:Generated_Source\PSoC4/LCD_Seg_1.c **** static const uint32 LCD_Seg_1_dividersLS[][LCD_Seg_1_CONTRAST_DIVIDERS_NUMBER] = {
 243:Generated_Source\PSoC4/LCD_Seg_1.c **** {0xD5u, 0xD5u, 0xD5u, 0xD5u, 0xD5u, 0xD5u, 0xD5u, 0xD5u, 0x6Bu, 0x00u},
 244:Generated_Source\PSoC4/LCD_Seg_1.c **** {0x6Au, 0x6Au, 0x6Au, 0x6Au, 0x6Au, 0x6Au, 0x6Au, 0x6Au, 0x77u, 0x84u}};
 245:Generated_Source\PSoC4/LCD_Seg_1.c **** static const uint32 LCD_Seg_1_dividersHS[][LCD_Seg_1_CONTRAST_DIVIDERS_NUMBER] = {
 246:Generated_Source\PSoC4/LCD_Seg_1.c **** {0x001Eu, 0x001Bu, 0x0017u, 0x0014u, 0x0011u, 0x000Du, 0x000Au, 0x0007u, 0x0003u, 0x0000u},
 247:Generated_Source\PSoC4/LCD_Seg_1.c **** {0x0000u, 0x0001u, 0x0001u, 0x0001u, 0x0002u, 0x0002u, 0x0002u, 0x0003u, 0x0003u, 0x0003u}};
 248:Generated_Source\PSoC4/LCD_Seg_1.c **** 
 249:Generated_Source\PSoC4/LCD_Seg_1.c **** uint32 LCD_Seg_1_initVar = 0u;
 250:Generated_Source\PSoC4/LCD_Seg_1.c **** static uint32 LCD_Seg_1_modeState = LCD_Seg_1_LCD_MODE;
 251:Generated_Source\PSoC4/LCD_Seg_1.c **** static uint32 LCD_Seg_1_invertState = LCD_Seg_1_STATE_NORMAL;
 252:Generated_Source\PSoC4/LCD_Seg_1.c **** static uint32 LCD_Seg_1_contrastState = LCD_Seg_1_CONTRAST;
 253:Generated_Source\PSoC4/LCD_Seg_1.c **** static uint32 LCD_Seg_1_commons[] = {LCD_Seg_1_Com0, LCD_Seg_1_Com1};
 254:Generated_Source\PSoC4/LCD_Seg_1.c **** 
 255:Generated_Source\PSoC4/LCD_Seg_1.c **** 
 256:Generated_Source\PSoC4/LCD_Seg_1.c **** /*******************************************************************************
 257:Generated_Source\PSoC4/LCD_Seg_1.c **** * Function Name: LCD_Seg_1_WriteFrameBuffer
 258:Generated_Source\PSoC4/LCD_Seg_1.c **** ********************************************************************************
 259:Generated_Source\PSoC4/LCD_Seg_1.c **** *
 260:Generated_Source\PSoC4/LCD_Seg_1.c **** * Summary:
 261:Generated_Source\PSoC4/LCD_Seg_1.c **** *  Sets or clears a particular bit in the frame buffer.
ARM GAS  C:\Users\Sarah\AppData\Local\Temp\ccBcpum9.s 			page 6


 262:Generated_Source\PSoC4/LCD_Seg_1.c **** *
 263:Generated_Source\PSoC4/LCD_Seg_1.c **** * Parameters:
 264:Generated_Source\PSoC4/LCD_Seg_1.c **** *  reg32 regAddress[]: Frame buffer register address.
 265:Generated_Source\PSoC4/LCD_Seg_1.c **** *  bitNumber : The predefined packed number that points to the bit's location
 266:Generated_Source\PSoC4/LCD_Seg_1.c **** *              in the frame buffer.
 267:Generated_Source\PSoC4/LCD_Seg_1.c **** *  state : Specifies bit state.
 268:Generated_Source\PSoC4/LCD_Seg_1.c **** *
 269:Generated_Source\PSoC4/LCD_Seg_1.c **** * Return:
 270:Generated_Source\PSoC4/LCD_Seg_1.c **** *  None.
 271:Generated_Source\PSoC4/LCD_Seg_1.c **** *
 272:Generated_Source\PSoC4/LCD_Seg_1.c **** *******************************************************************************/
 273:Generated_Source\PSoC4/LCD_Seg_1.c **** static void LCD_Seg_1_WriteFrameBuffer(reg32 regAddr[], uint32 bitNumber, uint32 state)
 274:Generated_Source\PSoC4/LCD_Seg_1.c **** {
  25              		.loc 1 274 0
  26              		.cfi_startproc
  27              	.LVL0:
  28 0000 70B5     		push	{r4, r5, r6, lr}
  29              		.cfi_def_cfa_offset 16
  30              		.cfi_offset 4, -16
  31              		.cfi_offset 5, -12
  32              		.cfi_offset 6, -8
  33              		.cfi_offset 14, -4
  34 0002 141C     		mov	r4, r2
 275:Generated_Source\PSoC4/LCD_Seg_1.c ****     uint32 row;
 276:Generated_Source\PSoC4/LCD_Seg_1.c ****     uint32 port;
 277:Generated_Source\PSoC4/LCD_Seg_1.c ****     uint32 pin;
 278:Generated_Source\PSoC4/LCD_Seg_1.c ****     uint32 mask;
 279:Generated_Source\PSoC4/LCD_Seg_1.c **** 
 280:Generated_Source\PSoC4/LCD_Seg_1.c ****     /* Extract the bit information to locate desired bit in the frame buffer */
 281:Generated_Source\PSoC4/LCD_Seg_1.c ****     row  = LCD_Seg_1_EXTRACT_ROW(bitNumber) % LCD_Seg_1_MAX_BUFF_ROWS;
  35              		.loc 1 281 0
  36 0004 FF23     		mov	r3, #255
  37 0006 1B04     		lsl	r3, r3, #16
  38 0008 0B40     		and	r3, r1
  39 000a 9A03     		lsl	r2, r3, #14
  40              	.LVL1:
  41 000c 920F     		lsr	r2, r2, #30
  42              	.LVL2:
 282:Generated_Source\PSoC4/LCD_Seg_1.c ****     port = LCD_Seg_1_EXTRACT_PORT(bitNumber) + ((LCD_Seg_1_EXTRACT_ROW(bitNumber) /
  43              		.loc 1 282 0
  44 000e 0D04     		lsl	r5, r1, #16
  45 0010 2D0E     		lsr	r5, r5, #24
  46 0012 9B0C     		lsr	r3, r3, #18
 283:Generated_Source\PSoC4/LCD_Seg_1.c ****            LCD_Seg_1_MAX_BUFF_ROWS) * LCD_Seg_1_DATA_REGS_OFFSET);
  47              		.loc 1 283 0
  48 0014 9B01     		lsl	r3, r3, #6
 282:Generated_Source\PSoC4/LCD_Seg_1.c ****     port = LCD_Seg_1_EXTRACT_PORT(bitNumber) + ((LCD_Seg_1_EXTRACT_ROW(bitNumber) /
  49              		.loc 1 282 0
  50 0016 EB18     		add	r3, r5, r3
  51              	.LVL3:
 284:Generated_Source\PSoC4/LCD_Seg_1.c ****     pin  = LCD_Seg_1_EXTRACT_PIN(bitNumber) * LCD_Seg_1_MAX_BUFF_ROWS;
  52              		.loc 1 284 0
  53 0018 FF25     		mov	r5, #255
  54 001a 2940     		and	r1, r5
  55              	.LVL4:
  56 001c 8900     		lsl	r1, r1, #2
  57              	.LVL5:
ARM GAS  C:\Users\Sarah\AppData\Local\Temp\ccBcpum9.s 			page 7


 285:Generated_Source\PSoC4/LCD_Seg_1.c **** 
 286:Generated_Source\PSoC4/LCD_Seg_1.c ****     /* Write new bit value to the frame buffer. */
 287:Generated_Source\PSoC4/LCD_Seg_1.c ****     mask = (uint32)(~((uint32)(LCD_Seg_1_PIXEL_STATE_ON << (pin + row))));
  58              		.loc 1 287 0
  59 001e 8918     		add	r1, r1, r2
  60              	.LVL6:
  61 0020 0122     		mov	r2, #1
  62              	.LVL7:
  63 0022 161C     		mov	r6, r2
  64 0024 8E40     		lsl	r6, r6, r1
  65              	.LVL8:
 288:Generated_Source\PSoC4/LCD_Seg_1.c **** 
 289:Generated_Source\PSoC4/LCD_Seg_1.c ****     regAddr[port] = (regAddr[port] & mask) | (uint32)((state & LCD_Seg_1_PIXEL_STATE_ON) << (pin + 
  66              		.loc 1 289 0
  67 0026 9B00     		lsl	r3, r3, #2
  68              	.LVL9:
  69 0028 C018     		add	r0, r0, r3
  70              	.LVL10:
  71 002a 0568     		ldr	r5, [r0]
  72              	.LVL11:
  73 002c B543     		bic	r5, r6
  74 002e 131C     		mov	r3, r2
  75 0030 2340     		and	r3, r4
  76 0032 8B40     		lsl	r3, r3, r1
  77 0034 1A1C     		mov	r2, r3
  78 0036 2A43     		orr	r2, r5
  79 0038 0260     		str	r2, [r0]
 290:Generated_Source\PSoC4/LCD_Seg_1.c **** }
  80              		.loc 1 290 0
  81              		@ sp needed
  82              	.LVL12:
  83              	.LVL13:
  84 003a 70BD     		pop	{r4, r5, r6, pc}
  85              		.cfi_endproc
  86              	.LFE2:
  87              		.size	LCD_Seg_1_WriteFrameBuffer, .-LCD_Seg_1_WriteFrameBuffer
  88              		.section	.text.LCD_Seg_1_ReadFrameBuffer,"ax",%progbits
  89              		.align	2
  90              		.code	16
  91              		.thumb_func
  92              		.type	LCD_Seg_1_ReadFrameBuffer, %function
  93              	LCD_Seg_1_ReadFrameBuffer:
  94              	.LFB3:
 291:Generated_Source\PSoC4/LCD_Seg_1.c **** 
 292:Generated_Source\PSoC4/LCD_Seg_1.c **** 
 293:Generated_Source\PSoC4/LCD_Seg_1.c **** /*******************************************************************************
 294:Generated_Source\PSoC4/LCD_Seg_1.c **** * Function Name: LCD_Seg_1_ReadFrameBuffer
 295:Generated_Source\PSoC4/LCD_Seg_1.c **** ********************************************************************************
 296:Generated_Source\PSoC4/LCD_Seg_1.c **** *
 297:Generated_Source\PSoC4/LCD_Seg_1.c **** * Summary:
 298:Generated_Source\PSoC4/LCD_Seg_1.c **** *  Gets state of a particular bit in the frame buffer.
 299:Generated_Source\PSoC4/LCD_Seg_1.c **** *
 300:Generated_Source\PSoC4/LCD_Seg_1.c **** * Parameters:
 301:Generated_Source\PSoC4/LCD_Seg_1.c **** *  reg32 regAddress[]: Frame buffer register address.
 302:Generated_Source\PSoC4/LCD_Seg_1.c **** *  bitNumber : The predefined packed number that points to the bit's location
 303:Generated_Source\PSoC4/LCD_Seg_1.c **** *              in the frame buffer.
 304:Generated_Source\PSoC4/LCD_Seg_1.c **** *
ARM GAS  C:\Users\Sarah\AppData\Local\Temp\ccBcpum9.s 			page 8


 305:Generated_Source\PSoC4/LCD_Seg_1.c **** * Return:
 306:Generated_Source\PSoC4/LCD_Seg_1.c **** *  Returns the current status of the specified bit in the frame buffer.
 307:Generated_Source\PSoC4/LCD_Seg_1.c **** *
 308:Generated_Source\PSoC4/LCD_Seg_1.c **** *******************************************************************************/
 309:Generated_Source\PSoC4/LCD_Seg_1.c **** static uint32 LCD_Seg_1_ReadFrameBuffer(const reg32 regAddr[], uint32 bitNumber)
 310:Generated_Source\PSoC4/LCD_Seg_1.c **** {
  95              		.loc 1 310 0
  96              		.cfi_startproc
  97              	.LVL14:
  98 0000 10B5     		push	{r4, lr}
  99              		.cfi_def_cfa_offset 8
 100              		.cfi_offset 4, -8
 101              		.cfi_offset 14, -4
 311:Generated_Source\PSoC4/LCD_Seg_1.c ****     uint32 row;
 312:Generated_Source\PSoC4/LCD_Seg_1.c ****     uint32 port;
 313:Generated_Source\PSoC4/LCD_Seg_1.c ****     uint32 pin;
 314:Generated_Source\PSoC4/LCD_Seg_1.c ****     uint32 pixelState;
 315:Generated_Source\PSoC4/LCD_Seg_1.c **** 
 316:Generated_Source\PSoC4/LCD_Seg_1.c ****     /* Extract the bit information to locate desired bit in the frame buffer */
 317:Generated_Source\PSoC4/LCD_Seg_1.c ****     row  = LCD_Seg_1_EXTRACT_ROW(bitNumber) % LCD_Seg_1_MAX_BUFF_ROWS;
 102              		.loc 1 317 0
 103 0002 FF23     		mov	r3, #255
 104 0004 1B04     		lsl	r3, r3, #16
 105 0006 0B40     		and	r3, r1
 106 0008 9A03     		lsl	r2, r3, #14
 107 000a 920F     		lsr	r2, r2, #30
 108              	.LVL15:
 318:Generated_Source\PSoC4/LCD_Seg_1.c ****     port = LCD_Seg_1_EXTRACT_PORT(bitNumber) + ((LCD_Seg_1_EXTRACT_ROW(bitNumber) /
 109              		.loc 1 318 0
 110 000c 0C04     		lsl	r4, r1, #16
 111 000e 240E     		lsr	r4, r4, #24
 112 0010 9B0C     		lsr	r3, r3, #18
 319:Generated_Source\PSoC4/LCD_Seg_1.c ****            LCD_Seg_1_MAX_BUFF_ROWS) * LCD_Seg_1_DATA_REGS_OFFSET);
 113              		.loc 1 319 0
 114 0012 9B01     		lsl	r3, r3, #6
 318:Generated_Source\PSoC4/LCD_Seg_1.c ****     port = LCD_Seg_1_EXTRACT_PORT(bitNumber) + ((LCD_Seg_1_EXTRACT_ROW(bitNumber) /
 115              		.loc 1 318 0
 116 0014 E318     		add	r3, r4, r3
 117              	.LVL16:
 320:Generated_Source\PSoC4/LCD_Seg_1.c ****     pin  = LCD_Seg_1_EXTRACT_PIN(bitNumber) * LCD_Seg_1_MAX_BUFF_ROWS;
 118              		.loc 1 320 0
 119 0016 FF24     		mov	r4, #255
 120 0018 2140     		and	r1, r4
 121              	.LVL17:
 122 001a 8900     		lsl	r1, r1, #2
 123              	.LVL18:
 321:Generated_Source\PSoC4/LCD_Seg_1.c **** 
 322:Generated_Source\PSoC4/LCD_Seg_1.c ****     pixelState = (uint32)(regAddr[port] >> (pin + row)) & LCD_Seg_1_PIXEL_STATE_ON;
 124              		.loc 1 322 0
 125 001c 9B00     		lsl	r3, r3, #2
 126              	.LVL19:
 127 001e C018     		add	r0, r0, r3
 128              	.LVL20:
 129 0020 0368     		ldr	r3, [r0]
 130 0022 8918     		add	r1, r1, r2
 131              	.LVL21:
 132 0024 CB40     		lsr	r3, r3, r1
ARM GAS  C:\Users\Sarah\AppData\Local\Temp\ccBcpum9.s 			page 9


 133 0026 0120     		mov	r0, #1
 134 0028 1840     		and	r0, r3
 135              	.LVL22:
 323:Generated_Source\PSoC4/LCD_Seg_1.c **** 
 324:Generated_Source\PSoC4/LCD_Seg_1.c ****     return(pixelState);
 325:Generated_Source\PSoC4/LCD_Seg_1.c **** }
 136              		.loc 1 325 0
 137              		@ sp needed
 138              	.LVL23:
 139 002a 10BD     		pop	{r4, pc}
 140              		.cfi_endproc
 141              	.LFE3:
 142              		.size	LCD_Seg_1_ReadFrameBuffer, .-LCD_Seg_1_ReadFrameBuffer
 143              		.section	.text.LCD_Seg_1_Enable,"ax",%progbits
 144              		.align	2
 145              		.global	LCD_Seg_1_Enable
 146              		.code	16
 147              		.thumb_func
 148              		.type	LCD_Seg_1_Enable, %function
 149              	LCD_Seg_1_Enable:
 150              	.LFB5:
 326:Generated_Source\PSoC4/LCD_Seg_1.c **** 
 327:Generated_Source\PSoC4/LCD_Seg_1.c **** 
 328:Generated_Source\PSoC4/LCD_Seg_1.c **** /*******************************************************************************
 329:Generated_Source\PSoC4/LCD_Seg_1.c **** * Function Name: LCD_Seg_1_Init
 330:Generated_Source\PSoC4/LCD_Seg_1.c **** ********************************************************************************
 331:Generated_Source\PSoC4/LCD_Seg_1.c **** *
 332:Generated_Source\PSoC4/LCD_Seg_1.c **** * Summary:
 333:Generated_Source\PSoC4/LCD_Seg_1.c **** *  Initialize/Restore default Segment LCD configuration.
 334:Generated_Source\PSoC4/LCD_Seg_1.c **** *
 335:Generated_Source\PSoC4/LCD_Seg_1.c **** * Parameters:
 336:Generated_Source\PSoC4/LCD_Seg_1.c **** *  None.
 337:Generated_Source\PSoC4/LCD_Seg_1.c **** *
 338:Generated_Source\PSoC4/LCD_Seg_1.c **** * Return:
 339:Generated_Source\PSoC4/LCD_Seg_1.c **** *  None.
 340:Generated_Source\PSoC4/LCD_Seg_1.c **** *
 341:Generated_Source\PSoC4/LCD_Seg_1.c **** * Side Effects:
 342:Generated_Source\PSoC4/LCD_Seg_1.c **** *  Block will be stopped to change settings.
 343:Generated_Source\PSoC4/LCD_Seg_1.c **** *
 344:Generated_Source\PSoC4/LCD_Seg_1.c **** *******************************************************************************/
 345:Generated_Source\PSoC4/LCD_Seg_1.c **** void LCD_Seg_1_Init(void)
 346:Generated_Source\PSoC4/LCD_Seg_1.c **** {
 347:Generated_Source\PSoC4/LCD_Seg_1.c ****     LCD_Seg_1_Stop();
 348:Generated_Source\PSoC4/LCD_Seg_1.c **** 
 349:Generated_Source\PSoC4/LCD_Seg_1.c ****     /* Set sub-frame and dead time dividers */
 350:Generated_Source\PSoC4/LCD_Seg_1.c ****     LCD_Seg_1_DIVIDER_REG = LCD_Seg_1_INIT_DIVIDERS;
 351:Generated_Source\PSoC4/LCD_Seg_1.c **** 
 352:Generated_Source\PSoC4/LCD_Seg_1.c ****     /* Set Configuration Register */
 353:Generated_Source\PSoC4/LCD_Seg_1.c ****     LCD_Seg_1_CONTROL_REG = LCD_Seg_1_INIT_CONTROL;
 354:Generated_Source\PSoC4/LCD_Seg_1.c **** 
 355:Generated_Source\PSoC4/LCD_Seg_1.c ****     /* Need to clear display to start normal work.
 356:Generated_Source\PSoC4/LCD_Seg_1.c ****     *  LCD_Seg_1_ClearDisplay() function initializes Commons in the frame buffer as well.
 357:Generated_Source\PSoC4/LCD_Seg_1.c ****     */
 358:Generated_Source\PSoC4/LCD_Seg_1.c ****     LCD_Seg_1_ClearDisplay();
 359:Generated_Source\PSoC4/LCD_Seg_1.c **** }
 360:Generated_Source\PSoC4/LCD_Seg_1.c **** 
 361:Generated_Source\PSoC4/LCD_Seg_1.c **** 
ARM GAS  C:\Users\Sarah\AppData\Local\Temp\ccBcpum9.s 			page 10


 362:Generated_Source\PSoC4/LCD_Seg_1.c **** /*******************************************************************************
 363:Generated_Source\PSoC4/LCD_Seg_1.c **** * Function Name: LCD_Seg_1_Enable
 364:Generated_Source\PSoC4/LCD_Seg_1.c **** ********************************************************************************
 365:Generated_Source\PSoC4/LCD_Seg_1.c **** *
 366:Generated_Source\PSoC4/LCD_Seg_1.c **** * Summary:
 367:Generated_Source\PSoC4/LCD_Seg_1.c **** *  Enables the Segment LCD.
 368:Generated_Source\PSoC4/LCD_Seg_1.c **** *
 369:Generated_Source\PSoC4/LCD_Seg_1.c **** * Parameters:
 370:Generated_Source\PSoC4/LCD_Seg_1.c **** *  None.
 371:Generated_Source\PSoC4/LCD_Seg_1.c **** *
 372:Generated_Source\PSoC4/LCD_Seg_1.c **** * Return:
 373:Generated_Source\PSoC4/LCD_Seg_1.c **** *  None.
 374:Generated_Source\PSoC4/LCD_Seg_1.c **** *
 375:Generated_Source\PSoC4/LCD_Seg_1.c **** * Global variables:
 376:Generated_Source\PSoC4/LCD_Seg_1.c **** *  LCD_Seg_1_modeState - holds the current LCD speed mode (LS/HS).
 377:Generated_Source\PSoC4/LCD_Seg_1.c **** *
 378:Generated_Source\PSoC4/LCD_Seg_1.c **** *******************************************************************************/
 379:Generated_Source\PSoC4/LCD_Seg_1.c **** void LCD_Seg_1_Enable(void)
 380:Generated_Source\PSoC4/LCD_Seg_1.c **** {
 151              		.loc 1 380 0
 152              		.cfi_startproc
 381:Generated_Source\PSoC4/LCD_Seg_1.c ****     if (LCD_Seg_1_SPEED_LS == LCD_Seg_1_modeState)
 153              		.loc 1 381 0
 154 0000 094B     		ldr	r3, .L6
 155 0002 1B68     		ldr	r3, [r3]
 156 0004 002B     		cmp	r3, #0
 157 0006 07D1     		bne	.L4
 382:Generated_Source\PSoC4/LCD_Seg_1.c ****     {
 383:Generated_Source\PSoC4/LCD_Seg_1.c ****         LCD_Seg_1_CONTROL_REG = (LCD_Seg_1_CONTROL_REG & ((uint32)(~LCD_Seg_1_ENABLE_MASK)))
 158              		.loc 1 383 0
 159 0008 0849     		ldr	r1, .L6+4
 160 000a 0B68     		ldr	r3, [r1]
 161 000c 0322     		mov	r2, #3
 162 000e 9343     		bic	r3, r2
 384:Generated_Source\PSoC4/LCD_Seg_1.c ****                                        | LCD_Seg_1_LS_EN;
 163              		.loc 1 384 0
 164 0010 023A     		sub	r2, r2, #2
 165 0012 1343     		orr	r3, r2
 383:Generated_Source\PSoC4/LCD_Seg_1.c ****                                        | LCD_Seg_1_LS_EN;
 166              		.loc 1 383 0
 167 0014 0B60     		str	r3, [r1]
 168 0016 06E0     		b	.L3
 169              	.L4:
 385:Generated_Source\PSoC4/LCD_Seg_1.c ****     }
 386:Generated_Source\PSoC4/LCD_Seg_1.c ****     else /* (LCD_Seg_1_SPEED_HS == LCD_Seg_1_modeState) */
 387:Generated_Source\PSoC4/LCD_Seg_1.c ****     {
 388:Generated_Source\PSoC4/LCD_Seg_1.c ****         LCD_Seg_1_CONTROL_REG = (LCD_Seg_1_CONTROL_REG & ((uint32)(~LCD_Seg_1_ENABLE_MASK)))
 170              		.loc 1 388 0
 171 0018 0449     		ldr	r1, .L6+4
 172 001a 0B68     		ldr	r3, [r1]
 173 001c 0322     		mov	r2, #3
 174 001e 9343     		bic	r3, r2
 389:Generated_Source\PSoC4/LCD_Seg_1.c ****                                        | LCD_Seg_1_HS_EN;
 175              		.loc 1 389 0
 176 0020 013A     		sub	r2, r2, #1
 177 0022 1343     		orr	r3, r2
 388:Generated_Source\PSoC4/LCD_Seg_1.c ****                                        | LCD_Seg_1_HS_EN;
ARM GAS  C:\Users\Sarah\AppData\Local\Temp\ccBcpum9.s 			page 11


 178              		.loc 1 388 0
 179 0024 0B60     		str	r3, [r1]
 180              	.L3:
 390:Generated_Source\PSoC4/LCD_Seg_1.c ****     }
 391:Generated_Source\PSoC4/LCD_Seg_1.c **** }
 181              		.loc 1 391 0
 182              		@ sp needed
 183 0026 7047     		bx	lr
 184              	.L7:
 185              		.align	2
 186              	.L6:
 187 0028 00000000 		.word	.LANCHOR0
 188 002c 08002A40 		.word	1076494344
 189              		.cfi_endproc
 190              	.LFE5:
 191              		.size	LCD_Seg_1_Enable, .-LCD_Seg_1_Enable
 192              		.section	.text.LCD_Seg_1_Stop,"ax",%progbits
 193              		.align	2
 194              		.global	LCD_Seg_1_Stop
 195              		.code	16
 196              		.thumb_func
 197              		.type	LCD_Seg_1_Stop, %function
 198              	LCD_Seg_1_Stop:
 199              	.LFB7:
 392:Generated_Source\PSoC4/LCD_Seg_1.c **** 
 393:Generated_Source\PSoC4/LCD_Seg_1.c **** 
 394:Generated_Source\PSoC4/LCD_Seg_1.c **** /*******************************************************************************
 395:Generated_Source\PSoC4/LCD_Seg_1.c **** * Function Name: LCD_Seg_1_Start
 396:Generated_Source\PSoC4/LCD_Seg_1.c **** ********************************************************************************
 397:Generated_Source\PSoC4/LCD_Seg_1.c **** *
 398:Generated_Source\PSoC4/LCD_Seg_1.c **** * Summary:
 399:Generated_Source\PSoC4/LCD_Seg_1.c **** *  Initialize the Segment LCD with default customizer values and enables the
 400:Generated_Source\PSoC4/LCD_Seg_1.c **** *  Segment LCD.
 401:Generated_Source\PSoC4/LCD_Seg_1.c **** *
 402:Generated_Source\PSoC4/LCD_Seg_1.c **** * Parameters:
 403:Generated_Source\PSoC4/LCD_Seg_1.c **** *  None.
 404:Generated_Source\PSoC4/LCD_Seg_1.c **** *
 405:Generated_Source\PSoC4/LCD_Seg_1.c **** * Return:
 406:Generated_Source\PSoC4/LCD_Seg_1.c **** *  None.
 407:Generated_Source\PSoC4/LCD_Seg_1.c **** *
 408:Generated_Source\PSoC4/LCD_Seg_1.c **** * Global variables:
 409:Generated_Source\PSoC4/LCD_Seg_1.c **** *  LCD_Seg_1_initVar - is used to indicate initial configuration of
 410:Generated_Source\PSoC4/LCD_Seg_1.c **** *  this component. The variable is initialized to zero and set to 1 the
 411:Generated_Source\PSoC4/LCD_Seg_1.c **** *  first time LCD_Seg_1_Start() is called. This allows for component
 412:Generated_Source\PSoC4/LCD_Seg_1.c **** *  initialization without re-initialization in all subsequent calls to the
 413:Generated_Source\PSoC4/LCD_Seg_1.c **** *  LCD_Seg_1_Start() routine.
 414:Generated_Source\PSoC4/LCD_Seg_1.c **** *
 415:Generated_Source\PSoC4/LCD_Seg_1.c **** *******************************************************************************/
 416:Generated_Source\PSoC4/LCD_Seg_1.c **** void LCD_Seg_1_Start(void)
 417:Generated_Source\PSoC4/LCD_Seg_1.c **** {
 418:Generated_Source\PSoC4/LCD_Seg_1.c ****     /* If not Initialized then initialize all required hardware and software */
 419:Generated_Source\PSoC4/LCD_Seg_1.c ****     if (LCD_Seg_1_initVar == 0u)
 420:Generated_Source\PSoC4/LCD_Seg_1.c ****     {
 421:Generated_Source\PSoC4/LCD_Seg_1.c ****         LCD_Seg_1_initVar = 1u;
 422:Generated_Source\PSoC4/LCD_Seg_1.c ****         LCD_Seg_1_Init();
 423:Generated_Source\PSoC4/LCD_Seg_1.c ****     }
 424:Generated_Source\PSoC4/LCD_Seg_1.c **** 
ARM GAS  C:\Users\Sarah\AppData\Local\Temp\ccBcpum9.s 			page 12


 425:Generated_Source\PSoC4/LCD_Seg_1.c ****     LCD_Seg_1_Enable();
 426:Generated_Source\PSoC4/LCD_Seg_1.c **** }
 427:Generated_Source\PSoC4/LCD_Seg_1.c **** 
 428:Generated_Source\PSoC4/LCD_Seg_1.c **** 
 429:Generated_Source\PSoC4/LCD_Seg_1.c **** /*******************************************************************************
 430:Generated_Source\PSoC4/LCD_Seg_1.c **** * Function Name: LCD_Seg_1_Stop
 431:Generated_Source\PSoC4/LCD_Seg_1.c **** ********************************************************************************
 432:Generated_Source\PSoC4/LCD_Seg_1.c **** *
 433:Generated_Source\PSoC4/LCD_Seg_1.c **** * Summary:
 434:Generated_Source\PSoC4/LCD_Seg_1.c **** *  Disables the Segment LCD.
 435:Generated_Source\PSoC4/LCD_Seg_1.c **** *
 436:Generated_Source\PSoC4/LCD_Seg_1.c **** * Parameters:
 437:Generated_Source\PSoC4/LCD_Seg_1.c **** *  None.
 438:Generated_Source\PSoC4/LCD_Seg_1.c **** *
 439:Generated_Source\PSoC4/LCD_Seg_1.c **** * Return:
 440:Generated_Source\PSoC4/LCD_Seg_1.c **** *  None.
 441:Generated_Source\PSoC4/LCD_Seg_1.c **** *
 442:Generated_Source\PSoC4/LCD_Seg_1.c **** *******************************************************************************/
 443:Generated_Source\PSoC4/LCD_Seg_1.c **** void LCD_Seg_1_Stop(void)
 444:Generated_Source\PSoC4/LCD_Seg_1.c **** {
 200              		.loc 1 444 0
 201              		.cfi_startproc
 445:Generated_Source\PSoC4/LCD_Seg_1.c ****     LCD_Seg_1_CONTROL_REG &= (uint32)(~LCD_Seg_1_ENABLE_MASK);
 202              		.loc 1 445 0
 203 0000 024A     		ldr	r2, .L9
 204 0002 1368     		ldr	r3, [r2]
 205 0004 0321     		mov	r1, #3
 206 0006 8B43     		bic	r3, r1
 207 0008 1360     		str	r3, [r2]
 446:Generated_Source\PSoC4/LCD_Seg_1.c **** }
 208              		.loc 1 446 0
 209              		@ sp needed
 210 000a 7047     		bx	lr
 211              	.L10:
 212              		.align	2
 213              	.L9:
 214 000c 08002A40 		.word	1076494344
 215              		.cfi_endproc
 216              	.LFE7:
 217              		.size	LCD_Seg_1_Stop, .-LCD_Seg_1_Stop
 218              		.global	__aeabi_uidiv
 219              		.section	.text.LCD_Seg_1_SetSpeedMode,"ax",%progbits
 220              		.align	2
 221              		.global	LCD_Seg_1_SetSpeedMode
 222              		.code	16
 223              		.thumb_func
 224              		.type	LCD_Seg_1_SetSpeedMode, %function
 225              	LCD_Seg_1_SetSpeedMode:
 226              	.LFB8:
 447:Generated_Source\PSoC4/LCD_Seg_1.c **** 
 448:Generated_Source\PSoC4/LCD_Seg_1.c **** 
 449:Generated_Source\PSoC4/LCD_Seg_1.c **** /*******************************************************************************
 450:Generated_Source\PSoC4/LCD_Seg_1.c **** * Function Name: LCD_Seg_1_SetSpeedMode
 451:Generated_Source\PSoC4/LCD_Seg_1.c **** ********************************************************************************
 452:Generated_Source\PSoC4/LCD_Seg_1.c **** *
 453:Generated_Source\PSoC4/LCD_Seg_1.c **** * Summary:
 454:Generated_Source\PSoC4/LCD_Seg_1.c **** *  Sets HS or LS LCD speed mode.
ARM GAS  C:\Users\Sarah\AppData\Local\Temp\ccBcpum9.s 			page 13


 455:Generated_Source\PSoC4/LCD_Seg_1.c **** *
 456:Generated_Source\PSoC4/LCD_Seg_1.c **** * Parameters:
 457:Generated_Source\PSoC4/LCD_Seg_1.c **** *  mode : Sets the mode of the LCD clock speed operation:
 458:Generated_Source\PSoC4/LCD_Seg_1.c **** *    Define                         Description
 459:Generated_Source\PSoC4/LCD_Seg_1.c **** *     LCD_Seg_1_SPEED_LS      Low Speed mode.
 460:Generated_Source\PSoC4/LCD_Seg_1.c **** *     LCD_Seg_1_SPEED_HS      High Speed mode.
 461:Generated_Source\PSoC4/LCD_Seg_1.c **** *
 462:Generated_Source\PSoC4/LCD_Seg_1.c **** * Return:
 463:Generated_Source\PSoC4/LCD_Seg_1.c **** *  None.
 464:Generated_Source\PSoC4/LCD_Seg_1.c **** *
 465:Generated_Source\PSoC4/LCD_Seg_1.c **** * Global variables:
 466:Generated_Source\PSoC4/LCD_Seg_1.c **** *  LCD_Seg_1_modeState - holds the current LCD speed mode (LS/HS).
 467:Generated_Source\PSoC4/LCD_Seg_1.c **** *  LCD_Seg_1_contrastState - holds the current LCD contrast.
 468:Generated_Source\PSoC4/LCD_Seg_1.c **** *
 469:Generated_Source\PSoC4/LCD_Seg_1.c **** *******************************************************************************/
 470:Generated_Source\PSoC4/LCD_Seg_1.c **** void LCD_Seg_1_SetSpeedMode(uint32 mode)
 471:Generated_Source\PSoC4/LCD_Seg_1.c **** {
 227              		.loc 1 471 0
 228              		.cfi_startproc
 229              	.LVL24:
 230 0000 38B5     		push	{r3, r4, r5, lr}
 231              		.cfi_def_cfa_offset 16
 232              		.cfi_offset 3, -16
 233              		.cfi_offset 4, -12
 234              		.cfi_offset 5, -8
 235              		.cfi_offset 14, -4
 236 0002 041C     		mov	r4, r0
 472:Generated_Source\PSoC4/LCD_Seg_1.c ****     uint32 contrast = (LCD_Seg_1_contrastState / 10u) - 1u;
 237              		.loc 1 472 0
 238 0004 1A4B     		ldr	r3, .L14
 239 0006 1868     		ldr	r0, [r3]
 240              	.LVL25:
 241 0008 0A21     		mov	r1, #10
 242 000a FFF7FEFF 		bl	__aeabi_uidiv
 243              	.LVL26:
 244 000e 0138     		sub	r0, r0, #1
 245              	.LVL27:
 473:Generated_Source\PSoC4/LCD_Seg_1.c **** 
 474:Generated_Source\PSoC4/LCD_Seg_1.c ****     if (LCD_Seg_1_modeState != mode)
 246              		.loc 1 474 0
 247 0010 184B     		ldr	r3, .L14+4
 248 0012 1B68     		ldr	r3, [r3]
 249 0014 A342     		cmp	r3, r4
 250 0016 2AD0     		beq	.L11
 475:Generated_Source\PSoC4/LCD_Seg_1.c ****     {
 476:Generated_Source\PSoC4/LCD_Seg_1.c ****         LCD_Seg_1_CONTROL_REG = (LCD_Seg_1_CONTROL_REG & ((uint32)(~LCD_Seg_1_MODE)))
 251              		.loc 1 476 0
 252 0018 174D     		ldr	r5, .L14+8
 253 001a 2968     		ldr	r1, [r5]
 254 001c 0423     		mov	r3, #4
 255 001e 9943     		bic	r1, r3
 477:Generated_Source\PSoC4/LCD_Seg_1.c ****                                        | (((uint32)(mode  << LCD_Seg_1_MODE_SHIFT)) & LCD_Seg_1_MOD
 256              		.loc 1 477 0
 257 0020 A200     		lsl	r2, r4, #2
 258 0022 1340     		and	r3, r2
 259 0024 0B43     		orr	r3, r1
 476:Generated_Source\PSoC4/LCD_Seg_1.c ****                                        | (((uint32)(mode  << LCD_Seg_1_MODE_SHIFT)) & LCD_Seg_1_MOD
ARM GAS  C:\Users\Sarah\AppData\Local\Temp\ccBcpum9.s 			page 14


 260              		.loc 1 476 0
 261 0026 2B60     		str	r3, [r5]
 478:Generated_Source\PSoC4/LCD_Seg_1.c **** 
 479:Generated_Source\PSoC4/LCD_Seg_1.c ****         if (LCD_Seg_1_SPEED_LS == mode)
 262              		.loc 1 479 0
 263 0028 002C     		cmp	r4, #0
 264 002a 0FD1     		bne	.L13
 480:Generated_Source\PSoC4/LCD_Seg_1.c ****         {
 481:Generated_Source\PSoC4/LCD_Seg_1.c ****             /* Set sub-frame and dead time dividers */
 482:Generated_Source\PSoC4/LCD_Seg_1.c ****             LCD_Seg_1_DIVIDER_REG = (LCD_Seg_1_DIVIDER_REG & ((uint32)(~LCD_Seg_1_DIVIDER_MASK)))
 265              		.loc 1 482 0
 266 002c 134A     		ldr	r2, .L14+12
 267 002e 1368     		ldr	r3, [r2]
 483:Generated_Source\PSoC4/LCD_Seg_1.c ****                             | LCD_Seg_1_dividersLS[LCD_Seg_1_SUBFR_DIVS][contrast]
 268              		.loc 1 483 0
 269 0030 1349     		ldr	r1, .L14+16
 270 0032 031C     		mov	r3, r0
 271 0034 0A33     		add	r3, r3, #10
 272 0036 9B00     		lsl	r3, r3, #2
 273 0038 5C58     		ldr	r4, [r3, r1]
 274              	.LVL28:
 484:Generated_Source\PSoC4/LCD_Seg_1.c ****                             | ((uint32)((uint32)LCD_Seg_1_dividersLS[LCD_Seg_1_DEAD_DIVS][contrast]
 275              		.loc 1 484 0
 276 003a 8000     		lsl	r0, r0, #2
 277              	.LVL29:
 278 003c 4358     		ldr	r3, [r0, r1]
 279 003e 1B04     		lsl	r3, r3, #16
 280 0040 2343     		orr	r3, r4
 482:Generated_Source\PSoC4/LCD_Seg_1.c ****                             | LCD_Seg_1_dividersLS[LCD_Seg_1_SUBFR_DIVS][contrast]
 281              		.loc 1 482 0
 282 0042 1360     		str	r3, [r2]
 485:Generated_Source\PSoC4/LCD_Seg_1.c ****                                                 LCD_Seg_1_DEAD_DIV_MASK_SHIFT));
 486:Generated_Source\PSoC4/LCD_Seg_1.c **** 
 487:Generated_Source\PSoC4/LCD_Seg_1.c ****             LCD_Seg_1_modeState = LCD_Seg_1_SPEED_LS;
 283              		.loc 1 487 0
 284 0044 0022     		mov	r2, #0
 285 0046 0B4B     		ldr	r3, .L14+4
 286 0048 1A60     		str	r2, [r3]
 287 004a 10E0     		b	.L11
 288              	.LVL30:
 289              	.L13:
 488:Generated_Source\PSoC4/LCD_Seg_1.c ****         }
 489:Generated_Source\PSoC4/LCD_Seg_1.c ****         else /* (LCD_Seg_1_SPEED_HS == mode) */
 490:Generated_Source\PSoC4/LCD_Seg_1.c ****         {
 491:Generated_Source\PSoC4/LCD_Seg_1.c ****             /* Set sub-frame and dead time dividers */
 492:Generated_Source\PSoC4/LCD_Seg_1.c ****             LCD_Seg_1_DIVIDER_REG = (LCD_Seg_1_DIVIDER_REG & ((uint32)(~LCD_Seg_1_DIVIDER_MASK)))
 290              		.loc 1 492 0
 291 004c 0B4A     		ldr	r2, .L14+12
 292 004e 1368     		ldr	r3, [r2]
 493:Generated_Source\PSoC4/LCD_Seg_1.c ****                             | LCD_Seg_1_dividersHS[LCD_Seg_1_SUBFR_DIVS][contrast]
 293              		.loc 1 493 0
 294 0050 0B49     		ldr	r1, .L14+16
 295 0052 031C     		mov	r3, r0
 296 0054 0A33     		add	r3, r3, #10
 297 0056 9B00     		lsl	r3, r3, #2
 298 0058 CB18     		add	r3, r1, r3
 299 005a 1C6D     		ldr	r4, [r3, #80]
ARM GAS  C:\Users\Sarah\AppData\Local\Temp\ccBcpum9.s 			page 15


 300              	.LVL31:
 494:Generated_Source\PSoC4/LCD_Seg_1.c ****                             | ((uint32)((uint32)LCD_Seg_1_dividersHS[LCD_Seg_1_DEAD_DIVS][contrast]
 301              		.loc 1 494 0
 302 005c 8000     		lsl	r0, r0, #2
 303              	.LVL32:
 304 005e 0818     		add	r0, r1, r0
 305 0060 036D     		ldr	r3, [r0, #80]
 306 0062 1B04     		lsl	r3, r3, #16
 307 0064 2343     		orr	r3, r4
 492:Generated_Source\PSoC4/LCD_Seg_1.c ****                             | LCD_Seg_1_dividersHS[LCD_Seg_1_SUBFR_DIVS][contrast]
 308              		.loc 1 492 0
 309 0066 1360     		str	r3, [r2]
 495:Generated_Source\PSoC4/LCD_Seg_1.c ****                                                 LCD_Seg_1_DEAD_DIV_MASK_SHIFT));
 496:Generated_Source\PSoC4/LCD_Seg_1.c **** 
 497:Generated_Source\PSoC4/LCD_Seg_1.c ****             LCD_Seg_1_modeState = LCD_Seg_1_SPEED_HS;
 310              		.loc 1 497 0
 311 0068 0122     		mov	r2, #1
 312 006a 024B     		ldr	r3, .L14+4
 313 006c 1A60     		str	r2, [r3]
 314              	.L11:
 498:Generated_Source\PSoC4/LCD_Seg_1.c ****         }
 499:Generated_Source\PSoC4/LCD_Seg_1.c ****     }
 500:Generated_Source\PSoC4/LCD_Seg_1.c **** }
 315              		.loc 1 500 0
 316              		@ sp needed
 317 006e 38BD     		pop	{r3, r4, r5, pc}
 318              	.L15:
 319              		.align	2
 320              	.L14:
 321 0070 00000000 		.word	.LANCHOR1
 322 0074 00000000 		.word	.LANCHOR0
 323 0078 08002A40 		.word	1076494344
 324 007c 04002A40 		.word	1076494340
 325 0080 00000000 		.word	.LANCHOR2
 326              		.cfi_endproc
 327              	.LFE8:
 328              		.size	LCD_Seg_1_SetSpeedMode, .-LCD_Seg_1_SetSpeedMode
 329              		.section	.text.LCD_Seg_1_SetOperationMode,"ax",%progbits
 330              		.align	2
 331              		.global	LCD_Seg_1_SetOperationMode
 332              		.code	16
 333              		.thumb_func
 334              		.type	LCD_Seg_1_SetOperationMode, %function
 335              	LCD_Seg_1_SetOperationMode:
 336              	.LFB9:
 501:Generated_Source\PSoC4/LCD_Seg_1.c **** 
 502:Generated_Source\PSoC4/LCD_Seg_1.c **** 
 503:Generated_Source\PSoC4/LCD_Seg_1.c **** /*******************************************************************************
 504:Generated_Source\PSoC4/LCD_Seg_1.c **** * Function Name: LCD_Seg_1_SetOperationMode
 505:Generated_Source\PSoC4/LCD_Seg_1.c **** ********************************************************************************
 506:Generated_Source\PSoC4/LCD_Seg_1.c **** *
 507:Generated_Source\PSoC4/LCD_Seg_1.c **** * Summary:
 508:Generated_Source\PSoC4/LCD_Seg_1.c **** *  Sets PWM or Digital Correlation LCD operation mode.
 509:Generated_Source\PSoC4/LCD_Seg_1.c **** *
 510:Generated_Source\PSoC4/LCD_Seg_1.c **** * Parameters:
 511:Generated_Source\PSoC4/LCD_Seg_1.c **** *  mode : Sets the mode of the LCD operation:
 512:Generated_Source\PSoC4/LCD_Seg_1.c **** *    Define                         Description
ARM GAS  C:\Users\Sarah\AppData\Local\Temp\ccBcpum9.s 			page 16


 513:Generated_Source\PSoC4/LCD_Seg_1.c **** *     LCD_Seg_1_MODE_PWM      PWM operation mode.
 514:Generated_Source\PSoC4/LCD_Seg_1.c **** *     LCD_Seg_1_MODE_DIG_COR  Digital Correlation mode.
 515:Generated_Source\PSoC4/LCD_Seg_1.c **** *
 516:Generated_Source\PSoC4/LCD_Seg_1.c **** * Return:
 517:Generated_Source\PSoC4/LCD_Seg_1.c **** *  None.
 518:Generated_Source\PSoC4/LCD_Seg_1.c **** *
 519:Generated_Source\PSoC4/LCD_Seg_1.c **** *******************************************************************************/
 520:Generated_Source\PSoC4/LCD_Seg_1.c **** void LCD_Seg_1_SetOperationMode(uint32 mode)
 521:Generated_Source\PSoC4/LCD_Seg_1.c **** {
 337              		.loc 1 521 0
 338              		.cfi_startproc
 339              	.LVL33:
 340 0000 031C     		mov	r3, r0
 522:Generated_Source\PSoC4/LCD_Seg_1.c ****     LCD_Seg_1_CONTROL_REG = (LCD_Seg_1_CONTROL_REG & ((uint32)(~LCD_Seg_1_OP_MODE)))
 341              		.loc 1 522 0
 342 0002 0449     		ldr	r1, .L17
 343 0004 0A68     		ldr	r2, [r1]
 344 0006 1020     		mov	r0, #16
 345              	.LVL34:
 346 0008 8243     		bic	r2, r0
 523:Generated_Source\PSoC4/LCD_Seg_1.c ****                                    | (((uint32)(mode << LCD_Seg_1_OP_MODE_SHIFT)) & LCD_Seg_1_OP_MO
 347              		.loc 1 523 0
 348 000a 1B01     		lsl	r3, r3, #4
 349              	.LVL35:
 350 000c 1840     		and	r0, r3
 351 000e 1043     		orr	r0, r2
 522:Generated_Source\PSoC4/LCD_Seg_1.c ****     LCD_Seg_1_CONTROL_REG = (LCD_Seg_1_CONTROL_REG & ((uint32)(~LCD_Seg_1_OP_MODE)))
 352              		.loc 1 522 0
 353 0010 0860     		str	r0, [r1]
 524:Generated_Source\PSoC4/LCD_Seg_1.c **** }
 354              		.loc 1 524 0
 355              		@ sp needed
 356 0012 7047     		bx	lr
 357              	.L18:
 358              		.align	2
 359              	.L17:
 360 0014 08002A40 		.word	1076494344
 361              		.cfi_endproc
 362              	.LFE9:
 363              		.size	LCD_Seg_1_SetOperationMode, .-LCD_Seg_1_SetOperationMode
 364              		.section	.text.LCD_Seg_1_SetBiasType,"ax",%progbits
 365              		.align	2
 366              		.global	LCD_Seg_1_SetBiasType
 367              		.code	16
 368              		.thumb_func
 369              		.type	LCD_Seg_1_SetBiasType, %function
 370              	LCD_Seg_1_SetBiasType:
 371              	.LFB10:
 525:Generated_Source\PSoC4/LCD_Seg_1.c **** 
 526:Generated_Source\PSoC4/LCD_Seg_1.c **** 
 527:Generated_Source\PSoC4/LCD_Seg_1.c **** /*******************************************************************************
 528:Generated_Source\PSoC4/LCD_Seg_1.c **** * Function Name: LCD_Seg_1_SetBiasType
 529:Generated_Source\PSoC4/LCD_Seg_1.c **** ********************************************************************************
 530:Generated_Source\PSoC4/LCD_Seg_1.c **** *
 531:Generated_Source\PSoC4/LCD_Seg_1.c **** * Summary:
 532:Generated_Source\PSoC4/LCD_Seg_1.c **** *  Sets bias type for PWM operation mode.
 533:Generated_Source\PSoC4/LCD_Seg_1.c **** *
ARM GAS  C:\Users\Sarah\AppData\Local\Temp\ccBcpum9.s 			page 17


 534:Generated_Source\PSoC4/LCD_Seg_1.c **** * Parameters:
 535:Generated_Source\PSoC4/LCD_Seg_1.c **** *  bias : Sets the bias type for PWM operation mode:
 536:Generated_Source\PSoC4/LCD_Seg_1.c **** *    Define                         Description
 537:Generated_Source\PSoC4/LCD_Seg_1.c **** *     LCD_Seg_1_BIAS_1_2      1/2 Bias.
 538:Generated_Source\PSoC4/LCD_Seg_1.c **** *     LCD_Seg_1_BIAS_1_3      1/3 Bias.
 539:Generated_Source\PSoC4/LCD_Seg_1.c **** *     LCD_Seg_1_BIAS_1_4      1/4 Bias. Not supported in Low Speed mode.
 540:Generated_Source\PSoC4/LCD_Seg_1.c **** *     LCD_Seg_1_BIAS_1_5      1/5 Bias. Not supported in Low Speed mode.
 541:Generated_Source\PSoC4/LCD_Seg_1.c **** *
 542:Generated_Source\PSoC4/LCD_Seg_1.c **** * Return:
 543:Generated_Source\PSoC4/LCD_Seg_1.c **** *  None.
 544:Generated_Source\PSoC4/LCD_Seg_1.c **** *
 545:Generated_Source\PSoC4/LCD_Seg_1.c **** *******************************************************************************/
 546:Generated_Source\PSoC4/LCD_Seg_1.c **** void LCD_Seg_1_SetBiasType(uint32 bias)
 547:Generated_Source\PSoC4/LCD_Seg_1.c **** {
 372              		.loc 1 547 0
 373              		.cfi_startproc
 374              	.LVL36:
 375 0000 031C     		mov	r3, r0
 548:Generated_Source\PSoC4/LCD_Seg_1.c ****     LCD_Seg_1_CONTROL_REG = (LCD_Seg_1_CONTROL_REG & ((uint32)(~LCD_Seg_1_BIAS_MASK)))
 376              		.loc 1 548 0
 377 0002 0449     		ldr	r1, .L20
 378 0004 0A68     		ldr	r2, [r1]
 379 0006 6020     		mov	r0, #96
 380              	.LVL37:
 381 0008 8243     		bic	r2, r0
 549:Generated_Source\PSoC4/LCD_Seg_1.c ****                                  | (((uint32)(bias << LCD_Seg_1_BIAS_MASK_SHIFT)) & LCD_Seg_1_BIAS_
 382              		.loc 1 549 0
 383 000a 5B01     		lsl	r3, r3, #5
 384              	.LVL38:
 385 000c 1840     		and	r0, r3
 386 000e 1043     		orr	r0, r2
 548:Generated_Source\PSoC4/LCD_Seg_1.c ****     LCD_Seg_1_CONTROL_REG = (LCD_Seg_1_CONTROL_REG & ((uint32)(~LCD_Seg_1_BIAS_MASK)))
 387              		.loc 1 548 0
 388 0010 0860     		str	r0, [r1]
 550:Generated_Source\PSoC4/LCD_Seg_1.c **** }
 389              		.loc 1 550 0
 390              		@ sp needed
 391 0012 7047     		bx	lr
 392              	.L21:
 393              		.align	2
 394              	.L20:
 395 0014 08002A40 		.word	1076494344
 396              		.cfi_endproc
 397              	.LFE10:
 398              		.size	LCD_Seg_1_SetBiasType, .-LCD_Seg_1_SetBiasType
 399              		.section	.text.LCD_Seg_1_SetWaveformType,"ax",%progbits
 400              		.align	2
 401              		.global	LCD_Seg_1_SetWaveformType
 402              		.code	16
 403              		.thumb_func
 404              		.type	LCD_Seg_1_SetWaveformType, %function
 405              	LCD_Seg_1_SetWaveformType:
 406              	.LFB11:
 551:Generated_Source\PSoC4/LCD_Seg_1.c **** 
 552:Generated_Source\PSoC4/LCD_Seg_1.c **** 
 553:Generated_Source\PSoC4/LCD_Seg_1.c **** /*******************************************************************************
 554:Generated_Source\PSoC4/LCD_Seg_1.c **** * Function Name: LCD_Seg_1_SetWaveformType
ARM GAS  C:\Users\Sarah\AppData\Local\Temp\ccBcpum9.s 			page 18


 555:Generated_Source\PSoC4/LCD_Seg_1.c **** ********************************************************************************
 556:Generated_Source\PSoC4/LCD_Seg_1.c **** *
 557:Generated_Source\PSoC4/LCD_Seg_1.c **** * Summary:
 558:Generated_Source\PSoC4/LCD_Seg_1.c **** *  Sets the LCD driving Waveform Type.
 559:Generated_Source\PSoC4/LCD_Seg_1.c **** *
 560:Generated_Source\PSoC4/LCD_Seg_1.c **** * Parameters:
 561:Generated_Source\PSoC4/LCD_Seg_1.c **** *  type : Sets the Waveform Type:
 562:Generated_Source\PSoC4/LCD_Seg_1.c **** *    Define                         Description
 563:Generated_Source\PSoC4/LCD_Seg_1.c **** *     LCD_Seg_1_TYPE_A        Waveform type A.
 564:Generated_Source\PSoC4/LCD_Seg_1.c **** *     LCD_Seg_1_TYPE_B        Waveform type B.
 565:Generated_Source\PSoC4/LCD_Seg_1.c **** *
 566:Generated_Source\PSoC4/LCD_Seg_1.c **** * Return:
 567:Generated_Source\PSoC4/LCD_Seg_1.c **** *  None.
 568:Generated_Source\PSoC4/LCD_Seg_1.c **** *
 569:Generated_Source\PSoC4/LCD_Seg_1.c **** *******************************************************************************/
 570:Generated_Source\PSoC4/LCD_Seg_1.c **** void LCD_Seg_1_SetWaveformType(uint32 type)
 571:Generated_Source\PSoC4/LCD_Seg_1.c **** {
 407              		.loc 1 571 0
 408              		.cfi_startproc
 409              	.LVL39:
 410 0000 031C     		mov	r3, r0
 572:Generated_Source\PSoC4/LCD_Seg_1.c ****     LCD_Seg_1_CONTROL_REG = (LCD_Seg_1_CONTROL_REG & ((uint32)(~LCD_Seg_1_TYPE)))
 411              		.loc 1 572 0
 412 0002 0449     		ldr	r1, .L23
 413 0004 0A68     		ldr	r2, [r1]
 414 0006 0820     		mov	r0, #8
 415              	.LVL40:
 416 0008 8243     		bic	r2, r0
 573:Generated_Source\PSoC4/LCD_Seg_1.c ****                                    | (((uint32)(type << LCD_Seg_1_TYPE_SHIFT)) & LCD_Seg_1_TYPE);
 417              		.loc 1 573 0
 418 000a DB00     		lsl	r3, r3, #3
 419              	.LVL41:
 420 000c 1840     		and	r0, r3
 421 000e 1043     		orr	r0, r2
 572:Generated_Source\PSoC4/LCD_Seg_1.c ****     LCD_Seg_1_CONTROL_REG = (LCD_Seg_1_CONTROL_REG & ((uint32)(~LCD_Seg_1_TYPE)))
 422              		.loc 1 572 0
 423 0010 0860     		str	r0, [r1]
 574:Generated_Source\PSoC4/LCD_Seg_1.c **** }
 424              		.loc 1 574 0
 425              		@ sp needed
 426 0012 7047     		bx	lr
 427              	.L24:
 428              		.align	2
 429              	.L23:
 430 0014 08002A40 		.word	1076494344
 431              		.cfi_endproc
 432              	.LFE11:
 433              		.size	LCD_Seg_1_SetWaveformType, .-LCD_Seg_1_SetWaveformType
 434              		.section	.text.LCD_Seg_1_SetContrast,"ax",%progbits
 435              		.align	2
 436              		.global	LCD_Seg_1_SetContrast
 437              		.code	16
 438              		.thumb_func
 439              		.type	LCD_Seg_1_SetContrast, %function
 440              	LCD_Seg_1_SetContrast:
 441              	.LFB12:
 575:Generated_Source\PSoC4/LCD_Seg_1.c **** 
ARM GAS  C:\Users\Sarah\AppData\Local\Temp\ccBcpum9.s 			page 19


 576:Generated_Source\PSoC4/LCD_Seg_1.c **** 
 577:Generated_Source\PSoC4/LCD_Seg_1.c **** /*******************************************************************************
 578:Generated_Source\PSoC4/LCD_Seg_1.c **** * Function Name: LCD_Seg_1_SetContrast
 579:Generated_Source\PSoC4/LCD_Seg_1.c **** ********************************************************************************
 580:Generated_Source\PSoC4/LCD_Seg_1.c **** *
 581:Generated_Source\PSoC4/LCD_Seg_1.c **** * Summary:
 582:Generated_Source\PSoC4/LCD_Seg_1.c **** *  Sets the contrast control using "Dead Period" digital modulation.
 583:Generated_Source\PSoC4/LCD_Seg_1.c **** *
 584:Generated_Source\PSoC4/LCD_Seg_1.c **** * Parameters:
 585:Generated_Source\PSoC4/LCD_Seg_1.c **** *  contrast : Sets the contrast for the LCD glass in percentage. Valid range
 586:Generated_Source\PSoC4/LCD_Seg_1.c **** *             from 10% to 100% in 10% increments. Valid range can be restricted
 587:Generated_Source\PSoC4/LCD_Seg_1.c **** *             because of dividers size (for LS mode 8 bit and for HS mode 16
 588:Generated_Source\PSoC4/LCD_Seg_1.c **** *             bit). For greater frequencies, certain ratios between contrast and
 589:Generated_Source\PSoC4/LCD_Seg_1.c **** *             frame rate can not be achieved.
 590:Generated_Source\PSoC4/LCD_Seg_1.c **** *
 591:Generated_Source\PSoC4/LCD_Seg_1.c **** * Return:
 592:Generated_Source\PSoC4/LCD_Seg_1.c **** *  Pass or fail based on a validity check of the contrast value.
 593:Generated_Source\PSoC4/LCD_Seg_1.c **** *    Define                     Description
 594:Generated_Source\PSoC4/LCD_Seg_1.c **** *     CYRET_SUCCESS              Function completed successfully.
 595:Generated_Source\PSoC4/LCD_Seg_1.c **** *     CYRET_BAD_PARAM            Evaluation of contrast parameter is failed.
 596:Generated_Source\PSoC4/LCD_Seg_1.c **** *
 597:Generated_Source\PSoC4/LCD_Seg_1.c **** * Global variables:
 598:Generated_Source\PSoC4/LCD_Seg_1.c **** *  LCD_Seg_1_modeState - holds the current LCD speed mode (LS/HS).
 599:Generated_Source\PSoC4/LCD_Seg_1.c **** *  LCD_Seg_1_contrastState - holds the current LCD contrast.
 600:Generated_Source\PSoC4/LCD_Seg_1.c **** *
 601:Generated_Source\PSoC4/LCD_Seg_1.c **** *******************************************************************************/
 602:Generated_Source\PSoC4/LCD_Seg_1.c **** uint32 LCD_Seg_1_SetContrast(uint32 contrast)
 603:Generated_Source\PSoC4/LCD_Seg_1.c **** {
 442              		.loc 1 603 0
 443              		.cfi_startproc
 444              	.LVL42:
 445 0000 10B5     		push	{r4, lr}
 446              		.cfi_def_cfa_offset 8
 447              		.cfi_offset 4, -8
 448              		.cfi_offset 14, -4
 449              	.LVL43:
 604:Generated_Source\PSoC4/LCD_Seg_1.c ****     uint32 status = CYRET_BAD_PARAM;
 605:Generated_Source\PSoC4/LCD_Seg_1.c ****     uint32 contrastIndex;
 606:Generated_Source\PSoC4/LCD_Seg_1.c **** 
 607:Generated_Source\PSoC4/LCD_Seg_1.c ****     if ((LCD_Seg_1_MIN_CONTRAST <= contrast) && (contrast <= LCD_Seg_1_MAX_CONTRAST))
 450              		.loc 1 607 0
 451 0002 031C     		mov	r3, r0
 452 0004 0A3B     		sub	r3, r3, #10
 453 0006 5A2B     		cmp	r3, #90
 454 0008 35D8     		bhi	.L29
 455 000a 041C     		mov	r4, r0
 608:Generated_Source\PSoC4/LCD_Seg_1.c ****     {
 609:Generated_Source\PSoC4/LCD_Seg_1.c ****         contrastIndex = (contrast / 10u) - 1u;
 456              		.loc 1 609 0
 457 000c 0A21     		mov	r1, #10
 458 000e FFF7FEFF 		bl	__aeabi_uidiv
 459              	.LVL44:
 460 0012 431E     		sub	r3, r0, #1
 461              	.LVL45:
 610:Generated_Source\PSoC4/LCD_Seg_1.c ****         if (LCD_Seg_1_SPEED_LS == LCD_Seg_1_modeState)
 462              		.loc 1 610 0
 463 0014 194A     		ldr	r2, .L32
ARM GAS  C:\Users\Sarah\AppData\Local\Temp\ccBcpum9.s 			page 20


 464 0016 1268     		ldr	r2, [r2]
 465 0018 002A     		cmp	r2, #0
 466 001a 11D1     		bne	.L27
 611:Generated_Source\PSoC4/LCD_Seg_1.c ****         {
 612:Generated_Source\PSoC4/LCD_Seg_1.c ****             if (LCD_Seg_1_dividersLS[LCD_Seg_1_DEAD_DIVS][contrastIndex] !=
 467              		.loc 1 612 0
 468 001c 1849     		ldr	r1, .L32+4
 469 001e 9A00     		lsl	r2, r3, #2
 470 0020 5258     		ldr	r2, [r2, r1]
 613:Generated_Source\PSoC4/LCD_Seg_1.c ****                 LCD_Seg_1_dividersLS[LCD_Seg_1_DEAD_DIVS][contrastIndex + 1u])
 471              		.loc 1 613 0
 472 0022 8000     		lsl	r0, r0, #2
 473 0024 4158     		ldr	r1, [r0, r1]
 612:Generated_Source\PSoC4/LCD_Seg_1.c ****                 LCD_Seg_1_dividersLS[LCD_Seg_1_DEAD_DIVS][contrastIndex + 1u])
 474              		.loc 1 612 0
 475 0026 8A42     		cmp	r2, r1
 476 0028 1FD0     		beq	.L30
 614:Generated_Source\PSoC4/LCD_Seg_1.c ****             {
 615:Generated_Source\PSoC4/LCD_Seg_1.c ****                 /* Set sub-frame and dead time dividers */
 616:Generated_Source\PSoC4/LCD_Seg_1.c ****                 LCD_Seg_1_DIVIDER_REG = (LCD_Seg_1_DIVIDER_REG
 477              		.loc 1 616 0
 478 002a 1649     		ldr	r1, .L32+8
 479 002c 0868     		ldr	r0, [r1]
 617:Generated_Source\PSoC4/LCD_Seg_1.c ****                         & ((uint32)(~LCD_Seg_1_DIVIDER_MASK)))
 618:Generated_Source\PSoC4/LCD_Seg_1.c ****                         | LCD_Seg_1_dividersLS[LCD_Seg_1_SUBFR_DIVS][contrastIndex]
 480              		.loc 1 618 0
 481 002e 0A33     		add	r3, r3, #10
 482              	.LVL46:
 483 0030 9B00     		lsl	r3, r3, #2
 484              	.LVL47:
 485 0032 1348     		ldr	r0, .L32+4
 486 0034 1B58     		ldr	r3, [r3, r0]
 619:Generated_Source\PSoC4/LCD_Seg_1.c ****                         | ((uint32)((uint32)LCD_Seg_1_dividersLS[LCD_Seg_1_DEAD_DIVS][contrastIndex
 487              		.loc 1 619 0
 488 0036 1204     		lsl	r2, r2, #16
 489 0038 1A43     		orr	r2, r3
 616:Generated_Source\PSoC4/LCD_Seg_1.c ****                         & ((uint32)(~LCD_Seg_1_DIVIDER_MASK)))
 490              		.loc 1 616 0
 491 003a 0A60     		str	r2, [r1]
 492              	.LVL48:
 620:Generated_Source\PSoC4/LCD_Seg_1.c ****                                             LCD_Seg_1_DEAD_DIV_MASK_SHIFT));
 621:Generated_Source\PSoC4/LCD_Seg_1.c ****                 status = CYRET_SUCCESS;
 493              		.loc 1 621 0
 494 003c 0020     		mov	r0, #0
 495 003e 17E0     		b	.L28
 496              	.LVL49:
 497              	.L27:
 622:Generated_Source\PSoC4/LCD_Seg_1.c ****             }
 623:Generated_Source\PSoC4/LCD_Seg_1.c ****         }
 624:Generated_Source\PSoC4/LCD_Seg_1.c ****         else /* (LCD_Seg_1_SPEED_HS == LCD_Seg_1_modeState) */
 625:Generated_Source\PSoC4/LCD_Seg_1.c ****         {
 626:Generated_Source\PSoC4/LCD_Seg_1.c ****             if (LCD_Seg_1_dividersHS[LCD_Seg_1_DEAD_DIVS][contrastIndex] !=
 498              		.loc 1 626 0
 499 0040 0F49     		ldr	r1, .L32+4
 500 0042 9A00     		lsl	r2, r3, #2
 501 0044 8A18     		add	r2, r1, r2
 502 0046 126D     		ldr	r2, [r2, #80]
ARM GAS  C:\Users\Sarah\AppData\Local\Temp\ccBcpum9.s 			page 21


 627:Generated_Source\PSoC4/LCD_Seg_1.c ****                 LCD_Seg_1_dividersHS[LCD_Seg_1_DEAD_DIVS][contrastIndex + 1u])
 503              		.loc 1 627 0
 504 0048 8000     		lsl	r0, r0, #2
 505 004a 0818     		add	r0, r1, r0
 506 004c 016D     		ldr	r1, [r0, #80]
 626:Generated_Source\PSoC4/LCD_Seg_1.c ****                 LCD_Seg_1_dividersHS[LCD_Seg_1_DEAD_DIVS][contrastIndex + 1u])
 507              		.loc 1 626 0
 508 004e 8A42     		cmp	r2, r1
 509 0050 0DD0     		beq	.L31
 628:Generated_Source\PSoC4/LCD_Seg_1.c ****             {
 629:Generated_Source\PSoC4/LCD_Seg_1.c ****                 /* Set sub-frame and dead time dividers */
 630:Generated_Source\PSoC4/LCD_Seg_1.c ****                 LCD_Seg_1_DIVIDER_REG = (LCD_Seg_1_DIVIDER_REG
 510              		.loc 1 630 0
 511 0052 0C49     		ldr	r1, .L32+8
 512 0054 0868     		ldr	r0, [r1]
 631:Generated_Source\PSoC4/LCD_Seg_1.c ****                         & ((uint32)(~LCD_Seg_1_DIVIDER_MASK)))
 632:Generated_Source\PSoC4/LCD_Seg_1.c ****                         | LCD_Seg_1_dividersHS[LCD_Seg_1_SUBFR_DIVS][contrastIndex]
 513              		.loc 1 632 0
 514 0056 0A33     		add	r3, r3, #10
 515              	.LVL50:
 516 0058 9B00     		lsl	r3, r3, #2
 517              	.LVL51:
 518 005a 0948     		ldr	r0, .L32+4
 519 005c C318     		add	r3, r0, r3
 520 005e 1B6D     		ldr	r3, [r3, #80]
 633:Generated_Source\PSoC4/LCD_Seg_1.c ****                         | ((uint32)((uint32)LCD_Seg_1_dividersHS[LCD_Seg_1_DEAD_DIVS][contrastIndex
 521              		.loc 1 633 0
 522 0060 1204     		lsl	r2, r2, #16
 523 0062 1A43     		orr	r2, r3
 630:Generated_Source\PSoC4/LCD_Seg_1.c ****                         & ((uint32)(~LCD_Seg_1_DIVIDER_MASK)))
 524              		.loc 1 630 0
 525 0064 0A60     		str	r2, [r1]
 526              	.LVL52:
 634:Generated_Source\PSoC4/LCD_Seg_1.c ****                                             LCD_Seg_1_DEAD_DIV_MASK_SHIFT));
 635:Generated_Source\PSoC4/LCD_Seg_1.c ****                 status = CYRET_SUCCESS;
 527              		.loc 1 635 0
 528 0066 0020     		mov	r0, #0
 529 0068 02E0     		b	.L28
 530              	.LVL53:
 531              	.L30:
 604:Generated_Source\PSoC4/LCD_Seg_1.c ****     uint32 contrastIndex;
 532              		.loc 1 604 0
 533 006a 0120     		mov	r0, #1
 534 006c 00E0     		b	.L28
 535              	.L31:
 536 006e 0120     		mov	r0, #1
 537              	.LVL54:
 538              	.L28:
 636:Generated_Source\PSoC4/LCD_Seg_1.c ****             }
 637:Generated_Source\PSoC4/LCD_Seg_1.c ****         }
 638:Generated_Source\PSoC4/LCD_Seg_1.c **** 
 639:Generated_Source\PSoC4/LCD_Seg_1.c ****         LCD_Seg_1_contrastState = contrast; /* Saves new contrast value */
 539              		.loc 1 639 0
 540 0070 054B     		ldr	r3, .L32+12
 541 0072 1C60     		str	r4, [r3]
 542 0074 00E0     		b	.L26
 543              	.LVL55:
ARM GAS  C:\Users\Sarah\AppData\Local\Temp\ccBcpum9.s 			page 22


 544              	.L29:
 604:Generated_Source\PSoC4/LCD_Seg_1.c ****     uint32 contrastIndex;
 545              		.loc 1 604 0
 546 0076 0120     		mov	r0, #1
 547              	.LVL56:
 548              	.L26:
 640:Generated_Source\PSoC4/LCD_Seg_1.c ****     }
 641:Generated_Source\PSoC4/LCD_Seg_1.c **** 
 642:Generated_Source\PSoC4/LCD_Seg_1.c ****     return(status);
 643:Generated_Source\PSoC4/LCD_Seg_1.c **** }
 549              		.loc 1 643 0
 550              		@ sp needed
 551 0078 10BD     		pop	{r4, pc}
 552              	.L33:
 553 007a C046     		.align	2
 554              	.L32:
 555 007c 00000000 		.word	.LANCHOR0
 556 0080 00000000 		.word	.LANCHOR2
 557 0084 04002A40 		.word	1076494340
 558 0088 00000000 		.word	.LANCHOR1
 559              		.cfi_endproc
 560              	.LFE12:
 561              		.size	LCD_Seg_1_SetContrast, .-LCD_Seg_1_SetContrast
 562              		.section	.text.LCD_Seg_1_WriteInvertState,"ax",%progbits
 563              		.align	2
 564              		.global	LCD_Seg_1_WriteInvertState
 565              		.code	16
 566              		.thumb_func
 567              		.type	LCD_Seg_1_WriteInvertState, %function
 568              	LCD_Seg_1_WriteInvertState:
 569              	.LFB13:
 644:Generated_Source\PSoC4/LCD_Seg_1.c **** 
 645:Generated_Source\PSoC4/LCD_Seg_1.c **** 
 646:Generated_Source\PSoC4/LCD_Seg_1.c **** /*******************************************************************************
 647:Generated_Source\PSoC4/LCD_Seg_1.c **** * Function Name: LCD_Seg_1_WriteInvertState
 648:Generated_Source\PSoC4/LCD_Seg_1.c **** ********************************************************************************
 649:Generated_Source\PSoC4/LCD_Seg_1.c **** *
 650:Generated_Source\PSoC4/LCD_Seg_1.c **** * Summary:
 651:Generated_Source\PSoC4/LCD_Seg_1.c **** *  Inverts the display based on an input parameter.
 652:Generated_Source\PSoC4/LCD_Seg_1.c **** *
 653:Generated_Source\PSoC4/LCD_Seg_1.c **** * Parameters:
 654:Generated_Source\PSoC4/LCD_Seg_1.c **** *  invertState : Sets the invert state of the display:
 655:Generated_Source\PSoC4/LCD_Seg_1.c **** *    Define                            Description
 656:Generated_Source\PSoC4/LCD_Seg_1.c **** *     LCD_Seg_1_STATE_NORMAL     Normal non inverted display.
 657:Generated_Source\PSoC4/LCD_Seg_1.c **** *     LCD_Seg_1_STATE_INVERTED   Inverted display.
 658:Generated_Source\PSoC4/LCD_Seg_1.c **** *
 659:Generated_Source\PSoC4/LCD_Seg_1.c **** * Return:
 660:Generated_Source\PSoC4/LCD_Seg_1.c **** *  None.
 661:Generated_Source\PSoC4/LCD_Seg_1.c **** *
 662:Generated_Source\PSoC4/LCD_Seg_1.c **** * Global variables:
 663:Generated_Source\PSoC4/LCD_Seg_1.c **** *  LCD_Seg_1_invertState - holds the current LCD state (Inverted display
 664:Generated_Source\PSoC4/LCD_Seg_1.c **** *                                 or Normal (non inverted) display).
 665:Generated_Source\PSoC4/LCD_Seg_1.c **** *  LCD_Seg_1_commons[] - holds the pixel locations for common lines.
 666:Generated_Source\PSoC4/LCD_Seg_1.c **** *
 667:Generated_Source\PSoC4/LCD_Seg_1.c **** *******************************************************************************/
 668:Generated_Source\PSoC4/LCD_Seg_1.c **** void LCD_Seg_1_WriteInvertState(uint32 invertState)
 669:Generated_Source\PSoC4/LCD_Seg_1.c **** {
ARM GAS  C:\Users\Sarah\AppData\Local\Temp\ccBcpum9.s 			page 23


 570              		.loc 1 669 0
 571              		.cfi_startproc
 572              	.LVL57:
 573 0000 70B5     		push	{r4, r5, r6, lr}
 574              		.cfi_def_cfa_offset 16
 575              		.cfi_offset 4, -16
 576              		.cfi_offset 5, -12
 577              		.cfi_offset 6, -8
 578              		.cfi_offset 14, -4
 670:Generated_Source\PSoC4/LCD_Seg_1.c ****     uint32 i;
 671:Generated_Source\PSoC4/LCD_Seg_1.c ****     uint32 j;
 672:Generated_Source\PSoC4/LCD_Seg_1.c **** 
 673:Generated_Source\PSoC4/LCD_Seg_1.c ****     if (invertState != LCD_Seg_1_invertState)
 579              		.loc 1 673 0
 580 0002 1D4B     		ldr	r3, .L40
 581 0004 5B68     		ldr	r3, [r3, #4]
 582 0006 9842     		cmp	r0, r3
 583 0008 34D0     		beq	.L34
 584 000a 061C     		mov	r6, r0
 674:Generated_Source\PSoC4/LCD_Seg_1.c ****     {
 675:Generated_Source\PSoC4/LCD_Seg_1.c ****         /* Invert entire frame buffer */
 676:Generated_Source\PSoC4/LCD_Seg_1.c ****         LCD_Seg_1_DATA0_REG = (uint32)(~LCD_Seg_1_DATA0_REG);
 585              		.loc 1 676 0
 586 000c 1B4A     		ldr	r2, .L40+4
 587 000e 1368     		ldr	r3, [r2]
 588 0010 DB43     		mvn	r3, r3
 589 0012 1360     		str	r3, [r2]
 677:Generated_Source\PSoC4/LCD_Seg_1.c ****         LCD_Seg_1_DATA1_REG = (uint32)(~LCD_Seg_1_DATA1_REG);
 590              		.loc 1 677 0
 591 0014 1A4A     		ldr	r2, .L40+8
 592 0016 1368     		ldr	r3, [r2]
 593 0018 DB43     		mvn	r3, r3
 594 001a 1360     		str	r3, [r2]
 678:Generated_Source\PSoC4/LCD_Seg_1.c ****         LCD_Seg_1_DATA2_REG = (uint32)(~LCD_Seg_1_DATA2_REG);
 595              		.loc 1 678 0
 596 001c 194A     		ldr	r2, .L40+12
 597 001e 1368     		ldr	r3, [r2]
 598 0020 DB43     		mvn	r3, r3
 599 0022 1360     		str	r3, [r2]
 679:Generated_Source\PSoC4/LCD_Seg_1.c ****         LCD_Seg_1_DATA3_REG = (uint32)(~LCD_Seg_1_DATA3_REG);
 600              		.loc 1 679 0
 601 0024 184A     		ldr	r2, .L40+16
 602 0026 1368     		ldr	r3, [r2]
 603 0028 DB43     		mvn	r3, r3
 604 002a 1360     		str	r3, [r2]
 680:Generated_Source\PSoC4/LCD_Seg_1.c ****         LCD_Seg_1_DATA4_REG = (uint32)(~LCD_Seg_1_DATA4_REG);
 605              		.loc 1 680 0
 606 002c 174A     		ldr	r2, .L40+20
 607 002e 1368     		ldr	r3, [r2]
 608 0030 DB43     		mvn	r3, r3
 609 0032 1360     		str	r3, [r2]
 610              	.LVL58:
 681:Generated_Source\PSoC4/LCD_Seg_1.c **** 
 682:Generated_Source\PSoC4/LCD_Seg_1.c ****         /* Reinitialize the commons */
 683:Generated_Source\PSoC4/LCD_Seg_1.c ****         for (i = 0u; i < LCD_Seg_1_COM_NUM; i++)
 611              		.loc 1 683 0
 612 0034 0025     		mov	r5, #0
ARM GAS  C:\Users\Sarah\AppData\Local\Temp\ccBcpum9.s 			page 24


 613 0036 19E0     		b	.L36
 614              	.LVL59:
 615              	.L37:
 684:Generated_Source\PSoC4/LCD_Seg_1.c ****         {
 685:Generated_Source\PSoC4/LCD_Seg_1.c ****             /* Clear commons pin data after frame buffer inverting */
 686:Generated_Source\PSoC4/LCD_Seg_1.c ****             for (j = 0u; j < LCD_Seg_1_COM_NUM; j++)
 687:Generated_Source\PSoC4/LCD_Seg_1.c ****             {
 688:Generated_Source\PSoC4/LCD_Seg_1.c ****                 LCD_Seg_1_WriteFrameBuffer(LCD_Seg_1_DATA0_PTR,
 689:Generated_Source\PSoC4/LCD_Seg_1.c ****                 ((LCD_Seg_1_commons[i] & ((uint32)(~LCD_Seg_1_ROW_MASK))) |
 616              		.loc 1 689 0 discriminator 3
 617 0038 AB00     		lsl	r3, r5, #2
 618 003a 154A     		ldr	r2, .L40+24
 619 003c D318     		add	r3, r2, r3
 620 003e 196A     		ldr	r1, [r3, #32]
 621 0040 144B     		ldr	r3, .L40+28
 622 0042 1940     		and	r1, r3
 690:Generated_Source\PSoC4/LCD_Seg_1.c ****                 ((uint32)(j << LCD_Seg_1_ROW_SHIFT))), LCD_Seg_1_PIXEL_STATE_OFF);
 623              		.loc 1 690 0 discriminator 3
 624 0044 2304     		lsl	r3, r4, #16
 688:Generated_Source\PSoC4/LCD_Seg_1.c ****                 ((LCD_Seg_1_commons[i] & ((uint32)(~LCD_Seg_1_ROW_MASK))) |
 625              		.loc 1 688 0 discriminator 3
 626 0046 1943     		orr	r1, r3
 627 0048 0C48     		ldr	r0, .L40+4
 628 004a 0022     		mov	r2, #0
 629 004c FFF7FEFF 		bl	LCD_Seg_1_WriteFrameBuffer
 630              	.LVL60:
 686:Generated_Source\PSoC4/LCD_Seg_1.c ****             {
 631              		.loc 1 686 0 discriminator 3
 632 0050 0134     		add	r4, r4, #1
 633              	.LVL61:
 634 0052 00E0     		b	.L38
 635              	.LVL62:
 636              	.L39:
 637 0054 0024     		mov	r4, #0
 638              	.L38:
 639              	.LVL63:
 686:Generated_Source\PSoC4/LCD_Seg_1.c ****             {
 640              		.loc 1 686 0 is_stmt 0 discriminator 1
 641 0056 012C     		cmp	r4, #1
 642 0058 EED9     		bls	.L37
 691:Generated_Source\PSoC4/LCD_Seg_1.c ****             }
 692:Generated_Source\PSoC4/LCD_Seg_1.c **** 
 693:Generated_Source\PSoC4/LCD_Seg_1.c ****             /* Set pin data for commons */
 694:Generated_Source\PSoC4/LCD_Seg_1.c ****             LCD_Seg_1_WriteFrameBuffer(LCD_Seg_1_DATA0_PTR, LCD_Seg_1_commons[i],
 643              		.loc 1 694 0 is_stmt 1 discriminator 2
 644 005a AB00     		lsl	r3, r5, #2
 645 005c 0C4A     		ldr	r2, .L40+24
 646 005e D318     		add	r3, r2, r3
 647 0060 196A     		ldr	r1, [r3, #32]
 648 0062 0648     		ldr	r0, .L40+4
 649 0064 0122     		mov	r2, #1
 650 0066 FFF7FEFF 		bl	LCD_Seg_1_WriteFrameBuffer
 651              	.LVL64:
 683:Generated_Source\PSoC4/LCD_Seg_1.c ****         {
 652              		.loc 1 683 0 discriminator 2
 653 006a 0135     		add	r5, r5, #1
 654              	.LVL65:
ARM GAS  C:\Users\Sarah\AppData\Local\Temp\ccBcpum9.s 			page 25


 655              	.L36:
 683:Generated_Source\PSoC4/LCD_Seg_1.c ****         {
 656              		.loc 1 683 0 is_stmt 0 discriminator 1
 657 006c 012D     		cmp	r5, #1
 658 006e F1D9     		bls	.L39
 695:Generated_Source\PSoC4/LCD_Seg_1.c ****                                               LCD_Seg_1_PIXEL_STATE_ON);
 696:Generated_Source\PSoC4/LCD_Seg_1.c ****         }
 697:Generated_Source\PSoC4/LCD_Seg_1.c **** 
 698:Generated_Source\PSoC4/LCD_Seg_1.c ****         LCD_Seg_1_invertState = invertState;
 659              		.loc 1 698 0 is_stmt 1
 660 0070 014B     		ldr	r3, .L40
 661 0072 5E60     		str	r6, [r3, #4]
 662              	.LVL66:
 663              	.L34:
 699:Generated_Source\PSoC4/LCD_Seg_1.c ****     }
 700:Generated_Source\PSoC4/LCD_Seg_1.c **** }
 664              		.loc 1 700 0
 665              		@ sp needed
 666 0074 70BD     		pop	{r4, r5, r6, pc}
 667              	.L41:
 668 0076 C046     		.align	2
 669              	.L40:
 670 0078 00000000 		.word	.LANCHOR0
 671 007c 00012A40 		.word	1076494592
 672 0080 04012A40 		.word	1076494596
 673 0084 08012A40 		.word	1076494600
 674 0088 0C012A40 		.word	1076494604
 675 008c 10012A40 		.word	1076494608
 676 0090 80000000 		.word	.LANCHOR3
 677 0094 FFFF00FF 		.word	-16711681
 678              		.cfi_endproc
 679              	.LFE13:
 680              		.size	LCD_Seg_1_WriteInvertState, .-LCD_Seg_1_WriteInvertState
 681              		.section	.text.LCD_Seg_1_ReadInvertState,"ax",%progbits
 682              		.align	2
 683              		.global	LCD_Seg_1_ReadInvertState
 684              		.code	16
 685              		.thumb_func
 686              		.type	LCD_Seg_1_ReadInvertState, %function
 687              	LCD_Seg_1_ReadInvertState:
 688              	.LFB14:
 701:Generated_Source\PSoC4/LCD_Seg_1.c **** 
 702:Generated_Source\PSoC4/LCD_Seg_1.c **** 
 703:Generated_Source\PSoC4/LCD_Seg_1.c **** /*******************************************************************************
 704:Generated_Source\PSoC4/LCD_Seg_1.c **** * Function Name: LCD_Seg_1_ReadInvertState
 705:Generated_Source\PSoC4/LCD_Seg_1.c **** ********************************************************************************
 706:Generated_Source\PSoC4/LCD_Seg_1.c **** *
 707:Generated_Source\PSoC4/LCD_Seg_1.c **** * Summary:
 708:Generated_Source\PSoC4/LCD_Seg_1.c **** *  Returns the current value of the display invert state: normal or inverted.
 709:Generated_Source\PSoC4/LCD_Seg_1.c **** *
 710:Generated_Source\PSoC4/LCD_Seg_1.c **** * Parameters:
 711:Generated_Source\PSoC4/LCD_Seg_1.c **** *  None.
 712:Generated_Source\PSoC4/LCD_Seg_1.c **** *
 713:Generated_Source\PSoC4/LCD_Seg_1.c **** * Return:
 714:Generated_Source\PSoC4/LCD_Seg_1.c **** *  The invert state of the display:
 715:Generated_Source\PSoC4/LCD_Seg_1.c **** *    Define                            Description
 716:Generated_Source\PSoC4/LCD_Seg_1.c **** *     LCD_Seg_1_STATE_NORMAL     Normal non inverted display.
ARM GAS  C:\Users\Sarah\AppData\Local\Temp\ccBcpum9.s 			page 26


 717:Generated_Source\PSoC4/LCD_Seg_1.c **** *     LCD_Seg_1_STATE_INVERTED   Inverted display.
 718:Generated_Source\PSoC4/LCD_Seg_1.c **** *
 719:Generated_Source\PSoC4/LCD_Seg_1.c **** * Global variables:
 720:Generated_Source\PSoC4/LCD_Seg_1.c **** *  LCD_Seg_1_invertState - holds the current LCD state (Inverted display
 721:Generated_Source\PSoC4/LCD_Seg_1.c **** *                                 or Normal (non inverted) display).
 722:Generated_Source\PSoC4/LCD_Seg_1.c **** *
 723:Generated_Source\PSoC4/LCD_Seg_1.c **** *******************************************************************************/
 724:Generated_Source\PSoC4/LCD_Seg_1.c **** uint32 LCD_Seg_1_ReadInvertState(void)
 725:Generated_Source\PSoC4/LCD_Seg_1.c **** {
 689              		.loc 1 725 0
 690              		.cfi_startproc
 726:Generated_Source\PSoC4/LCD_Seg_1.c ****     return (LCD_Seg_1_invertState);
 691              		.loc 1 726 0
 692 0000 014B     		ldr	r3, .L43
 693 0002 5868     		ldr	r0, [r3, #4]
 727:Generated_Source\PSoC4/LCD_Seg_1.c **** }
 694              		.loc 1 727 0
 695              		@ sp needed
 696 0004 7047     		bx	lr
 697              	.L44:
 698 0006 C046     		.align	2
 699              	.L43:
 700 0008 00000000 		.word	.LANCHOR0
 701              		.cfi_endproc
 702              	.LFE14:
 703              		.size	LCD_Seg_1_ReadInvertState, .-LCD_Seg_1_ReadInvertState
 704              		.section	.text.LCD_Seg_1_ClearDisplay,"ax",%progbits
 705              		.align	2
 706              		.global	LCD_Seg_1_ClearDisplay
 707              		.code	16
 708              		.thumb_func
 709              		.type	LCD_Seg_1_ClearDisplay, %function
 710              	LCD_Seg_1_ClearDisplay:
 711              	.LFB15:
 728:Generated_Source\PSoC4/LCD_Seg_1.c **** 
 729:Generated_Source\PSoC4/LCD_Seg_1.c **** 
 730:Generated_Source\PSoC4/LCD_Seg_1.c **** /*******************************************************************************
 731:Generated_Source\PSoC4/LCD_Seg_1.c **** * Function Name: LCD_Seg_1_ClearDisplay
 732:Generated_Source\PSoC4/LCD_Seg_1.c **** ********************************************************************************
 733:Generated_Source\PSoC4/LCD_Seg_1.c **** *
 734:Generated_Source\PSoC4/LCD_Seg_1.c **** * Summary:
 735:Generated_Source\PSoC4/LCD_Seg_1.c **** *  This function clears the display and the associated frame buffer RAM.
 736:Generated_Source\PSoC4/LCD_Seg_1.c **** *
 737:Generated_Source\PSoC4/LCD_Seg_1.c **** * Parameters:
 738:Generated_Source\PSoC4/LCD_Seg_1.c **** *  None.
 739:Generated_Source\PSoC4/LCD_Seg_1.c **** *
 740:Generated_Source\PSoC4/LCD_Seg_1.c **** * Return:
 741:Generated_Source\PSoC4/LCD_Seg_1.c **** *  None.
 742:Generated_Source\PSoC4/LCD_Seg_1.c **** *
 743:Generated_Source\PSoC4/LCD_Seg_1.c **** * Global variables:
 744:Generated_Source\PSoC4/LCD_Seg_1.c **** *  LCD_Seg_1_commons[] - holds the pixel locations for common lines.
 745:Generated_Source\PSoC4/LCD_Seg_1.c **** *  LCD_Seg_1_invertState - holds the current LCD state (Inverted display
 746:Generated_Source\PSoC4/LCD_Seg_1.c **** *                                 or Normal (non inverted) display).
 747:Generated_Source\PSoC4/LCD_Seg_1.c **** *
 748:Generated_Source\PSoC4/LCD_Seg_1.c **** *******************************************************************************/
 749:Generated_Source\PSoC4/LCD_Seg_1.c **** void LCD_Seg_1_ClearDisplay(void)
 750:Generated_Source\PSoC4/LCD_Seg_1.c **** {
ARM GAS  C:\Users\Sarah\AppData\Local\Temp\ccBcpum9.s 			page 27


 712              		.loc 1 750 0
 713              		.cfi_startproc
 714 0000 10B5     		push	{r4, lr}
 715              		.cfi_def_cfa_offset 8
 716              		.cfi_offset 4, -8
 717              		.cfi_offset 14, -4
 751:Generated_Source\PSoC4/LCD_Seg_1.c ****     uint32 i;
 752:Generated_Source\PSoC4/LCD_Seg_1.c **** 
 753:Generated_Source\PSoC4/LCD_Seg_1.c ****     /* Clear entire frame buffer to all zeroes */
 754:Generated_Source\PSoC4/LCD_Seg_1.c ****     LCD_Seg_1_DATA0_REG = 0Lu;
 718              		.loc 1 754 0
 719 0002 0023     		mov	r3, #0
 720 0004 0F4A     		ldr	r2, .L49
 721 0006 1360     		str	r3, [r2]
 755:Generated_Source\PSoC4/LCD_Seg_1.c ****     LCD_Seg_1_DATA1_REG = 0Lu;
 722              		.loc 1 755 0
 723 0008 0F4A     		ldr	r2, .L49+4
 724 000a 1360     		str	r3, [r2]
 756:Generated_Source\PSoC4/LCD_Seg_1.c ****     LCD_Seg_1_DATA2_REG = 0Lu;
 725              		.loc 1 756 0
 726 000c 0F4A     		ldr	r2, .L49+8
 727 000e 1360     		str	r3, [r2]
 757:Generated_Source\PSoC4/LCD_Seg_1.c ****     LCD_Seg_1_DATA3_REG = 0Lu;
 728              		.loc 1 757 0
 729 0010 0F4A     		ldr	r2, .L49+12
 730 0012 1360     		str	r3, [r2]
 758:Generated_Source\PSoC4/LCD_Seg_1.c ****     LCD_Seg_1_DATA4_REG = 0Lu;
 731              		.loc 1 758 0
 732 0014 0F4A     		ldr	r2, .L49+16
 733 0016 1360     		str	r3, [r2]
 734              	.LVL67:
 759:Generated_Source\PSoC4/LCD_Seg_1.c **** 
 760:Generated_Source\PSoC4/LCD_Seg_1.c ****     /* Reinitialize the commons */
 761:Generated_Source\PSoC4/LCD_Seg_1.c ****     for (i = 0u; i < LCD_Seg_1_COM_NUM; i++)
 735              		.loc 1 761 0
 736 0018 0024     		mov	r4, #0
 737 001a 08E0     		b	.L46
 738              	.LVL68:
 739              	.L47:
 762:Generated_Source\PSoC4/LCD_Seg_1.c ****     {
 763:Generated_Source\PSoC4/LCD_Seg_1.c ****         LCD_Seg_1_WriteFrameBuffer(LCD_Seg_1_DATA0_PTR, LCD_Seg_1_commons[i],
 740              		.loc 1 763 0 discriminator 3
 741 001c A300     		lsl	r3, r4, #2
 742 001e 0E4A     		ldr	r2, .L49+20
 743 0020 D318     		add	r3, r2, r3
 744 0022 196A     		ldr	r1, [r3, #32]
 745 0024 0748     		ldr	r0, .L49
 746 0026 0122     		mov	r2, #1
 747 0028 FFF7FEFF 		bl	LCD_Seg_1_WriteFrameBuffer
 748              	.LVL69:
 761:Generated_Source\PSoC4/LCD_Seg_1.c ****     {
 749              		.loc 1 761 0 discriminator 3
 750 002c 0134     		add	r4, r4, #1
 751              	.LVL70:
 752              	.L46:
 761:Generated_Source\PSoC4/LCD_Seg_1.c ****     {
 753              		.loc 1 761 0 is_stmt 0 discriminator 1
ARM GAS  C:\Users\Sarah\AppData\Local\Temp\ccBcpum9.s 			page 28


 754 002e 012C     		cmp	r4, #1
 755 0030 F4D9     		bls	.L47
 764:Generated_Source\PSoC4/LCD_Seg_1.c ****                                           LCD_Seg_1_PIXEL_STATE_ON);
 765:Generated_Source\PSoC4/LCD_Seg_1.c ****     }
 766:Generated_Source\PSoC4/LCD_Seg_1.c **** 
 767:Generated_Source\PSoC4/LCD_Seg_1.c ****     /* If we were in inverted state before the display was cleared, then we must
 768:Generated_Source\PSoC4/LCD_Seg_1.c ****     * call WriteInvertState() as there is no separate API to clear inverted
 769:Generated_Source\PSoC4/LCD_Seg_1.c ****     * display.
 770:Generated_Source\PSoC4/LCD_Seg_1.c ****     */
 771:Generated_Source\PSoC4/LCD_Seg_1.c ****     if (LCD_Seg_1_invertState == LCD_Seg_1_STATE_INVERTED)
 756              		.loc 1 771 0 is_stmt 1
 757 0032 0A4B     		ldr	r3, .L49+24
 758 0034 5B68     		ldr	r3, [r3, #4]
 759 0036 012B     		cmp	r3, #1
 760 0038 02D1     		bne	.L45
 772:Generated_Source\PSoC4/LCD_Seg_1.c ****     {
 773:Generated_Source\PSoC4/LCD_Seg_1.c ****         LCD_Seg_1_WriteInvertState(LCD_Seg_1_STATE_INVERTED);
 761              		.loc 1 773 0
 762 003a 0120     		mov	r0, #1
 763 003c FFF7FEFF 		bl	LCD_Seg_1_WriteInvertState
 764              	.LVL71:
 765              	.L45:
 774:Generated_Source\PSoC4/LCD_Seg_1.c ****     }
 775:Generated_Source\PSoC4/LCD_Seg_1.c **** }
 766              		.loc 1 775 0
 767              		@ sp needed
 768              	.LVL72:
 769 0040 10BD     		pop	{r4, pc}
 770              	.L50:
 771 0042 C046     		.align	2
 772              	.L49:
 773 0044 00012A40 		.word	1076494592
 774 0048 04012A40 		.word	1076494596
 775 004c 08012A40 		.word	1076494600
 776 0050 0C012A40 		.word	1076494604
 777 0054 10012A40 		.word	1076494608
 778 0058 80000000 		.word	.LANCHOR3
 779 005c 00000000 		.word	.LANCHOR0
 780              		.cfi_endproc
 781              	.LFE15:
 782              		.size	LCD_Seg_1_ClearDisplay, .-LCD_Seg_1_ClearDisplay
 783              		.section	.text.LCD_Seg_1_Init,"ax",%progbits
 784              		.align	2
 785              		.global	LCD_Seg_1_Init
 786              		.code	16
 787              		.thumb_func
 788              		.type	LCD_Seg_1_Init, %function
 789              	LCD_Seg_1_Init:
 790              	.LFB4:
 346:Generated_Source\PSoC4/LCD_Seg_1.c ****     LCD_Seg_1_Stop();
 791              		.loc 1 346 0
 792              		.cfi_startproc
 793 0000 08B5     		push	{r3, lr}
 794              		.cfi_def_cfa_offset 8
 795              		.cfi_offset 3, -8
 796              		.cfi_offset 14, -4
 347:Generated_Source\PSoC4/LCD_Seg_1.c **** 
ARM GAS  C:\Users\Sarah\AppData\Local\Temp\ccBcpum9.s 			page 29


 797              		.loc 1 347 0
 798 0002 FFF7FEFF 		bl	LCD_Seg_1_Stop
 799              	.LVL73:
 350:Generated_Source\PSoC4/LCD_Seg_1.c **** 
 800              		.loc 1 350 0
 801 0006 044A     		ldr	r2, .L52
 802 0008 044B     		ldr	r3, .L52+4
 803 000a 1A60     		str	r2, [r3]
 353:Generated_Source\PSoC4/LCD_Seg_1.c **** 
 804              		.loc 1 353 0
 805 000c 1022     		mov	r2, #16
 806 000e 044B     		ldr	r3, .L52+8
 807 0010 1A60     		str	r2, [r3]
 358:Generated_Source\PSoC4/LCD_Seg_1.c **** }
 808              		.loc 1 358 0
 809 0012 FFF7FEFF 		bl	LCD_Seg_1_ClearDisplay
 810              	.LVL74:
 359:Generated_Source\PSoC4/LCD_Seg_1.c **** 
 811              		.loc 1 359 0
 812              		@ sp needed
 813 0016 08BD     		pop	{r3, pc}
 814              	.L53:
 815              		.align	2
 816              	.L52:
 817 0018 6A00D500 		.word	13959274
 818 001c 04002A40 		.word	1076494340
 819 0020 08002A40 		.word	1076494344
 820              		.cfi_endproc
 821              	.LFE4:
 822              		.size	LCD_Seg_1_Init, .-LCD_Seg_1_Init
 823              		.section	.text.LCD_Seg_1_Start,"ax",%progbits
 824              		.align	2
 825              		.global	LCD_Seg_1_Start
 826              		.code	16
 827              		.thumb_func
 828              		.type	LCD_Seg_1_Start, %function
 829              	LCD_Seg_1_Start:
 830              	.LFB6:
 417:Generated_Source\PSoC4/LCD_Seg_1.c ****     /* If not Initialized then initialize all required hardware and software */
 831              		.loc 1 417 0
 832              		.cfi_startproc
 833 0000 08B5     		push	{r3, lr}
 834              		.cfi_def_cfa_offset 8
 835              		.cfi_offset 3, -8
 836              		.cfi_offset 14, -4
 419:Generated_Source\PSoC4/LCD_Seg_1.c ****     {
 837              		.loc 1 419 0
 838 0002 064B     		ldr	r3, .L56
 839 0004 9B68     		ldr	r3, [r3, #8]
 840 0006 002B     		cmp	r3, #0
 841 0008 04D1     		bne	.L55
 421:Generated_Source\PSoC4/LCD_Seg_1.c ****         LCD_Seg_1_Init();
 842              		.loc 1 421 0
 843 000a 0122     		mov	r2, #1
 844 000c 034B     		ldr	r3, .L56
 845 000e 9A60     		str	r2, [r3, #8]
 422:Generated_Source\PSoC4/LCD_Seg_1.c ****     }
ARM GAS  C:\Users\Sarah\AppData\Local\Temp\ccBcpum9.s 			page 30


 846              		.loc 1 422 0
 847 0010 FFF7FEFF 		bl	LCD_Seg_1_Init
 848              	.LVL75:
 849              	.L55:
 425:Generated_Source\PSoC4/LCD_Seg_1.c **** }
 850              		.loc 1 425 0
 851 0014 FFF7FEFF 		bl	LCD_Seg_1_Enable
 852              	.LVL76:
 426:Generated_Source\PSoC4/LCD_Seg_1.c **** 
 853              		.loc 1 426 0
 854              		@ sp needed
 855 0018 08BD     		pop	{r3, pc}
 856              	.L57:
 857 001a C046     		.align	2
 858              	.L56:
 859 001c 00000000 		.word	.LANCHOR0
 860              		.cfi_endproc
 861              	.LFE6:
 862              		.size	LCD_Seg_1_Start, .-LCD_Seg_1_Start
 863              		.section	.text.LCD_Seg_1_ReadPixel,"ax",%progbits
 864              		.align	2
 865              		.global	LCD_Seg_1_ReadPixel
 866              		.code	16
 867              		.thumb_func
 868              		.type	LCD_Seg_1_ReadPixel, %function
 869              	LCD_Seg_1_ReadPixel:
 870              	.LFB17:
 776:Generated_Source\PSoC4/LCD_Seg_1.c **** 
 777:Generated_Source\PSoC4/LCD_Seg_1.c **** 
 778:Generated_Source\PSoC4/LCD_Seg_1.c **** /*******************************************************************************
 779:Generated_Source\PSoC4/LCD_Seg_1.c **** * Function Name: LCD_Seg_1_WritePixel
 780:Generated_Source\PSoC4/LCD_Seg_1.c **** ********************************************************************************
 781:Generated_Source\PSoC4/LCD_Seg_1.c **** *
 782:Generated_Source\PSoC4/LCD_Seg_1.c **** * Summary:
 783:Generated_Source\PSoC4/LCD_Seg_1.c **** *  Sets or clears a pixel based on the input parameter PixelState. The pixel is
 784:Generated_Source\PSoC4/LCD_Seg_1.c **** *  addressed by a packed number. This packed number comes from pixel mapping
 785:Generated_Source\PSoC4/LCD_Seg_1.c **** *  table of Display helpers. Pixel mapping table used to map the helper function
 786:Generated_Source\PSoC4/LCD_Seg_1.c **** *  pixel to the actual frame buffer pixel. All pixels have packed number defines
 787:Generated_Source\PSoC4/LCD_Seg_1.c **** *  which are resides in component header file.
 788:Generated_Source\PSoC4/LCD_Seg_1.c **** *
 789:Generated_Source\PSoC4/LCD_Seg_1.c **** * Parameters:
 790:Generated_Source\PSoC4/LCD_Seg_1.c **** *  pixelNumber : The predefined packed number that points to the pixel's
 791:Generated_Source\PSoC4/LCD_Seg_1.c **** *                location in the frame buffer. The LSB are the bit position in
 792:Generated_Source\PSoC4/LCD_Seg_1.c **** *                the byte, the LSB+1 is the byte address in the multiplex row
 793:Generated_Source\PSoC4/LCD_Seg_1.c **** *                and the MSB-1 is the multiplex row number.
 794:Generated_Source\PSoC4/LCD_Seg_1.c **** *  pixelState : The pixelNumber specified is set to this pixel state:
 795:Generated_Source\PSoC4/LCD_Seg_1.c **** *    Define                                Description
 796:Generated_Source\PSoC4/LCD_Seg_1.c **** *     LCD_Seg_1_PIXEL_STATE_ON        Pixel on.
 797:Generated_Source\PSoC4/LCD_Seg_1.c **** *     LCD_Seg_1_PIXEL_STATE_OFF       Pixel off.
 798:Generated_Source\PSoC4/LCD_Seg_1.c **** *     LCD_Seg_1_PIXEL_STATE_INVERT    Pixel invert.
 799:Generated_Source\PSoC4/LCD_Seg_1.c **** *
 800:Generated_Source\PSoC4/LCD_Seg_1.c **** * Return:
 801:Generated_Source\PSoC4/LCD_Seg_1.c **** *  Pass or fail based on a range check of the pixelNumber address:
 802:Generated_Source\PSoC4/LCD_Seg_1.c **** *    Define                     Description
 803:Generated_Source\PSoC4/LCD_Seg_1.c **** *     CYRET_SUCCESS              Function completed successfully.
 804:Generated_Source\PSoC4/LCD_Seg_1.c **** *     CYRET_BAD_PARAM            Evaluation of pixelNumber parameter is failed.
 805:Generated_Source\PSoC4/LCD_Seg_1.c **** *
ARM GAS  C:\Users\Sarah\AppData\Local\Temp\ccBcpum9.s 			page 31


 806:Generated_Source\PSoC4/LCD_Seg_1.c **** *******************************************************************************/
 807:Generated_Source\PSoC4/LCD_Seg_1.c **** uint32 LCD_Seg_1_WritePixel(uint32 pixelNumber, uint32 pixelState)
 808:Generated_Source\PSoC4/LCD_Seg_1.c **** {
 809:Generated_Source\PSoC4/LCD_Seg_1.c ****     uint32 status = CYRET_BAD_PARAM;
 810:Generated_Source\PSoC4/LCD_Seg_1.c **** 
 811:Generated_Source\PSoC4/LCD_Seg_1.c ****     if ((LCD_Seg_1_NOT_CON != pixelNumber) && (pixelState <= LCD_Seg_1_PIXEL_STATE_INVERT))
 812:Generated_Source\PSoC4/LCD_Seg_1.c ****     {
 813:Generated_Source\PSoC4/LCD_Seg_1.c ****         if (LCD_Seg_1_PIXEL_STATE_INVERT == pixelState)
 814:Generated_Source\PSoC4/LCD_Seg_1.c ****         {
 815:Generated_Source\PSoC4/LCD_Seg_1.c ****             /* Invert actual pixel state */
 816:Generated_Source\PSoC4/LCD_Seg_1.c ****             pixelState = LCD_Seg_1_ReadPixel(pixelNumber);
 817:Generated_Source\PSoC4/LCD_Seg_1.c ****             pixelState = ((uint32)(~pixelState)) & LCD_Seg_1_PIXEL_STATE_ON;
 818:Generated_Source\PSoC4/LCD_Seg_1.c ****         }
 819:Generated_Source\PSoC4/LCD_Seg_1.c **** 
 820:Generated_Source\PSoC4/LCD_Seg_1.c ****         /* Write new pixel's value to the frame buffer. */
 821:Generated_Source\PSoC4/LCD_Seg_1.c ****         LCD_Seg_1_WriteFrameBuffer(LCD_Seg_1_DATA0_PTR, pixelNumber, pixelState);
 822:Generated_Source\PSoC4/LCD_Seg_1.c **** 
 823:Generated_Source\PSoC4/LCD_Seg_1.c ****         status = CYRET_SUCCESS;
 824:Generated_Source\PSoC4/LCD_Seg_1.c ****     }
 825:Generated_Source\PSoC4/LCD_Seg_1.c **** 
 826:Generated_Source\PSoC4/LCD_Seg_1.c ****     return(status);
 827:Generated_Source\PSoC4/LCD_Seg_1.c **** }
 828:Generated_Source\PSoC4/LCD_Seg_1.c **** 
 829:Generated_Source\PSoC4/LCD_Seg_1.c **** 
 830:Generated_Source\PSoC4/LCD_Seg_1.c **** /*******************************************************************************
 831:Generated_Source\PSoC4/LCD_Seg_1.c **** * Function Name: LCD_Seg_1_ReadPixel
 832:Generated_Source\PSoC4/LCD_Seg_1.c **** ********************************************************************************
 833:Generated_Source\PSoC4/LCD_Seg_1.c **** *
 834:Generated_Source\PSoC4/LCD_Seg_1.c **** * Summary:
 835:Generated_Source\PSoC4/LCD_Seg_1.c **** *  Reads the state of a pixel in the frame buffer. The pixel is addressed by a
 836:Generated_Source\PSoC4/LCD_Seg_1.c **** *  packed number. This packed number comes from pixel mapping table of Display
 837:Generated_Source\PSoC4/LCD_Seg_1.c **** *  helpers. Pixel mapping table used to map the helper function pixel to the
 838:Generated_Source\PSoC4/LCD_Seg_1.c **** *  actual frame buffer pixel. All pixels have packed number defines which are
 839:Generated_Source\PSoC4/LCD_Seg_1.c **** *  resides in component header file.
 840:Generated_Source\PSoC4/LCD_Seg_1.c **** *
 841:Generated_Source\PSoC4/LCD_Seg_1.c **** * Parameters:
 842:Generated_Source\PSoC4/LCD_Seg_1.c **** *  pixelNumber : The predefined packed number that points to the pixel's
 843:Generated_Source\PSoC4/LCD_Seg_1.c **** *                location in the frame buffer. The LSB are the bit position in
 844:Generated_Source\PSoC4/LCD_Seg_1.c **** *                the byte, the LSB+1 is the byte address in the multiplex row
 845:Generated_Source\PSoC4/LCD_Seg_1.c **** *                and the MSB-1 is the multiplex row number.
 846:Generated_Source\PSoC4/LCD_Seg_1.c **** *
 847:Generated_Source\PSoC4/LCD_Seg_1.c **** * Return:
 848:Generated_Source\PSoC4/LCD_Seg_1.c **** *  Returns the current status of the PixelNumber specified:
 849:Generated_Source\PSoC4/LCD_Seg_1.c **** *    Define                                Description
 850:Generated_Source\PSoC4/LCD_Seg_1.c **** *     LCD_Seg_1_PIXEL_STATE_ON        Pixel on.
 851:Generated_Source\PSoC4/LCD_Seg_1.c **** *     LCD_Seg_1_PIXEL_STATE_OFF       Pixel off.
 852:Generated_Source\PSoC4/LCD_Seg_1.c **** *     LCD_Seg_1_PIXEL_UNKNOWN_STATE   Not assigned pixel.
 853:Generated_Source\PSoC4/LCD_Seg_1.c **** *
 854:Generated_Source\PSoC4/LCD_Seg_1.c **** *******************************************************************************/
 855:Generated_Source\PSoC4/LCD_Seg_1.c **** uint32 LCD_Seg_1_ReadPixel(uint32 pixelNumber)
 856:Generated_Source\PSoC4/LCD_Seg_1.c **** {
 871              		.loc 1 856 0
 872              		.cfi_startproc
 873              	.LVL77:
 874 0000 08B5     		push	{r3, lr}
 875              		.cfi_def_cfa_offset 8
 876              		.cfi_offset 3, -8
ARM GAS  C:\Users\Sarah\AppData\Local\Temp\ccBcpum9.s 			page 32


 877              		.cfi_offset 14, -4
 878              	.LVL78:
 857:Generated_Source\PSoC4/LCD_Seg_1.c ****     uint32 pixelState = LCD_Seg_1_PIXEL_UNKNOWN_STATE;
 858:Generated_Source\PSoC4/LCD_Seg_1.c **** 
 859:Generated_Source\PSoC4/LCD_Seg_1.c ****     if (LCD_Seg_1_NOT_CON != pixelNumber)
 879              		.loc 1 859 0
 880 0002 054B     		ldr	r3, .L61
 881 0004 9842     		cmp	r0, r3
 882 0006 04D0     		beq	.L60
 883 0008 011C     		mov	r1, r0
 860:Generated_Source\PSoC4/LCD_Seg_1.c ****     {
 861:Generated_Source\PSoC4/LCD_Seg_1.c ****         pixelState = LCD_Seg_1_ReadFrameBuffer(LCD_Seg_1_DATA0_PTR, pixelNumber);
 884              		.loc 1 861 0
 885 000a 0448     		ldr	r0, .L61+4
 886              	.LVL79:
 887 000c FFF7FEFF 		bl	LCD_Seg_1_ReadFrameBuffer
 888              	.LVL80:
 889 0010 00E0     		b	.L59
 890              	.LVL81:
 891              	.L60:
 857:Generated_Source\PSoC4/LCD_Seg_1.c ****     uint32 pixelState = LCD_Seg_1_PIXEL_UNKNOWN_STATE;
 892              		.loc 1 857 0
 893 0012 FF20     		mov	r0, #255
 894              	.LVL82:
 895              	.L59:
 862:Generated_Source\PSoC4/LCD_Seg_1.c ****     }
 863:Generated_Source\PSoC4/LCD_Seg_1.c **** 
 864:Generated_Source\PSoC4/LCD_Seg_1.c ****     return(pixelState);
 865:Generated_Source\PSoC4/LCD_Seg_1.c **** }
 896              		.loc 1 865 0
 897              		@ sp needed
 898 0014 08BD     		pop	{r3, pc}
 899              	.L62:
 900 0016 C046     		.align	2
 901              	.L61:
 902 0018 FFFF0000 		.word	65535
 903 001c 00012A40 		.word	1076494592
 904              		.cfi_endproc
 905              	.LFE17:
 906              		.size	LCD_Seg_1_ReadPixel, .-LCD_Seg_1_ReadPixel
 907              		.section	.text.LCD_Seg_1_WritePixel,"ax",%progbits
 908              		.align	2
 909              		.global	LCD_Seg_1_WritePixel
 910              		.code	16
 911              		.thumb_func
 912              		.type	LCD_Seg_1_WritePixel, %function
 913              	LCD_Seg_1_WritePixel:
 914              	.LFB16:
 808:Generated_Source\PSoC4/LCD_Seg_1.c ****     uint32 status = CYRET_BAD_PARAM;
 915              		.loc 1 808 0
 916              		.cfi_startproc
 917              	.LVL83:
 918 0000 10B5     		push	{r4, lr}
 919              		.cfi_def_cfa_offset 8
 920              		.cfi_offset 4, -8
 921              		.cfi_offset 14, -4
 922 0002 041C     		mov	r4, r0
ARM GAS  C:\Users\Sarah\AppData\Local\Temp\ccBcpum9.s 			page 33


 923 0004 0A1C     		mov	r2, r1
 924              	.LVL84:
 811:Generated_Source\PSoC4/LCD_Seg_1.c ****     {
 925              		.loc 1 811 0
 926 0006 0B4B     		ldr	r3, .L68
 927 0008 9842     		cmp	r0, r3
 928 000a 0ED0     		beq	.L66
 811:Generated_Source\PSoC4/LCD_Seg_1.c ****     {
 929              		.loc 1 811 0 is_stmt 0 discriminator 1
 930 000c 0229     		cmp	r1, #2
 931 000e 0ED8     		bhi	.L67
 813:Generated_Source\PSoC4/LCD_Seg_1.c ****         {
 932              		.loc 1 813 0 is_stmt 1
 933 0010 05D1     		bne	.L65
 816:Generated_Source\PSoC4/LCD_Seg_1.c ****             pixelState = ((uint32)(~pixelState)) & LCD_Seg_1_PIXEL_STATE_ON;
 934              		.loc 1 816 0
 935 0012 FFF7FEFF 		bl	LCD_Seg_1_ReadPixel
 936              	.LVL85:
 817:Generated_Source\PSoC4/LCD_Seg_1.c ****         }
 937              		.loc 1 817 0
 938 0016 0123     		mov	r3, #1
 939 0018 5840     		eor	r0, r3
 940              	.LVL86:
 941 001a 0122     		mov	r2, #1
 942 001c 0240     		and	r2, r0
 943              	.LVL87:
 944              	.L65:
 821:Generated_Source\PSoC4/LCD_Seg_1.c **** 
 945              		.loc 1 821 0
 946 001e 0648     		ldr	r0, .L68+4
 947 0020 211C     		mov	r1, r4
 948 0022 FFF7FEFF 		bl	LCD_Seg_1_WriteFrameBuffer
 949              	.LVL88:
 823:Generated_Source\PSoC4/LCD_Seg_1.c ****     }
 950              		.loc 1 823 0
 951 0026 0020     		mov	r0, #0
 952 0028 02E0     		b	.L64
 953              	.LVL89:
 954              	.L66:
 809:Generated_Source\PSoC4/LCD_Seg_1.c **** 
 955              		.loc 1 809 0
 956 002a 0120     		mov	r0, #1
 957              	.LVL90:
 958 002c 00E0     		b	.L64
 959              	.LVL91:
 960              	.L67:
 961 002e 0120     		mov	r0, #1
 962              	.LVL92:
 963              	.L64:
 827:Generated_Source\PSoC4/LCD_Seg_1.c **** 
 964              		.loc 1 827 0
 965              		@ sp needed
 966              	.LVL93:
 967 0030 10BD     		pop	{r4, pc}
 968              	.L69:
 969 0032 C046     		.align	2
 970              	.L68:
ARM GAS  C:\Users\Sarah\AppData\Local\Temp\ccBcpum9.s 			page 34


 971 0034 FFFF0000 		.word	65535
 972 0038 00012A40 		.word	1076494592
 973              		.cfi_endproc
 974              	.LFE16:
 975              		.size	LCD_Seg_1_WritePixel, .-LCD_Seg_1_WritePixel
 976              		.section	.text.LCD_Seg_1_Write7SegDigit_0,"ax",%progbits
 977              		.align	2
 978              		.global	LCD_Seg_1_Write7SegDigit_0
 979              		.code	16
 980              		.thumb_func
 981              		.type	LCD_Seg_1_Write7SegDigit_0, %function
 982              	LCD_Seg_1_Write7SegDigit_0:
 983              	.LFB18:
 866:Generated_Source\PSoC4/LCD_Seg_1.c **** 
 867:Generated_Source\PSoC4/LCD_Seg_1.c **** 
 868:Generated_Source\PSoC4/LCD_Seg_1.c **** /*******************************************************************************
 869:Generated_Source\PSoC4/LCD_Seg_1.c **** * Function Name: LCD_Seg_1_Write7SegDigit_0
 870:Generated_Source\PSoC4/LCD_Seg_1.c **** ********************************************************************************
 871:Generated_Source\PSoC4/LCD_Seg_1.c **** *
 872:Generated_Source\PSoC4/LCD_Seg_1.c **** * Summary:
 873:Generated_Source\PSoC4/LCD_Seg_1.c **** *  This function displays a hexadecimal digit on an array of 7-segment display
 874:Generated_Source\PSoC4/LCD_Seg_1.c **** *  elements. Digits can be hexadecimal values in the range of 0 to 9 and A to F.
 875:Generated_Source\PSoC4/LCD_Seg_1.c **** *  The customizer Display Helpers facility must be used to define the pixel set
 876:Generated_Source\PSoC4/LCD_Seg_1.c **** *  associated with the 7-segment display elements. Multiple 7-segment display
 877:Generated_Source\PSoC4/LCD_Seg_1.c **** *  elements can be defined in the frame buffer and are addressed through the
 878:Generated_Source\PSoC4/LCD_Seg_1.c **** *  suffix (n) in the function name. This function is only included if a
 879:Generated_Source\PSoC4/LCD_Seg_1.c **** *  7-segment display element is defined in the component customizer.
 880:Generated_Source\PSoC4/LCD_Seg_1.c **** *
 881:Generated_Source\PSoC4/LCD_Seg_1.c **** * Parameters:
 882:Generated_Source\PSoC4/LCD_Seg_1.c **** *  digit : Unsigned integer value in the range of 0 to 15 to be displayed as a
 883:Generated_Source\PSoC4/LCD_Seg_1.c **** *          hexadecimal digit. The ASCII numbers of a hexadecimal characters are
 884:Generated_Source\PSoC4/LCD_Seg_1.c **** *          also valid. In case of a invalid digit value displays 0 in position
 885:Generated_Source\PSoC4/LCD_Seg_1.c **** *          specified.
 886:Generated_Source\PSoC4/LCD_Seg_1.c **** *  position : Position of the digit as counted right to left starting at 0 on
 887:Generated_Source\PSoC4/LCD_Seg_1.c **** *             the right. If the position is outside the defined display area,
 888:Generated_Source\PSoC4/LCD_Seg_1.c **** *             the character will not be displayed.
 889:Generated_Source\PSoC4/LCD_Seg_1.c **** *
 890:Generated_Source\PSoC4/LCD_Seg_1.c **** * Return: 
 891:Generated_Source\PSoC4/LCD_Seg_1.c **** *  None.
 892:Generated_Source\PSoC4/LCD_Seg_1.c **** *
 893:Generated_Source\PSoC4/LCD_Seg_1.c **** * Global variables:
 894:Generated_Source\PSoC4/LCD_Seg_1.c **** *  LCD_Seg_1_7SegDigits[] - used as a look-up table for 7 Segment helper.
 895:Generated_Source\PSoC4/LCD_Seg_1.c **** *  Holds decoded digit's pixel reflection for the helper.
 896:Generated_Source\PSoC4/LCD_Seg_1.c **** *
 897:Generated_Source\PSoC4/LCD_Seg_1.c **** *  LCD_Seg_1_DIGIT_NUM_0 - holds the maximum digit number for the helper.
 898:Generated_Source\PSoC4/LCD_Seg_1.c **** *
 899:Generated_Source\PSoC4/LCD_Seg_1.c **** *******************************************************************************/
 900:Generated_Source\PSoC4/LCD_Seg_1.c **** void LCD_Seg_1_Write7SegDigit_0(uint32 digit, uint32 position)
 901:Generated_Source\PSoC4/LCD_Seg_1.c **** {
 984              		.loc 1 901 0
 985              		.cfi_startproc
 986              	.LVL94:
 987 0000 70B5     		push	{r4, r5, r6, lr}
 988              		.cfi_def_cfa_offset 16
 989              		.cfi_offset 4, -16
 990              		.cfi_offset 5, -12
 991              		.cfi_offset 6, -8
ARM GAS  C:\Users\Sarah\AppData\Local\Temp\ccBcpum9.s 			page 35


 992              		.cfi_offset 14, -4
 993 0002 061E     		sub	r6, r0, #0
 902:Generated_Source\PSoC4/LCD_Seg_1.c ****     static const uint32 LCD_Seg_1_disp0[1u][7u] = {{LCD_Seg_1_NOT_CON, LCD_Seg_1_NOT_CON, LCD_Seg_1
 903:Generated_Source\PSoC4/LCD_Seg_1.c ****     LCD_Seg_1_NOT_CON, LCD_Seg_1_H7SEG0_E, LCD_Seg_1_H7SEG0_F, LCD_Seg_1_H7SEG0_G}};
 904:Generated_Source\PSoC4/LCD_Seg_1.c ****     uint32 i;
 905:Generated_Source\PSoC4/LCD_Seg_1.c **** 
 906:Generated_Source\PSoC4/LCD_Seg_1.c ****     /* if digit < 16 then do nothing (we have correct data) */
 907:Generated_Source\PSoC4/LCD_Seg_1.c ****     if (digit <= 16u)
 994              		.loc 1 907 0
 995 0004 102E     		cmp	r6, #16
 996 0006 08D9     		bls	.L71
 908:Generated_Source\PSoC4/LCD_Seg_1.c ****     {
 909:Generated_Source\PSoC4/LCD_Seg_1.c ****         /* nothing to do, as we have correct digit value */
 910:Generated_Source\PSoC4/LCD_Seg_1.c ****     }
 911:Generated_Source\PSoC4/LCD_Seg_1.c ****     /* if digit <= 0x39 then digit is ASCII code of a number (0-9) */
 912:Generated_Source\PSoC4/LCD_Seg_1.c ****     else if (digit <= 0x39u)
 997              		.loc 1 912 0
 998 0008 3928     		cmp	r0, #57
 999 000a 01D8     		bhi	.L72
 913:Generated_Source\PSoC4/LCD_Seg_1.c ****     {
 914:Generated_Source\PSoC4/LCD_Seg_1.c ****         digit -= 0x30u;
 1000              		.loc 1 914 0
 1001 000c 303E     		sub	r6, r6, #48
 1002              	.LVL95:
 1003 000e 04E0     		b	.L71
 1004              	.LVL96:
 1005              	.L72:
 915:Generated_Source\PSoC4/LCD_Seg_1.c ****     }
 916:Generated_Source\PSoC4/LCD_Seg_1.c ****     /* if digit <= 0x46 then digit is ASCII code of a hex number (A-F) */
 917:Generated_Source\PSoC4/LCD_Seg_1.c ****     else if (digit <= 0x46u)
 1006              		.loc 1 917 0
 1007 0010 4628     		cmp	r0, #70
 1008 0012 01D8     		bhi	.L76
 918:Generated_Source\PSoC4/LCD_Seg_1.c ****     {
 919:Generated_Source\PSoC4/LCD_Seg_1.c ****         digit -= 0x37u;
 1009              		.loc 1 919 0
 1010 0014 373E     		sub	r6, r6, #55
 1011              	.LVL97:
 1012 0016 00E0     		b	.L71
 1013              	.LVL98:
 1014              	.L76:
 920:Generated_Source\PSoC4/LCD_Seg_1.c ****     }
 921:Generated_Source\PSoC4/LCD_Seg_1.c ****     /* else we have invalid digit, and we will print '0' instead */
 922:Generated_Source\PSoC4/LCD_Seg_1.c ****     else
 923:Generated_Source\PSoC4/LCD_Seg_1.c ****     {
 924:Generated_Source\PSoC4/LCD_Seg_1.c ****         digit = 0u;
 1015              		.loc 1 924 0
 1016 0018 0026     		mov	r6, #0
 1017              	.LVL99:
 1018              	.L71:
 925:Generated_Source\PSoC4/LCD_Seg_1.c ****     }
 926:Generated_Source\PSoC4/LCD_Seg_1.c **** 
 927:Generated_Source\PSoC4/LCD_Seg_1.c ****     if ((position / LCD_Seg_1_DIGIT_NUM_0) == 0u)
 1019              		.loc 1 927 0
 1020 001a 0029     		cmp	r1, #0
 1021 001c 13D1     		bne	.L70
 928:Generated_Source\PSoC4/LCD_Seg_1.c ****     {
ARM GAS  C:\Users\Sarah\AppData\Local\Temp\ccBcpum9.s 			page 36


 929:Generated_Source\PSoC4/LCD_Seg_1.c ****         position = (LCD_Seg_1_DIGIT_NUM_0 - position) - 1u;
 1022              		.loc 1 929 0
 1023 001e 4D42     		neg	r5, r1
 1024              	.LVL100:
 930:Generated_Source\PSoC4/LCD_Seg_1.c ****         for (i = 0u; i < LCD_Seg_1_7SEG_PIX_NUM; i++)
 1025              		.loc 1 930 0
 1026 0020 0024     		mov	r4, #0
 1027 0022 0EE0     		b	.L74
 1028              	.LVL101:
 1029              	.L75:
 931:Generated_Source\PSoC4/LCD_Seg_1.c ****         {
 932:Generated_Source\PSoC4/LCD_Seg_1.c ****             (void)LCD_Seg_1_WritePixel(LCD_Seg_1_disp0[position][i],
 1030              		.loc 1 932 0 discriminator 3
 1031 0024 084A     		ldr	r2, .L77
 1032 0026 EB00     		lsl	r3, r5, #3
 1033 0028 5B1B     		sub	r3, r3, r5
 1034 002a 1B19     		add	r3, r3, r4
 1035 002c 9B00     		lsl	r3, r3, #2
 1036 002e D318     		add	r3, r2, r3
 1037 0030 986A     		ldr	r0, [r3, #40]
 933:Generated_Source\PSoC4/LCD_Seg_1.c ****             (((uint32)((uint32)LCD_Seg_1_7SegDigits[digit] >> i)) & LCD_Seg_1_PIXEL_STATE_ON));
 1038              		.loc 1 933 0 discriminator 3
 1039 0032 4432     		add	r2, r2, #68
 1040 0034 915D     		ldrb	r1, [r2, r6]
 1041 0036 E140     		lsr	r1, r1, r4
 932:Generated_Source\PSoC4/LCD_Seg_1.c ****             (((uint32)((uint32)LCD_Seg_1_7SegDigits[digit] >> i)) & LCD_Seg_1_PIXEL_STATE_ON));
 1042              		.loc 1 932 0 discriminator 3
 1043 0038 0123     		mov	r3, #1
 1044 003a 1940     		and	r1, r3
 1045 003c FFF7FEFF 		bl	LCD_Seg_1_WritePixel
 1046              	.LVL102:
 930:Generated_Source\PSoC4/LCD_Seg_1.c ****         {
 1047              		.loc 1 930 0 discriminator 3
 1048 0040 0134     		add	r4, r4, #1
 1049              	.LVL103:
 1050              	.L74:
 930:Generated_Source\PSoC4/LCD_Seg_1.c ****         {
 1051              		.loc 1 930 0 is_stmt 0 discriminator 1
 1052 0042 062C     		cmp	r4, #6
 1053 0044 EED9     		bls	.L75
 1054              	.LVL104:
 1055              	.L70:
 934:Generated_Source\PSoC4/LCD_Seg_1.c ****         }
 935:Generated_Source\PSoC4/LCD_Seg_1.c ****     }
 936:Generated_Source\PSoC4/LCD_Seg_1.c **** }
 1056              		.loc 1 936 0 is_stmt 1
 1057              		@ sp needed
 1058              	.LVL105:
 1059 0046 70BD     		pop	{r4, r5, r6, pc}
 1060              	.L78:
 1061              		.align	2
 1062              	.L77:
 1063 0048 80000000 		.word	.LANCHOR3
 1064              		.cfi_endproc
 1065              	.LFE18:
 1066              		.size	LCD_Seg_1_Write7SegDigit_0, .-LCD_Seg_1_Write7SegDigit_0
 1067              		.global	__aeabi_uidivmod
ARM GAS  C:\Users\Sarah\AppData\Local\Temp\ccBcpum9.s 			page 37


 1068              		.section	.text.LCD_Seg_1_Write7SegNumber_0,"ax",%progbits
 1069              		.align	2
 1070              		.global	LCD_Seg_1_Write7SegNumber_0
 1071              		.code	16
 1072              		.thumb_func
 1073              		.type	LCD_Seg_1_Write7SegNumber_0, %function
 1074              	LCD_Seg_1_Write7SegNumber_0:
 1075              	.LFB19:
 937:Generated_Source\PSoC4/LCD_Seg_1.c **** 
 938:Generated_Source\PSoC4/LCD_Seg_1.c **** 
 939:Generated_Source\PSoC4/LCD_Seg_1.c **** /*******************************************************************************
 940:Generated_Source\PSoC4/LCD_Seg_1.c **** * Function Name: LCD_Seg_1_Write7SegNumber_0
 941:Generated_Source\PSoC4/LCD_Seg_1.c **** ********************************************************************************
 942:Generated_Source\PSoC4/LCD_Seg_1.c **** *
 943:Generated_Source\PSoC4/LCD_Seg_1.c **** * Summary:
 944:Generated_Source\PSoC4/LCD_Seg_1.c **** *  This function displays a 16-bit integer value on a 1- to 5-digit array of
 945:Generated_Source\PSoC4/LCD_Seg_1.c **** *  7-segment display elements. The customizer Display Helpers facility must be
 946:Generated_Source\PSoC4/LCD_Seg_1.c **** *  used to define the pixel set associated with the 7-segment display element/s.
 947:Generated_Source\PSoC4/LCD_Seg_1.c **** *  Multiple 7-segment display element groups can be defined in the frame buffer
 948:Generated_Source\PSoC4/LCD_Seg_1.c **** *  and are addressed through the suffix (n) in the function name. Sign 
 949:Generated_Source\PSoC4/LCD_Seg_1.c **** *  conversion, sign display, decimal points, and other custom features must be
 950:Generated_Source\PSoC4/LCD_Seg_1.c **** *  handled by application-specific user code. This function is only included if
 951:Generated_Source\PSoC4/LCD_Seg_1.c **** *  a 7-segment display element is defined in the component customizer.
 952:Generated_Source\PSoC4/LCD_Seg_1.c **** *
 953:Generated_Source\PSoC4/LCD_Seg_1.c **** * Parameters:
 954:Generated_Source\PSoC4/LCD_Seg_1.c **** *  value:    Unsigned integer value to be displayed.
 955:Generated_Source\PSoC4/LCD_Seg_1.c **** *  position: The position of the least significant digit as counted right to
 956:Generated_Source\PSoC4/LCD_Seg_1.c **** *            left starting at 0 on the right. If the defined display contains 
 957:Generated_Source\PSoC4/LCD_Seg_1.c **** *            fewer digits then the value requires for display for the most 
 958:Generated_Source\PSoC4/LCD_Seg_1.c **** *            significant digit/s will not be displayed.
 959:Generated_Source\PSoC4/LCD_Seg_1.c **** *  mode:     Sets the display mode.
 960:Generated_Source\PSoC4/LCD_Seg_1.c **** *    Define                         Description
 961:Generated_Source\PSoC4/LCD_Seg_1.c **** *     LCD_Seg_1_NO_LEADING_ZEROES          No leading zeroes.
 962:Generated_Source\PSoC4/LCD_Seg_1.c **** *     LCD_Seg_1_LEADING_ZEROES             Leading zeroes are displayed.
 963:Generated_Source\PSoC4/LCD_Seg_1.c **** *
 964:Generated_Source\PSoC4/LCD_Seg_1.c **** * Return: 
 965:Generated_Source\PSoC4/LCD_Seg_1.c **** *  None.
 966:Generated_Source\PSoC4/LCD_Seg_1.c **** *
 967:Generated_Source\PSoC4/LCD_Seg_1.c **** * Global variables:
 968:Generated_Source\PSoC4/LCD_Seg_1.c **** *  LCD_Seg_1_DIGIT_NUM_0 - holds the maximum digit number for the helper.
 969:Generated_Source\PSoC4/LCD_Seg_1.c **** *
 970:Generated_Source\PSoC4/LCD_Seg_1.c **** *******************************************************************************/
 971:Generated_Source\PSoC4/LCD_Seg_1.c **** void LCD_Seg_1_Write7SegNumber_0(uint32 value, uint32 position, uint32 mode)
 972:Generated_Source\PSoC4/LCD_Seg_1.c **** { 
 1076              		.loc 1 972 0
 1077              		.cfi_startproc
 1078              	.LVL106:
 1079 0000 70B5     		push	{r4, r5, r6, lr}
 1080              		.cfi_def_cfa_offset 16
 1081              		.cfi_offset 4, -16
 1082              		.cfi_offset 5, -12
 1083              		.cfi_offset 6, -8
 1084              		.cfi_offset 14, -4
 1085 0002 051C     		mov	r5, r0
 1086 0004 161C     		mov	r6, r2
 1087              	.LVL107:
 973:Generated_Source\PSoC4/LCD_Seg_1.c ****     uint32 i;
ARM GAS  C:\Users\Sarah\AppData\Local\Temp\ccBcpum9.s 			page 38


 974:Generated_Source\PSoC4/LCD_Seg_1.c ****     uint32 num;
 975:Generated_Source\PSoC4/LCD_Seg_1.c **** 
 976:Generated_Source\PSoC4/LCD_Seg_1.c ****     position = position % LCD_Seg_1_DIGIT_NUM_0;
 977:Generated_Source\PSoC4/LCD_Seg_1.c **** 
 978:Generated_Source\PSoC4/LCD_Seg_1.c ****     /* While current digit position in the range of display keep processing the output */
 979:Generated_Source\PSoC4/LCD_Seg_1.c ****     for (i = position; i < LCD_Seg_1_DIGIT_NUM_0; i++)
 1088              		.loc 1 979 0
 1089 0006 0024     		mov	r4, #0
 1090 0008 15E0     		b	.L80
 1091              	.LVL108:
 1092              	.L83:
 980:Generated_Source\PSoC4/LCD_Seg_1.c ****     {
 981:Generated_Source\PSoC4/LCD_Seg_1.c ****         num = value % 10u;
 1093              		.loc 1 981 0
 1094 000a 281C     		mov	r0, r5
 1095              	.LVL109:
 1096 000c 0A21     		mov	r1, #10
 1097 000e FFF7FEFF 		bl	__aeabi_uidivmod
 1098              	.LVL110:
 982:Generated_Source\PSoC4/LCD_Seg_1.c ****         if((0u == value) && (0u == mode))
 1099              		.loc 1 982 0
 1100 0012 2B1C     		mov	r3, r5
 1101 0014 3343     		orr	r3, r6
 1102 0016 04D1     		bne	.L81
 983:Generated_Source\PSoC4/LCD_Seg_1.c ****         {
 984:Generated_Source\PSoC4/LCD_Seg_1.c ****             /* In case of 'no leading zeros' each extra digit will be cleared */
 985:Generated_Source\PSoC4/LCD_Seg_1.c ****             LCD_Seg_1_Write7SegDigit_0(LCD_Seg_1_7SEG_BLANK_DIG, i);
 1103              		.loc 1 985 0
 1104 0018 1020     		mov	r0, #16
 1105 001a 211C     		mov	r1, r4
 1106              	.LVL111:
 1107 001c FFF7FEFF 		bl	LCD_Seg_1_Write7SegDigit_0
 1108              	.LVL112:
 1109 0020 03E0     		b	.L82
 1110              	.LVL113:
 1111              	.L81:
 986:Generated_Source\PSoC4/LCD_Seg_1.c ****         }
 987:Generated_Source\PSoC4/LCD_Seg_1.c ****         else
 988:Generated_Source\PSoC4/LCD_Seg_1.c ****         {
 989:Generated_Source\PSoC4/LCD_Seg_1.c ****             /* Display subsequent digit or '0' if 'no leading zeros' mode */
 990:Generated_Source\PSoC4/LCD_Seg_1.c ****             LCD_Seg_1_Write7SegDigit_0(num, i);
 1112              		.loc 1 990 0
 1113 0022 081C     		mov	r0, r1
 1114 0024 211C     		mov	r1, r4
 1115              	.LVL114:
 1116 0026 FFF7FEFF 		bl	LCD_Seg_1_Write7SegDigit_0
 1117              	.LVL115:
 1118              	.L82:
 991:Generated_Source\PSoC4/LCD_Seg_1.c ****         }
 992:Generated_Source\PSoC4/LCD_Seg_1.c ****         value = value / 10u;
 1119              		.loc 1 992 0 discriminator 2
 1120 002a 281C     		mov	r0, r5
 1121 002c 0A21     		mov	r1, #10
 1122 002e FFF7FEFF 		bl	__aeabi_uidiv
 1123              	.LVL116:
 1124 0032 051C     		mov	r5, r0
 1125              	.LVL117:
ARM GAS  C:\Users\Sarah\AppData\Local\Temp\ccBcpum9.s 			page 39


 979:Generated_Source\PSoC4/LCD_Seg_1.c ****     {
 1126              		.loc 1 979 0 discriminator 2
 1127 0034 0134     		add	r4, r4, #1
 1128              	.LVL118:
 1129              	.L80:
 979:Generated_Source\PSoC4/LCD_Seg_1.c ****     {
 1130              		.loc 1 979 0 is_stmt 0 discriminator 1
 1131 0036 002C     		cmp	r4, #0
 1132 0038 E7D0     		beq	.L83
 993:Generated_Source\PSoC4/LCD_Seg_1.c ****     }
 994:Generated_Source\PSoC4/LCD_Seg_1.c **** }
 1133              		.loc 1 994 0 is_stmt 1
 1134              		@ sp needed
 1135              	.LVL119:
 1136              	.LVL120:
 1137 003a 70BD     		pop	{r4, r5, r6, pc}
 1138              		.cfi_endproc
 1139              	.LFE19:
 1140              		.size	LCD_Seg_1_Write7SegNumber_0, .-LCD_Seg_1_Write7SegNumber_0
 1141              		.global	LCD_Seg_1_initVar
 1142              		.section	.rodata
 1143              		.align	2
 1144              		.set	.LANCHOR2,. + 0
 1145              		.set	.LANCHOR3,. + 128
 1146              		.type	LCD_Seg_1_dividersLS, %object
 1147              		.size	LCD_Seg_1_dividersLS, 80
 1148              	LCD_Seg_1_dividersLS:
 1149 0000 D5000000 		.word	213
 1150 0004 D5000000 		.word	213
 1151 0008 D5000000 		.word	213
 1152 000c D5000000 		.word	213
 1153 0010 D5000000 		.word	213
 1154 0014 D5000000 		.word	213
 1155 0018 D5000000 		.word	213
 1156 001c D5000000 		.word	213
 1157 0020 6B000000 		.word	107
 1158 0024 00000000 		.word	0
 1159 0028 6A000000 		.word	106
 1160 002c 6A000000 		.word	106
 1161 0030 6A000000 		.word	106
 1162 0034 6A000000 		.word	106
 1163 0038 6A000000 		.word	106
 1164 003c 6A000000 		.word	106
 1165 0040 6A000000 		.word	106
 1166 0044 6A000000 		.word	106
 1167 0048 77000000 		.word	119
 1168 004c 84000000 		.word	132
 1169              		.type	LCD_Seg_1_dividersHS, %object
 1170              		.size	LCD_Seg_1_dividersHS, 80
 1171              	LCD_Seg_1_dividersHS:
 1172 0050 1E000000 		.word	30
 1173 0054 1B000000 		.word	27
 1174 0058 17000000 		.word	23
 1175 005c 14000000 		.word	20
 1176 0060 11000000 		.word	17
 1177 0064 0D000000 		.word	13
 1178 0068 0A000000 		.word	10
ARM GAS  C:\Users\Sarah\AppData\Local\Temp\ccBcpum9.s 			page 40


 1179 006c 07000000 		.word	7
 1180 0070 03000000 		.word	3
 1181 0074 00000000 		.word	0
 1182 0078 00000000 		.word	0
 1183 007c 01000000 		.word	1
 1184 0080 01000000 		.word	1
 1185 0084 01000000 		.word	1
 1186 0088 02000000 		.word	2
 1187 008c 02000000 		.word	2
 1188 0090 02000000 		.word	2
 1189 0094 03000000 		.word	3
 1190 0098 03000000 		.word	3
 1191 009c 03000000 		.word	3
 1192              		.type	LCD_Seg_1_commons, %object
 1193              		.size	LCD_Seg_1_commons, 8
 1194              	LCD_Seg_1_commons:
 1195 00a0 02030000 		.word	770
 1196 00a4 04030100 		.word	66308
 1197              		.type	LCD_Seg_1_disp0.4868, %object
 1198              		.size	LCD_Seg_1_disp0.4868, 28
 1199              	LCD_Seg_1_disp0.4868:
 1200 00a8 FFFF0000 		.word	65535
 1201 00ac FFFF0000 		.word	65535
 1202 00b0 FFFF0000 		.word	65535
 1203 00b4 FFFF0000 		.word	65535
 1204 00b8 03030100 		.word	66307
 1205 00bc 01030100 		.word	66305
 1206 00c0 01030000 		.word	769
 1207              		.type	LCD_Seg_1_7SegDigits, %object
 1208              		.size	LCD_Seg_1_7SegDigits, 17
 1209              	LCD_Seg_1_7SegDigits:
 1210 00c4 3F       		.byte	63
 1211 00c5 06       		.byte	6
 1212 00c6 5B       		.byte	91
 1213 00c7 4F       		.byte	79
 1214 00c8 66       		.byte	102
 1215 00c9 6D       		.byte	109
 1216 00ca 7D       		.byte	125
 1217 00cb 07       		.byte	7
 1218 00cc 7F       		.byte	127
 1219 00cd 6F       		.byte	111
 1220 00ce 77       		.byte	119
 1221 00cf 7C       		.byte	124
 1222 00d0 39       		.byte	57
 1223 00d1 5E       		.byte	94
 1224 00d2 79       		.byte	121
 1225 00d3 71       		.byte	113
 1226 00d4 00       		.byte	0
 1227 00d5 000000   		.data
 1228              		.align	2
 1229              		.set	.LANCHOR1,. + 0
 1230              		.type	LCD_Seg_1_contrastState, %object
 1231              		.size	LCD_Seg_1_contrastState, 4
 1232              	LCD_Seg_1_contrastState:
 1233 0000 50000000 		.word	80
 1234              		.bss
 1235              		.align	2
ARM GAS  C:\Users\Sarah\AppData\Local\Temp\ccBcpum9.s 			page 41


 1236              		.set	.LANCHOR0,. + 0
 1237              		.type	LCD_Seg_1_modeState, %object
 1238              		.size	LCD_Seg_1_modeState, 4
 1239              	LCD_Seg_1_modeState:
 1240 0000 00000000 		.space	4
 1241              		.type	LCD_Seg_1_invertState, %object
 1242              		.size	LCD_Seg_1_invertState, 4
 1243              	LCD_Seg_1_invertState:
 1244 0004 00000000 		.space	4
 1245              		.type	LCD_Seg_1_initVar, %object
 1246              		.size	LCD_Seg_1_initVar, 4
 1247              	LCD_Seg_1_initVar:
 1248 0008 00000000 		.space	4
 1249              		.text
 1250              	.Letext0:
 1251              		.file 2 "Generated_Source\\PSoC4\\cytypes.h"