ARM GAS  C:\Users\Sarah\AppData\Local\Temp\ccwsjVjd.s 			page 1


   1              		.cpu cortex-m0
   2              		.fpu softvfp
   3              		.eabi_attribute 20, 1
   4              		.eabi_attribute 21, 1
   5              		.eabi_attribute 23, 3
   6              		.eabi_attribute 24, 1
   7              		.eabi_attribute 25, 1
   8              		.eabi_attribute 26, 1
   9              		.eabi_attribute 30, 1
  10              		.eabi_attribute 34, 0
  11              		.eabi_attribute 18, 4
  12              		.code	16
  13              		.file	"cyfitter_cfg.c"
  14              		.text
  15              	.Ltext0:
  16              		.cfi_sections	.debug_frame
  17              		.section	.text.cfg_write_bytes32,"ax",%progbits
  18              		.align	2
  19              		.code	16
  20              		.thumb_func
  21              		.type	cfg_write_bytes32, %function
  22              	cfg_write_bytes32:
  23              	.LFB5:
  24              		.file 1 "Generated_Source\\PSoC4\\cyfitter_cfg.c"
   1:Generated_Source\PSoC4/cyfitter_cfg.c **** /*******************************************************************************
   2:Generated_Source\PSoC4/cyfitter_cfg.c **** * File Name: cyfitter_cfg.c
   3:Generated_Source\PSoC4/cyfitter_cfg.c **** * 
   4:Generated_Source\PSoC4/cyfitter_cfg.c **** * PSoC Creator  4.0 Update 1
   5:Generated_Source\PSoC4/cyfitter_cfg.c **** *
   6:Generated_Source\PSoC4/cyfitter_cfg.c **** * Description:
   7:Generated_Source\PSoC4/cyfitter_cfg.c **** * This file contains device initialization code.
   8:Generated_Source\PSoC4/cyfitter_cfg.c **** * Except for the user defined sections in CyClockStartupError(), this file should not be modified.
   9:Generated_Source\PSoC4/cyfitter_cfg.c **** * This file is automatically generated by PSoC Creator.
  10:Generated_Source\PSoC4/cyfitter_cfg.c **** *
  11:Generated_Source\PSoC4/cyfitter_cfg.c **** ********************************************************************************
  12:Generated_Source\PSoC4/cyfitter_cfg.c **** * Copyright (c) 2007-2016 Cypress Semiconductor.  All rights reserved.
  13:Generated_Source\PSoC4/cyfitter_cfg.c **** * You may use this file only in accordance with the license, terms, conditions, 
  14:Generated_Source\PSoC4/cyfitter_cfg.c **** * disclaimers, and limitations in the end user license agreement accompanying 
  15:Generated_Source\PSoC4/cyfitter_cfg.c **** * the software package with which this file was provided.
  16:Generated_Source\PSoC4/cyfitter_cfg.c **** ********************************************************************************/
  17:Generated_Source\PSoC4/cyfitter_cfg.c **** 
  18:Generated_Source\PSoC4/cyfitter_cfg.c **** #include <string.h>
  19:Generated_Source\PSoC4/cyfitter_cfg.c **** #include "cytypes.h"
  20:Generated_Source\PSoC4/cyfitter_cfg.c **** #include "cydevice_trm.h"
  21:Generated_Source\PSoC4/cyfitter_cfg.c **** #include "cyfitter.h"
  22:Generated_Source\PSoC4/cyfitter_cfg.c **** #include "CyLib.h"
  23:Generated_Source\PSoC4/cyfitter_cfg.c **** #include "CyLFClk.h"
  24:Generated_Source\PSoC4/cyfitter_cfg.c **** #include "cyfitter_cfg.h"
  25:Generated_Source\PSoC4/cyfitter_cfg.c **** #include "cyapicallbacks.h"
  26:Generated_Source\PSoC4/cyfitter_cfg.c **** 
  27:Generated_Source\PSoC4/cyfitter_cfg.c **** 
  28:Generated_Source\PSoC4/cyfitter_cfg.c **** #if defined(__GNUC__) || defined(__ARMCC_VERSION)
  29:Generated_Source\PSoC4/cyfitter_cfg.c ****     #define CYPACKED 
  30:Generated_Source\PSoC4/cyfitter_cfg.c ****     #define CYPACKED_ATTR __attribute__ ((packed))
  31:Generated_Source\PSoC4/cyfitter_cfg.c ****     #define CYALIGNED __attribute__ ((aligned))
  32:Generated_Source\PSoC4/cyfitter_cfg.c ****     #define CY_CFG_UNUSED __attribute__ ((unused))
  33:Generated_Source\PSoC4/cyfitter_cfg.c ****     #ifndef CY_CFG_SECTION
ARM GAS  C:\Users\Sarah\AppData\Local\Temp\ccwsjVjd.s 			page 2


  34:Generated_Source\PSoC4/cyfitter_cfg.c ****         #define CY_CFG_SECTION __attribute__ ((section(".psocinit")))
  35:Generated_Source\PSoC4/cyfitter_cfg.c ****     #endif
  36:Generated_Source\PSoC4/cyfitter_cfg.c ****     
  37:Generated_Source\PSoC4/cyfitter_cfg.c ****     #if defined(__ARMCC_VERSION)
  38:Generated_Source\PSoC4/cyfitter_cfg.c ****         #define CY_CFG_MEMORY_BARRIER() __memory_changed()
  39:Generated_Source\PSoC4/cyfitter_cfg.c ****     #else
  40:Generated_Source\PSoC4/cyfitter_cfg.c ****         #define CY_CFG_MEMORY_BARRIER() __sync_synchronize()
  41:Generated_Source\PSoC4/cyfitter_cfg.c ****     #endif
  42:Generated_Source\PSoC4/cyfitter_cfg.c ****     
  43:Generated_Source\PSoC4/cyfitter_cfg.c **** #elif defined(__ICCARM__)
  44:Generated_Source\PSoC4/cyfitter_cfg.c ****     #include <intrinsics.h>
  45:Generated_Source\PSoC4/cyfitter_cfg.c **** 
  46:Generated_Source\PSoC4/cyfitter_cfg.c ****     #define CYPACKED __packed
  47:Generated_Source\PSoC4/cyfitter_cfg.c ****     #define CYPACKED_ATTR 
  48:Generated_Source\PSoC4/cyfitter_cfg.c ****     #define CYALIGNED _Pragma("data_alignment=4")
  49:Generated_Source\PSoC4/cyfitter_cfg.c ****     #define CY_CFG_UNUSED _Pragma("diag_suppress=Pe177")
  50:Generated_Source\PSoC4/cyfitter_cfg.c ****     #define CY_CFG_SECTION _Pragma("location=\".psocinit\"")
  51:Generated_Source\PSoC4/cyfitter_cfg.c ****     
  52:Generated_Source\PSoC4/cyfitter_cfg.c ****     #define CY_CFG_MEMORY_BARRIER() __DMB()
  53:Generated_Source\PSoC4/cyfitter_cfg.c ****     
  54:Generated_Source\PSoC4/cyfitter_cfg.c **** #else
  55:Generated_Source\PSoC4/cyfitter_cfg.c ****     #error Unsupported toolchain
  56:Generated_Source\PSoC4/cyfitter_cfg.c **** #endif
  57:Generated_Source\PSoC4/cyfitter_cfg.c **** 
  58:Generated_Source\PSoC4/cyfitter_cfg.c **** 
  59:Generated_Source\PSoC4/cyfitter_cfg.c **** CY_CFG_UNUSED
  60:Generated_Source\PSoC4/cyfitter_cfg.c **** static void CYMEMZERO(void *s, size_t n);
  61:Generated_Source\PSoC4/cyfitter_cfg.c **** CY_CFG_UNUSED
  62:Generated_Source\PSoC4/cyfitter_cfg.c **** static void CYMEMZERO(void *s, size_t n)
  63:Generated_Source\PSoC4/cyfitter_cfg.c **** {
  64:Generated_Source\PSoC4/cyfitter_cfg.c **** 	(void)memset(s, 0, n);
  65:Generated_Source\PSoC4/cyfitter_cfg.c **** }
  66:Generated_Source\PSoC4/cyfitter_cfg.c **** CY_CFG_UNUSED
  67:Generated_Source\PSoC4/cyfitter_cfg.c **** static void CYCONFIGCPY(void *dest, const void *src, size_t n);
  68:Generated_Source\PSoC4/cyfitter_cfg.c **** CY_CFG_UNUSED
  69:Generated_Source\PSoC4/cyfitter_cfg.c **** static void CYCONFIGCPY(void *dest, const void *src, size_t n)
  70:Generated_Source\PSoC4/cyfitter_cfg.c **** {
  71:Generated_Source\PSoC4/cyfitter_cfg.c **** 	(void)memcpy(dest, src, n);
  72:Generated_Source\PSoC4/cyfitter_cfg.c **** }
  73:Generated_Source\PSoC4/cyfitter_cfg.c **** CY_CFG_UNUSED
  74:Generated_Source\PSoC4/cyfitter_cfg.c **** static void CYCONFIGCPYCODE(void *dest, const void *src, size_t n);
  75:Generated_Source\PSoC4/cyfitter_cfg.c **** CY_CFG_UNUSED
  76:Generated_Source\PSoC4/cyfitter_cfg.c **** static void CYCONFIGCPYCODE(void *dest, const void *src, size_t n)
  77:Generated_Source\PSoC4/cyfitter_cfg.c **** {
  78:Generated_Source\PSoC4/cyfitter_cfg.c **** 	(void)memcpy(dest, src, n);
  79:Generated_Source\PSoC4/cyfitter_cfg.c **** }
  80:Generated_Source\PSoC4/cyfitter_cfg.c **** 
  81:Generated_Source\PSoC4/cyfitter_cfg.c **** 
  82:Generated_Source\PSoC4/cyfitter_cfg.c **** 
  83:Generated_Source\PSoC4/cyfitter_cfg.c **** 
  84:Generated_Source\PSoC4/cyfitter_cfg.c **** /* Clock startup error codes                                                   */
  85:Generated_Source\PSoC4/cyfitter_cfg.c **** #define CYCLOCKSTART_NO_ERROR    0u
  86:Generated_Source\PSoC4/cyfitter_cfg.c **** #define CYCLOCKSTART_XTAL_ERROR  1u
  87:Generated_Source\PSoC4/cyfitter_cfg.c **** #define CYCLOCKSTART_32KHZ_ERROR 2u
  88:Generated_Source\PSoC4/cyfitter_cfg.c **** #define CYCLOCKSTART_PLL_ERROR   3u
  89:Generated_Source\PSoC4/cyfitter_cfg.c **** 
  90:Generated_Source\PSoC4/cyfitter_cfg.c **** 
ARM GAS  C:\Users\Sarah\AppData\Local\Temp\ccwsjVjd.s 			page 3


  91:Generated_Source\PSoC4/cyfitter_cfg.c **** #ifdef CY_NEED_CYCLOCKSTARTUPERROR
  92:Generated_Source\PSoC4/cyfitter_cfg.c **** /*******************************************************************************
  93:Generated_Source\PSoC4/cyfitter_cfg.c **** * Function Name: CyClockStartupError
  94:Generated_Source\PSoC4/cyfitter_cfg.c **** ********************************************************************************
  95:Generated_Source\PSoC4/cyfitter_cfg.c **** * Summary:
  96:Generated_Source\PSoC4/cyfitter_cfg.c **** *  If an error is encountered during clock configuration (crystal startup error,
  97:Generated_Source\PSoC4/cyfitter_cfg.c **** *  PLL lock error, etc.), the system will end up here.  Unless reimplemented by
  98:Generated_Source\PSoC4/cyfitter_cfg.c **** *  the customer, this function will stop in an infinite loop.
  99:Generated_Source\PSoC4/cyfitter_cfg.c **** *
 100:Generated_Source\PSoC4/cyfitter_cfg.c **** * Parameters:
 101:Generated_Source\PSoC4/cyfitter_cfg.c **** *   void
 102:Generated_Source\PSoC4/cyfitter_cfg.c **** *
 103:Generated_Source\PSoC4/cyfitter_cfg.c **** * Return:
 104:Generated_Source\PSoC4/cyfitter_cfg.c **** *   void
 105:Generated_Source\PSoC4/cyfitter_cfg.c **** *
 106:Generated_Source\PSoC4/cyfitter_cfg.c **** *******************************************************************************/
 107:Generated_Source\PSoC4/cyfitter_cfg.c **** CY_CFG_UNUSED
 108:Generated_Source\PSoC4/cyfitter_cfg.c **** static void CyClockStartupError(uint8 errorCode);
 109:Generated_Source\PSoC4/cyfitter_cfg.c **** CY_CFG_UNUSED
 110:Generated_Source\PSoC4/cyfitter_cfg.c **** static void CyClockStartupError(uint8 errorCode)
 111:Generated_Source\PSoC4/cyfitter_cfg.c **** {
 112:Generated_Source\PSoC4/cyfitter_cfg.c ****     /* To remove the compiler warning if errorCode not used.                */
 113:Generated_Source\PSoC4/cyfitter_cfg.c ****     errorCode = errorCode;
 114:Generated_Source\PSoC4/cyfitter_cfg.c **** 
 115:Generated_Source\PSoC4/cyfitter_cfg.c ****     /* If we have a clock startup error (bad MHz crystal, PLL lock, etc.),  */
 116:Generated_Source\PSoC4/cyfitter_cfg.c ****     /* we will end up here to allow the customer to implement something to  */
 117:Generated_Source\PSoC4/cyfitter_cfg.c ****     /* deal with the clock condition.                                       */
 118:Generated_Source\PSoC4/cyfitter_cfg.c **** 
 119:Generated_Source\PSoC4/cyfitter_cfg.c **** #ifdef CY_CFG_CLOCK_STARTUP_ERROR_CALLBACK
 120:Generated_Source\PSoC4/cyfitter_cfg.c **** 	CY_CFG_Clock_Startup_ErrorCallback();
 121:Generated_Source\PSoC4/cyfitter_cfg.c **** #else
 122:Generated_Source\PSoC4/cyfitter_cfg.c **** 	/*  If not using CY_CFG_CLOCK_STARTUP_ERROR_CALLBACK, place your clock startup code here. */
 123:Generated_Source\PSoC4/cyfitter_cfg.c ****     /* `#START CyClockStartupError` */
 124:Generated_Source\PSoC4/cyfitter_cfg.c **** 
 125:Generated_Source\PSoC4/cyfitter_cfg.c **** 
 126:Generated_Source\PSoC4/cyfitter_cfg.c **** 
 127:Generated_Source\PSoC4/cyfitter_cfg.c ****     /* `#END` */
 128:Generated_Source\PSoC4/cyfitter_cfg.c **** 
 129:Generated_Source\PSoC4/cyfitter_cfg.c ****     /* If nothing else, stop here since the clocks have not started         */
 130:Generated_Source\PSoC4/cyfitter_cfg.c ****     /* correctly.                                                           */
 131:Generated_Source\PSoC4/cyfitter_cfg.c ****     while(1) {}
 132:Generated_Source\PSoC4/cyfitter_cfg.c **** #endif /* CY_CFG_CLOCK_STARTUP_ERROR_CALLBACK */ 
 133:Generated_Source\PSoC4/cyfitter_cfg.c **** }
 134:Generated_Source\PSoC4/cyfitter_cfg.c **** #endif
 135:Generated_Source\PSoC4/cyfitter_cfg.c **** 
 136:Generated_Source\PSoC4/cyfitter_cfg.c **** #define CY_CFG_BASE_ADDR_COUNT 9u
 137:Generated_Source\PSoC4/cyfitter_cfg.c **** CYPACKED typedef struct
 138:Generated_Source\PSoC4/cyfitter_cfg.c **** {
 139:Generated_Source\PSoC4/cyfitter_cfg.c **** 	uint8 offset;
 140:Generated_Source\PSoC4/cyfitter_cfg.c **** 	uint8 value;
 141:Generated_Source\PSoC4/cyfitter_cfg.c **** } CYPACKED_ATTR cy_cfg_addrvalue_t;
 142:Generated_Source\PSoC4/cyfitter_cfg.c **** 
 143:Generated_Source\PSoC4/cyfitter_cfg.c **** 
 144:Generated_Source\PSoC4/cyfitter_cfg.c **** 
 145:Generated_Source\PSoC4/cyfitter_cfg.c **** /*******************************************************************************
 146:Generated_Source\PSoC4/cyfitter_cfg.c **** * Function Name: cfg_write_bytes32
 147:Generated_Source\PSoC4/cyfitter_cfg.c **** ********************************************************************************
ARM GAS  C:\Users\Sarah\AppData\Local\Temp\ccwsjVjd.s 			page 4


 148:Generated_Source\PSoC4/cyfitter_cfg.c **** * Summary:
 149:Generated_Source\PSoC4/cyfitter_cfg.c **** *  This function is used for setting up the chip configuration areas that
 150:Generated_Source\PSoC4/cyfitter_cfg.c **** *  contain relatively sparse data.
 151:Generated_Source\PSoC4/cyfitter_cfg.c **** *
 152:Generated_Source\PSoC4/cyfitter_cfg.c **** * Parameters:
 153:Generated_Source\PSoC4/cyfitter_cfg.c **** *   void
 154:Generated_Source\PSoC4/cyfitter_cfg.c **** *
 155:Generated_Source\PSoC4/cyfitter_cfg.c **** * Return:
 156:Generated_Source\PSoC4/cyfitter_cfg.c **** *   void
 157:Generated_Source\PSoC4/cyfitter_cfg.c **** *
 158:Generated_Source\PSoC4/cyfitter_cfg.c **** *******************************************************************************/
 159:Generated_Source\PSoC4/cyfitter_cfg.c **** static void cfg_write_bytes32(const uint32 addr_table[], const cy_cfg_addrvalue_t data_table[]);
 160:Generated_Source\PSoC4/cyfitter_cfg.c **** static void cfg_write_bytes32(const uint32 addr_table[], const cy_cfg_addrvalue_t data_table[])
 161:Generated_Source\PSoC4/cyfitter_cfg.c **** {
  25              		.loc 1 161 0
  26              		.cfi_startproc
  27              	.LVL0:
  28 0000 F0B5     		push	{r4, r5, r6, r7, lr}
  29              		.cfi_def_cfa_offset 20
  30              		.cfi_offset 4, -20
  31              		.cfi_offset 5, -16
  32              		.cfi_offset 6, -12
  33              		.cfi_offset 7, -8
  34              		.cfi_offset 14, -4
  35              	.LVL1:
 162:Generated_Source\PSoC4/cyfitter_cfg.c **** 	/* For 32-bit little-endian architectures */
 163:Generated_Source\PSoC4/cyfitter_cfg.c **** 	uint32 i, j = 0u;
  36              		.loc 1 163 0
  37 0002 0025     		mov	r5, #0
 164:Generated_Source\PSoC4/cyfitter_cfg.c **** 	for (i = 0u; i < CY_CFG_BASE_ADDR_COUNT; i++)
  38              		.loc 1 164 0
  39 0004 0027     		mov	r7, #0
  40 0006 11E0     		b	.L2
  41              	.LVL2:
  42              	.L5:
  43              	.LBB2:
 165:Generated_Source\PSoC4/cyfitter_cfg.c **** 	{
 166:Generated_Source\PSoC4/cyfitter_cfg.c **** 		uint32 baseAddr = addr_table[i];
  44              		.loc 1 166 0
  45 0008 BB00     		lsl	r3, r7, #2
  46 000a C658     		ldr	r6, [r0, r3]
  47              	.LVL3:
 167:Generated_Source\PSoC4/cyfitter_cfg.c **** 		uint8 count = (uint8)baseAddr;
  48              		.loc 1 167 0
  49 000c F3B2     		uxtb	r3, r6
  50              	.LVL4:
 168:Generated_Source\PSoC4/cyfitter_cfg.c **** 		baseAddr &= 0xFFFFFF00u;
  51              		.loc 1 168 0
  52 000e FF22     		mov	r2, #255
  53 0010 9643     		bic	r6, r2
  54              	.LVL5:
 169:Generated_Source\PSoC4/cyfitter_cfg.c **** 		while (count != 0u)
  55              		.loc 1 169 0
  56 0012 08E0     		b	.L3
  57              	.L4:
 170:Generated_Source\PSoC4/cyfitter_cfg.c **** 		{
 171:Generated_Source\PSoC4/cyfitter_cfg.c **** 			CY_SET_XTND_REG8((void CYFAR *)(baseAddr + data_table[j].offset), data_table[j].value);
ARM GAS  C:\Users\Sarah\AppData\Local\Temp\ccwsjVjd.s 			page 5


  58              		.loc 1 171 0
  59 0014 6A00     		lsl	r2, r5, #1
  60 0016 8A18     		add	r2, r1, r2
  61 0018 1478     		ldrb	r4, [r2]
  62 001a A419     		add	r4, r4, r6
  63 001c 5278     		ldrb	r2, [r2, #1]
  64 001e 2270     		strb	r2, [r4]
 172:Generated_Source\PSoC4/cyfitter_cfg.c **** 			j++;
  65              		.loc 1 172 0
  66 0020 0135     		add	r5, r5, #1
  67              	.LVL6:
 173:Generated_Source\PSoC4/cyfitter_cfg.c **** 			count--;
  68              		.loc 1 173 0
  69 0022 013B     		sub	r3, r3, #1
  70              	.LVL7:
  71 0024 DBB2     		uxtb	r3, r3
  72              	.LVL8:
  73              	.L3:
 169:Generated_Source\PSoC4/cyfitter_cfg.c **** 		{
  74              		.loc 1 169 0
  75 0026 002B     		cmp	r3, #0
  76 0028 F4D1     		bne	.L4
  77              	.LBE2:
 164:Generated_Source\PSoC4/cyfitter_cfg.c **** 	{
  78              		.loc 1 164 0 discriminator 2
  79 002a 0137     		add	r7, r7, #1
  80              	.LVL9:
  81              	.L2:
 164:Generated_Source\PSoC4/cyfitter_cfg.c **** 	{
  82              		.loc 1 164 0 is_stmt 0 discriminator 1
  83 002c 082F     		cmp	r7, #8
  84 002e EBD9     		bls	.L5
 174:Generated_Source\PSoC4/cyfitter_cfg.c **** 		}
 175:Generated_Source\PSoC4/cyfitter_cfg.c **** 	}
 176:Generated_Source\PSoC4/cyfitter_cfg.c **** }
  85              		.loc 1 176 0 is_stmt 1
  86              		@ sp needed
  87              	.LVL10:
  88              	.LVL11:
  89 0030 F0BD     		pop	{r4, r5, r6, r7, pc}
  90              		.cfi_endproc
  91              	.LFE5:
  92              		.size	cfg_write_bytes32, .-cfg_write_bytes32
  93 0032 C046     		.section	.text.AnalogSetDefault,"ax",%progbits
  94              		.align	2
  95              		.code	16
  96              		.thumb_func
  97              		.type	AnalogSetDefault, %function
  98              	AnalogSetDefault:
  99              	.LFB7:
 177:Generated_Source\PSoC4/cyfitter_cfg.c **** 
 178:Generated_Source\PSoC4/cyfitter_cfg.c **** 
 179:Generated_Source\PSoC4/cyfitter_cfg.c **** /*******************************************************************************
 180:Generated_Source\PSoC4/cyfitter_cfg.c **** * Function Name: ClockSetup
 181:Generated_Source\PSoC4/cyfitter_cfg.c **** ********************************************************************************
 182:Generated_Source\PSoC4/cyfitter_cfg.c **** *
 183:Generated_Source\PSoC4/cyfitter_cfg.c **** * Summary:
ARM GAS  C:\Users\Sarah\AppData\Local\Temp\ccwsjVjd.s 			page 6


 184:Generated_Source\PSoC4/cyfitter_cfg.c **** *   Performs the initialization of all of the clocks in the device based on the
 185:Generated_Source\PSoC4/cyfitter_cfg.c **** *   settings in the Clock tab of the DWR.  This includes enabling the requested
 186:Generated_Source\PSoC4/cyfitter_cfg.c **** *   clocks and setting the necessary dividers to produce the desired frequency. 
 187:Generated_Source\PSoC4/cyfitter_cfg.c **** *
 188:Generated_Source\PSoC4/cyfitter_cfg.c **** * Parameters:
 189:Generated_Source\PSoC4/cyfitter_cfg.c **** *   void
 190:Generated_Source\PSoC4/cyfitter_cfg.c **** *
 191:Generated_Source\PSoC4/cyfitter_cfg.c **** * Return:
 192:Generated_Source\PSoC4/cyfitter_cfg.c **** *   void
 193:Generated_Source\PSoC4/cyfitter_cfg.c **** *
 194:Generated_Source\PSoC4/cyfitter_cfg.c **** *******************************************************************************/
 195:Generated_Source\PSoC4/cyfitter_cfg.c **** static void ClockSetup(void);
 196:Generated_Source\PSoC4/cyfitter_cfg.c **** CY_CFG_SECTION
 197:Generated_Source\PSoC4/cyfitter_cfg.c **** static void ClockSetup(void)
 198:Generated_Source\PSoC4/cyfitter_cfg.c **** {
 199:Generated_Source\PSoC4/cyfitter_cfg.c **** 
 200:Generated_Source\PSoC4/cyfitter_cfg.c **** 	/* Set Flash Cycles based on max possible frequency in case a glitch occurs during ClockSetup(). *
 201:Generated_Source\PSoC4/cyfitter_cfg.c **** 	CY_SET_REG32((void CYXDATA *)(CYREG_CPUSS_FLASH_CTL), (0x0012u));
 202:Generated_Source\PSoC4/cyfitter_cfg.c **** 
 203:Generated_Source\PSoC4/cyfitter_cfg.c **** 	/* Start the WCO */
 204:Generated_Source\PSoC4/cyfitter_cfg.c **** 	CySysClkWcoStart();
 205:Generated_Source\PSoC4/cyfitter_cfg.c **** 	CyDelayCycles(12000000u); /* WCO may take up to 500ms to start */
 206:Generated_Source\PSoC4/cyfitter_cfg.c **** 	(void)CySysClkWcoSetPowerMode(CY_SYS_CLK_WCO_LPM);    /* Switch to the low power mode */
 207:Generated_Source\PSoC4/cyfitter_cfg.c **** 
 208:Generated_Source\PSoC4/cyfitter_cfg.c **** 	/* Setup and trim IMO based on desired frequency. */
 209:Generated_Source\PSoC4/cyfitter_cfg.c **** 	CySysClkWriteImoFreq(48u);
 210:Generated_Source\PSoC4/cyfitter_cfg.c **** 	/* CYDEV_CLK_ILO_CONFIG Starting address: CYDEV_CLK_ILO_CONFIG */
 211:Generated_Source\PSoC4/cyfitter_cfg.c **** 	CY_SET_XTND_REG32((void CYFAR *)(CYREG_CLK_ILO_CONFIG), 0x80000006u);
 212:Generated_Source\PSoC4/cyfitter_cfg.c **** 
 213:Generated_Source\PSoC4/cyfitter_cfg.c **** 	/* CYDEV_WDT_CONFIG Starting address: CYDEV_WDT_CONFIG */
 214:Generated_Source\PSoC4/cyfitter_cfg.c **** 	CY_SET_XTND_REG32((void CYFAR *)(CYREG_WDT_CONFIG), 0x40000000u);
 215:Generated_Source\PSoC4/cyfitter_cfg.c **** 
 216:Generated_Source\PSoC4/cyfitter_cfg.c **** 
 217:Generated_Source\PSoC4/cyfitter_cfg.c **** 	/* Enable fast start mode for XO */
 218:Generated_Source\PSoC4/cyfitter_cfg.c **** 	CY_SET_REG32((void*)CYREG_BLE_BLERD_BB_XO, CY_GET_REG32((void*)CYREG_BLE_BLERD_BB_XO) | (uint32)0x
 219:Generated_Source\PSoC4/cyfitter_cfg.c **** 	CY_SET_XTND_REG32((void CYFAR *)(CYREG_BLE_BLERD_BB_XO_CAPTRIM), 0x00003E2Du);
 220:Generated_Source\PSoC4/cyfitter_cfg.c **** 	/*Set XTAL(ECO) divider*/
 221:Generated_Source\PSoC4/cyfitter_cfg.c **** 	CY_SET_XTND_REG32((void CYFAR *)(CYREG_BLE_BLESS_XTAL_CLK_DIV_CONFIG), 0x00000000u);
 222:Generated_Source\PSoC4/cyfitter_cfg.c **** 	/* Disable Crystal Stable Interrupt before enabling ECO */
 223:Generated_Source\PSoC4/cyfitter_cfg.c **** 	CY_SET_REG32((void*)CYREG_BLE_BLESS_LL_DSM_CTRL, CY_GET_REG32((void*)CYREG_BLE_BLESS_LL_DSM_CTRL) 
 224:Generated_Source\PSoC4/cyfitter_cfg.c **** 	/* Start the ECO and do not check status since it is not needed for HFCLK */
 225:Generated_Source\PSoC4/cyfitter_cfg.c **** 	(void)CySysClkEcoStart(2000u);
 226:Generated_Source\PSoC4/cyfitter_cfg.c **** 	CyDelayUs(1500u); /* Wait to stabalize */
 227:Generated_Source\PSoC4/cyfitter_cfg.c **** 
 228:Generated_Source\PSoC4/cyfitter_cfg.c **** 	/* Setup phase aligned clocks */
 229:Generated_Source\PSoC4/cyfitter_cfg.c **** 	CY_SET_REG32((void *)CYREG_PERI_DIV_16_CTL1, 0x00BB7F00u);
 230:Generated_Source\PSoC4/cyfitter_cfg.c **** 	CY_SET_REG32((void *)CYREG_PERI_DIV_CMD, 0x8000FF41u);
 231:Generated_Source\PSoC4/cyfitter_cfg.c **** 	CY_SET_REG32((void *)CYREG_PERI_DIV_16_CTL0, 0x00002200u);
 232:Generated_Source\PSoC4/cyfitter_cfg.c **** 	CY_SET_REG32((void *)CYREG_PERI_DIV_CMD, 0x8000FF40u);
 233:Generated_Source\PSoC4/cyfitter_cfg.c **** 
 234:Generated_Source\PSoC4/cyfitter_cfg.c **** 	/* CYDEV_CLK_IMO_CONFIG Starting address: CYDEV_CLK_IMO_CONFIG */
 235:Generated_Source\PSoC4/cyfitter_cfg.c **** 	CY_SET_XTND_REG32((void CYFAR *)(CYREG_CLK_IMO_CONFIG), 0x80000000u);
 236:Generated_Source\PSoC4/cyfitter_cfg.c **** 
 237:Generated_Source\PSoC4/cyfitter_cfg.c **** 	/* CYDEV_CLK_SELECT Starting address: CYDEV_CLK_SELECT */
 238:Generated_Source\PSoC4/cyfitter_cfg.c **** 	CY_SET_XTND_REG32((void CYFAR *)(CYREG_CLK_SELECT), 0x00040000u);
 239:Generated_Source\PSoC4/cyfitter_cfg.c **** 
 240:Generated_Source\PSoC4/cyfitter_cfg.c **** 	/* CYDEV_PERI_PCLK_CTL11 Starting address: CYDEV_PERI_PCLK_CTL11 */
ARM GAS  C:\Users\Sarah\AppData\Local\Temp\ccwsjVjd.s 			page 7


 241:Generated_Source\PSoC4/cyfitter_cfg.c **** 	CY_SET_XTND_REG32((void CYFAR *)(CYREG_PERI_PCLK_CTL11), 0x00000041u);
 242:Generated_Source\PSoC4/cyfitter_cfg.c **** 
 243:Generated_Source\PSoC4/cyfitter_cfg.c **** 	/* CYDEV_PERI_PCLK_CTL1 Starting address: CYDEV_PERI_PCLK_CTL1 */
 244:Generated_Source\PSoC4/cyfitter_cfg.c **** 	CY_SET_XTND_REG32((void CYFAR *)(CYREG_PERI_PCLK_CTL1), 0x00000040u);
 245:Generated_Source\PSoC4/cyfitter_cfg.c **** 
 246:Generated_Source\PSoC4/cyfitter_cfg.c **** 	(void)CyIntSetVector(8u, &CySysWdtIsr);
 247:Generated_Source\PSoC4/cyfitter_cfg.c **** 	CyIntEnable(8u);
 248:Generated_Source\PSoC4/cyfitter_cfg.c **** 	CY_SET_XTND_REG32((void CYFAR *)(CYREG_WDT_CONFIG), 0x40000000u);
 249:Generated_Source\PSoC4/cyfitter_cfg.c **** }
 250:Generated_Source\PSoC4/cyfitter_cfg.c **** 
 251:Generated_Source\PSoC4/cyfitter_cfg.c **** 
 252:Generated_Source\PSoC4/cyfitter_cfg.c **** /* Analog API Functions */
 253:Generated_Source\PSoC4/cyfitter_cfg.c **** 
 254:Generated_Source\PSoC4/cyfitter_cfg.c **** 
 255:Generated_Source\PSoC4/cyfitter_cfg.c **** /*******************************************************************************
 256:Generated_Source\PSoC4/cyfitter_cfg.c **** * Function Name: AnalogSetDefault
 257:Generated_Source\PSoC4/cyfitter_cfg.c **** ********************************************************************************
 258:Generated_Source\PSoC4/cyfitter_cfg.c **** *
 259:Generated_Source\PSoC4/cyfitter_cfg.c **** * Summary:
 260:Generated_Source\PSoC4/cyfitter_cfg.c **** *  Sets up the analog portions of the chip to default values based on chip
 261:Generated_Source\PSoC4/cyfitter_cfg.c **** *  configuration options from the project.
 262:Generated_Source\PSoC4/cyfitter_cfg.c **** *
 263:Generated_Source\PSoC4/cyfitter_cfg.c **** * Parameters:
 264:Generated_Source\PSoC4/cyfitter_cfg.c **** *  void
 265:Generated_Source\PSoC4/cyfitter_cfg.c **** *
 266:Generated_Source\PSoC4/cyfitter_cfg.c **** * Return:
 267:Generated_Source\PSoC4/cyfitter_cfg.c **** *  void
 268:Generated_Source\PSoC4/cyfitter_cfg.c **** *
 269:Generated_Source\PSoC4/cyfitter_cfg.c **** *******************************************************************************/
 270:Generated_Source\PSoC4/cyfitter_cfg.c **** static void AnalogSetDefault(void);
 271:Generated_Source\PSoC4/cyfitter_cfg.c **** static void AnalogSetDefault(void)
 272:Generated_Source\PSoC4/cyfitter_cfg.c **** {
 100              		.loc 1 272 0
 101              		.cfi_startproc
 273:Generated_Source\PSoC4/cyfitter_cfg.c **** 	CY_SET_XTND_REG32((void CYFAR *)CYREG_CTBM0_DFT_CTRL, 0x00000003u);
 102              		.loc 1 273 0
 103 0000 0323     		mov	r3, #3
 104 0002 044A     		ldr	r2, .L7
 105 0004 1360     		str	r3, [r2]
 274:Generated_Source\PSoC4/cyfitter_cfg.c **** 	CY_SET_XTND_REG32((void CYFAR *)CYREG_CTBM1_DFT_CTRL, 0x00000003u);
 106              		.loc 1 274 0
 107 0006 044A     		ldr	r2, .L7+4
 108 0008 1360     		str	r3, [r2]
 275:Generated_Source\PSoC4/cyfitter_cfg.c **** 	CY_SET_XTND_REG32((void CYFAR *)CYREG_PASS_DSAB_DSAB_CTRL, 0x00000000u);
 109              		.loc 1 275 0
 110 000a 0022     		mov	r2, #0
 111 000c 034B     		ldr	r3, .L7+8
 112 000e 1A60     		str	r2, [r3]
 276:Generated_Source\PSoC4/cyfitter_cfg.c **** }
 113              		.loc 1 276 0
 114              		@ sp needed
 115 0010 7047     		bx	lr
 116              	.L8:
 117 0012 C046     		.align	2
 118              	.L7:
 119 0014 30003040 		.word	1076887600
 120 0018 30003140 		.word	1076953136
ARM GAS  C:\Users\Sarah\AppData\Local\Temp\ccwsjVjd.s 			page 8


 121 001c 000E3F40 		.word	1077874176
 122              		.cfi_endproc
 123              	.LFE7:
 124              		.size	AnalogSetDefault, .-AnalogSetDefault
 125              		.section	.text.CYMEMZERO,"ax",%progbits
 126              		.align	2
 127              		.code	16
 128              		.thumb_func
 129              		.type	CYMEMZERO, %function
 130              	CYMEMZERO:
 131              	.LFB2:
  63:Generated_Source\PSoC4/cyfitter_cfg.c **** 	(void)memset(s, 0, n);
 132              		.loc 1 63 0
 133              		.cfi_startproc
 134              	.LVL12:
 135 0000 08B5     		push	{r3, lr}
 136              		.cfi_def_cfa_offset 8
 137              		.cfi_offset 3, -8
 138              		.cfi_offset 14, -4
 139 0002 0A1C     		mov	r2, r1
  64:Generated_Source\PSoC4/cyfitter_cfg.c **** }
 140              		.loc 1 64 0
 141 0004 0021     		mov	r1, #0
 142              	.LVL13:
 143 0006 FFF7FEFF 		bl	memset
 144              	.LVL14:
  65:Generated_Source\PSoC4/cyfitter_cfg.c **** CY_CFG_UNUSED
 145              		.loc 1 65 0
 146              		@ sp needed
 147 000a 08BD     		pop	{r3, pc}
 148              		.cfi_endproc
 149              	.LFE2:
 150              		.size	CYMEMZERO, .-CYMEMZERO
 151              		.section	.psocinit,"ax",%progbits
 152              		.align	2
 153              		.code	16
 154              		.thumb_func
 155              		.type	ClockSetup, %function
 156              	ClockSetup:
 157              	.LFB6:
 198:Generated_Source\PSoC4/cyfitter_cfg.c **** 
 158              		.loc 1 198 0
 159              		.cfi_startproc
 160 0000 38B5     		push	{r3, r4, r5, lr}
 161              		.cfi_def_cfa_offset 16
 162              		.cfi_offset 3, -16
 163              		.cfi_offset 4, -12
 164              		.cfi_offset 5, -8
 165              		.cfi_offset 14, -4
 201:Generated_Source\PSoC4/cyfitter_cfg.c **** 
 166              		.loc 1 201 0
 167 0002 1222     		mov	r2, #18
 168 0004 264B     		ldr	r3, .L11
 169 0006 1A60     		str	r2, [r3]
 204:Generated_Source\PSoC4/cyfitter_cfg.c **** 	CyDelayCycles(12000000u); /* WCO may take up to 500ms to start */
 170              		.loc 1 204 0
 171 0008 FFF7FEFF 		bl	CySysClkWcoStart
ARM GAS  C:\Users\Sarah\AppData\Local\Temp\ccwsjVjd.s 			page 9


 172              	.LVL15:
 205:Generated_Source\PSoC4/cyfitter_cfg.c **** 	(void)CySysClkWcoSetPowerMode(CY_SYS_CLK_WCO_LPM);    /* Switch to the low power mode */
 173              		.loc 1 205 0
 174 000c 2548     		ldr	r0, .L11+4
 175 000e FFF7FEFF 		bl	CyDelayCycles
 176              	.LVL16:
 206:Generated_Source\PSoC4/cyfitter_cfg.c **** 
 177              		.loc 1 206 0
 178 0012 0120     		mov	r0, #1
 179 0014 FFF7FEFF 		bl	CySysClkWcoSetPowerMode
 180              	.LVL17:
 209:Generated_Source\PSoC4/cyfitter_cfg.c **** 	/* CYDEV_CLK_ILO_CONFIG Starting address: CYDEV_CLK_ILO_CONFIG */
 181              		.loc 1 209 0
 182 0018 3020     		mov	r0, #48
 183 001a FFF7FEFF 		bl	CySysClkWriteImoFreq
 184              	.LVL18:
 211:Generated_Source\PSoC4/cyfitter_cfg.c **** 
 185              		.loc 1 211 0
 186 001e 224A     		ldr	r2, .L11+8
 187 0020 224B     		ldr	r3, .L11+12
 188 0022 1A60     		str	r2, [r3]
 214:Generated_Source\PSoC4/cyfitter_cfg.c **** 
 189              		.loc 1 214 0
 190 0024 224C     		ldr	r4, .L11+16
 191 0026 8025     		mov	r5, #128
 192 0028 ED05     		lsl	r5, r5, #23
 193 002a 2560     		str	r5, [r4]
 218:Generated_Source\PSoC4/cyfitter_cfg.c **** 	CY_SET_XTND_REG32((void CYFAR *)(CYREG_BLE_BLERD_BB_XO_CAPTRIM), 0x00003E2Du);
 194              		.loc 1 218 0
 195 002c 214A     		ldr	r2, .L11+20
 196 002e 1168     		ldr	r1, [r2]
 197 0030 0223     		mov	r3, #2
 198 0032 0B43     		orr	r3, r1
 199 0034 1360     		str	r3, [r2]
 219:Generated_Source\PSoC4/cyfitter_cfg.c **** 	/*Set XTAL(ECO) divider*/
 200              		.loc 1 219 0
 201 0036 204A     		ldr	r2, .L11+24
 202 0038 204B     		ldr	r3, .L11+28
 203 003a 1A60     		str	r2, [r3]
 221:Generated_Source\PSoC4/cyfitter_cfg.c **** 	/* Disable Crystal Stable Interrupt before enabling ECO */
 204              		.loc 1 221 0
 205 003c 0022     		mov	r2, #0
 206 003e 204B     		ldr	r3, .L11+32
 207 0040 1A60     		str	r2, [r3]
 223:Generated_Source\PSoC4/cyfitter_cfg.c **** 	/* Start the ECO and do not check status since it is not needed for HFCLK */
 208              		.loc 1 223 0
 209 0042 204A     		ldr	r2, .L11+36
 210 0044 1368     		ldr	r3, [r2]
 211 0046 0821     		mov	r1, #8
 212 0048 8B43     		bic	r3, r1
 213 004a 1360     		str	r3, [r2]
 225:Generated_Source\PSoC4/cyfitter_cfg.c **** 	CyDelayUs(1500u); /* Wait to stabalize */
 214              		.loc 1 225 0
 215 004c FA20     		mov	r0, #250
 216 004e C000     		lsl	r0, r0, #3
 217 0050 FFF7FEFF 		bl	CySysClkEcoStart
 218              	.LVL19:
ARM GAS  C:\Users\Sarah\AppData\Local\Temp\ccwsjVjd.s 			page 10


 226:Generated_Source\PSoC4/cyfitter_cfg.c **** 
 219              		.loc 1 226 0
 220 0054 1C48     		ldr	r0, .L11+40
 221 0056 FFF7FEFF 		bl	CyDelayUs
 222              	.LVL20:
 229:Generated_Source\PSoC4/cyfitter_cfg.c **** 	CY_SET_REG32((void *)CYREG_PERI_DIV_CMD, 0x8000FF41u);
 223              		.loc 1 229 0
 224 005a 1C4A     		ldr	r2, .L11+44
 225 005c 1C4B     		ldr	r3, .L11+48
 226 005e 1A60     		str	r2, [r3]
 230:Generated_Source\PSoC4/cyfitter_cfg.c **** 	CY_SET_REG32((void *)CYREG_PERI_DIV_16_CTL0, 0x00002200u);
 227              		.loc 1 230 0
 228 0060 1C4B     		ldr	r3, .L11+52
 229 0062 1D4A     		ldr	r2, .L11+56
 230 0064 1A60     		str	r2, [r3]
 231:Generated_Source\PSoC4/cyfitter_cfg.c **** 	CY_SET_REG32((void *)CYREG_PERI_DIV_CMD, 0x8000FF40u);
 231              		.loc 1 231 0
 232 0066 8821     		mov	r1, #136
 233 0068 8901     		lsl	r1, r1, #6
 234 006a 1C4A     		ldr	r2, .L11+60
 235 006c 1160     		str	r1, [r2]
 232:Generated_Source\PSoC4/cyfitter_cfg.c **** 
 236              		.loc 1 232 0
 237 006e 1C4A     		ldr	r2, .L11+64
 238 0070 1A60     		str	r2, [r3]
 235:Generated_Source\PSoC4/cyfitter_cfg.c **** 
 239              		.loc 1 235 0
 240 0072 8022     		mov	r2, #128
 241 0074 1206     		lsl	r2, r2, #24
 242 0076 1B4B     		ldr	r3, .L11+68
 243 0078 1A60     		str	r2, [r3]
 238:Generated_Source\PSoC4/cyfitter_cfg.c **** 
 244              		.loc 1 238 0
 245 007a 8022     		mov	r2, #128
 246 007c D202     		lsl	r2, r2, #11
 247 007e 1A4B     		ldr	r3, .L11+72
 248 0080 1A60     		str	r2, [r3]
 241:Generated_Source\PSoC4/cyfitter_cfg.c **** 
 249              		.loc 1 241 0
 250 0082 4122     		mov	r2, #65
 251 0084 194B     		ldr	r3, .L11+76
 252 0086 1A60     		str	r2, [r3]
 244:Generated_Source\PSoC4/cyfitter_cfg.c **** 
 253              		.loc 1 244 0
 254 0088 013A     		sub	r2, r2, #1
 255 008a 194B     		ldr	r3, .L11+80
 256 008c 1A60     		str	r2, [r3]
 246:Generated_Source\PSoC4/cyfitter_cfg.c **** 	CyIntEnable(8u);
 257              		.loc 1 246 0
 258 008e 0820     		mov	r0, #8
 259 0090 1849     		ldr	r1, .L11+84
 260 0092 FFF7FEFF 		bl	CyIntSetVector
 261              	.LVL21:
 247:Generated_Source\PSoC4/cyfitter_cfg.c **** 	CY_SET_XTND_REG32((void CYFAR *)(CYREG_WDT_CONFIG), 0x40000000u);
 262              		.loc 1 247 0
 263 0096 0820     		mov	r0, #8
 264 0098 FFF7FEFF 		bl	CyIntEnable
ARM GAS  C:\Users\Sarah\AppData\Local\Temp\ccwsjVjd.s 			page 11


 265              	.LVL22:
 248:Generated_Source\PSoC4/cyfitter_cfg.c **** }
 266              		.loc 1 248 0
 267 009c 2560     		str	r5, [r4]
 249:Generated_Source\PSoC4/cyfitter_cfg.c **** 
 268              		.loc 1 249 0
 269              		@ sp needed
 270 009e 38BD     		pop	{r3, r4, r5, pc}
 271              	.L12:
 272              		.align	2
 273              	.L11:
 274 00a0 30001040 		.word	1074790448
 275 00a4 001BB700 		.word	12000000
 276 00a8 06000080 		.word	-2147483642
 277 00ac 04010B40 		.word	1074462980
 278 00b0 0C020B40 		.word	1074463244
 279 00b4 78002E40 		.word	1076756600
 280 00b8 2D3E0000 		.word	15917
 281 00bc 7C002E40 		.word	1076756604
 282 00c0 64F02E40 		.word	1076818020
 283 00c4 6CF02E40 		.word	1076818028
 284 00c8 DC050000 		.word	1500
 285 00cc 007FBB00 		.word	12287744
 286 00d0 04030140 		.word	1073808132
 287 00d4 00000140 		.word	1073807360
 288 00d8 41FF0080 		.word	-2147418303
 289 00dc 00030140 		.word	1073808128
 290 00e0 40FF0080 		.word	-2147418304
 291 00e4 08010B40 		.word	1074462984
 292 00e8 00010B40 		.word	1074462976
 293 00ec 2C010140 		.word	1073807660
 294 00f0 04010140 		.word	1073807620
 295 00f4 00000000 		.word	CySysWdtIsr
 296              		.cfi_endproc
 297              	.LFE6:
 298              		.size	ClockSetup, .-ClockSetup
 299              		.align	2
 300              		.global	cyfitter_cfg
 301              		.code	16
 302              		.thumb_func
 303              		.type	cyfitter_cfg, %function
 304              	cyfitter_cfg:
 305              	.LFB8:
 277:Generated_Source\PSoC4/cyfitter_cfg.c **** 
 278:Generated_Source\PSoC4/cyfitter_cfg.c **** #define CY_AMUX_UNUSED CYREG_CM0_ROM_DWT
 279:Generated_Source\PSoC4/cyfitter_cfg.c **** 
 280:Generated_Source\PSoC4/cyfitter_cfg.c **** 
 281:Generated_Source\PSoC4/cyfitter_cfg.c **** /*******************************************************************************
 282:Generated_Source\PSoC4/cyfitter_cfg.c **** * Function Name: cyfitter_cfg
 283:Generated_Source\PSoC4/cyfitter_cfg.c **** ********************************************************************************
 284:Generated_Source\PSoC4/cyfitter_cfg.c **** * Summary:
 285:Generated_Source\PSoC4/cyfitter_cfg.c **** *  This function is called by the start-up code for the selected device. It
 286:Generated_Source\PSoC4/cyfitter_cfg.c **** *  performs all of the necessary device configuration based on the design
 287:Generated_Source\PSoC4/cyfitter_cfg.c **** *  settings.  This includes settings from the Design Wide Resources (DWR) such
 288:Generated_Source\PSoC4/cyfitter_cfg.c **** *  as Clocks and Pins as well as any component configuration that is necessary.
 289:Generated_Source\PSoC4/cyfitter_cfg.c **** *
 290:Generated_Source\PSoC4/cyfitter_cfg.c **** * Parameters:  
ARM GAS  C:\Users\Sarah\AppData\Local\Temp\ccwsjVjd.s 			page 12


 291:Generated_Source\PSoC4/cyfitter_cfg.c **** *   void
 292:Generated_Source\PSoC4/cyfitter_cfg.c **** *
 293:Generated_Source\PSoC4/cyfitter_cfg.c **** * Return:
 294:Generated_Source\PSoC4/cyfitter_cfg.c **** *   void
 295:Generated_Source\PSoC4/cyfitter_cfg.c **** *
 296:Generated_Source\PSoC4/cyfitter_cfg.c **** *******************************************************************************/
 297:Generated_Source\PSoC4/cyfitter_cfg.c **** CY_CFG_SECTION
 298:Generated_Source\PSoC4/cyfitter_cfg.c **** void cyfitter_cfg(void)
 299:Generated_Source\PSoC4/cyfitter_cfg.c **** {
 306              		.loc 1 299 0
 307              		.cfi_startproc
 308 00f8 10B5     		push	{r4, lr}
 309              		.cfi_def_cfa_offset 8
 310              		.cfi_offset 4, -8
 311              		.cfi_offset 14, -4
 300:Generated_Source\PSoC4/cyfitter_cfg.c **** 	/* Disable interrupts by default. Let user enable if/when they want. */
 301:Generated_Source\PSoC4/cyfitter_cfg.c **** 	CyGlobalIntDisable;
 312              		.loc 1 301 0
 313              	@ 301 "Generated_Source\PSoC4\cyfitter_cfg.c" 1
 314 00fa 72B6     		CPSID   i
 315              	@ 0 "" 2
 302:Generated_Source\PSoC4/cyfitter_cfg.c **** 
 303:Generated_Source\PSoC4/cyfitter_cfg.c **** 	CY_SET_XTND_REG32((void CYFAR *)(CYREG_BLE_BLESS_LL_DSM_CTRL), 0x00000000u);
 316              		.loc 1 303 0
 317              		.code	16
 318 00fc 0022     		mov	r2, #0
 319 00fe 364B     		ldr	r3, .L16
 320 0100 1A60     		str	r2, [r3]
 304:Generated_Source\PSoC4/cyfitter_cfg.c **** 
 305:Generated_Source\PSoC4/cyfitter_cfg.c **** 	/* Enable the clock in the interrupt controller for the routed interrupts */
 306:Generated_Source\PSoC4/cyfitter_cfg.c **** 	CY_SET_REG8((void *)CYREG_UDB_UDBIF_INT_CLK_CTL, 0x01u);
 321              		.loc 1 306 0
 322 0102 0132     		add	r2, r2, #1
 323 0104 354B     		ldr	r3, .L16+4
 324 0106 1A70     		strb	r2, [r3]
 325              	.LVL23:
 326              	.LBB3:
 307:Generated_Source\PSoC4/cyfitter_cfg.c **** 	{
 308:Generated_Source\PSoC4/cyfitter_cfg.c **** 		static const uint32 CYCODE cy_cfg_addr_table[] = {
 309:Generated_Source\PSoC4/cyfitter_cfg.c **** 			0x400F0003u, /* Base address: 0x400F0000 Count: 3 */
 310:Generated_Source\PSoC4/cyfitter_cfg.c **** 			0x400F300Cu, /* Base address: 0x400F3000 Count: 12 */
 311:Generated_Source\PSoC4/cyfitter_cfg.c **** 			0x400F3107u, /* Base address: 0x400F3100 Count: 7 */
 312:Generated_Source\PSoC4/cyfitter_cfg.c **** 			0x400F3250u, /* Base address: 0x400F3200 Count: 80 */
 313:Generated_Source\PSoC4/cyfitter_cfg.c **** 			0x400F333Du, /* Base address: 0x400F3300 Count: 61 */
 314:Generated_Source\PSoC4/cyfitter_cfg.c **** 			0x400F4104u, /* Base address: 0x400F4100 Count: 4 */
 315:Generated_Source\PSoC4/cyfitter_cfg.c **** 			0x400F4202u, /* Base address: 0x400F4200 Count: 2 */
 316:Generated_Source\PSoC4/cyfitter_cfg.c **** 			0x400F430Au, /* Base address: 0x400F4300 Count: 10 */
 317:Generated_Source\PSoC4/cyfitter_cfg.c **** 			0x400F6002u, /* Base address: 0x400F6000 Count: 2 */
 318:Generated_Source\PSoC4/cyfitter_cfg.c **** 		};
 319:Generated_Source\PSoC4/cyfitter_cfg.c **** 
 320:Generated_Source\PSoC4/cyfitter_cfg.c **** 		static const cy_cfg_addrvalue_t CYCODE cy_cfg_data_table[] = {
 321:Generated_Source\PSoC4/cyfitter_cfg.c **** 			{0x70u, 0x01u},
 322:Generated_Source\PSoC4/cyfitter_cfg.c **** 			{0x73u, 0x01u},
 323:Generated_Source\PSoC4/cyfitter_cfg.c **** 			{0x83u, 0x0Du},
 324:Generated_Source\PSoC4/cyfitter_cfg.c **** 			{0x5Bu, 0x04u},
 325:Generated_Source\PSoC4/cyfitter_cfg.c **** 			{0x5Fu, 0x01u},
 326:Generated_Source\PSoC4/cyfitter_cfg.c **** 			{0x82u, 0x01u},
ARM GAS  C:\Users\Sarah\AppData\Local\Temp\ccwsjVjd.s 			page 13


 327:Generated_Source\PSoC4/cyfitter_cfg.c **** 			{0xB6u, 0x01u},
 328:Generated_Source\PSoC4/cyfitter_cfg.c **** 			{0xB8u, 0x20u},
 329:Generated_Source\PSoC4/cyfitter_cfg.c **** 			{0xBEu, 0x10u},
 330:Generated_Source\PSoC4/cyfitter_cfg.c **** 			{0xD2u, 0x01u},
 331:Generated_Source\PSoC4/cyfitter_cfg.c **** 			{0xD3u, 0x01u},
 332:Generated_Source\PSoC4/cyfitter_cfg.c **** 			{0xD6u, 0x10u},
 333:Generated_Source\PSoC4/cyfitter_cfg.c **** 			{0xD8u, 0x04u},
 334:Generated_Source\PSoC4/cyfitter_cfg.c **** 			{0xDBu, 0x04u},
 335:Generated_Source\PSoC4/cyfitter_cfg.c **** 			{0xDFu, 0x01u},
 336:Generated_Source\PSoC4/cyfitter_cfg.c **** 			{0x04u, 0x02u},
 337:Generated_Source\PSoC4/cyfitter_cfg.c **** 			{0x1Eu, 0x02u},
 338:Generated_Source\PSoC4/cyfitter_cfg.c **** 			{0x1Fu, 0x30u},
 339:Generated_Source\PSoC4/cyfitter_cfg.c **** 			{0x68u, 0x01u},
 340:Generated_Source\PSoC4/cyfitter_cfg.c **** 			{0x6Cu, 0x01u},
 341:Generated_Source\PSoC4/cyfitter_cfg.c **** 			{0x88u, 0x01u},
 342:Generated_Source\PSoC4/cyfitter_cfg.c **** 			{0xC0u, 0x10u},
 343:Generated_Source\PSoC4/cyfitter_cfg.c **** 			{0x02u, 0x10u},
 344:Generated_Source\PSoC4/cyfitter_cfg.c **** 			{0x03u, 0x0Eu},
 345:Generated_Source\PSoC4/cyfitter_cfg.c **** 			{0x04u, 0x04u},
 346:Generated_Source\PSoC4/cyfitter_cfg.c **** 			{0x06u, 0x40u},
 347:Generated_Source\PSoC4/cyfitter_cfg.c **** 			{0x07u, 0x01u},
 348:Generated_Source\PSoC4/cyfitter_cfg.c **** 			{0x0Bu, 0x08u},
 349:Generated_Source\PSoC4/cyfitter_cfg.c **** 			{0x0Cu, 0x08u},
 350:Generated_Source\PSoC4/cyfitter_cfg.c **** 			{0x0Eu, 0x40u},
 351:Generated_Source\PSoC4/cyfitter_cfg.c **** 			{0x0Fu, 0x0Du},
 352:Generated_Source\PSoC4/cyfitter_cfg.c **** 			{0x10u, 0x0Eu},
 353:Generated_Source\PSoC4/cyfitter_cfg.c **** 			{0x11u, 0x04u},
 354:Generated_Source\PSoC4/cyfitter_cfg.c **** 			{0x12u, 0x80u},
 355:Generated_Source\PSoC4/cyfitter_cfg.c **** 			{0x14u, 0x02u},
 356:Generated_Source\PSoC4/cyfitter_cfg.c **** 			{0x16u, 0x41u},
 357:Generated_Source\PSoC4/cyfitter_cfg.c **** 			{0x1Au, 0x6Fu},
 358:Generated_Source\PSoC4/cyfitter_cfg.c **** 			{0x1Bu, 0x01u},
 359:Generated_Source\PSoC4/cyfitter_cfg.c **** 			{0x1Cu, 0x10u},
 360:Generated_Source\PSoC4/cyfitter_cfg.c **** 			{0x1Du, 0x0Cu},
 361:Generated_Source\PSoC4/cyfitter_cfg.c **** 			{0x22u, 0x3Eu},
 362:Generated_Source\PSoC4/cyfitter_cfg.c **** 			{0x23u, 0x04u},
 363:Generated_Source\PSoC4/cyfitter_cfg.c **** 			{0x28u, 0xFEu},
 364:Generated_Source\PSoC4/cyfitter_cfg.c **** 			{0x2Eu, 0x7Fu},
 365:Generated_Source\PSoC4/cyfitter_cfg.c **** 			{0x2Fu, 0x01u},
 366:Generated_Source\PSoC4/cyfitter_cfg.c **** 			{0x30u, 0xC0u},
 367:Generated_Source\PSoC4/cyfitter_cfg.c **** 			{0x31u, 0x01u},
 368:Generated_Source\PSoC4/cyfitter_cfg.c **** 			{0x32u, 0x0Eu},
 369:Generated_Source\PSoC4/cyfitter_cfg.c **** 			{0x33u, 0x02u},
 370:Generated_Source\PSoC4/cyfitter_cfg.c **** 			{0x34u, 0x30u},
 371:Generated_Source\PSoC4/cyfitter_cfg.c **** 			{0x35u, 0x0Cu},
 372:Generated_Source\PSoC4/cyfitter_cfg.c **** 			{0x36u, 0x01u},
 373:Generated_Source\PSoC4/cyfitter_cfg.c **** 			{0x37u, 0x01u},
 374:Generated_Source\PSoC4/cyfitter_cfg.c **** 			{0x3Eu, 0x40u},
 375:Generated_Source\PSoC4/cyfitter_cfg.c **** 			{0x3Fu, 0x40u},
 376:Generated_Source\PSoC4/cyfitter_cfg.c **** 			{0x40u, 0x15u},
 377:Generated_Source\PSoC4/cyfitter_cfg.c **** 			{0x41u, 0x04u},
 378:Generated_Source\PSoC4/cyfitter_cfg.c **** 			{0x49u, 0xFFu},
 379:Generated_Source\PSoC4/cyfitter_cfg.c **** 			{0x4Au, 0xFFu},
 380:Generated_Source\PSoC4/cyfitter_cfg.c **** 			{0x4Bu, 0xFFu},
 381:Generated_Source\PSoC4/cyfitter_cfg.c **** 			{0x4Fu, 0x01u},
 382:Generated_Source\PSoC4/cyfitter_cfg.c **** 			{0x50u, 0x18u},
 383:Generated_Source\PSoC4/cyfitter_cfg.c **** 			{0x52u, 0x90u},
ARM GAS  C:\Users\Sarah\AppData\Local\Temp\ccwsjVjd.s 			page 14


 384:Generated_Source\PSoC4/cyfitter_cfg.c **** 			{0x58u, 0x04u},
 385:Generated_Source\PSoC4/cyfitter_cfg.c **** 			{0x59u, 0x04u},
 386:Generated_Source\PSoC4/cyfitter_cfg.c **** 			{0x5Au, 0x04u},
 387:Generated_Source\PSoC4/cyfitter_cfg.c **** 			{0x5Bu, 0x04u},
 388:Generated_Source\PSoC4/cyfitter_cfg.c **** 			{0x5Fu, 0x01u},
 389:Generated_Source\PSoC4/cyfitter_cfg.c **** 			{0x60u, 0x40u},
 390:Generated_Source\PSoC4/cyfitter_cfg.c **** 			{0x62u, 0x40u},
 391:Generated_Source\PSoC4/cyfitter_cfg.c **** 			{0x64u, 0x40u},
 392:Generated_Source\PSoC4/cyfitter_cfg.c **** 			{0x65u, 0x40u},
 393:Generated_Source\PSoC4/cyfitter_cfg.c **** 			{0x66u, 0x80u},
 394:Generated_Source\PSoC4/cyfitter_cfg.c **** 			{0x68u, 0x80u},
 395:Generated_Source\PSoC4/cyfitter_cfg.c **** 			{0x6Au, 0x80u},
 396:Generated_Source\PSoC4/cyfitter_cfg.c **** 			{0x6Cu, 0x80u},
 397:Generated_Source\PSoC4/cyfitter_cfg.c **** 			{0x6Eu, 0x80u},
 398:Generated_Source\PSoC4/cyfitter_cfg.c **** 			{0xC0u, 0x15u},
 399:Generated_Source\PSoC4/cyfitter_cfg.c **** 			{0xC1u, 0x04u},
 400:Generated_Source\PSoC4/cyfitter_cfg.c **** 			{0xC5u, 0xECu},
 401:Generated_Source\PSoC4/cyfitter_cfg.c **** 			{0xC7u, 0x20u},
 402:Generated_Source\PSoC4/cyfitter_cfg.c **** 			{0xC8u, 0x23u},
 403:Generated_Source\PSoC4/cyfitter_cfg.c **** 			{0xC9u, 0xFFu},
 404:Generated_Source\PSoC4/cyfitter_cfg.c **** 			{0xCAu, 0xFFu},
 405:Generated_Source\PSoC4/cyfitter_cfg.c **** 			{0xCBu, 0xFFu},
 406:Generated_Source\PSoC4/cyfitter_cfg.c **** 			{0xCDu, 0x83u},
 407:Generated_Source\PSoC4/cyfitter_cfg.c **** 			{0xCEu, 0x03u},
 408:Generated_Source\PSoC4/cyfitter_cfg.c **** 			{0xCFu, 0x01u},
 409:Generated_Source\PSoC4/cyfitter_cfg.c **** 			{0xD0u, 0x18u},
 410:Generated_Source\PSoC4/cyfitter_cfg.c **** 			{0xD4u, 0x01u},
 411:Generated_Source\PSoC4/cyfitter_cfg.c **** 			{0xDAu, 0x04u},
 412:Generated_Source\PSoC4/cyfitter_cfg.c **** 			{0xDBu, 0x04u},
 413:Generated_Source\PSoC4/cyfitter_cfg.c **** 			{0xDFu, 0x05u},
 414:Generated_Source\PSoC4/cyfitter_cfg.c **** 			{0xE0u, 0x40u},
 415:Generated_Source\PSoC4/cyfitter_cfg.c **** 			{0xE2u, 0x40u},
 416:Generated_Source\PSoC4/cyfitter_cfg.c **** 			{0xE4u, 0x40u},
 417:Generated_Source\PSoC4/cyfitter_cfg.c **** 			{0xE5u, 0x40u},
 418:Generated_Source\PSoC4/cyfitter_cfg.c **** 			{0xE6u, 0x80u},
 419:Generated_Source\PSoC4/cyfitter_cfg.c **** 			{0xE8u, 0x80u},
 420:Generated_Source\PSoC4/cyfitter_cfg.c **** 			{0xEAu, 0x80u},
 421:Generated_Source\PSoC4/cyfitter_cfg.c **** 			{0xECu, 0x80u},
 422:Generated_Source\PSoC4/cyfitter_cfg.c **** 			{0xEEu, 0x80u},
 423:Generated_Source\PSoC4/cyfitter_cfg.c **** 			{0x04u, 0x02u},
 424:Generated_Source\PSoC4/cyfitter_cfg.c **** 			{0x05u, 0x02u},
 425:Generated_Source\PSoC4/cyfitter_cfg.c **** 			{0x06u, 0x01u},
 426:Generated_Source\PSoC4/cyfitter_cfg.c **** 			{0x07u, 0x20u},
 427:Generated_Source\PSoC4/cyfitter_cfg.c **** 			{0x0Du, 0x08u},
 428:Generated_Source\PSoC4/cyfitter_cfg.c **** 			{0x0Eu, 0x47u},
 429:Generated_Source\PSoC4/cyfitter_cfg.c **** 			{0x15u, 0x20u},
 430:Generated_Source\PSoC4/cyfitter_cfg.c **** 			{0x16u, 0x82u},
 431:Generated_Source\PSoC4/cyfitter_cfg.c **** 			{0x1Du, 0x88u},
 432:Generated_Source\PSoC4/cyfitter_cfg.c **** 			{0x1Eu, 0x44u},
 433:Generated_Source\PSoC4/cyfitter_cfg.c **** 			{0x25u, 0x12u},
 434:Generated_Source\PSoC4/cyfitter_cfg.c **** 			{0x26u, 0x80u},
 435:Generated_Source\PSoC4/cyfitter_cfg.c **** 			{0x27u, 0x60u},
 436:Generated_Source\PSoC4/cyfitter_cfg.c **** 			{0x2Eu, 0x01u},
 437:Generated_Source\PSoC4/cyfitter_cfg.c **** 			{0x2Fu, 0x02u},
 438:Generated_Source\PSoC4/cyfitter_cfg.c **** 			{0x35u, 0x02u},
 439:Generated_Source\PSoC4/cyfitter_cfg.c **** 			{0x37u, 0x60u},
 440:Generated_Source\PSoC4/cyfitter_cfg.c **** 			{0x3Cu, 0x82u},
ARM GAS  C:\Users\Sarah\AppData\Local\Temp\ccwsjVjd.s 			page 15


 441:Generated_Source\PSoC4/cyfitter_cfg.c **** 			{0x3Du, 0x20u},
 442:Generated_Source\PSoC4/cyfitter_cfg.c **** 			{0x3Eu, 0x04u},
 443:Generated_Source\PSoC4/cyfitter_cfg.c **** 			{0x41u, 0x82u},
 444:Generated_Source\PSoC4/cyfitter_cfg.c **** 			{0x45u, 0x82u},
 445:Generated_Source\PSoC4/cyfitter_cfg.c **** 			{0x49u, 0x05u},
 446:Generated_Source\PSoC4/cyfitter_cfg.c **** 			{0x4Au, 0x02u},
 447:Generated_Source\PSoC4/cyfitter_cfg.c **** 			{0x4Eu, 0x02u},
 448:Generated_Source\PSoC4/cyfitter_cfg.c **** 			{0x52u, 0x03u},
 449:Generated_Source\PSoC4/cyfitter_cfg.c **** 			{0x53u, 0x02u},
 450:Generated_Source\PSoC4/cyfitter_cfg.c **** 			{0x59u, 0x45u},
 451:Generated_Source\PSoC4/cyfitter_cfg.c **** 			{0x5Cu, 0x8Au},
 452:Generated_Source\PSoC4/cyfitter_cfg.c **** 			{0x5Du, 0x10u},
 453:Generated_Source\PSoC4/cyfitter_cfg.c **** 			{0x61u, 0x40u},
 454:Generated_Source\PSoC4/cyfitter_cfg.c **** 			{0x62u, 0x80u},
 455:Generated_Source\PSoC4/cyfitter_cfg.c **** 			{0x64u, 0x4Au},
 456:Generated_Source\PSoC4/cyfitter_cfg.c **** 			{0x67u, 0x22u},
 457:Generated_Source\PSoC4/cyfitter_cfg.c **** 			{0x69u, 0x80u},
 458:Generated_Source\PSoC4/cyfitter_cfg.c **** 			{0x74u, 0x41u},
 459:Generated_Source\PSoC4/cyfitter_cfg.c **** 			{0x76u, 0x82u},
 460:Generated_Source\PSoC4/cyfitter_cfg.c **** 			{0x79u, 0x20u},
 461:Generated_Source\PSoC4/cyfitter_cfg.c **** 			{0x80u, 0x80u},
 462:Generated_Source\PSoC4/cyfitter_cfg.c **** 			{0x85u, 0x12u},
 463:Generated_Source\PSoC4/cyfitter_cfg.c **** 			{0x88u, 0x48u},
 464:Generated_Source\PSoC4/cyfitter_cfg.c **** 			{0x89u, 0x10u},
 465:Generated_Source\PSoC4/cyfitter_cfg.c **** 			{0x8Bu, 0x20u},
 466:Generated_Source\PSoC4/cyfitter_cfg.c **** 			{0x8Du, 0x40u},
 467:Generated_Source\PSoC4/cyfitter_cfg.c **** 			{0x8Fu, 0x21u},
 468:Generated_Source\PSoC4/cyfitter_cfg.c **** 			{0x90u, 0x02u},
 469:Generated_Source\PSoC4/cyfitter_cfg.c **** 			{0x93u, 0x20u},
 470:Generated_Source\PSoC4/cyfitter_cfg.c **** 			{0xA2u, 0x01u},
 471:Generated_Source\PSoC4/cyfitter_cfg.c **** 			{0xA3u, 0x20u},
 472:Generated_Source\PSoC4/cyfitter_cfg.c **** 			{0xC0u, 0xB0u},
 473:Generated_Source\PSoC4/cyfitter_cfg.c **** 			{0xC2u, 0xF0u},
 474:Generated_Source\PSoC4/cyfitter_cfg.c **** 			{0xC4u, 0xD0u},
 475:Generated_Source\PSoC4/cyfitter_cfg.c **** 			{0xCAu, 0x90u},
 476:Generated_Source\PSoC4/cyfitter_cfg.c **** 			{0xCCu, 0xB0u},
 477:Generated_Source\PSoC4/cyfitter_cfg.c **** 			{0xCEu, 0xF0u},
 478:Generated_Source\PSoC4/cyfitter_cfg.c **** 			{0xD0u, 0x99u},
 479:Generated_Source\PSoC4/cyfitter_cfg.c **** 			{0xD2u, 0x18u},
 480:Generated_Source\PSoC4/cyfitter_cfg.c **** 			{0xD6u, 0xFBu},
 481:Generated_Source\PSoC4/cyfitter_cfg.c **** 			{0xD8u, 0xF0u},
 482:Generated_Source\PSoC4/cyfitter_cfg.c **** 			{0xDEu, 0x04u},
 483:Generated_Source\PSoC4/cyfitter_cfg.c **** 			{0xE6u, 0x01u},
 484:Generated_Source\PSoC4/cyfitter_cfg.c **** 			{0x6Du, 0x80u},
 485:Generated_Source\PSoC4/cyfitter_cfg.c **** 			{0x85u, 0x40u},
 486:Generated_Source\PSoC4/cyfitter_cfg.c **** 			{0xDAu, 0x80u},
 487:Generated_Source\PSoC4/cyfitter_cfg.c **** 			{0xE2u, 0x40u},
 488:Generated_Source\PSoC4/cyfitter_cfg.c **** 			{0x88u, 0x40u},
 489:Generated_Source\PSoC4/cyfitter_cfg.c **** 			{0xE0u, 0x01u},
 490:Generated_Source\PSoC4/cyfitter_cfg.c **** 			{0x03u, 0x40u},
 491:Generated_Source\PSoC4/cyfitter_cfg.c **** 			{0x30u, 0x08u},
 492:Generated_Source\PSoC4/cyfitter_cfg.c **** 			{0x58u, 0x40u},
 493:Generated_Source\PSoC4/cyfitter_cfg.c **** 			{0x83u, 0x40u},
 494:Generated_Source\PSoC4/cyfitter_cfg.c **** 			{0x8Cu, 0x08u},
 495:Generated_Source\PSoC4/cyfitter_cfg.c **** 			{0x98u, 0x40u},
 496:Generated_Source\PSoC4/cyfitter_cfg.c **** 			{0xC0u, 0x08u},
 497:Generated_Source\PSoC4/cyfitter_cfg.c **** 			{0xCCu, 0x02u},
ARM GAS  C:\Users\Sarah\AppData\Local\Temp\ccwsjVjd.s 			page 16


 498:Generated_Source\PSoC4/cyfitter_cfg.c **** 			{0xD4u, 0x01u},
 499:Generated_Source\PSoC4/cyfitter_cfg.c **** 			{0xE4u, 0x08u},
 500:Generated_Source\PSoC4/cyfitter_cfg.c **** 			{0x01u, 0x01u},
 501:Generated_Source\PSoC4/cyfitter_cfg.c **** 			{0x10u, 0x01u},
 502:Generated_Source\PSoC4/cyfitter_cfg.c **** 		};
 503:Generated_Source\PSoC4/cyfitter_cfg.c **** 
 504:Generated_Source\PSoC4/cyfitter_cfg.c **** 
 505:Generated_Source\PSoC4/cyfitter_cfg.c **** 
 506:Generated_Source\PSoC4/cyfitter_cfg.c **** 		CYPACKED typedef struct {
 507:Generated_Source\PSoC4/cyfitter_cfg.c **** 			void CYFAR *address;
 508:Generated_Source\PSoC4/cyfitter_cfg.c **** 			uint16 size;
 509:Generated_Source\PSoC4/cyfitter_cfg.c **** 		} CYPACKED_ATTR cfg_memset_t;
 510:Generated_Source\PSoC4/cyfitter_cfg.c **** 
 511:Generated_Source\PSoC4/cyfitter_cfg.c **** 		static const cfg_memset_t CYCODE cfg_memset_list [] = {
 512:Generated_Source\PSoC4/cyfitter_cfg.c **** 			/* address, size */
 513:Generated_Source\PSoC4/cyfitter_cfg.c **** 			{(void CYFAR *)(CYDEV_UDB_P0_U0_BASE), 1024u},
 514:Generated_Source\PSoC4/cyfitter_cfg.c **** 			{(void CYFAR *)(CYDEV_UDB_DSI0_BASE), 1024u},
 515:Generated_Source\PSoC4/cyfitter_cfg.c **** 		};
 516:Generated_Source\PSoC4/cyfitter_cfg.c **** 
 517:Generated_Source\PSoC4/cyfitter_cfg.c **** 		uint8 CYDATA i;
 518:Generated_Source\PSoC4/cyfitter_cfg.c **** 
 519:Generated_Source\PSoC4/cyfitter_cfg.c **** 		/* Zero out critical memory blocks before beginning configuration */
 520:Generated_Source\PSoC4/cyfitter_cfg.c **** 		for (i = 0u; i < (sizeof(cfg_memset_list)/sizeof(cfg_memset_list[0])); i++)
 327              		.loc 1 520 0
 328 0108 0024     		mov	r4, #0
 329 010a 10E0     		b	.L14
 330              	.LVL24:
 331              	.L15:
 332              	.LBB4:
 521:Generated_Source\PSoC4/cyfitter_cfg.c **** 		{
 522:Generated_Source\PSoC4/cyfitter_cfg.c **** 			const cfg_memset_t CYCODE * CYDATA ms = &cfg_memset_list[i];
 523:Generated_Source\PSoC4/cyfitter_cfg.c **** 			CYMEMZERO(ms->address, (size_t)(uint32)(ms->size));
 333              		.loc 1 523 0 discriminator 3
 334 010c 3448     		ldr	r0, .L16+8
 335 010e 6300     		lsl	r3, r4, #1
 336 0110 1A19     		add	r2, r3, r4
 337 0112 5200     		lsl	r2, r2, #1
 338 0114 8218     		add	r2, r0, r2
 339 0116 9188     		ldrh	r1, [r2, #4]
 340 0118 1B19     		add	r3, r3, r4
 341 011a 5B00     		lsl	r3, r3, #1
 342 011c 1A5A     		ldrh	r2, [r3, r0]
 343 011e C318     		add	r3, r0, r3
 344 0120 5888     		ldrh	r0, [r3, #2]
 345 0122 0004     		lsl	r0, r0, #16
 346 0124 1043     		orr	r0, r2
 347 0126 FFF7FEFF 		bl	CYMEMZERO
 348              	.LVL25:
 349              	.LBE4:
 520:Generated_Source\PSoC4/cyfitter_cfg.c **** 		{
 350              		.loc 1 520 0 discriminator 3
 351 012a 0134     		add	r4, r4, #1
 352              	.LVL26:
 353 012c E4B2     		uxtb	r4, r4
 354              	.LVL27:
 355              	.L14:
 520:Generated_Source\PSoC4/cyfitter_cfg.c **** 		{
ARM GAS  C:\Users\Sarah\AppData\Local\Temp\ccwsjVjd.s 			page 17


 356              		.loc 1 520 0 is_stmt 0 discriminator 1
 357 012e 012C     		cmp	r4, #1
 358 0130 ECD9     		bls	.L15
 524:Generated_Source\PSoC4/cyfitter_cfg.c **** 		}
 525:Generated_Source\PSoC4/cyfitter_cfg.c **** 
 526:Generated_Source\PSoC4/cyfitter_cfg.c **** 		cfg_write_bytes32(cy_cfg_addr_table, cy_cfg_data_table);
 359              		.loc 1 526 0 is_stmt 1
 360 0132 2B49     		ldr	r1, .L16+8
 361 0134 081C     		mov	r0, r1
 362 0136 0C30     		add	r0, r0, #12
 363 0138 3031     		add	r1, r1, #48
 364 013a FFF7FEFF 		bl	cfg_write_bytes32
 365              	.LVL28:
 527:Generated_Source\PSoC4/cyfitter_cfg.c **** 
 528:Generated_Source\PSoC4/cyfitter_cfg.c **** 		/* HSIOM Starting address: CYDEV_HSIOM_BASE */
 529:Generated_Source\PSoC4/cyfitter_cfg.c **** 		CY_SET_XTND_REG32((void CYFAR *)(CYDEV_HSIOM_BASE), 0xEE000000u);
 366              		.loc 1 529 0
 367 013e EE22     		mov	r2, #238
 368 0140 1206     		lsl	r2, r2, #24
 369 0142 284B     		ldr	r3, .L16+12
 370 0144 1A60     		str	r2, [r3]
 530:Generated_Source\PSoC4/cyfitter_cfg.c **** 		CY_SET_XTND_REG32((void CYFAR *)(CYREG_HSIOM_PORT_SEL1), 0x00990000u);
 371              		.loc 1 530 0
 372 0146 9922     		mov	r2, #153
 373 0148 1204     		lsl	r2, r2, #16
 374 014a 274B     		ldr	r3, .L16+16
 375 014c 1A60     		str	r2, [r3]
 531:Generated_Source\PSoC4/cyfitter_cfg.c **** 		CY_SET_XTND_REG32((void CYFAR *)(CYREG_HSIOM_PORT_SEL3), 0x00000002u);
 376              		.loc 1 531 0
 377 014e 0223     		mov	r3, #2
 378 0150 2649     		ldr	r1, .L16+20
 379 0152 0B60     		str	r3, [r1]
 532:Generated_Source\PSoC4/cyfitter_cfg.c **** 
 533:Generated_Source\PSoC4/cyfitter_cfg.c **** 		/* UDB_PA_0 Starting address: CYDEV_UDB_PA0_BASE */
 534:Generated_Source\PSoC4/cyfitter_cfg.c **** 		CY_SET_XTND_REG32((void CYFAR *)(CYDEV_UDB_PA0_BASE), 0x00990000u);
 380              		.loc 1 534 0
 381 0154 2649     		ldr	r1, .L16+24
 382 0156 0A60     		str	r2, [r1]
 535:Generated_Source\PSoC4/cyfitter_cfg.c **** 
 536:Generated_Source\PSoC4/cyfitter_cfg.c **** 		/* UDB_PA_1 Starting address: CYDEV_UDB_PA1_BASE */
 537:Generated_Source\PSoC4/cyfitter_cfg.c **** 		CY_SET_XTND_REG32((void CYFAR *)(CYDEV_UDB_PA1_BASE), 0x00990000u);
 383              		.loc 1 537 0
 384 0158 2649     		ldr	r1, .L16+28
 385 015a 0A60     		str	r2, [r1]
 538:Generated_Source\PSoC4/cyfitter_cfg.c **** 
 539:Generated_Source\PSoC4/cyfitter_cfg.c **** 		/* UDB_PA_2 Starting address: CYDEV_UDB_PA2_BASE */
 540:Generated_Source\PSoC4/cyfitter_cfg.c **** 		CY_SET_XTND_REG32((void CYFAR *)(CYDEV_UDB_PA2_BASE), 0x00990000u);
 386              		.loc 1 540 0
 387 015c 2649     		ldr	r1, .L16+32
 388 015e 0A60     		str	r2, [r1]
 541:Generated_Source\PSoC4/cyfitter_cfg.c **** 
 542:Generated_Source\PSoC4/cyfitter_cfg.c **** 		/* UDB_PA_3 Starting address: CYDEV_UDB_PA3_BASE */
 543:Generated_Source\PSoC4/cyfitter_cfg.c **** 		CY_SET_XTND_REG32((void CYFAR *)(CYDEV_UDB_PA3_BASE), 0x00990000u);
 389              		.loc 1 543 0
 390 0160 2649     		ldr	r1, .L16+36
 391 0162 0A60     		str	r2, [r1]
 544:Generated_Source\PSoC4/cyfitter_cfg.c **** 		CY_SET_XTND_REG32((void CYFAR *)(CYREG_UDB_PA3_CFG8), 0x00020000u);
ARM GAS  C:\Users\Sarah\AppData\Local\Temp\ccwsjVjd.s 			page 18


 392              		.loc 1 544 0
 393 0164 8021     		mov	r1, #128
 394 0166 8902     		lsl	r1, r1, #10
 395 0168 254A     		ldr	r2, .L16+40
 396 016a 1160     		str	r1, [r2]
 545:Generated_Source\PSoC4/cyfitter_cfg.c **** 		CY_SET_XTND_REG32((void CYFAR *)(CYREG_UDB_PA3_CFG12), 0x00000002u);
 397              		.loc 1 545 0
 398 016c 254A     		ldr	r2, .L16+44
 399 016e 1360     		str	r3, [r2]
 546:Generated_Source\PSoC4/cyfitter_cfg.c **** 
 547:Generated_Source\PSoC4/cyfitter_cfg.c **** 		/* INT_SELECT Starting address: CYDEV_CPUSS_INT_SEL */
 548:Generated_Source\PSoC4/cyfitter_cfg.c **** 		CY_SET_XTND_REG32((void CYFAR *)(CYREG_CPUSS_INT_SEL), 0x00000002u);
 400              		.loc 1 548 0
 401 0170 254A     		ldr	r2, .L16+48
 402 0172 1360     		str	r3, [r2]
 549:Generated_Source\PSoC4/cyfitter_cfg.c **** 
 550:Generated_Source\PSoC4/cyfitter_cfg.c **** 		/* INT_CONFIG Starting address: CYDEV_UDB_INT_CFG */
 551:Generated_Source\PSoC4/cyfitter_cfg.c **** 		CY_SET_XTND_REG32((void CYFAR *)(CYREG_UDB_INT_CFG), 0x00000002u);
 403              		.loc 1 551 0
 404 0174 254A     		ldr	r2, .L16+52
 405 0176 1360     		str	r3, [r2]
 552:Generated_Source\PSoC4/cyfitter_cfg.c **** 
 553:Generated_Source\PSoC4/cyfitter_cfg.c **** 		/* Enable digital routing */
 554:Generated_Source\PSoC4/cyfitter_cfg.c **** 		CY_SET_XTND_REG8((void *)CYREG_UDB_UDBIF_BANK_CTL, CY_GET_XTND_REG8((void *)CYREG_UDB_UDBIF_BANK_
 406              		.loc 1 554 0
 407 0178 254A     		ldr	r2, .L16+56
 408 017a 1078     		ldrb	r0, [r2]
 409 017c 0221     		mov	r1, #2
 410 017e 0143     		orr	r1, r0
 411 0180 1170     		strb	r1, [r2]
 555:Generated_Source\PSoC4/cyfitter_cfg.c **** 
 556:Generated_Source\PSoC4/cyfitter_cfg.c **** 		/* Enable UDB array */
 557:Generated_Source\PSoC4/cyfitter_cfg.c **** 		CY_SET_XTND_REG8((void *)CYREG_UDB_UDBIF_WAIT_CFG, (uint8)((CY_GET_XTND_REG8((void *)CYREG_UDB_UD
 412              		.loc 1 557 0
 413 0182 244C     		ldr	r4, .L16+60
 414              	.LVL29:
 415 0184 2178     		ldrb	r1, [r4]
 416 0186 3C20     		mov	r0, #60
 417 0188 8143     		bic	r1, r0
 418 018a 2838     		sub	r0, r0, #40
 419 018c 0143     		orr	r1, r0
 420 018e 2170     		strb	r1, [r4]
 558:Generated_Source\PSoC4/cyfitter_cfg.c **** 		CY_SET_XTND_REG8((void *)CYREG_UDB_UDBIF_BANK_CTL, (uint8)(CY_GET_XTND_REG8((void *)CYREG_UDB_UDB
 421              		.loc 1 558 0
 422 0190 1078     		ldrb	r0, [r2]
 423 0192 1621     		mov	r1, #22
 424 0194 0143     		orr	r1, r0
 425 0196 1170     		strb	r1, [r2]
 426              	.LBE3:
 559:Generated_Source\PSoC4/cyfitter_cfg.c **** 	}
 560:Generated_Source\PSoC4/cyfitter_cfg.c **** 
 561:Generated_Source\PSoC4/cyfitter_cfg.c **** 
 562:Generated_Source\PSoC4/cyfitter_cfg.c **** 	/* Perform second pass device configuration. These items must be configured in specific order afte
 563:Generated_Source\PSoC4/cyfitter_cfg.c **** 	CY_SET_XTND_REG8((void CYFAR *)(CYREG_UDB_P1_U1_CFG27), 0x44u);
 427              		.loc 1 563 0
 428 0198 4421     		mov	r1, #68
 429 019a 1F4A     		ldr	r2, .L16+64
ARM GAS  C:\Users\Sarah\AppData\Local\Temp\ccwsjVjd.s 			page 19


 430 019c 1170     		strb	r1, [r2]
 564:Generated_Source\PSoC4/cyfitter_cfg.c **** 	/* IOPINS0_0 Starting address: CYDEV_GPIO_PRT0_BASE */
 565:Generated_Source\PSoC4/cyfitter_cfg.c **** 	CY_SET_XTND_REG32((void CYFAR *)(CYDEV_GPIO_PRT0_BASE), 0x0000003Fu);
 431              		.loc 1 565 0
 432 019e 0539     		sub	r1, r1, #5
 433 01a0 1E4A     		ldr	r2, .L16+68
 434 01a2 1160     		str	r1, [r2]
 566:Generated_Source\PSoC4/cyfitter_cfg.c **** 	CY_SET_XTND_REG32((void CYFAR *)(CYREG_GPIO_PRT0_PC), 0x00D92492u);
 435              		.loc 1 566 0
 436 01a4 1E49     		ldr	r1, .L16+72
 437 01a6 1F4A     		ldr	r2, .L16+76
 438 01a8 1160     		str	r1, [r2]
 567:Generated_Source\PSoC4/cyfitter_cfg.c **** 
 568:Generated_Source\PSoC4/cyfitter_cfg.c **** 	/* IOPINS0_1 Starting address: CYDEV_GPIO_PRT1_BASE */
 569:Generated_Source\PSoC4/cyfitter_cfg.c **** 	CY_SET_XTND_REG32((void CYFAR *)(CYDEV_GPIO_PRT1_BASE), 0x00000021u);
 439              		.loc 1 569 0
 440 01aa 2121     		mov	r1, #33
 441 01ac 1E4A     		ldr	r2, .L16+80
 442 01ae 1160     		str	r1, [r2]
 570:Generated_Source\PSoC4/cyfitter_cfg.c **** 	CY_SET_XTND_REG32((void CYFAR *)(CYREG_GPIO_PRT1_PC), 0x00031002u);
 443              		.loc 1 570 0
 444 01b0 1E49     		ldr	r1, .L16+84
 445 01b2 1F4A     		ldr	r2, .L16+88
 446 01b4 1160     		str	r1, [r2]
 571:Generated_Source\PSoC4/cyfitter_cfg.c **** 	CY_SET_XTND_REG32((void CYFAR *)(CYREG_GPIO_PRT1_PC2), 0x00000020u);
 447              		.loc 1 571 0
 448 01b6 2021     		mov	r1, #32
 449 01b8 1E4A     		ldr	r2, .L16+92
 450 01ba 1160     		str	r1, [r2]
 572:Generated_Source\PSoC4/cyfitter_cfg.c **** 
 573:Generated_Source\PSoC4/cyfitter_cfg.c **** 	/* IOPINS0_2 Starting address: CYDEV_GPIO_PRT2_BASE */
 574:Generated_Source\PSoC4/cyfitter_cfg.c **** 	CY_SET_XTND_REG32((void CYFAR *)(CYREG_GPIO_PRT2_PC), 0x00180000u);
 451              		.loc 1 574 0
 452 01bc C021     		mov	r1, #192
 453 01be 4903     		lsl	r1, r1, #13
 454 01c0 1D4A     		ldr	r2, .L16+96
 455 01c2 1160     		str	r1, [r2]
 575:Generated_Source\PSoC4/cyfitter_cfg.c **** 
 576:Generated_Source\PSoC4/cyfitter_cfg.c **** 	/* IOPINS0_3 Starting address: CYDEV_GPIO_PRT3_BASE */
 577:Generated_Source\PSoC4/cyfitter_cfg.c **** 	CY_SET_XTND_REG32((void CYFAR *)(CYDEV_GPIO_PRT3_BASE), 0x00000001u);
 456              		.loc 1 577 0
 457 01c4 0121     		mov	r1, #1
 458 01c6 1D4A     		ldr	r2, .L16+100
 459 01c8 1160     		str	r1, [r2]
 578:Generated_Source\PSoC4/cyfitter_cfg.c **** 	CY_SET_XTND_REG32((void CYFAR *)(CYREG_GPIO_PRT3_PC), 0x00000002u);
 460              		.loc 1 578 0
 461 01ca 1D4A     		ldr	r2, .L16+104
 462 01cc 1360     		str	r3, [r2]
 579:Generated_Source\PSoC4/cyfitter_cfg.c **** 
 580:Generated_Source\PSoC4/cyfitter_cfg.c **** 
 581:Generated_Source\PSoC4/cyfitter_cfg.c **** 	/* Setup clocks based on selections from Clock DWR */
 582:Generated_Source\PSoC4/cyfitter_cfg.c **** 	ClockSetup();
 463              		.loc 1 582 0
 464 01ce FFF717FF 		bl	ClockSetup
 465              	.LVL30:
 583:Generated_Source\PSoC4/cyfitter_cfg.c **** 
 584:Generated_Source\PSoC4/cyfitter_cfg.c **** 	/* Perform basic analog initialization to defaults */
ARM GAS  C:\Users\Sarah\AppData\Local\Temp\ccwsjVjd.s 			page 20


 585:Generated_Source\PSoC4/cyfitter_cfg.c **** 	AnalogSetDefault();
 466              		.loc 1 585 0
 467 01d2 FFF7FEFF 		bl	AnalogSetDefault
 468              	.LVL31:
 586:Generated_Source\PSoC4/cyfitter_cfg.c **** 
 587:Generated_Source\PSoC4/cyfitter_cfg.c **** }
 469              		.loc 1 587 0
 470              		@ sp needed
 471 01d6 10BD     		pop	{r4, pc}
 472              	.L17:
 473              		.align	2
 474              	.L16:
 475 01d8 6CF02E40 		.word	1076818028
 476 01dc 1C700F40 		.word	1074753564
 477 01e0 00000000 		.word	.LANCHOR0
 478 01e4 00000240 		.word	1073872896
 479 01e8 00010240 		.word	1073873152
 480 01ec 00030240 		.word	1073873664
 481 01f0 00500F40 		.word	1074745344
 482 01f4 10500F40 		.word	1074745360
 483 01f8 20500F40 		.word	1074745376
 484 01fc 30500F40 		.word	1074745392
 485 0200 38500F40 		.word	1074745400
 486 0204 3C500F40 		.word	1074745404
 487 0208 20001040 		.word	1074790432
 488 020c 00800F40 		.word	1074757632
 489 0210 00700F40 		.word	1074753536
 490 0214 01700F40 		.word	1074753537
 491 0218 DB320F40 		.word	1074737883
 492 021c 00000440 		.word	1074003968
 493 0220 9224D900 		.word	14230674
 494 0224 08000440 		.word	1074003976
 495 0228 00010440 		.word	1074004224
 496 022c 02100300 		.word	200706
 497 0230 08010440 		.word	1074004232
 498 0234 18010440 		.word	1074004248
 499 0238 08020440 		.word	1074004488
 500 023c 00030440 		.word	1074004736
 501 0240 08030440 		.word	1074004744
 502              		.cfi_endproc
 503              	.LFE8:
 504              		.size	cyfitter_cfg, .-cyfitter_cfg
 505              		.section	.rodata
 506              		.align	2
 507              		.set	.LANCHOR0,. + 0
 508              		.type	cfg_memset_list.4794, %object
 509              		.size	cfg_memset_list.4794, 12
 510              	cfg_memset_list.4794:
 511 0000 00300F40 		.word	1074737152
 512 0004 0004     		.short	1024
 513 0006 00400F40 		.4byte	1074741248
 514 000a 0004     		.short	1024
 515              		.type	cy_cfg_addr_table.4788, %object
 516              		.size	cy_cfg_addr_table.4788, 36
 517              	cy_cfg_addr_table.4788:
 518 000c 03000F40 		.word	1074724867
 519 0010 0C300F40 		.word	1074737164
ARM GAS  C:\Users\Sarah\AppData\Local\Temp\ccwsjVjd.s 			page 21


 520 0014 07310F40 		.word	1074737415
 521 0018 50320F40 		.word	1074737744
 522 001c 3D330F40 		.word	1074737981
 523 0020 04410F40 		.word	1074741508
 524 0024 02420F40 		.word	1074741762
 525 0028 0A430F40 		.word	1074742026
 526 002c 02600F40 		.word	1074749442
 527              		.type	cy_cfg_data_table.4789, %object
 528              		.size	cy_cfg_data_table.4789, 362
 529              	cy_cfg_data_table.4789:
 530 0030 70       		.byte	112
 531 0031 01       		.byte	1
 532 0032 73       		.byte	115
 533 0033 01       		.byte	1
 534 0034 83       		.byte	-125
 535 0035 0D       		.byte	13
 536 0036 5B       		.byte	91
 537 0037 04       		.byte	4
 538 0038 5F       		.byte	95
 539 0039 01       		.byte	1
 540 003a 82       		.byte	-126
 541 003b 01       		.byte	1
 542 003c B6       		.byte	-74
 543 003d 01       		.byte	1
 544 003e B8       		.byte	-72
 545 003f 20       		.byte	32
 546 0040 BE       		.byte	-66
 547 0041 10       		.byte	16
 548 0042 D2       		.byte	-46
 549 0043 01       		.byte	1
 550 0044 D3       		.byte	-45
 551 0045 01       		.byte	1
 552 0046 D6       		.byte	-42
 553 0047 10       		.byte	16
 554 0048 D8       		.byte	-40
 555 0049 04       		.byte	4
 556 004a DB       		.byte	-37
 557 004b 04       		.byte	4
 558 004c DF       		.byte	-33
 559 004d 01       		.byte	1
 560 004e 04       		.byte	4
 561 004f 02       		.byte	2
 562 0050 1E       		.byte	30
 563 0051 02       		.byte	2
 564 0052 1F       		.byte	31
 565 0053 30       		.byte	48
 566 0054 68       		.byte	104
 567 0055 01       		.byte	1
 568 0056 6C       		.byte	108
 569 0057 01       		.byte	1
 570 0058 88       		.byte	-120
 571 0059 01       		.byte	1
 572 005a C0       		.byte	-64
 573 005b 10       		.byte	16
 574 005c 02       		.byte	2
 575 005d 10       		.byte	16
 576 005e 03       		.byte	3
ARM GAS  C:\Users\Sarah\AppData\Local\Temp\ccwsjVjd.s 			page 22


 577 005f 0E       		.byte	14
 578 0060 04       		.byte	4
 579 0061 04       		.byte	4
 580 0062 06       		.byte	6
 581 0063 40       		.byte	64
 582 0064 07       		.byte	7
 583 0065 01       		.byte	1
 584 0066 0B       		.byte	11
 585 0067 08       		.byte	8
 586 0068 0C       		.byte	12
 587 0069 08       		.byte	8
 588 006a 0E       		.byte	14
 589 006b 40       		.byte	64
 590 006c 0F       		.byte	15
 591 006d 0D       		.byte	13
 592 006e 10       		.byte	16
 593 006f 0E       		.byte	14
 594 0070 11       		.byte	17
 595 0071 04       		.byte	4
 596 0072 12       		.byte	18
 597 0073 80       		.byte	-128
 598 0074 14       		.byte	20
 599 0075 02       		.byte	2
 600 0076 16       		.byte	22
 601 0077 41       		.byte	65
 602 0078 1A       		.byte	26
 603 0079 6F       		.byte	111
 604 007a 1B       		.byte	27
 605 007b 01       		.byte	1
 606 007c 1C       		.byte	28
 607 007d 10       		.byte	16
 608 007e 1D       		.byte	29
 609 007f 0C       		.byte	12
 610 0080 22       		.byte	34
 611 0081 3E       		.byte	62
 612 0082 23       		.byte	35
 613 0083 04       		.byte	4
 614 0084 28       		.byte	40
 615 0085 FE       		.byte	-2
 616 0086 2E       		.byte	46
 617 0087 7F       		.byte	127
 618 0088 2F       		.byte	47
 619 0089 01       		.byte	1
 620 008a 30       		.byte	48
 621 008b C0       		.byte	-64
 622 008c 31       		.byte	49
 623 008d 01       		.byte	1
 624 008e 32       		.byte	50
 625 008f 0E       		.byte	14
 626 0090 33       		.byte	51
 627 0091 02       		.byte	2
 628 0092 34       		.byte	52
 629 0093 30       		.byte	48
 630 0094 35       		.byte	53
 631 0095 0C       		.byte	12
 632 0096 36       		.byte	54
 633 0097 01       		.byte	1
ARM GAS  C:\Users\Sarah\AppData\Local\Temp\ccwsjVjd.s 			page 23


 634 0098 37       		.byte	55
 635 0099 01       		.byte	1
 636 009a 3E       		.byte	62
 637 009b 40       		.byte	64
 638 009c 3F       		.byte	63
 639 009d 40       		.byte	64
 640 009e 40       		.byte	64
 641 009f 15       		.byte	21
 642 00a0 41       		.byte	65
 643 00a1 04       		.byte	4
 644 00a2 49       		.byte	73
 645 00a3 FF       		.byte	-1
 646 00a4 4A       		.byte	74
 647 00a5 FF       		.byte	-1
 648 00a6 4B       		.byte	75
 649 00a7 FF       		.byte	-1
 650 00a8 4F       		.byte	79
 651 00a9 01       		.byte	1
 652 00aa 50       		.byte	80
 653 00ab 18       		.byte	24
 654 00ac 52       		.byte	82
 655 00ad 90       		.byte	-112
 656 00ae 58       		.byte	88
 657 00af 04       		.byte	4
 658 00b0 59       		.byte	89
 659 00b1 04       		.byte	4
 660 00b2 5A       		.byte	90
 661 00b3 04       		.byte	4
 662 00b4 5B       		.byte	91
 663 00b5 04       		.byte	4
 664 00b6 5F       		.byte	95
 665 00b7 01       		.byte	1
 666 00b8 60       		.byte	96
 667 00b9 40       		.byte	64
 668 00ba 62       		.byte	98
 669 00bb 40       		.byte	64
 670 00bc 64       		.byte	100
 671 00bd 40       		.byte	64
 672 00be 65       		.byte	101
 673 00bf 40       		.byte	64
 674 00c0 66       		.byte	102
 675 00c1 80       		.byte	-128
 676 00c2 68       		.byte	104
 677 00c3 80       		.byte	-128
 678 00c4 6A       		.byte	106
 679 00c5 80       		.byte	-128
 680 00c6 6C       		.byte	108
 681 00c7 80       		.byte	-128
 682 00c8 6E       		.byte	110
 683 00c9 80       		.byte	-128
 684 00ca C0       		.byte	-64
 685 00cb 15       		.byte	21
 686 00cc C1       		.byte	-63
 687 00cd 04       		.byte	4
 688 00ce C5       		.byte	-59
 689 00cf EC       		.byte	-20
 690 00d0 C7       		.byte	-57
ARM GAS  C:\Users\Sarah\AppData\Local\Temp\ccwsjVjd.s 			page 24


 691 00d1 20       		.byte	32
 692 00d2 C8       		.byte	-56
 693 00d3 23       		.byte	35
 694 00d4 C9       		.byte	-55
 695 00d5 FF       		.byte	-1
 696 00d6 CA       		.byte	-54
 697 00d7 FF       		.byte	-1
 698 00d8 CB       		.byte	-53
 699 00d9 FF       		.byte	-1
 700 00da CD       		.byte	-51
 701 00db 83       		.byte	-125
 702 00dc CE       		.byte	-50
 703 00dd 03       		.byte	3
 704 00de CF       		.byte	-49
 705 00df 01       		.byte	1
 706 00e0 D0       		.byte	-48
 707 00e1 18       		.byte	24
 708 00e2 D4       		.byte	-44
 709 00e3 01       		.byte	1
 710 00e4 DA       		.byte	-38
 711 00e5 04       		.byte	4
 712 00e6 DB       		.byte	-37
 713 00e7 04       		.byte	4
 714 00e8 DF       		.byte	-33
 715 00e9 05       		.byte	5
 716 00ea E0       		.byte	-32
 717 00eb 40       		.byte	64
 718 00ec E2       		.byte	-30
 719 00ed 40       		.byte	64
 720 00ee E4       		.byte	-28
 721 00ef 40       		.byte	64
 722 00f0 E5       		.byte	-27
 723 00f1 40       		.byte	64
 724 00f2 E6       		.byte	-26
 725 00f3 80       		.byte	-128
 726 00f4 E8       		.byte	-24
 727 00f5 80       		.byte	-128
 728 00f6 EA       		.byte	-22
 729 00f7 80       		.byte	-128
 730 00f8 EC       		.byte	-20
 731 00f9 80       		.byte	-128
 732 00fa EE       		.byte	-18
 733 00fb 80       		.byte	-128
 734 00fc 04       		.byte	4
 735 00fd 02       		.byte	2
 736 00fe 05       		.byte	5
 737 00ff 02       		.byte	2
 738 0100 06       		.byte	6
 739 0101 01       		.byte	1
 740 0102 07       		.byte	7
 741 0103 20       		.byte	32
 742 0104 0D       		.byte	13
 743 0105 08       		.byte	8
 744 0106 0E       		.byte	14
 745 0107 47       		.byte	71
 746 0108 15       		.byte	21
 747 0109 20       		.byte	32
ARM GAS  C:\Users\Sarah\AppData\Local\Temp\ccwsjVjd.s 			page 25


 748 010a 16       		.byte	22
 749 010b 82       		.byte	-126
 750 010c 1D       		.byte	29
 751 010d 88       		.byte	-120
 752 010e 1E       		.byte	30
 753 010f 44       		.byte	68
 754 0110 25       		.byte	37
 755 0111 12       		.byte	18
 756 0112 26       		.byte	38
 757 0113 80       		.byte	-128
 758 0114 27       		.byte	39
 759 0115 60       		.byte	96
 760 0116 2E       		.byte	46
 761 0117 01       		.byte	1
 762 0118 2F       		.byte	47
 763 0119 02       		.byte	2
 764 011a 35       		.byte	53
 765 011b 02       		.byte	2
 766 011c 37       		.byte	55
 767 011d 60       		.byte	96
 768 011e 3C       		.byte	60
 769 011f 82       		.byte	-126
 770 0120 3D       		.byte	61
 771 0121 20       		.byte	32
 772 0122 3E       		.byte	62
 773 0123 04       		.byte	4
 774 0124 41       		.byte	65
 775 0125 82       		.byte	-126
 776 0126 45       		.byte	69
 777 0127 82       		.byte	-126
 778 0128 49       		.byte	73
 779 0129 05       		.byte	5
 780 012a 4A       		.byte	74
 781 012b 02       		.byte	2
 782 012c 4E       		.byte	78
 783 012d 02       		.byte	2
 784 012e 52       		.byte	82
 785 012f 03       		.byte	3
 786 0130 53       		.byte	83
 787 0131 02       		.byte	2
 788 0132 59       		.byte	89
 789 0133 45       		.byte	69
 790 0134 5C       		.byte	92
 791 0135 8A       		.byte	-118
 792 0136 5D       		.byte	93
 793 0137 10       		.byte	16
 794 0138 61       		.byte	97
 795 0139 40       		.byte	64
 796 013a 62       		.byte	98
 797 013b 80       		.byte	-128
 798 013c 64       		.byte	100
 799 013d 4A       		.byte	74
 800 013e 67       		.byte	103
 801 013f 22       		.byte	34
 802 0140 69       		.byte	105
 803 0141 80       		.byte	-128
 804 0142 74       		.byte	116
ARM GAS  C:\Users\Sarah\AppData\Local\Temp\ccwsjVjd.s 			page 26


 805 0143 41       		.byte	65
 806 0144 76       		.byte	118
 807 0145 82       		.byte	-126
 808 0146 79       		.byte	121
 809 0147 20       		.byte	32
 810 0148 80       		.byte	-128
 811 0149 80       		.byte	-128
 812 014a 85       		.byte	-123
 813 014b 12       		.byte	18
 814 014c 88       		.byte	-120
 815 014d 48       		.byte	72
 816 014e 89       		.byte	-119
 817 014f 10       		.byte	16
 818 0150 8B       		.byte	-117
 819 0151 20       		.byte	32
 820 0152 8D       		.byte	-115
 821 0153 40       		.byte	64
 822 0154 8F       		.byte	-113
 823 0155 21       		.byte	33
 824 0156 90       		.byte	-112
 825 0157 02       		.byte	2
 826 0158 93       		.byte	-109
 827 0159 20       		.byte	32
 828 015a A2       		.byte	-94
 829 015b 01       		.byte	1
 830 015c A3       		.byte	-93
 831 015d 20       		.byte	32
 832 015e C0       		.byte	-64
 833 015f B0       		.byte	-80
 834 0160 C2       		.byte	-62
 835 0161 F0       		.byte	-16
 836 0162 C4       		.byte	-60
 837 0163 D0       		.byte	-48
 838 0164 CA       		.byte	-54
 839 0165 90       		.byte	-112
 840 0166 CC       		.byte	-52
 841 0167 B0       		.byte	-80
 842 0168 CE       		.byte	-50
 843 0169 F0       		.byte	-16
 844 016a D0       		.byte	-48
 845 016b 99       		.byte	-103
 846 016c D2       		.byte	-46
 847 016d 18       		.byte	24
 848 016e D6       		.byte	-42
 849 016f FB       		.byte	-5
 850 0170 D8       		.byte	-40
 851 0171 F0       		.byte	-16
 852 0172 DE       		.byte	-34
 853 0173 04       		.byte	4
 854 0174 E6       		.byte	-26
 855 0175 01       		.byte	1
 856 0176 6D       		.byte	109
 857 0177 80       		.byte	-128
 858 0178 85       		.byte	-123
 859 0179 40       		.byte	64
 860 017a DA       		.byte	-38
 861 017b 80       		.byte	-128
ARM GAS  C:\Users\Sarah\AppData\Local\Temp\ccwsjVjd.s 			page 27


 862 017c E2       		.byte	-30
 863 017d 40       		.byte	64
 864 017e 88       		.byte	-120
 865 017f 40       		.byte	64
 866 0180 E0       		.byte	-32
 867 0181 01       		.byte	1
 868 0182 03       		.byte	3
 869 0183 40       		.byte	64
 870 0184 30       		.byte	48
 871 0185 08       		.byte	8
 872 0186 58       		.byte	88
 873 0187 40       		.byte	64
 874 0188 83       		.byte	-125
 875 0189 40       		.byte	64
 876 018a 8C       		.byte	-116
 877 018b 08       		.byte	8
 878 018c 98       		.byte	-104
 879 018d 40       		.byte	64
 880 018e C0       		.byte	-64
 881 018f 08       		.byte	8
 882 0190 CC       		.byte	-52
 883 0191 02       		.byte	2
 884 0192 D4       		.byte	-44
 885 0193 01       		.byte	1
 886 0194 E4       		.byte	-28
 887 0195 08       		.byte	8
 888 0196 01       		.byte	1
 889 0197 01       		.byte	1
 890 0198 10       		.byte	16
 891 0199 01       		.byte	1
 892 019a 0000     		.text
 893              	.Letext0:
 894              		.file 2 "c:\\program files (x86)\\cypress\\psoc creator\\4.0\\psoc creator\\import\\gnu\\arm\\4.9.
 895              		.file 3 "Generated_Source\\PSoC4\\cytypes.h"
 896              		.file 4 "Generated_Source\\PSoC4\\CyLib.h"
 897              		.file 5 "Generated_Source\\PSoC4\\CyLFClk.h"