ARM GAS  C:\Users\Sarah\AppData\Local\Temp\ccbKWc9q.s 			page 1


   1              		.cpu cortex-m0
   2              		.fpu softvfp
   3              		.eabi_attribute 20, 1
   4              		.eabi_attribute 21, 1
   5              		.eabi_attribute 23, 3
   6              		.eabi_attribute 24, 1
   7              		.eabi_attribute 25, 1
   8              		.eabi_attribute 26, 1
   9              		.eabi_attribute 30, 1
  10              		.eabi_attribute 34, 0
  11              		.eabi_attribute 18, 4
  12              		.code	16
  13              		.file	"OneWire_TimerDelay.c"
  14              		.text
  15              	.Ltext0:
  16              		.cfi_sections	.debug_frame
  17              		.section	.text.OneWire_TimerDelay_Enable,"ax",%progbits
  18              		.align	2
  19              		.global	OneWire_TimerDelay_Enable
  20              		.code	16
  21              		.thumb_func
  22              		.type	OneWire_TimerDelay_Enable, %function
  23              	OneWire_TimerDelay_Enable:
  24              	.LFB3:
  25              		.file 1 "Generated_Source\\PSoC4\\OneWire_TimerDelay.c"
   1:Generated_Source\PSoC4/OneWire_TimerDelay.c **** /*******************************************************************************
   2:Generated_Source\PSoC4/OneWire_TimerDelay.c **** * File Name: OneWire_TimerDelay.c
   3:Generated_Source\PSoC4/OneWire_TimerDelay.c **** * Version 2.70
   4:Generated_Source\PSoC4/OneWire_TimerDelay.c **** *
   5:Generated_Source\PSoC4/OneWire_TimerDelay.c **** * Description:
   6:Generated_Source\PSoC4/OneWire_TimerDelay.c **** *  The Timer component consists of a 8, 16, 24 or 32-bit timer with
   7:Generated_Source\PSoC4/OneWire_TimerDelay.c **** *  a selectable period between 2 and 2^Width - 1.  The timer may free run
   8:Generated_Source\PSoC4/OneWire_TimerDelay.c **** *  or be used as a capture timer as well.  The capture can be initiated
   9:Generated_Source\PSoC4/OneWire_TimerDelay.c **** *  by a positive or negative edge signal as well as via software.
  10:Generated_Source\PSoC4/OneWire_TimerDelay.c **** *  A trigger input can be programmed to enable the timer on rising edge
  11:Generated_Source\PSoC4/OneWire_TimerDelay.c **** *  falling edge, either edge or continous run.
  12:Generated_Source\PSoC4/OneWire_TimerDelay.c **** *  Interrupts may be generated due to a terminal count condition
  13:Generated_Source\PSoC4/OneWire_TimerDelay.c **** *  or a capture event.
  14:Generated_Source\PSoC4/OneWire_TimerDelay.c **** *
  15:Generated_Source\PSoC4/OneWire_TimerDelay.c **** * Note:
  16:Generated_Source\PSoC4/OneWire_TimerDelay.c **** *
  17:Generated_Source\PSoC4/OneWire_TimerDelay.c **** ********************************************************************************
  18:Generated_Source\PSoC4/OneWire_TimerDelay.c **** * Copyright 2008-2014, Cypress Semiconductor Corporation.  All rights reserved.
  19:Generated_Source\PSoC4/OneWire_TimerDelay.c **** * You may use this file only in accordance with the license, terms, conditions,
  20:Generated_Source\PSoC4/OneWire_TimerDelay.c **** * disclaimers, and limitations in the end user license agreement accompanying
  21:Generated_Source\PSoC4/OneWire_TimerDelay.c **** * the software package with which this file was provided.
  22:Generated_Source\PSoC4/OneWire_TimerDelay.c **** ********************************************************************************/
  23:Generated_Source\PSoC4/OneWire_TimerDelay.c **** 
  24:Generated_Source\PSoC4/OneWire_TimerDelay.c **** #include "OneWire_TimerDelay.h"
  25:Generated_Source\PSoC4/OneWire_TimerDelay.c **** 
  26:Generated_Source\PSoC4/OneWire_TimerDelay.c **** uint8 OneWire_TimerDelay_initVar = 0u;
  27:Generated_Source\PSoC4/OneWire_TimerDelay.c **** 
  28:Generated_Source\PSoC4/OneWire_TimerDelay.c **** 
  29:Generated_Source\PSoC4/OneWire_TimerDelay.c **** /*******************************************************************************
  30:Generated_Source\PSoC4/OneWire_TimerDelay.c **** * Function Name: OneWire_TimerDelay_Init
  31:Generated_Source\PSoC4/OneWire_TimerDelay.c **** ********************************************************************************
  32:Generated_Source\PSoC4/OneWire_TimerDelay.c **** *
ARM GAS  C:\Users\Sarah\AppData\Local\Temp\ccbKWc9q.s 			page 2


  33:Generated_Source\PSoC4/OneWire_TimerDelay.c **** * Summary:
  34:Generated_Source\PSoC4/OneWire_TimerDelay.c **** *  Initialize to the schematic state
  35:Generated_Source\PSoC4/OneWire_TimerDelay.c **** *
  36:Generated_Source\PSoC4/OneWire_TimerDelay.c **** * Parameters:
  37:Generated_Source\PSoC4/OneWire_TimerDelay.c **** *  void
  38:Generated_Source\PSoC4/OneWire_TimerDelay.c **** *
  39:Generated_Source\PSoC4/OneWire_TimerDelay.c **** * Return:
  40:Generated_Source\PSoC4/OneWire_TimerDelay.c **** *  void
  41:Generated_Source\PSoC4/OneWire_TimerDelay.c **** *
  42:Generated_Source\PSoC4/OneWire_TimerDelay.c **** *******************************************************************************/
  43:Generated_Source\PSoC4/OneWire_TimerDelay.c **** void OneWire_TimerDelay_Init(void) 
  44:Generated_Source\PSoC4/OneWire_TimerDelay.c **** {
  45:Generated_Source\PSoC4/OneWire_TimerDelay.c ****     #if(!OneWire_TimerDelay_UsingFixedFunction)
  46:Generated_Source\PSoC4/OneWire_TimerDelay.c ****             /* Interrupt State Backup for Critical Region*/
  47:Generated_Source\PSoC4/OneWire_TimerDelay.c ****             uint8 OneWire_TimerDelay_interruptState;
  48:Generated_Source\PSoC4/OneWire_TimerDelay.c ****     #endif /* Interrupt state back up for Fixed Function only */
  49:Generated_Source\PSoC4/OneWire_TimerDelay.c **** 
  50:Generated_Source\PSoC4/OneWire_TimerDelay.c ****     #if (OneWire_TimerDelay_UsingFixedFunction)
  51:Generated_Source\PSoC4/OneWire_TimerDelay.c ****         /* Clear all bits but the enable bit (if it's already set) for Timer operation */
  52:Generated_Source\PSoC4/OneWire_TimerDelay.c ****         OneWire_TimerDelay_CONTROL &= OneWire_TimerDelay_CTRL_ENABLE;
  53:Generated_Source\PSoC4/OneWire_TimerDelay.c **** 
  54:Generated_Source\PSoC4/OneWire_TimerDelay.c ****         /* Clear the mode bits for continuous run mode */
  55:Generated_Source\PSoC4/OneWire_TimerDelay.c ****         #if (CY_PSOC5A)
  56:Generated_Source\PSoC4/OneWire_TimerDelay.c ****             OneWire_TimerDelay_CONTROL2 &= ((uint8)(~OneWire_TimerDelay_CTRL_MODE_MASK));
  57:Generated_Source\PSoC4/OneWire_TimerDelay.c ****         #endif /* Clear bits in CONTROL2 only in PSOC5A */
  58:Generated_Source\PSoC4/OneWire_TimerDelay.c **** 
  59:Generated_Source\PSoC4/OneWire_TimerDelay.c ****         #if (CY_PSOC3 || CY_PSOC5LP)
  60:Generated_Source\PSoC4/OneWire_TimerDelay.c ****             OneWire_TimerDelay_CONTROL3 &= ((uint8)(~OneWire_TimerDelay_CTRL_MODE_MASK));
  61:Generated_Source\PSoC4/OneWire_TimerDelay.c ****         #endif /* CONTROL3 register exists only in PSoC3 OR PSoC5LP */
  62:Generated_Source\PSoC4/OneWire_TimerDelay.c **** 
  63:Generated_Source\PSoC4/OneWire_TimerDelay.c ****         /* Check if One Shot mode is enabled i.e. RunMode !=0*/
  64:Generated_Source\PSoC4/OneWire_TimerDelay.c ****         #if (OneWire_TimerDelay_RunModeUsed != 0x0u)
  65:Generated_Source\PSoC4/OneWire_TimerDelay.c ****             /* Set 3rd bit of Control register to enable one shot mode */
  66:Generated_Source\PSoC4/OneWire_TimerDelay.c ****             OneWire_TimerDelay_CONTROL |= 0x04u;
  67:Generated_Source\PSoC4/OneWire_TimerDelay.c ****         #endif /* One Shot enabled only when RunModeUsed is not Continuous*/
  68:Generated_Source\PSoC4/OneWire_TimerDelay.c **** 
  69:Generated_Source\PSoC4/OneWire_TimerDelay.c ****         #if (OneWire_TimerDelay_RunModeUsed == 2)
  70:Generated_Source\PSoC4/OneWire_TimerDelay.c ****             #if (CY_PSOC5A)
  71:Generated_Source\PSoC4/OneWire_TimerDelay.c ****                 /* Set last 2 bits of control2 register if one shot(halt on
  72:Generated_Source\PSoC4/OneWire_TimerDelay.c ****                 interrupt) is enabled*/
  73:Generated_Source\PSoC4/OneWire_TimerDelay.c ****                 OneWire_TimerDelay_CONTROL2 |= 0x03u;
  74:Generated_Source\PSoC4/OneWire_TimerDelay.c ****             #endif /* Set One-Shot Halt on Interrupt bit in CONTROL2 for PSoC5A */
  75:Generated_Source\PSoC4/OneWire_TimerDelay.c **** 
  76:Generated_Source\PSoC4/OneWire_TimerDelay.c ****             #if (CY_PSOC3 || CY_PSOC5LP)
  77:Generated_Source\PSoC4/OneWire_TimerDelay.c ****                 /* Set last 2 bits of control3 register if one shot(halt on
  78:Generated_Source\PSoC4/OneWire_TimerDelay.c ****                 interrupt) is enabled*/
  79:Generated_Source\PSoC4/OneWire_TimerDelay.c ****                 OneWire_TimerDelay_CONTROL3 |= 0x03u;
  80:Generated_Source\PSoC4/OneWire_TimerDelay.c ****             #endif /* Set One-Shot Halt on Interrupt bit in CONTROL3 for PSoC3 or PSoC5LP */
  81:Generated_Source\PSoC4/OneWire_TimerDelay.c **** 
  82:Generated_Source\PSoC4/OneWire_TimerDelay.c ****         #endif /* Remove section if One Shot Halt on Interrupt is not enabled */
  83:Generated_Source\PSoC4/OneWire_TimerDelay.c **** 
  84:Generated_Source\PSoC4/OneWire_TimerDelay.c ****         #if (OneWire_TimerDelay_UsingHWEnable != 0)
  85:Generated_Source\PSoC4/OneWire_TimerDelay.c ****             #if (CY_PSOC5A)
  86:Generated_Source\PSoC4/OneWire_TimerDelay.c ****                 /* Set the default Run Mode of the Timer to Continuous */
  87:Generated_Source\PSoC4/OneWire_TimerDelay.c ****                 OneWire_TimerDelay_CONTROL2 |= OneWire_TimerDelay_CTRL_MODE_PULSEWIDTH;
  88:Generated_Source\PSoC4/OneWire_TimerDelay.c ****             #endif /* Set Continuous Run Mode in CONTROL2 for PSoC5A */
  89:Generated_Source\PSoC4/OneWire_TimerDelay.c **** 
ARM GAS  C:\Users\Sarah\AppData\Local\Temp\ccbKWc9q.s 			page 3


  90:Generated_Source\PSoC4/OneWire_TimerDelay.c ****             #if (CY_PSOC3 || CY_PSOC5LP)
  91:Generated_Source\PSoC4/OneWire_TimerDelay.c ****                 /* Clear and Set ROD and COD bits of CFG2 register */
  92:Generated_Source\PSoC4/OneWire_TimerDelay.c ****                 OneWire_TimerDelay_CONTROL3 &= ((uint8)(~OneWire_TimerDelay_CTRL_RCOD_MASK));
  93:Generated_Source\PSoC4/OneWire_TimerDelay.c ****                 OneWire_TimerDelay_CONTROL3 |= OneWire_TimerDelay_CTRL_RCOD;
  94:Generated_Source\PSoC4/OneWire_TimerDelay.c **** 
  95:Generated_Source\PSoC4/OneWire_TimerDelay.c ****                 /* Clear and Enable the HW enable bit in CFG2 register */
  96:Generated_Source\PSoC4/OneWire_TimerDelay.c ****                 OneWire_TimerDelay_CONTROL3 &= ((uint8)(~OneWire_TimerDelay_CTRL_ENBL_MASK));
  97:Generated_Source\PSoC4/OneWire_TimerDelay.c ****                 OneWire_TimerDelay_CONTROL3 |= OneWire_TimerDelay_CTRL_ENBL;
  98:Generated_Source\PSoC4/OneWire_TimerDelay.c **** 
  99:Generated_Source\PSoC4/OneWire_TimerDelay.c ****                 /* Set the default Run Mode of the Timer to Continuous */
 100:Generated_Source\PSoC4/OneWire_TimerDelay.c ****                 OneWire_TimerDelay_CONTROL3 |= OneWire_TimerDelay_CTRL_MODE_CONTINUOUS;
 101:Generated_Source\PSoC4/OneWire_TimerDelay.c ****             #endif /* Set Continuous Run Mode in CONTROL3 for PSoC3ES3 or PSoC5A */
 102:Generated_Source\PSoC4/OneWire_TimerDelay.c **** 
 103:Generated_Source\PSoC4/OneWire_TimerDelay.c ****         #endif /* Configure Run Mode with hardware enable */
 104:Generated_Source\PSoC4/OneWire_TimerDelay.c **** 
 105:Generated_Source\PSoC4/OneWire_TimerDelay.c ****         /* Clear and Set SYNCTC and SYNCCMP bits of RT1 register */
 106:Generated_Source\PSoC4/OneWire_TimerDelay.c ****         OneWire_TimerDelay_RT1 &= ((uint8)(~OneWire_TimerDelay_RT1_MASK));
 107:Generated_Source\PSoC4/OneWire_TimerDelay.c ****         OneWire_TimerDelay_RT1 |= OneWire_TimerDelay_SYNC;
 108:Generated_Source\PSoC4/OneWire_TimerDelay.c **** 
 109:Generated_Source\PSoC4/OneWire_TimerDelay.c ****         /*Enable DSI Sync all all inputs of the Timer*/
 110:Generated_Source\PSoC4/OneWire_TimerDelay.c ****         OneWire_TimerDelay_RT1 &= ((uint8)(~OneWire_TimerDelay_SYNCDSI_MASK));
 111:Generated_Source\PSoC4/OneWire_TimerDelay.c ****         OneWire_TimerDelay_RT1 |= OneWire_TimerDelay_SYNCDSI_EN;
 112:Generated_Source\PSoC4/OneWire_TimerDelay.c **** 
 113:Generated_Source\PSoC4/OneWire_TimerDelay.c ****         /* Set the IRQ to use the status register interrupts */
 114:Generated_Source\PSoC4/OneWire_TimerDelay.c ****         OneWire_TimerDelay_CONTROL2 |= OneWire_TimerDelay_CTRL2_IRQ_SEL;
 115:Generated_Source\PSoC4/OneWire_TimerDelay.c ****     #endif /* Configuring registers of fixed function implementation */
 116:Generated_Source\PSoC4/OneWire_TimerDelay.c **** 
 117:Generated_Source\PSoC4/OneWire_TimerDelay.c ****     /* Set Initial values from Configuration */
 118:Generated_Source\PSoC4/OneWire_TimerDelay.c ****     OneWire_TimerDelay_WritePeriod(OneWire_TimerDelay_INIT_PERIOD);
 119:Generated_Source\PSoC4/OneWire_TimerDelay.c ****     OneWire_TimerDelay_WriteCounter(OneWire_TimerDelay_INIT_PERIOD);
 120:Generated_Source\PSoC4/OneWire_TimerDelay.c **** 
 121:Generated_Source\PSoC4/OneWire_TimerDelay.c ****     #if (OneWire_TimerDelay_UsingHWCaptureCounter)/* Capture counter is enabled */
 122:Generated_Source\PSoC4/OneWire_TimerDelay.c ****         OneWire_TimerDelay_CAPTURE_COUNT_CTRL |= OneWire_TimerDelay_CNTR_ENABLE;
 123:Generated_Source\PSoC4/OneWire_TimerDelay.c ****         OneWire_TimerDelay_SetCaptureCount(OneWire_TimerDelay_INIT_CAPTURE_COUNT);
 124:Generated_Source\PSoC4/OneWire_TimerDelay.c ****     #endif /* Configure capture counter value */
 125:Generated_Source\PSoC4/OneWire_TimerDelay.c **** 
 126:Generated_Source\PSoC4/OneWire_TimerDelay.c ****     #if (!OneWire_TimerDelay_UsingFixedFunction)
 127:Generated_Source\PSoC4/OneWire_TimerDelay.c ****         #if (OneWire_TimerDelay_SoftwareCaptureMode)
 128:Generated_Source\PSoC4/OneWire_TimerDelay.c ****             OneWire_TimerDelay_SetCaptureMode(OneWire_TimerDelay_INIT_CAPTURE_MODE);
 129:Generated_Source\PSoC4/OneWire_TimerDelay.c ****         #endif /* Set Capture Mode for UDB implementation if capture mode is software controlled */
 130:Generated_Source\PSoC4/OneWire_TimerDelay.c **** 
 131:Generated_Source\PSoC4/OneWire_TimerDelay.c ****         #if (OneWire_TimerDelay_SoftwareTriggerMode)
 132:Generated_Source\PSoC4/OneWire_TimerDelay.c ****             #if (!OneWire_TimerDelay_UDB_CONTROL_REG_REMOVED)
 133:Generated_Source\PSoC4/OneWire_TimerDelay.c ****                 if (0u == (OneWire_TimerDelay_CONTROL & OneWire_TimerDelay__B_TIMER__TM_SOFTWARE))
 134:Generated_Source\PSoC4/OneWire_TimerDelay.c ****                 {
 135:Generated_Source\PSoC4/OneWire_TimerDelay.c ****                     OneWire_TimerDelay_SetTriggerMode(OneWire_TimerDelay_INIT_TRIGGER_MODE);
 136:Generated_Source\PSoC4/OneWire_TimerDelay.c ****                 }
 137:Generated_Source\PSoC4/OneWire_TimerDelay.c ****             #endif /* (!OneWire_TimerDelay_UDB_CONTROL_REG_REMOVED) */
 138:Generated_Source\PSoC4/OneWire_TimerDelay.c ****         #endif /* Set trigger mode for UDB Implementation if trigger mode is software controlled */
 139:Generated_Source\PSoC4/OneWire_TimerDelay.c **** 
 140:Generated_Source\PSoC4/OneWire_TimerDelay.c ****         /* CyEnterCriticalRegion and CyExitCriticalRegion are used to mark following region critica
 141:Generated_Source\PSoC4/OneWire_TimerDelay.c ****         /* Enter Critical Region*/
 142:Generated_Source\PSoC4/OneWire_TimerDelay.c ****         OneWire_TimerDelay_interruptState = CyEnterCriticalSection();
 143:Generated_Source\PSoC4/OneWire_TimerDelay.c **** 
 144:Generated_Source\PSoC4/OneWire_TimerDelay.c ****         /* Use the interrupt output of the status register for IRQ output */
 145:Generated_Source\PSoC4/OneWire_TimerDelay.c ****         OneWire_TimerDelay_STATUS_AUX_CTRL |= OneWire_TimerDelay_STATUS_ACTL_INT_EN_MASK;
 146:Generated_Source\PSoC4/OneWire_TimerDelay.c **** 
ARM GAS  C:\Users\Sarah\AppData\Local\Temp\ccbKWc9q.s 			page 4


 147:Generated_Source\PSoC4/OneWire_TimerDelay.c ****         /* Exit Critical Region*/
 148:Generated_Source\PSoC4/OneWire_TimerDelay.c ****         CyExitCriticalSection(OneWire_TimerDelay_interruptState);
 149:Generated_Source\PSoC4/OneWire_TimerDelay.c **** 
 150:Generated_Source\PSoC4/OneWire_TimerDelay.c ****         #if (OneWire_TimerDelay_EnableTriggerMode)
 151:Generated_Source\PSoC4/OneWire_TimerDelay.c ****             OneWire_TimerDelay_EnableTrigger();
 152:Generated_Source\PSoC4/OneWire_TimerDelay.c ****         #endif /* Set Trigger enable bit for UDB implementation in the control register*/
 153:Generated_Source\PSoC4/OneWire_TimerDelay.c **** 		
 154:Generated_Source\PSoC4/OneWire_TimerDelay.c **** 		
 155:Generated_Source\PSoC4/OneWire_TimerDelay.c ****         #if (OneWire_TimerDelay_InterruptOnCaptureCount && !OneWire_TimerDelay_UDB_CONTROL_REG_REMO
 156:Generated_Source\PSoC4/OneWire_TimerDelay.c ****             OneWire_TimerDelay_SetInterruptCount(OneWire_TimerDelay_INIT_INT_CAPTURE_COUNT);
 157:Generated_Source\PSoC4/OneWire_TimerDelay.c ****         #endif /* Set interrupt count in UDB implementation if interrupt count feature is checked.*
 158:Generated_Source\PSoC4/OneWire_TimerDelay.c **** 
 159:Generated_Source\PSoC4/OneWire_TimerDelay.c ****         OneWire_TimerDelay_ClearFIFO();
 160:Generated_Source\PSoC4/OneWire_TimerDelay.c ****     #endif /* Configure additional features of UDB implementation */
 161:Generated_Source\PSoC4/OneWire_TimerDelay.c **** 
 162:Generated_Source\PSoC4/OneWire_TimerDelay.c ****     OneWire_TimerDelay_SetInterruptMode(OneWire_TimerDelay_INIT_INTERRUPT_MODE);
 163:Generated_Source\PSoC4/OneWire_TimerDelay.c **** }
 164:Generated_Source\PSoC4/OneWire_TimerDelay.c **** 
 165:Generated_Source\PSoC4/OneWire_TimerDelay.c **** 
 166:Generated_Source\PSoC4/OneWire_TimerDelay.c **** /*******************************************************************************
 167:Generated_Source\PSoC4/OneWire_TimerDelay.c **** * Function Name: OneWire_TimerDelay_Enable
 168:Generated_Source\PSoC4/OneWire_TimerDelay.c **** ********************************************************************************
 169:Generated_Source\PSoC4/OneWire_TimerDelay.c **** *
 170:Generated_Source\PSoC4/OneWire_TimerDelay.c **** * Summary:
 171:Generated_Source\PSoC4/OneWire_TimerDelay.c **** *  Enable the Timer
 172:Generated_Source\PSoC4/OneWire_TimerDelay.c **** *
 173:Generated_Source\PSoC4/OneWire_TimerDelay.c **** * Parameters:
 174:Generated_Source\PSoC4/OneWire_TimerDelay.c **** *  void
 175:Generated_Source\PSoC4/OneWire_TimerDelay.c **** *
 176:Generated_Source\PSoC4/OneWire_TimerDelay.c **** * Return:
 177:Generated_Source\PSoC4/OneWire_TimerDelay.c **** *  void
 178:Generated_Source\PSoC4/OneWire_TimerDelay.c **** *
 179:Generated_Source\PSoC4/OneWire_TimerDelay.c **** *******************************************************************************/
 180:Generated_Source\PSoC4/OneWire_TimerDelay.c **** void OneWire_TimerDelay_Enable(void) 
 181:Generated_Source\PSoC4/OneWire_TimerDelay.c **** {
  26              		.loc 1 181 0
  27              		.cfi_startproc
 182:Generated_Source\PSoC4/OneWire_TimerDelay.c ****     /* Globally Enable the Fixed Function Block chosen */
 183:Generated_Source\PSoC4/OneWire_TimerDelay.c ****     #if (OneWire_TimerDelay_UsingFixedFunction)
 184:Generated_Source\PSoC4/OneWire_TimerDelay.c ****         OneWire_TimerDelay_GLOBAL_ENABLE |= OneWire_TimerDelay_BLOCK_EN_MASK;
 185:Generated_Source\PSoC4/OneWire_TimerDelay.c ****         OneWire_TimerDelay_GLOBAL_STBY_ENABLE |= OneWire_TimerDelay_BLOCK_STBY_EN_MASK;
 186:Generated_Source\PSoC4/OneWire_TimerDelay.c ****     #endif /* Set Enable bit for enabling Fixed function timer*/
 187:Generated_Source\PSoC4/OneWire_TimerDelay.c **** 
 188:Generated_Source\PSoC4/OneWire_TimerDelay.c ****     /* Remove assignment if control register is removed */
 189:Generated_Source\PSoC4/OneWire_TimerDelay.c ****     #if (!OneWire_TimerDelay_UDB_CONTROL_REG_REMOVED || OneWire_TimerDelay_UsingFixedFunction)
 190:Generated_Source\PSoC4/OneWire_TimerDelay.c ****         OneWire_TimerDelay_CONTROL |= OneWire_TimerDelay_CTRL_ENABLE;
  28              		.loc 1 190 0
  29 0000 024A     		ldr	r2, .L2
  30 0002 1178     		ldrb	r1, [r2]
  31 0004 8023     		mov	r3, #128
  32 0006 0B43     		orr	r3, r1
  33 0008 1370     		strb	r3, [r2]
 191:Generated_Source\PSoC4/OneWire_TimerDelay.c ****     #endif /* Remove assignment if control register is removed */
 192:Generated_Source\PSoC4/OneWire_TimerDelay.c **** }
  34              		.loc 1 192 0
  35              		@ sp needed
  36 000a 7047     		bx	lr
ARM GAS  C:\Users\Sarah\AppData\Local\Temp\ccbKWc9q.s 			page 5


  37              	.L3:
  38              		.align	2
  39              	.L2:
  40 000c 72000F40 		.word	1074724978
  41              		.cfi_endproc
  42              	.LFE3:
  43              		.size	OneWire_TimerDelay_Enable, .-OneWire_TimerDelay_Enable
  44              		.section	.text.OneWire_TimerDelay_Stop,"ax",%progbits
  45              		.align	2
  46              		.global	OneWire_TimerDelay_Stop
  47              		.code	16
  48              		.thumb_func
  49              		.type	OneWire_TimerDelay_Stop, %function
  50              	OneWire_TimerDelay_Stop:
  51              	.LFB5:
 193:Generated_Source\PSoC4/OneWire_TimerDelay.c **** 
 194:Generated_Source\PSoC4/OneWire_TimerDelay.c **** 
 195:Generated_Source\PSoC4/OneWire_TimerDelay.c **** /*******************************************************************************
 196:Generated_Source\PSoC4/OneWire_TimerDelay.c **** * Function Name: OneWire_TimerDelay_Start
 197:Generated_Source\PSoC4/OneWire_TimerDelay.c **** ********************************************************************************
 198:Generated_Source\PSoC4/OneWire_TimerDelay.c **** *
 199:Generated_Source\PSoC4/OneWire_TimerDelay.c **** * Summary:
 200:Generated_Source\PSoC4/OneWire_TimerDelay.c **** *  The start function initializes the timer with the default values, the
 201:Generated_Source\PSoC4/OneWire_TimerDelay.c **** *  enables the timerto begin counting.  It does not enable interrupts,
 202:Generated_Source\PSoC4/OneWire_TimerDelay.c **** *  the EnableInt command should be called if interrupt generation is required.
 203:Generated_Source\PSoC4/OneWire_TimerDelay.c **** *
 204:Generated_Source\PSoC4/OneWire_TimerDelay.c **** * Parameters:
 205:Generated_Source\PSoC4/OneWire_TimerDelay.c **** *  void
 206:Generated_Source\PSoC4/OneWire_TimerDelay.c **** *
 207:Generated_Source\PSoC4/OneWire_TimerDelay.c **** * Return:
 208:Generated_Source\PSoC4/OneWire_TimerDelay.c **** *  void
 209:Generated_Source\PSoC4/OneWire_TimerDelay.c **** *
 210:Generated_Source\PSoC4/OneWire_TimerDelay.c **** * Global variables:
 211:Generated_Source\PSoC4/OneWire_TimerDelay.c **** *  OneWire_TimerDelay_initVar: Is modified when this function is called for the
 212:Generated_Source\PSoC4/OneWire_TimerDelay.c **** *   first time. Is used to ensure that initialization happens only once.
 213:Generated_Source\PSoC4/OneWire_TimerDelay.c **** *
 214:Generated_Source\PSoC4/OneWire_TimerDelay.c **** *******************************************************************************/
 215:Generated_Source\PSoC4/OneWire_TimerDelay.c **** void OneWire_TimerDelay_Start(void) 
 216:Generated_Source\PSoC4/OneWire_TimerDelay.c **** {
 217:Generated_Source\PSoC4/OneWire_TimerDelay.c ****     if(OneWire_TimerDelay_initVar == 0u)
 218:Generated_Source\PSoC4/OneWire_TimerDelay.c ****     {
 219:Generated_Source\PSoC4/OneWire_TimerDelay.c ****         OneWire_TimerDelay_Init();
 220:Generated_Source\PSoC4/OneWire_TimerDelay.c **** 
 221:Generated_Source\PSoC4/OneWire_TimerDelay.c ****         OneWire_TimerDelay_initVar = 1u;   /* Clear this bit for Initialization */
 222:Generated_Source\PSoC4/OneWire_TimerDelay.c ****     }
 223:Generated_Source\PSoC4/OneWire_TimerDelay.c **** 
 224:Generated_Source\PSoC4/OneWire_TimerDelay.c ****     /* Enable the Timer */
 225:Generated_Source\PSoC4/OneWire_TimerDelay.c ****     OneWire_TimerDelay_Enable();
 226:Generated_Source\PSoC4/OneWire_TimerDelay.c **** }
 227:Generated_Source\PSoC4/OneWire_TimerDelay.c **** 
 228:Generated_Source\PSoC4/OneWire_TimerDelay.c **** 
 229:Generated_Source\PSoC4/OneWire_TimerDelay.c **** /*******************************************************************************
 230:Generated_Source\PSoC4/OneWire_TimerDelay.c **** * Function Name: OneWire_TimerDelay_Stop
 231:Generated_Source\PSoC4/OneWire_TimerDelay.c **** ********************************************************************************
 232:Generated_Source\PSoC4/OneWire_TimerDelay.c **** *
 233:Generated_Source\PSoC4/OneWire_TimerDelay.c **** * Summary:
 234:Generated_Source\PSoC4/OneWire_TimerDelay.c **** *  The stop function halts the timer, but does not change any modes or disable
ARM GAS  C:\Users\Sarah\AppData\Local\Temp\ccbKWc9q.s 			page 6


 235:Generated_Source\PSoC4/OneWire_TimerDelay.c **** *  interrupts.
 236:Generated_Source\PSoC4/OneWire_TimerDelay.c **** *
 237:Generated_Source\PSoC4/OneWire_TimerDelay.c **** * Parameters:
 238:Generated_Source\PSoC4/OneWire_TimerDelay.c **** *  void
 239:Generated_Source\PSoC4/OneWire_TimerDelay.c **** *
 240:Generated_Source\PSoC4/OneWire_TimerDelay.c **** * Return:
 241:Generated_Source\PSoC4/OneWire_TimerDelay.c **** *  void
 242:Generated_Source\PSoC4/OneWire_TimerDelay.c **** *
 243:Generated_Source\PSoC4/OneWire_TimerDelay.c **** * Side Effects: If the Enable mode is set to Hardware only then this function
 244:Generated_Source\PSoC4/OneWire_TimerDelay.c **** *               has no effect on the operation of the timer.
 245:Generated_Source\PSoC4/OneWire_TimerDelay.c **** *
 246:Generated_Source\PSoC4/OneWire_TimerDelay.c **** *******************************************************************************/
 247:Generated_Source\PSoC4/OneWire_TimerDelay.c **** void OneWire_TimerDelay_Stop(void) 
 248:Generated_Source\PSoC4/OneWire_TimerDelay.c **** {
  52              		.loc 1 248 0
  53              		.cfi_startproc
 249:Generated_Source\PSoC4/OneWire_TimerDelay.c ****     /* Disable Timer */
 250:Generated_Source\PSoC4/OneWire_TimerDelay.c ****     #if(!OneWire_TimerDelay_UDB_CONTROL_REG_REMOVED || OneWire_TimerDelay_UsingFixedFunction)
 251:Generated_Source\PSoC4/OneWire_TimerDelay.c ****         OneWire_TimerDelay_CONTROL &= ((uint8)(~OneWire_TimerDelay_CTRL_ENABLE));
  54              		.loc 1 251 0
  55 0000 024A     		ldr	r2, .L5
  56 0002 1178     		ldrb	r1, [r2]
  57 0004 7F23     		mov	r3, #127
  58 0006 0B40     		and	r3, r1
  59 0008 1370     		strb	r3, [r2]
 252:Generated_Source\PSoC4/OneWire_TimerDelay.c ****     #endif /* Remove assignment if control register is removed */
 253:Generated_Source\PSoC4/OneWire_TimerDelay.c **** 
 254:Generated_Source\PSoC4/OneWire_TimerDelay.c ****     /* Globally disable the Fixed Function Block chosen */
 255:Generated_Source\PSoC4/OneWire_TimerDelay.c ****     #if (OneWire_TimerDelay_UsingFixedFunction)
 256:Generated_Source\PSoC4/OneWire_TimerDelay.c ****         OneWire_TimerDelay_GLOBAL_ENABLE &= ((uint8)(~OneWire_TimerDelay_BLOCK_EN_MASK));
 257:Generated_Source\PSoC4/OneWire_TimerDelay.c ****         OneWire_TimerDelay_GLOBAL_STBY_ENABLE &= ((uint8)(~OneWire_TimerDelay_BLOCK_STBY_EN_MASK));
 258:Generated_Source\PSoC4/OneWire_TimerDelay.c ****     #endif /* Disable global enable for the Timer Fixed function block to stop the Timer*/
 259:Generated_Source\PSoC4/OneWire_TimerDelay.c **** }
  60              		.loc 1 259 0
  61              		@ sp needed
  62 000a 7047     		bx	lr
  63              	.L6:
  64              		.align	2
  65              	.L5:
  66 000c 72000F40 		.word	1074724978
  67              		.cfi_endproc
  68              	.LFE5:
  69              		.size	OneWire_TimerDelay_Stop, .-OneWire_TimerDelay_Stop
  70              		.section	.text.OneWire_TimerDelay_SetInterruptMode,"ax",%progbits
  71              		.align	2
  72              		.global	OneWire_TimerDelay_SetInterruptMode
  73              		.code	16
  74              		.thumb_func
  75              		.type	OneWire_TimerDelay_SetInterruptMode, %function
  76              	OneWire_TimerDelay_SetInterruptMode:
  77              	.LFB6:
 260:Generated_Source\PSoC4/OneWire_TimerDelay.c **** 
 261:Generated_Source\PSoC4/OneWire_TimerDelay.c **** 
 262:Generated_Source\PSoC4/OneWire_TimerDelay.c **** /*******************************************************************************
 263:Generated_Source\PSoC4/OneWire_TimerDelay.c **** * Function Name: OneWire_TimerDelay_SetInterruptMode
 264:Generated_Source\PSoC4/OneWire_TimerDelay.c **** ********************************************************************************
 265:Generated_Source\PSoC4/OneWire_TimerDelay.c **** *
ARM GAS  C:\Users\Sarah\AppData\Local\Temp\ccbKWc9q.s 			page 7


 266:Generated_Source\PSoC4/OneWire_TimerDelay.c **** * Summary:
 267:Generated_Source\PSoC4/OneWire_TimerDelay.c **** *  This function selects which of the interrupt inputs may cause an interrupt.
 268:Generated_Source\PSoC4/OneWire_TimerDelay.c **** *  The twosources are caputure and terminal.  One, both or neither may
 269:Generated_Source\PSoC4/OneWire_TimerDelay.c **** *  be selected.
 270:Generated_Source\PSoC4/OneWire_TimerDelay.c **** *
 271:Generated_Source\PSoC4/OneWire_TimerDelay.c **** * Parameters:
 272:Generated_Source\PSoC4/OneWire_TimerDelay.c **** *  interruptMode:   This parameter is used to enable interrups on either/or
 273:Generated_Source\PSoC4/OneWire_TimerDelay.c **** *                   terminal count or capture.
 274:Generated_Source\PSoC4/OneWire_TimerDelay.c **** *
 275:Generated_Source\PSoC4/OneWire_TimerDelay.c **** * Return:
 276:Generated_Source\PSoC4/OneWire_TimerDelay.c **** *  void
 277:Generated_Source\PSoC4/OneWire_TimerDelay.c **** *
 278:Generated_Source\PSoC4/OneWire_TimerDelay.c **** *******************************************************************************/
 279:Generated_Source\PSoC4/OneWire_TimerDelay.c **** void OneWire_TimerDelay_SetInterruptMode(uint8 interruptMode) 
 280:Generated_Source\PSoC4/OneWire_TimerDelay.c **** {
  78              		.loc 1 280 0
  79              		.cfi_startproc
  80              	.LVL0:
 281:Generated_Source\PSoC4/OneWire_TimerDelay.c ****     OneWire_TimerDelay_STATUS_MASK = interruptMode;
  81              		.loc 1 281 0
  82 0000 014B     		ldr	r3, .L8
  83 0002 1870     		strb	r0, [r3]
 282:Generated_Source\PSoC4/OneWire_TimerDelay.c **** }
  84              		.loc 1 282 0
  85              		@ sp needed
  86 0004 7047     		bx	lr
  87              	.L9:
  88 0006 C046     		.align	2
  89              	.L8:
  90 0008 83000F40 		.word	1074724995
  91              		.cfi_endproc
  92              	.LFE6:
  93              		.size	OneWire_TimerDelay_SetInterruptMode, .-OneWire_TimerDelay_SetInterruptMode
  94              		.section	.text.OneWire_TimerDelay_SoftwareCapture,"ax",%progbits
  95              		.align	2
  96              		.global	OneWire_TimerDelay_SoftwareCapture
  97              		.code	16
  98              		.thumb_func
  99              		.type	OneWire_TimerDelay_SoftwareCapture, %function
 100              	OneWire_TimerDelay_SoftwareCapture:
 101              	.LFB7:
 283:Generated_Source\PSoC4/OneWire_TimerDelay.c **** 
 284:Generated_Source\PSoC4/OneWire_TimerDelay.c **** 
 285:Generated_Source\PSoC4/OneWire_TimerDelay.c **** /*******************************************************************************
 286:Generated_Source\PSoC4/OneWire_TimerDelay.c **** * Function Name: OneWire_TimerDelay_SoftwareCapture
 287:Generated_Source\PSoC4/OneWire_TimerDelay.c **** ********************************************************************************
 288:Generated_Source\PSoC4/OneWire_TimerDelay.c **** *
 289:Generated_Source\PSoC4/OneWire_TimerDelay.c **** * Summary:
 290:Generated_Source\PSoC4/OneWire_TimerDelay.c **** *  This function forces a capture independent of the capture signal.
 291:Generated_Source\PSoC4/OneWire_TimerDelay.c **** *
 292:Generated_Source\PSoC4/OneWire_TimerDelay.c **** * Parameters:
 293:Generated_Source\PSoC4/OneWire_TimerDelay.c **** *  void
 294:Generated_Source\PSoC4/OneWire_TimerDelay.c **** *
 295:Generated_Source\PSoC4/OneWire_TimerDelay.c **** * Return:
 296:Generated_Source\PSoC4/OneWire_TimerDelay.c **** *  void
 297:Generated_Source\PSoC4/OneWire_TimerDelay.c **** *
 298:Generated_Source\PSoC4/OneWire_TimerDelay.c **** * Side Effects:
ARM GAS  C:\Users\Sarah\AppData\Local\Temp\ccbKWc9q.s 			page 8


 299:Generated_Source\PSoC4/OneWire_TimerDelay.c **** *  An existing hardware capture could be overwritten.
 300:Generated_Source\PSoC4/OneWire_TimerDelay.c **** *
 301:Generated_Source\PSoC4/OneWire_TimerDelay.c **** *******************************************************************************/
 302:Generated_Source\PSoC4/OneWire_TimerDelay.c **** void OneWire_TimerDelay_SoftwareCapture(void) 
 303:Generated_Source\PSoC4/OneWire_TimerDelay.c **** {
 102              		.loc 1 303 0
 103              		.cfi_startproc
 304:Generated_Source\PSoC4/OneWire_TimerDelay.c ****     /* Generate a software capture by reading the counter register */
 305:Generated_Source\PSoC4/OneWire_TimerDelay.c ****     #if(OneWire_TimerDelay_UsingFixedFunction)
 306:Generated_Source\PSoC4/OneWire_TimerDelay.c ****         (void)CY_GET_REG16(OneWire_TimerDelay_COUNTER_LSB_PTR);
 307:Generated_Source\PSoC4/OneWire_TimerDelay.c ****     #else
 308:Generated_Source\PSoC4/OneWire_TimerDelay.c ****         (void)CY_GET_REG8(OneWire_TimerDelay_COUNTER_LSB_PTR_8BIT);
 104              		.loc 1 308 0
 105 0000 014B     		ldr	r3, .L11
 106 0002 1B78     		ldrb	r3, [r3]
 309:Generated_Source\PSoC4/OneWire_TimerDelay.c ****     #endif/* (OneWire_TimerDelay_UsingFixedFunction) */
 310:Generated_Source\PSoC4/OneWire_TimerDelay.c ****     /* Capture Data is now in the FIFO */
 311:Generated_Source\PSoC4/OneWire_TimerDelay.c **** }
 107              		.loc 1 311 0
 108              		@ sp needed
 109 0004 7047     		bx	lr
 110              	.L12:
 111 0006 C046     		.align	2
 112              	.L11:
 113 0008 02000F40 		.word	1074724866
 114              		.cfi_endproc
 115              	.LFE7:
 116              		.size	OneWire_TimerDelay_SoftwareCapture, .-OneWire_TimerDelay_SoftwareCapture
 117              		.section	.text.OneWire_TimerDelay_ReadStatusRegister,"ax",%progbits
 118              		.align	2
 119              		.global	OneWire_TimerDelay_ReadStatusRegister
 120              		.code	16
 121              		.thumb_func
 122              		.type	OneWire_TimerDelay_ReadStatusRegister, %function
 123              	OneWire_TimerDelay_ReadStatusRegister:
 124              	.LFB8:
 312:Generated_Source\PSoC4/OneWire_TimerDelay.c **** 
 313:Generated_Source\PSoC4/OneWire_TimerDelay.c **** 
 314:Generated_Source\PSoC4/OneWire_TimerDelay.c **** /*******************************************************************************
 315:Generated_Source\PSoC4/OneWire_TimerDelay.c **** * Function Name: OneWire_TimerDelay_ReadStatusRegister
 316:Generated_Source\PSoC4/OneWire_TimerDelay.c **** ********************************************************************************
 317:Generated_Source\PSoC4/OneWire_TimerDelay.c **** *
 318:Generated_Source\PSoC4/OneWire_TimerDelay.c **** * Summary:
 319:Generated_Source\PSoC4/OneWire_TimerDelay.c **** *  Reads the status register and returns it's state. This function should use
 320:Generated_Source\PSoC4/OneWire_TimerDelay.c **** *  defined types for the bit-field information as the bits in this register may
 321:Generated_Source\PSoC4/OneWire_TimerDelay.c **** *  be permuteable.
 322:Generated_Source\PSoC4/OneWire_TimerDelay.c **** *
 323:Generated_Source\PSoC4/OneWire_TimerDelay.c **** * Parameters:
 324:Generated_Source\PSoC4/OneWire_TimerDelay.c **** *  void
 325:Generated_Source\PSoC4/OneWire_TimerDelay.c **** *
 326:Generated_Source\PSoC4/OneWire_TimerDelay.c **** * Return:
 327:Generated_Source\PSoC4/OneWire_TimerDelay.c **** *  The contents of the status register
 328:Generated_Source\PSoC4/OneWire_TimerDelay.c **** *
 329:Generated_Source\PSoC4/OneWire_TimerDelay.c **** * Side Effects:
 330:Generated_Source\PSoC4/OneWire_TimerDelay.c **** *  Status register bits may be clear on read.
 331:Generated_Source\PSoC4/OneWire_TimerDelay.c **** *
 332:Generated_Source\PSoC4/OneWire_TimerDelay.c **** *******************************************************************************/
ARM GAS  C:\Users\Sarah\AppData\Local\Temp\ccbKWc9q.s 			page 9


 333:Generated_Source\PSoC4/OneWire_TimerDelay.c **** uint8   OneWire_TimerDelay_ReadStatusRegister(void) 
 334:Generated_Source\PSoC4/OneWire_TimerDelay.c **** {
 125              		.loc 1 334 0
 126              		.cfi_startproc
 335:Generated_Source\PSoC4/OneWire_TimerDelay.c ****     return (OneWire_TimerDelay_STATUS);
 127              		.loc 1 335 0
 128 0000 014B     		ldr	r3, .L14
 129 0002 1878     		ldrb	r0, [r3]
 130 0004 C0B2     		uxtb	r0, r0
 336:Generated_Source\PSoC4/OneWire_TimerDelay.c **** }
 131              		.loc 1 336 0
 132              		@ sp needed
 133 0006 7047     		bx	lr
 134              	.L15:
 135              		.align	2
 136              	.L14:
 137 0008 63000F40 		.word	1074724963
 138              		.cfi_endproc
 139              	.LFE8:
 140              		.size	OneWire_TimerDelay_ReadStatusRegister, .-OneWire_TimerDelay_ReadStatusRegister
 141              		.section	.text.OneWire_TimerDelay_ReadControlRegister,"ax",%progbits
 142              		.align	2
 143              		.global	OneWire_TimerDelay_ReadControlRegister
 144              		.code	16
 145              		.thumb_func
 146              		.type	OneWire_TimerDelay_ReadControlRegister, %function
 147              	OneWire_TimerDelay_ReadControlRegister:
 148              	.LFB9:
 337:Generated_Source\PSoC4/OneWire_TimerDelay.c **** 
 338:Generated_Source\PSoC4/OneWire_TimerDelay.c **** 
 339:Generated_Source\PSoC4/OneWire_TimerDelay.c **** #if (!OneWire_TimerDelay_UDB_CONTROL_REG_REMOVED) /* Remove API if control register is unused */
 340:Generated_Source\PSoC4/OneWire_TimerDelay.c **** 
 341:Generated_Source\PSoC4/OneWire_TimerDelay.c **** 
 342:Generated_Source\PSoC4/OneWire_TimerDelay.c **** /*******************************************************************************
 343:Generated_Source\PSoC4/OneWire_TimerDelay.c **** * Function Name: OneWire_TimerDelay_ReadControlRegister
 344:Generated_Source\PSoC4/OneWire_TimerDelay.c **** ********************************************************************************
 345:Generated_Source\PSoC4/OneWire_TimerDelay.c **** *
 346:Generated_Source\PSoC4/OneWire_TimerDelay.c **** * Summary:
 347:Generated_Source\PSoC4/OneWire_TimerDelay.c **** *  Reads the control register and returns it's value.
 348:Generated_Source\PSoC4/OneWire_TimerDelay.c **** *
 349:Generated_Source\PSoC4/OneWire_TimerDelay.c **** * Parameters:
 350:Generated_Source\PSoC4/OneWire_TimerDelay.c **** *  void
 351:Generated_Source\PSoC4/OneWire_TimerDelay.c **** *
 352:Generated_Source\PSoC4/OneWire_TimerDelay.c **** * Return:
 353:Generated_Source\PSoC4/OneWire_TimerDelay.c **** *  The contents of the control register
 354:Generated_Source\PSoC4/OneWire_TimerDelay.c **** *
 355:Generated_Source\PSoC4/OneWire_TimerDelay.c **** *******************************************************************************/
 356:Generated_Source\PSoC4/OneWire_TimerDelay.c **** uint8 OneWire_TimerDelay_ReadControlRegister(void) 
 357:Generated_Source\PSoC4/OneWire_TimerDelay.c **** {
 149              		.loc 1 357 0
 150              		.cfi_startproc
 358:Generated_Source\PSoC4/OneWire_TimerDelay.c ****     #if (!OneWire_TimerDelay_UDB_CONTROL_REG_REMOVED) 
 359:Generated_Source\PSoC4/OneWire_TimerDelay.c ****         return ((uint8)OneWire_TimerDelay_CONTROL);
 151              		.loc 1 359 0
 152 0000 014B     		ldr	r3, .L17
 153 0002 1878     		ldrb	r0, [r3]
 154 0004 C0B2     		uxtb	r0, r0
ARM GAS  C:\Users\Sarah\AppData\Local\Temp\ccbKWc9q.s 			page 10


 360:Generated_Source\PSoC4/OneWire_TimerDelay.c ****     #else
 361:Generated_Source\PSoC4/OneWire_TimerDelay.c ****         return (0);
 362:Generated_Source\PSoC4/OneWire_TimerDelay.c ****     #endif /* (!OneWire_TimerDelay_UDB_CONTROL_REG_REMOVED) */
 363:Generated_Source\PSoC4/OneWire_TimerDelay.c **** }
 155              		.loc 1 363 0
 156              		@ sp needed
 157 0006 7047     		bx	lr
 158              	.L18:
 159              		.align	2
 160              	.L17:
 161 0008 72000F40 		.word	1074724978
 162              		.cfi_endproc
 163              	.LFE9:
 164              		.size	OneWire_TimerDelay_ReadControlRegister, .-OneWire_TimerDelay_ReadControlRegister
 165              		.section	.text.OneWire_TimerDelay_WriteControlRegister,"ax",%progbits
 166              		.align	2
 167              		.global	OneWire_TimerDelay_WriteControlRegister
 168              		.code	16
 169              		.thumb_func
 170              		.type	OneWire_TimerDelay_WriteControlRegister, %function
 171              	OneWire_TimerDelay_WriteControlRegister:
 172              	.LFB10:
 364:Generated_Source\PSoC4/OneWire_TimerDelay.c **** 
 365:Generated_Source\PSoC4/OneWire_TimerDelay.c **** 
 366:Generated_Source\PSoC4/OneWire_TimerDelay.c **** /*******************************************************************************
 367:Generated_Source\PSoC4/OneWire_TimerDelay.c **** * Function Name: OneWire_TimerDelay_WriteControlRegister
 368:Generated_Source\PSoC4/OneWire_TimerDelay.c **** ********************************************************************************
 369:Generated_Source\PSoC4/OneWire_TimerDelay.c **** *
 370:Generated_Source\PSoC4/OneWire_TimerDelay.c **** * Summary:
 371:Generated_Source\PSoC4/OneWire_TimerDelay.c **** *  Sets the bit-field of the control register.
 372:Generated_Source\PSoC4/OneWire_TimerDelay.c **** *
 373:Generated_Source\PSoC4/OneWire_TimerDelay.c **** * Parameters:
 374:Generated_Source\PSoC4/OneWire_TimerDelay.c **** *  control: The contents of the control register
 375:Generated_Source\PSoC4/OneWire_TimerDelay.c **** *
 376:Generated_Source\PSoC4/OneWire_TimerDelay.c **** * Return:
 377:Generated_Source\PSoC4/OneWire_TimerDelay.c **** *
 378:Generated_Source\PSoC4/OneWire_TimerDelay.c **** *******************************************************************************/
 379:Generated_Source\PSoC4/OneWire_TimerDelay.c **** void OneWire_TimerDelay_WriteControlRegister(uint8 control) 
 380:Generated_Source\PSoC4/OneWire_TimerDelay.c **** {
 173              		.loc 1 380 0
 174              		.cfi_startproc
 175              	.LVL1:
 381:Generated_Source\PSoC4/OneWire_TimerDelay.c ****     #if (!OneWire_TimerDelay_UDB_CONTROL_REG_REMOVED) 
 382:Generated_Source\PSoC4/OneWire_TimerDelay.c ****         OneWire_TimerDelay_CONTROL = control;
 176              		.loc 1 382 0
 177 0000 014B     		ldr	r3, .L20
 178 0002 1870     		strb	r0, [r3]
 383:Generated_Source\PSoC4/OneWire_TimerDelay.c ****     #else
 384:Generated_Source\PSoC4/OneWire_TimerDelay.c ****         control = 0u;
 385:Generated_Source\PSoC4/OneWire_TimerDelay.c ****     #endif /* (!OneWire_TimerDelay_UDB_CONTROL_REG_REMOVED) */
 386:Generated_Source\PSoC4/OneWire_TimerDelay.c **** }
 179              		.loc 1 386 0
 180              		@ sp needed
 181 0004 7047     		bx	lr
 182              	.L21:
 183 0006 C046     		.align	2
 184              	.L20:
ARM GAS  C:\Users\Sarah\AppData\Local\Temp\ccbKWc9q.s 			page 11


 185 0008 72000F40 		.word	1074724978
 186              		.cfi_endproc
 187              	.LFE10:
 188              		.size	OneWire_TimerDelay_WriteControlRegister, .-OneWire_TimerDelay_WriteControlRegister
 189              		.section	.text.OneWire_TimerDelay_ReadPeriod,"ax",%progbits
 190              		.align	2
 191              		.global	OneWire_TimerDelay_ReadPeriod
 192              		.code	16
 193              		.thumb_func
 194              		.type	OneWire_TimerDelay_ReadPeriod, %function
 195              	OneWire_TimerDelay_ReadPeriod:
 196              	.LFB11:
 387:Generated_Source\PSoC4/OneWire_TimerDelay.c **** 
 388:Generated_Source\PSoC4/OneWire_TimerDelay.c **** #endif /* Remove API if control register is unused */
 389:Generated_Source\PSoC4/OneWire_TimerDelay.c **** 
 390:Generated_Source\PSoC4/OneWire_TimerDelay.c **** 
 391:Generated_Source\PSoC4/OneWire_TimerDelay.c **** /*******************************************************************************
 392:Generated_Source\PSoC4/OneWire_TimerDelay.c **** * Function Name: OneWire_TimerDelay_ReadPeriod
 393:Generated_Source\PSoC4/OneWire_TimerDelay.c **** ********************************************************************************
 394:Generated_Source\PSoC4/OneWire_TimerDelay.c **** *
 395:Generated_Source\PSoC4/OneWire_TimerDelay.c **** * Summary:
 396:Generated_Source\PSoC4/OneWire_TimerDelay.c **** *  This function returns the current value of the Period.
 397:Generated_Source\PSoC4/OneWire_TimerDelay.c **** *
 398:Generated_Source\PSoC4/OneWire_TimerDelay.c **** * Parameters:
 399:Generated_Source\PSoC4/OneWire_TimerDelay.c **** *  void
 400:Generated_Source\PSoC4/OneWire_TimerDelay.c **** *
 401:Generated_Source\PSoC4/OneWire_TimerDelay.c **** * Return:
 402:Generated_Source\PSoC4/OneWire_TimerDelay.c **** *  The present value of the counter.
 403:Generated_Source\PSoC4/OneWire_TimerDelay.c **** *
 404:Generated_Source\PSoC4/OneWire_TimerDelay.c **** *******************************************************************************/
 405:Generated_Source\PSoC4/OneWire_TimerDelay.c **** uint16 OneWire_TimerDelay_ReadPeriod(void) 
 406:Generated_Source\PSoC4/OneWire_TimerDelay.c **** {
 197              		.loc 1 406 0
 198              		.cfi_startproc
 407:Generated_Source\PSoC4/OneWire_TimerDelay.c ****    #if(OneWire_TimerDelay_UsingFixedFunction)
 408:Generated_Source\PSoC4/OneWire_TimerDelay.c ****        return ((uint16)CY_GET_REG16(OneWire_TimerDelay_PERIOD_LSB_PTR));
 409:Generated_Source\PSoC4/OneWire_TimerDelay.c ****    #else
 410:Generated_Source\PSoC4/OneWire_TimerDelay.c ****        return (CY_GET_REG16(OneWire_TimerDelay_PERIOD_LSB_PTR));
 199              		.loc 1 410 0
 200 0000 014B     		ldr	r3, .L23
 201 0002 1888     		ldrh	r0, [r3]
 202 0004 80B2     		uxth	r0, r0
 411:Generated_Source\PSoC4/OneWire_TimerDelay.c ****    #endif /* (OneWire_TimerDelay_UsingFixedFunction) */
 412:Generated_Source\PSoC4/OneWire_TimerDelay.c **** }
 203              		.loc 1 412 0
 204              		@ sp needed
 205 0006 7047     		bx	lr
 206              	.L24:
 207              		.align	2
 208              	.L23:
 209 0008 44100F40 		.word	1074729028
 210              		.cfi_endproc
 211              	.LFE11:
 212              		.size	OneWire_TimerDelay_ReadPeriod, .-OneWire_TimerDelay_ReadPeriod
 213              		.section	.text.OneWire_TimerDelay_WritePeriod,"ax",%progbits
 214              		.align	2
 215              		.global	OneWire_TimerDelay_WritePeriod
ARM GAS  C:\Users\Sarah\AppData\Local\Temp\ccbKWc9q.s 			page 12


 216              		.code	16
 217              		.thumb_func
 218              		.type	OneWire_TimerDelay_WritePeriod, %function
 219              	OneWire_TimerDelay_WritePeriod:
 220              	.LFB12:
 413:Generated_Source\PSoC4/OneWire_TimerDelay.c **** 
 414:Generated_Source\PSoC4/OneWire_TimerDelay.c **** 
 415:Generated_Source\PSoC4/OneWire_TimerDelay.c **** /*******************************************************************************
 416:Generated_Source\PSoC4/OneWire_TimerDelay.c **** * Function Name: OneWire_TimerDelay_WritePeriod
 417:Generated_Source\PSoC4/OneWire_TimerDelay.c **** ********************************************************************************
 418:Generated_Source\PSoC4/OneWire_TimerDelay.c **** *
 419:Generated_Source\PSoC4/OneWire_TimerDelay.c **** * Summary:
 420:Generated_Source\PSoC4/OneWire_TimerDelay.c **** *  This function is used to change the period of the counter.  The new period
 421:Generated_Source\PSoC4/OneWire_TimerDelay.c **** *  will be loaded the next time terminal count is detected.
 422:Generated_Source\PSoC4/OneWire_TimerDelay.c **** *
 423:Generated_Source\PSoC4/OneWire_TimerDelay.c **** * Parameters:
 424:Generated_Source\PSoC4/OneWire_TimerDelay.c **** *  period: This value may be between 1 and (2^Resolution)-1.  A value of 0 will
 425:Generated_Source\PSoC4/OneWire_TimerDelay.c **** *          result in the counter remaining at zero.
 426:Generated_Source\PSoC4/OneWire_TimerDelay.c **** *
 427:Generated_Source\PSoC4/OneWire_TimerDelay.c **** * Return:
 428:Generated_Source\PSoC4/OneWire_TimerDelay.c **** *  void
 429:Generated_Source\PSoC4/OneWire_TimerDelay.c **** *
 430:Generated_Source\PSoC4/OneWire_TimerDelay.c **** *******************************************************************************/
 431:Generated_Source\PSoC4/OneWire_TimerDelay.c **** void OneWire_TimerDelay_WritePeriod(uint16 period) 
 432:Generated_Source\PSoC4/OneWire_TimerDelay.c **** {
 221              		.loc 1 432 0
 222              		.cfi_startproc
 223              	.LVL2:
 433:Generated_Source\PSoC4/OneWire_TimerDelay.c ****     #if(OneWire_TimerDelay_UsingFixedFunction)
 434:Generated_Source\PSoC4/OneWire_TimerDelay.c ****         uint16 period_temp = (uint16)period;
 435:Generated_Source\PSoC4/OneWire_TimerDelay.c ****         CY_SET_REG16(OneWire_TimerDelay_PERIOD_LSB_PTR, period_temp);
 436:Generated_Source\PSoC4/OneWire_TimerDelay.c ****     #else
 437:Generated_Source\PSoC4/OneWire_TimerDelay.c ****         CY_SET_REG16(OneWire_TimerDelay_PERIOD_LSB_PTR, period);
 224              		.loc 1 437 0
 225 0000 014B     		ldr	r3, .L26
 226 0002 1880     		strh	r0, [r3]
 438:Generated_Source\PSoC4/OneWire_TimerDelay.c ****     #endif /*Write Period value with appropriate resolution suffix depending on UDB or fixed functi
 439:Generated_Source\PSoC4/OneWire_TimerDelay.c **** }
 227              		.loc 1 439 0
 228              		@ sp needed
 229 0004 7047     		bx	lr
 230              	.L27:
 231 0006 C046     		.align	2
 232              	.L26:
 233 0008 44100F40 		.word	1074729028
 234              		.cfi_endproc
 235              	.LFE12:
 236              		.size	OneWire_TimerDelay_WritePeriod, .-OneWire_TimerDelay_WritePeriod
 237              		.section	.text.OneWire_TimerDelay_ReadCapture,"ax",%progbits
 238              		.align	2
 239              		.global	OneWire_TimerDelay_ReadCapture
 240              		.code	16
 241              		.thumb_func
 242              		.type	OneWire_TimerDelay_ReadCapture, %function
 243              	OneWire_TimerDelay_ReadCapture:
 244              	.LFB13:
 440:Generated_Source\PSoC4/OneWire_TimerDelay.c **** 
ARM GAS  C:\Users\Sarah\AppData\Local\Temp\ccbKWc9q.s 			page 13


 441:Generated_Source\PSoC4/OneWire_TimerDelay.c **** 
 442:Generated_Source\PSoC4/OneWire_TimerDelay.c **** /*******************************************************************************
 443:Generated_Source\PSoC4/OneWire_TimerDelay.c **** * Function Name: OneWire_TimerDelay_ReadCapture
 444:Generated_Source\PSoC4/OneWire_TimerDelay.c **** ********************************************************************************
 445:Generated_Source\PSoC4/OneWire_TimerDelay.c **** *
 446:Generated_Source\PSoC4/OneWire_TimerDelay.c **** * Summary:
 447:Generated_Source\PSoC4/OneWire_TimerDelay.c **** *  This function returns the last value captured.
 448:Generated_Source\PSoC4/OneWire_TimerDelay.c **** *
 449:Generated_Source\PSoC4/OneWire_TimerDelay.c **** * Parameters:
 450:Generated_Source\PSoC4/OneWire_TimerDelay.c **** *  void
 451:Generated_Source\PSoC4/OneWire_TimerDelay.c **** *
 452:Generated_Source\PSoC4/OneWire_TimerDelay.c **** * Return:
 453:Generated_Source\PSoC4/OneWire_TimerDelay.c **** *  Present Capture value.
 454:Generated_Source\PSoC4/OneWire_TimerDelay.c **** *
 455:Generated_Source\PSoC4/OneWire_TimerDelay.c **** *******************************************************************************/
 456:Generated_Source\PSoC4/OneWire_TimerDelay.c **** uint16 OneWire_TimerDelay_ReadCapture(void) 
 457:Generated_Source\PSoC4/OneWire_TimerDelay.c **** {
 245              		.loc 1 457 0
 246              		.cfi_startproc
 458:Generated_Source\PSoC4/OneWire_TimerDelay.c ****    #if(OneWire_TimerDelay_UsingFixedFunction)
 459:Generated_Source\PSoC4/OneWire_TimerDelay.c ****        return ((uint16)CY_GET_REG16(OneWire_TimerDelay_CAPTURE_LSB_PTR));
 460:Generated_Source\PSoC4/OneWire_TimerDelay.c ****    #else
 461:Generated_Source\PSoC4/OneWire_TimerDelay.c ****        return (CY_GET_REG16(OneWire_TimerDelay_CAPTURE_LSB_PTR));
 247              		.loc 1 461 0
 248 0000 014B     		ldr	r3, .L29
 249 0002 1888     		ldrh	r0, [r3]
 250 0004 80B2     		uxth	r0, r0
 462:Generated_Source\PSoC4/OneWire_TimerDelay.c ****    #endif /* (OneWire_TimerDelay_UsingFixedFunction) */
 463:Generated_Source\PSoC4/OneWire_TimerDelay.c **** }
 251              		.loc 1 463 0
 252              		@ sp needed
 253 0006 7047     		bx	lr
 254              	.L30:
 255              		.align	2
 256              	.L29:
 257 0008 84100F40 		.word	1074729092
 258              		.cfi_endproc
 259              	.LFE13:
 260              		.size	OneWire_TimerDelay_ReadCapture, .-OneWire_TimerDelay_ReadCapture
 261              		.section	.text.OneWire_TimerDelay_WriteCounter,"ax",%progbits
 262              		.align	2
 263              		.global	OneWire_TimerDelay_WriteCounter
 264              		.code	16
 265              		.thumb_func
 266              		.type	OneWire_TimerDelay_WriteCounter, %function
 267              	OneWire_TimerDelay_WriteCounter:
 268              	.LFB14:
 464:Generated_Source\PSoC4/OneWire_TimerDelay.c **** 
 465:Generated_Source\PSoC4/OneWire_TimerDelay.c **** 
 466:Generated_Source\PSoC4/OneWire_TimerDelay.c **** /*******************************************************************************
 467:Generated_Source\PSoC4/OneWire_TimerDelay.c **** * Function Name: OneWire_TimerDelay_WriteCounter
 468:Generated_Source\PSoC4/OneWire_TimerDelay.c **** ********************************************************************************
 469:Generated_Source\PSoC4/OneWire_TimerDelay.c **** *
 470:Generated_Source\PSoC4/OneWire_TimerDelay.c **** * Summary:
 471:Generated_Source\PSoC4/OneWire_TimerDelay.c **** *  This funtion is used to set the counter to a specific value
 472:Generated_Source\PSoC4/OneWire_TimerDelay.c **** *
 473:Generated_Source\PSoC4/OneWire_TimerDelay.c **** * Parameters:
ARM GAS  C:\Users\Sarah\AppData\Local\Temp\ccbKWc9q.s 			page 14


 474:Generated_Source\PSoC4/OneWire_TimerDelay.c **** *  counter:  New counter value.
 475:Generated_Source\PSoC4/OneWire_TimerDelay.c **** *
 476:Generated_Source\PSoC4/OneWire_TimerDelay.c **** * Return:
 477:Generated_Source\PSoC4/OneWire_TimerDelay.c **** *  void
 478:Generated_Source\PSoC4/OneWire_TimerDelay.c **** *
 479:Generated_Source\PSoC4/OneWire_TimerDelay.c **** *******************************************************************************/
 480:Generated_Source\PSoC4/OneWire_TimerDelay.c **** void OneWire_TimerDelay_WriteCounter(uint16 counter) 
 481:Generated_Source\PSoC4/OneWire_TimerDelay.c **** {
 269              		.loc 1 481 0
 270              		.cfi_startproc
 271              	.LVL3:
 482:Generated_Source\PSoC4/OneWire_TimerDelay.c ****    #if(OneWire_TimerDelay_UsingFixedFunction)
 483:Generated_Source\PSoC4/OneWire_TimerDelay.c ****         /* This functionality is removed until a FixedFunction HW update to
 484:Generated_Source\PSoC4/OneWire_TimerDelay.c ****          * allow this register to be written
 485:Generated_Source\PSoC4/OneWire_TimerDelay.c ****          */
 486:Generated_Source\PSoC4/OneWire_TimerDelay.c ****         CY_SET_REG16(OneWire_TimerDelay_COUNTER_LSB_PTR, (uint16)counter);
 487:Generated_Source\PSoC4/OneWire_TimerDelay.c ****         
 488:Generated_Source\PSoC4/OneWire_TimerDelay.c ****     #else
 489:Generated_Source\PSoC4/OneWire_TimerDelay.c ****         CY_SET_REG16(OneWire_TimerDelay_COUNTER_LSB_PTR, counter);
 272              		.loc 1 489 0
 273 0000 014B     		ldr	r3, .L32
 274 0002 1880     		strh	r0, [r3]
 490:Generated_Source\PSoC4/OneWire_TimerDelay.c ****     #endif /* Set Write Counter only for the UDB implementation (Write Counter not available in fix
 491:Generated_Source\PSoC4/OneWire_TimerDelay.c **** }
 275              		.loc 1 491 0
 276              		@ sp needed
 277 0004 7047     		bx	lr
 278              	.L33:
 279 0006 C046     		.align	2
 280              	.L32:
 281 0008 04100F40 		.word	1074728964
 282              		.cfi_endproc
 283              	.LFE14:
 284              		.size	OneWire_TimerDelay_WriteCounter, .-OneWire_TimerDelay_WriteCounter
 285              		.section	.text.OneWire_TimerDelay_ReadCounter,"ax",%progbits
 286              		.align	2
 287              		.global	OneWire_TimerDelay_ReadCounter
 288              		.code	16
 289              		.thumb_func
 290              		.type	OneWire_TimerDelay_ReadCounter, %function
 291              	OneWire_TimerDelay_ReadCounter:
 292              	.LFB15:
 492:Generated_Source\PSoC4/OneWire_TimerDelay.c **** 
 493:Generated_Source\PSoC4/OneWire_TimerDelay.c **** 
 494:Generated_Source\PSoC4/OneWire_TimerDelay.c **** /*******************************************************************************
 495:Generated_Source\PSoC4/OneWire_TimerDelay.c **** * Function Name: OneWire_TimerDelay_ReadCounter
 496:Generated_Source\PSoC4/OneWire_TimerDelay.c **** ********************************************************************************
 497:Generated_Source\PSoC4/OneWire_TimerDelay.c **** *
 498:Generated_Source\PSoC4/OneWire_TimerDelay.c **** * Summary:
 499:Generated_Source\PSoC4/OneWire_TimerDelay.c **** *  This function returns the current counter value.
 500:Generated_Source\PSoC4/OneWire_TimerDelay.c **** *
 501:Generated_Source\PSoC4/OneWire_TimerDelay.c **** * Parameters:
 502:Generated_Source\PSoC4/OneWire_TimerDelay.c **** *  void
 503:Generated_Source\PSoC4/OneWire_TimerDelay.c **** *
 504:Generated_Source\PSoC4/OneWire_TimerDelay.c **** * Return:
 505:Generated_Source\PSoC4/OneWire_TimerDelay.c **** *  Present compare value.
 506:Generated_Source\PSoC4/OneWire_TimerDelay.c **** *
ARM GAS  C:\Users\Sarah\AppData\Local\Temp\ccbKWc9q.s 			page 15


 507:Generated_Source\PSoC4/OneWire_TimerDelay.c **** *******************************************************************************/
 508:Generated_Source\PSoC4/OneWire_TimerDelay.c **** uint16 OneWire_TimerDelay_ReadCounter(void) 
 509:Generated_Source\PSoC4/OneWire_TimerDelay.c **** {
 293              		.loc 1 509 0
 294              		.cfi_startproc
 510:Generated_Source\PSoC4/OneWire_TimerDelay.c ****     /* Force capture by reading Accumulator */
 511:Generated_Source\PSoC4/OneWire_TimerDelay.c ****     /* Must first do a software capture to be able to read the counter */
 512:Generated_Source\PSoC4/OneWire_TimerDelay.c ****     /* It is up to the user code to make sure there isn't already captured data in the FIFO */
 513:Generated_Source\PSoC4/OneWire_TimerDelay.c ****     #if(OneWire_TimerDelay_UsingFixedFunction)
 514:Generated_Source\PSoC4/OneWire_TimerDelay.c ****         (void)CY_GET_REG16(OneWire_TimerDelay_COUNTER_LSB_PTR);
 515:Generated_Source\PSoC4/OneWire_TimerDelay.c ****     #else
 516:Generated_Source\PSoC4/OneWire_TimerDelay.c ****         (void)CY_GET_REG8(OneWire_TimerDelay_COUNTER_LSB_PTR_8BIT);
 295              		.loc 1 516 0
 296 0000 024B     		ldr	r3, .L35
 297 0002 1B78     		ldrb	r3, [r3]
 517:Generated_Source\PSoC4/OneWire_TimerDelay.c ****     #endif/* (OneWire_TimerDelay_UsingFixedFunction) */
 518:Generated_Source\PSoC4/OneWire_TimerDelay.c **** 
 519:Generated_Source\PSoC4/OneWire_TimerDelay.c ****     /* Read the data from the FIFO (or capture register for Fixed Function)*/
 520:Generated_Source\PSoC4/OneWire_TimerDelay.c ****     #if(OneWire_TimerDelay_UsingFixedFunction)
 521:Generated_Source\PSoC4/OneWire_TimerDelay.c ****         return ((uint16)CY_GET_REG16(OneWire_TimerDelay_CAPTURE_LSB_PTR));
 522:Generated_Source\PSoC4/OneWire_TimerDelay.c ****     #else
 523:Generated_Source\PSoC4/OneWire_TimerDelay.c ****         return (CY_GET_REG16(OneWire_TimerDelay_CAPTURE_LSB_PTR));
 298              		.loc 1 523 0
 299 0004 024B     		ldr	r3, .L35+4
 300 0006 1888     		ldrh	r0, [r3]
 301 0008 80B2     		uxth	r0, r0
 524:Generated_Source\PSoC4/OneWire_TimerDelay.c ****     #endif /* (OneWire_TimerDelay_UsingFixedFunction) */
 525:Generated_Source\PSoC4/OneWire_TimerDelay.c **** }
 302              		.loc 1 525 0
 303              		@ sp needed
 304 000a 7047     		bx	lr
 305              	.L36:
 306              		.align	2
 307              	.L35:
 308 000c 02000F40 		.word	1074724866
 309 0010 84100F40 		.word	1074729092
 310              		.cfi_endproc
 311              	.LFE15:
 312              		.size	OneWire_TimerDelay_ReadCounter, .-OneWire_TimerDelay_ReadCounter
 313              		.section	.text.OneWire_TimerDelay_EnableTrigger,"ax",%progbits
 314              		.align	2
 315              		.global	OneWire_TimerDelay_EnableTrigger
 316              		.code	16
 317              		.thumb_func
 318              		.type	OneWire_TimerDelay_EnableTrigger, %function
 319              	OneWire_TimerDelay_EnableTrigger:
 320              	.LFB16:
 526:Generated_Source\PSoC4/OneWire_TimerDelay.c **** 
 527:Generated_Source\PSoC4/OneWire_TimerDelay.c **** 
 528:Generated_Source\PSoC4/OneWire_TimerDelay.c **** #if(!OneWire_TimerDelay_UsingFixedFunction) /* UDB Specific Functions */
 529:Generated_Source\PSoC4/OneWire_TimerDelay.c **** 
 530:Generated_Source\PSoC4/OneWire_TimerDelay.c ****     
 531:Generated_Source\PSoC4/OneWire_TimerDelay.c **** /*******************************************************************************
 532:Generated_Source\PSoC4/OneWire_TimerDelay.c ****  * The functions below this point are only available using the UDB
 533:Generated_Source\PSoC4/OneWire_TimerDelay.c ****  * implementation.  If a feature is selected, then the API is enabled.
 534:Generated_Source\PSoC4/OneWire_TimerDelay.c ****  ******************************************************************************/
 535:Generated_Source\PSoC4/OneWire_TimerDelay.c **** 
ARM GAS  C:\Users\Sarah\AppData\Local\Temp\ccbKWc9q.s 			page 16


 536:Generated_Source\PSoC4/OneWire_TimerDelay.c **** 
 537:Generated_Source\PSoC4/OneWire_TimerDelay.c **** #if (OneWire_TimerDelay_SoftwareCaptureMode)
 538:Generated_Source\PSoC4/OneWire_TimerDelay.c **** 
 539:Generated_Source\PSoC4/OneWire_TimerDelay.c **** 
 540:Generated_Source\PSoC4/OneWire_TimerDelay.c **** /*******************************************************************************
 541:Generated_Source\PSoC4/OneWire_TimerDelay.c **** * Function Name: OneWire_TimerDelay_SetCaptureMode
 542:Generated_Source\PSoC4/OneWire_TimerDelay.c **** ********************************************************************************
 543:Generated_Source\PSoC4/OneWire_TimerDelay.c **** *
 544:Generated_Source\PSoC4/OneWire_TimerDelay.c **** * Summary:
 545:Generated_Source\PSoC4/OneWire_TimerDelay.c **** *  This function sets the capture mode to either rising or falling edge.
 546:Generated_Source\PSoC4/OneWire_TimerDelay.c **** *
 547:Generated_Source\PSoC4/OneWire_TimerDelay.c **** * Parameters:
 548:Generated_Source\PSoC4/OneWire_TimerDelay.c **** *  captureMode: This parameter sets the capture mode of the UDB capture feature
 549:Generated_Source\PSoC4/OneWire_TimerDelay.c **** *  The parameter values are defined using the
 550:Generated_Source\PSoC4/OneWire_TimerDelay.c **** *  #define OneWire_TimerDelay__B_TIMER__CM_NONE 0
 551:Generated_Source\PSoC4/OneWire_TimerDelay.c **** #define OneWire_TimerDelay__B_TIMER__CM_RISINGEDGE 1
 552:Generated_Source\PSoC4/OneWire_TimerDelay.c **** #define OneWire_TimerDelay__B_TIMER__CM_FALLINGEDGE 2
 553:Generated_Source\PSoC4/OneWire_TimerDelay.c **** #define OneWire_TimerDelay__B_TIMER__CM_EITHEREDGE 3
 554:Generated_Source\PSoC4/OneWire_TimerDelay.c **** #define OneWire_TimerDelay__B_TIMER__CM_SOFTWARE 4
 555:Generated_Source\PSoC4/OneWire_TimerDelay.c ****  identifiers
 556:Generated_Source\PSoC4/OneWire_TimerDelay.c **** *  The following are the possible values of the parameter
 557:Generated_Source\PSoC4/OneWire_TimerDelay.c **** *  OneWire_TimerDelay__B_TIMER__CM_NONE        - Set Capture mode to None
 558:Generated_Source\PSoC4/OneWire_TimerDelay.c **** *  OneWire_TimerDelay__B_TIMER__CM_RISINGEDGE  - Rising edge of Capture input
 559:Generated_Source\PSoC4/OneWire_TimerDelay.c **** *  OneWire_TimerDelay__B_TIMER__CM_FALLINGEDGE - Falling edge of Capture input
 560:Generated_Source\PSoC4/OneWire_TimerDelay.c **** *  OneWire_TimerDelay__B_TIMER__CM_EITHEREDGE  - Either edge of Capture input
 561:Generated_Source\PSoC4/OneWire_TimerDelay.c **** *
 562:Generated_Source\PSoC4/OneWire_TimerDelay.c **** * Return:
 563:Generated_Source\PSoC4/OneWire_TimerDelay.c **** *  void
 564:Generated_Source\PSoC4/OneWire_TimerDelay.c **** *
 565:Generated_Source\PSoC4/OneWire_TimerDelay.c **** *******************************************************************************/
 566:Generated_Source\PSoC4/OneWire_TimerDelay.c **** void OneWire_TimerDelay_SetCaptureMode(uint8 captureMode) 
 567:Generated_Source\PSoC4/OneWire_TimerDelay.c **** {
 568:Generated_Source\PSoC4/OneWire_TimerDelay.c ****     /* This must only set to two bits of the control register associated */
 569:Generated_Source\PSoC4/OneWire_TimerDelay.c ****     captureMode = ((uint8)((uint8)captureMode << OneWire_TimerDelay_CTRL_CAP_MODE_SHIFT));
 570:Generated_Source\PSoC4/OneWire_TimerDelay.c ****     captureMode &= (OneWire_TimerDelay_CTRL_CAP_MODE_MASK);
 571:Generated_Source\PSoC4/OneWire_TimerDelay.c **** 
 572:Generated_Source\PSoC4/OneWire_TimerDelay.c ****     #if (!OneWire_TimerDelay_UDB_CONTROL_REG_REMOVED)
 573:Generated_Source\PSoC4/OneWire_TimerDelay.c ****         /* Clear the Current Setting */
 574:Generated_Source\PSoC4/OneWire_TimerDelay.c ****         OneWire_TimerDelay_CONTROL &= ((uint8)(~OneWire_TimerDelay_CTRL_CAP_MODE_MASK));
 575:Generated_Source\PSoC4/OneWire_TimerDelay.c **** 
 576:Generated_Source\PSoC4/OneWire_TimerDelay.c ****         /* Write The New Setting */
 577:Generated_Source\PSoC4/OneWire_TimerDelay.c ****         OneWire_TimerDelay_CONTROL |= captureMode;
 578:Generated_Source\PSoC4/OneWire_TimerDelay.c ****     #endif /* (!OneWire_TimerDelay_UDB_CONTROL_REG_REMOVED) */
 579:Generated_Source\PSoC4/OneWire_TimerDelay.c **** }
 580:Generated_Source\PSoC4/OneWire_TimerDelay.c **** #endif /* Remove API if Capture Mode is not Software Controlled */
 581:Generated_Source\PSoC4/OneWire_TimerDelay.c **** 
 582:Generated_Source\PSoC4/OneWire_TimerDelay.c **** 
 583:Generated_Source\PSoC4/OneWire_TimerDelay.c **** #if (OneWire_TimerDelay_SoftwareTriggerMode)
 584:Generated_Source\PSoC4/OneWire_TimerDelay.c **** 
 585:Generated_Source\PSoC4/OneWire_TimerDelay.c **** 
 586:Generated_Source\PSoC4/OneWire_TimerDelay.c **** /*******************************************************************************
 587:Generated_Source\PSoC4/OneWire_TimerDelay.c **** * Function Name: OneWire_TimerDelay_SetTriggerMode
 588:Generated_Source\PSoC4/OneWire_TimerDelay.c **** ********************************************************************************
 589:Generated_Source\PSoC4/OneWire_TimerDelay.c **** *
 590:Generated_Source\PSoC4/OneWire_TimerDelay.c **** * Summary:
 591:Generated_Source\PSoC4/OneWire_TimerDelay.c **** *  This function sets the trigger input mode
 592:Generated_Source\PSoC4/OneWire_TimerDelay.c **** *
ARM GAS  C:\Users\Sarah\AppData\Local\Temp\ccbKWc9q.s 			page 17


 593:Generated_Source\PSoC4/OneWire_TimerDelay.c **** * Parameters:
 594:Generated_Source\PSoC4/OneWire_TimerDelay.c **** *  triggerMode: Pass one of the pre-defined Trigger Modes (except Software)
 595:Generated_Source\PSoC4/OneWire_TimerDelay.c ****     #define OneWire_TimerDelay__B_TIMER__TM_NONE 0x00u
 596:Generated_Source\PSoC4/OneWire_TimerDelay.c ****     #define OneWire_TimerDelay__B_TIMER__TM_RISINGEDGE 0x04u
 597:Generated_Source\PSoC4/OneWire_TimerDelay.c ****     #define OneWire_TimerDelay__B_TIMER__TM_FALLINGEDGE 0x08u
 598:Generated_Source\PSoC4/OneWire_TimerDelay.c ****     #define OneWire_TimerDelay__B_TIMER__TM_EITHEREDGE 0x0Cu
 599:Generated_Source\PSoC4/OneWire_TimerDelay.c ****     #define OneWire_TimerDelay__B_TIMER__TM_SOFTWARE 0x10u
 600:Generated_Source\PSoC4/OneWire_TimerDelay.c **** *
 601:Generated_Source\PSoC4/OneWire_TimerDelay.c **** * Return:
 602:Generated_Source\PSoC4/OneWire_TimerDelay.c **** *  void
 603:Generated_Source\PSoC4/OneWire_TimerDelay.c **** *
 604:Generated_Source\PSoC4/OneWire_TimerDelay.c **** *******************************************************************************/
 605:Generated_Source\PSoC4/OneWire_TimerDelay.c **** void OneWire_TimerDelay_SetTriggerMode(uint8 triggerMode) 
 606:Generated_Source\PSoC4/OneWire_TimerDelay.c **** {
 607:Generated_Source\PSoC4/OneWire_TimerDelay.c ****     /* This must only set to two bits of the control register associated */
 608:Generated_Source\PSoC4/OneWire_TimerDelay.c ****     triggerMode &= OneWire_TimerDelay_CTRL_TRIG_MODE_MASK;
 609:Generated_Source\PSoC4/OneWire_TimerDelay.c **** 
 610:Generated_Source\PSoC4/OneWire_TimerDelay.c ****     #if (!OneWire_TimerDelay_UDB_CONTROL_REG_REMOVED)   /* Remove assignment if control register is
 611:Generated_Source\PSoC4/OneWire_TimerDelay.c ****     
 612:Generated_Source\PSoC4/OneWire_TimerDelay.c ****         /* Clear the Current Setting */
 613:Generated_Source\PSoC4/OneWire_TimerDelay.c ****         OneWire_TimerDelay_CONTROL &= ((uint8)(~OneWire_TimerDelay_CTRL_TRIG_MODE_MASK));
 614:Generated_Source\PSoC4/OneWire_TimerDelay.c **** 
 615:Generated_Source\PSoC4/OneWire_TimerDelay.c ****         /* Write The New Setting */
 616:Generated_Source\PSoC4/OneWire_TimerDelay.c ****         OneWire_TimerDelay_CONTROL |= (triggerMode | OneWire_TimerDelay__B_TIMER__TM_SOFTWARE);
 617:Generated_Source\PSoC4/OneWire_TimerDelay.c ****     #endif /* Remove code section if control register is not used */
 618:Generated_Source\PSoC4/OneWire_TimerDelay.c **** }
 619:Generated_Source\PSoC4/OneWire_TimerDelay.c **** #endif /* Remove API if Trigger Mode is not Software Controlled */
 620:Generated_Source\PSoC4/OneWire_TimerDelay.c **** 
 621:Generated_Source\PSoC4/OneWire_TimerDelay.c **** #if (OneWire_TimerDelay_EnableTriggerMode)
 622:Generated_Source\PSoC4/OneWire_TimerDelay.c **** 
 623:Generated_Source\PSoC4/OneWire_TimerDelay.c **** 
 624:Generated_Source\PSoC4/OneWire_TimerDelay.c **** /*******************************************************************************
 625:Generated_Source\PSoC4/OneWire_TimerDelay.c **** * Function Name: OneWire_TimerDelay_EnableTrigger
 626:Generated_Source\PSoC4/OneWire_TimerDelay.c **** ********************************************************************************
 627:Generated_Source\PSoC4/OneWire_TimerDelay.c **** *
 628:Generated_Source\PSoC4/OneWire_TimerDelay.c **** * Summary:
 629:Generated_Source\PSoC4/OneWire_TimerDelay.c **** *  Sets the control bit enabling Hardware Trigger mode
 630:Generated_Source\PSoC4/OneWire_TimerDelay.c **** *
 631:Generated_Source\PSoC4/OneWire_TimerDelay.c **** * Parameters:
 632:Generated_Source\PSoC4/OneWire_TimerDelay.c **** *  void
 633:Generated_Source\PSoC4/OneWire_TimerDelay.c **** *
 634:Generated_Source\PSoC4/OneWire_TimerDelay.c **** * Return:
 635:Generated_Source\PSoC4/OneWire_TimerDelay.c **** *  void
 636:Generated_Source\PSoC4/OneWire_TimerDelay.c **** *
 637:Generated_Source\PSoC4/OneWire_TimerDelay.c **** *******************************************************************************/
 638:Generated_Source\PSoC4/OneWire_TimerDelay.c **** void OneWire_TimerDelay_EnableTrigger(void) 
 639:Generated_Source\PSoC4/OneWire_TimerDelay.c **** {
 321              		.loc 1 639 0
 322              		.cfi_startproc
 640:Generated_Source\PSoC4/OneWire_TimerDelay.c ****     #if (!OneWire_TimerDelay_UDB_CONTROL_REG_REMOVED)   /* Remove assignment if control register is
 641:Generated_Source\PSoC4/OneWire_TimerDelay.c ****         OneWire_TimerDelay_CONTROL |= OneWire_TimerDelay_CTRL_TRIG_EN;
 323              		.loc 1 641 0
 324 0000 024A     		ldr	r2, .L38
 325 0002 1178     		ldrb	r1, [r2]
 326 0004 1023     		mov	r3, #16
 327 0006 0B43     		orr	r3, r1
 328 0008 1370     		strb	r3, [r2]
ARM GAS  C:\Users\Sarah\AppData\Local\Temp\ccbKWc9q.s 			page 18


 642:Generated_Source\PSoC4/OneWire_TimerDelay.c ****     #endif /* Remove code section if control register is not used */
 643:Generated_Source\PSoC4/OneWire_TimerDelay.c **** }
 329              		.loc 1 643 0
 330              		@ sp needed
 331 000a 7047     		bx	lr
 332              	.L39:
 333              		.align	2
 334              	.L38:
 335 000c 72000F40 		.word	1074724978
 336              		.cfi_endproc
 337              	.LFE16:
 338              		.size	OneWire_TimerDelay_EnableTrigger, .-OneWire_TimerDelay_EnableTrigger
 339              		.section	.text.OneWire_TimerDelay_DisableTrigger,"ax",%progbits
 340              		.align	2
 341              		.global	OneWire_TimerDelay_DisableTrigger
 342              		.code	16
 343              		.thumb_func
 344              		.type	OneWire_TimerDelay_DisableTrigger, %function
 345              	OneWire_TimerDelay_DisableTrigger:
 346              	.LFB17:
 644:Generated_Source\PSoC4/OneWire_TimerDelay.c **** 
 645:Generated_Source\PSoC4/OneWire_TimerDelay.c **** 
 646:Generated_Source\PSoC4/OneWire_TimerDelay.c **** /*******************************************************************************
 647:Generated_Source\PSoC4/OneWire_TimerDelay.c **** * Function Name: OneWire_TimerDelay_DisableTrigger
 648:Generated_Source\PSoC4/OneWire_TimerDelay.c **** ********************************************************************************
 649:Generated_Source\PSoC4/OneWire_TimerDelay.c **** *
 650:Generated_Source\PSoC4/OneWire_TimerDelay.c **** * Summary:
 651:Generated_Source\PSoC4/OneWire_TimerDelay.c **** *  Clears the control bit enabling Hardware Trigger mode
 652:Generated_Source\PSoC4/OneWire_TimerDelay.c **** *
 653:Generated_Source\PSoC4/OneWire_TimerDelay.c **** * Parameters:
 654:Generated_Source\PSoC4/OneWire_TimerDelay.c **** *  void
 655:Generated_Source\PSoC4/OneWire_TimerDelay.c **** *
 656:Generated_Source\PSoC4/OneWire_TimerDelay.c **** * Return:
 657:Generated_Source\PSoC4/OneWire_TimerDelay.c **** *  void
 658:Generated_Source\PSoC4/OneWire_TimerDelay.c **** *
 659:Generated_Source\PSoC4/OneWire_TimerDelay.c **** *******************************************************************************/
 660:Generated_Source\PSoC4/OneWire_TimerDelay.c **** void OneWire_TimerDelay_DisableTrigger(void) 
 661:Generated_Source\PSoC4/OneWire_TimerDelay.c **** {
 347              		.loc 1 661 0
 348              		.cfi_startproc
 662:Generated_Source\PSoC4/OneWire_TimerDelay.c ****     #if (!OneWire_TimerDelay_UDB_CONTROL_REG_REMOVED )   /* Remove assignment if control register i
 663:Generated_Source\PSoC4/OneWire_TimerDelay.c ****         OneWire_TimerDelay_CONTROL &= ((uint8)(~OneWire_TimerDelay_CTRL_TRIG_EN));
 349              		.loc 1 663 0
 350 0000 024A     		ldr	r2, .L41
 351 0002 1378     		ldrb	r3, [r2]
 352 0004 1021     		mov	r1, #16
 353 0006 8B43     		bic	r3, r1
 354 0008 1370     		strb	r3, [r2]
 664:Generated_Source\PSoC4/OneWire_TimerDelay.c ****     #endif /* Remove code section if control register is not used */
 665:Generated_Source\PSoC4/OneWire_TimerDelay.c **** }
 355              		.loc 1 665 0
 356              		@ sp needed
 357 000a 7047     		bx	lr
 358              	.L42:
 359              		.align	2
 360              	.L41:
 361 000c 72000F40 		.word	1074724978
ARM GAS  C:\Users\Sarah\AppData\Local\Temp\ccbKWc9q.s 			page 19


 362              		.cfi_endproc
 363              	.LFE17:
 364              		.size	OneWire_TimerDelay_DisableTrigger, .-OneWire_TimerDelay_DisableTrigger
 365              		.section	.text.OneWire_TimerDelay_ClearFIFO,"ax",%progbits
 366              		.align	2
 367              		.global	OneWire_TimerDelay_ClearFIFO
 368              		.code	16
 369              		.thumb_func
 370              		.type	OneWire_TimerDelay_ClearFIFO, %function
 371              	OneWire_TimerDelay_ClearFIFO:
 372              	.LFB18:
 666:Generated_Source\PSoC4/OneWire_TimerDelay.c **** #endif /* Remove API is Trigger Mode is set to None */
 667:Generated_Source\PSoC4/OneWire_TimerDelay.c **** 
 668:Generated_Source\PSoC4/OneWire_TimerDelay.c **** #if(OneWire_TimerDelay_InterruptOnCaptureCount)
 669:Generated_Source\PSoC4/OneWire_TimerDelay.c **** 
 670:Generated_Source\PSoC4/OneWire_TimerDelay.c **** 
 671:Generated_Source\PSoC4/OneWire_TimerDelay.c **** /*******************************************************************************
 672:Generated_Source\PSoC4/OneWire_TimerDelay.c **** * Function Name: OneWire_TimerDelay_SetInterruptCount
 673:Generated_Source\PSoC4/OneWire_TimerDelay.c **** ********************************************************************************
 674:Generated_Source\PSoC4/OneWire_TimerDelay.c **** *
 675:Generated_Source\PSoC4/OneWire_TimerDelay.c **** * Summary:
 676:Generated_Source\PSoC4/OneWire_TimerDelay.c **** *  This function sets the capture count before an interrupt is triggered.
 677:Generated_Source\PSoC4/OneWire_TimerDelay.c **** *
 678:Generated_Source\PSoC4/OneWire_TimerDelay.c **** * Parameters:
 679:Generated_Source\PSoC4/OneWire_TimerDelay.c **** *  interruptCount:  A value between 0 and 3 is valid.  If the value is 0, then
 680:Generated_Source\PSoC4/OneWire_TimerDelay.c **** *                   an interrupt will occur each time a capture occurs.
 681:Generated_Source\PSoC4/OneWire_TimerDelay.c **** *                   A value of 1 to 3 will cause the interrupt
 682:Generated_Source\PSoC4/OneWire_TimerDelay.c **** *                   to delay by the same number of captures.
 683:Generated_Source\PSoC4/OneWire_TimerDelay.c **** *
 684:Generated_Source\PSoC4/OneWire_TimerDelay.c **** * Return:
 685:Generated_Source\PSoC4/OneWire_TimerDelay.c **** *  void
 686:Generated_Source\PSoC4/OneWire_TimerDelay.c **** *
 687:Generated_Source\PSoC4/OneWire_TimerDelay.c **** *******************************************************************************/
 688:Generated_Source\PSoC4/OneWire_TimerDelay.c **** void OneWire_TimerDelay_SetInterruptCount(uint8 interruptCount) 
 689:Generated_Source\PSoC4/OneWire_TimerDelay.c **** {
 690:Generated_Source\PSoC4/OneWire_TimerDelay.c ****     /* This must only set to two bits of the control register associated */
 691:Generated_Source\PSoC4/OneWire_TimerDelay.c ****     interruptCount &= OneWire_TimerDelay_CTRL_INTCNT_MASK;
 692:Generated_Source\PSoC4/OneWire_TimerDelay.c **** 
 693:Generated_Source\PSoC4/OneWire_TimerDelay.c ****     #if (!OneWire_TimerDelay_UDB_CONTROL_REG_REMOVED)
 694:Generated_Source\PSoC4/OneWire_TimerDelay.c ****         /* Clear the Current Setting */
 695:Generated_Source\PSoC4/OneWire_TimerDelay.c ****         OneWire_TimerDelay_CONTROL &= ((uint8)(~OneWire_TimerDelay_CTRL_INTCNT_MASK));
 696:Generated_Source\PSoC4/OneWire_TimerDelay.c ****         /* Write The New Setting */
 697:Generated_Source\PSoC4/OneWire_TimerDelay.c ****         OneWire_TimerDelay_CONTROL |= interruptCount;
 698:Generated_Source\PSoC4/OneWire_TimerDelay.c ****     #endif /* (!OneWire_TimerDelay_UDB_CONTROL_REG_REMOVED) */
 699:Generated_Source\PSoC4/OneWire_TimerDelay.c **** }
 700:Generated_Source\PSoC4/OneWire_TimerDelay.c **** #endif /* OneWire_TimerDelay_InterruptOnCaptureCount */
 701:Generated_Source\PSoC4/OneWire_TimerDelay.c **** 
 702:Generated_Source\PSoC4/OneWire_TimerDelay.c **** 
 703:Generated_Source\PSoC4/OneWire_TimerDelay.c **** #if (OneWire_TimerDelay_UsingHWCaptureCounter)
 704:Generated_Source\PSoC4/OneWire_TimerDelay.c **** 
 705:Generated_Source\PSoC4/OneWire_TimerDelay.c **** 
 706:Generated_Source\PSoC4/OneWire_TimerDelay.c **** /*******************************************************************************
 707:Generated_Source\PSoC4/OneWire_TimerDelay.c **** * Function Name: OneWire_TimerDelay_SetCaptureCount
 708:Generated_Source\PSoC4/OneWire_TimerDelay.c **** ********************************************************************************
 709:Generated_Source\PSoC4/OneWire_TimerDelay.c **** *
 710:Generated_Source\PSoC4/OneWire_TimerDelay.c **** * Summary:
 711:Generated_Source\PSoC4/OneWire_TimerDelay.c **** *  This function sets the capture count
ARM GAS  C:\Users\Sarah\AppData\Local\Temp\ccbKWc9q.s 			page 20


 712:Generated_Source\PSoC4/OneWire_TimerDelay.c **** *
 713:Generated_Source\PSoC4/OneWire_TimerDelay.c **** * Parameters:
 714:Generated_Source\PSoC4/OneWire_TimerDelay.c **** *  captureCount: A value between 2 and 127 inclusive is valid.  A value of 1
 715:Generated_Source\PSoC4/OneWire_TimerDelay.c **** *                to 127 will cause the interrupt to delay by the same number of
 716:Generated_Source\PSoC4/OneWire_TimerDelay.c **** *                captures.
 717:Generated_Source\PSoC4/OneWire_TimerDelay.c **** *
 718:Generated_Source\PSoC4/OneWire_TimerDelay.c **** * Return:
 719:Generated_Source\PSoC4/OneWire_TimerDelay.c **** *  void
 720:Generated_Source\PSoC4/OneWire_TimerDelay.c **** *
 721:Generated_Source\PSoC4/OneWire_TimerDelay.c **** *******************************************************************************/
 722:Generated_Source\PSoC4/OneWire_TimerDelay.c **** void OneWire_TimerDelay_SetCaptureCount(uint8 captureCount) 
 723:Generated_Source\PSoC4/OneWire_TimerDelay.c **** {
 724:Generated_Source\PSoC4/OneWire_TimerDelay.c ****     OneWire_TimerDelay_CAP_COUNT = captureCount;
 725:Generated_Source\PSoC4/OneWire_TimerDelay.c **** }
 726:Generated_Source\PSoC4/OneWire_TimerDelay.c **** 
 727:Generated_Source\PSoC4/OneWire_TimerDelay.c **** 
 728:Generated_Source\PSoC4/OneWire_TimerDelay.c **** /*******************************************************************************
 729:Generated_Source\PSoC4/OneWire_TimerDelay.c **** * Function Name: OneWire_TimerDelay_ReadCaptureCount
 730:Generated_Source\PSoC4/OneWire_TimerDelay.c **** ********************************************************************************
 731:Generated_Source\PSoC4/OneWire_TimerDelay.c **** *
 732:Generated_Source\PSoC4/OneWire_TimerDelay.c **** * Summary:
 733:Generated_Source\PSoC4/OneWire_TimerDelay.c **** *  This function reads the capture count setting
 734:Generated_Source\PSoC4/OneWire_TimerDelay.c **** *
 735:Generated_Source\PSoC4/OneWire_TimerDelay.c **** * Parameters:
 736:Generated_Source\PSoC4/OneWire_TimerDelay.c **** *  void
 737:Generated_Source\PSoC4/OneWire_TimerDelay.c **** *
 738:Generated_Source\PSoC4/OneWire_TimerDelay.c **** * Return:
 739:Generated_Source\PSoC4/OneWire_TimerDelay.c **** *  Returns the Capture Count Setting
 740:Generated_Source\PSoC4/OneWire_TimerDelay.c **** *
 741:Generated_Source\PSoC4/OneWire_TimerDelay.c **** *******************************************************************************/
 742:Generated_Source\PSoC4/OneWire_TimerDelay.c **** uint8 OneWire_TimerDelay_ReadCaptureCount(void) 
 743:Generated_Source\PSoC4/OneWire_TimerDelay.c **** {
 744:Generated_Source\PSoC4/OneWire_TimerDelay.c ****     return ((uint8)OneWire_TimerDelay_CAP_COUNT);
 745:Generated_Source\PSoC4/OneWire_TimerDelay.c **** }
 746:Generated_Source\PSoC4/OneWire_TimerDelay.c **** #endif /* OneWire_TimerDelay_UsingHWCaptureCounter */
 747:Generated_Source\PSoC4/OneWire_TimerDelay.c **** 
 748:Generated_Source\PSoC4/OneWire_TimerDelay.c **** 
 749:Generated_Source\PSoC4/OneWire_TimerDelay.c **** /*******************************************************************************
 750:Generated_Source\PSoC4/OneWire_TimerDelay.c **** * Function Name: OneWire_TimerDelay_ClearFIFO
 751:Generated_Source\PSoC4/OneWire_TimerDelay.c **** ********************************************************************************
 752:Generated_Source\PSoC4/OneWire_TimerDelay.c **** *
 753:Generated_Source\PSoC4/OneWire_TimerDelay.c **** * Summary:
 754:Generated_Source\PSoC4/OneWire_TimerDelay.c **** *  This function clears all capture data from the capture FIFO
 755:Generated_Source\PSoC4/OneWire_TimerDelay.c **** *
 756:Generated_Source\PSoC4/OneWire_TimerDelay.c **** * Parameters:
 757:Generated_Source\PSoC4/OneWire_TimerDelay.c **** *  void
 758:Generated_Source\PSoC4/OneWire_TimerDelay.c **** *
 759:Generated_Source\PSoC4/OneWire_TimerDelay.c **** * Return:
 760:Generated_Source\PSoC4/OneWire_TimerDelay.c **** *  void
 761:Generated_Source\PSoC4/OneWire_TimerDelay.c **** *
 762:Generated_Source\PSoC4/OneWire_TimerDelay.c **** *******************************************************************************/
 763:Generated_Source\PSoC4/OneWire_TimerDelay.c **** void OneWire_TimerDelay_ClearFIFO(void) 
 764:Generated_Source\PSoC4/OneWire_TimerDelay.c **** {
 373              		.loc 1 764 0
 374              		.cfi_startproc
 375 0000 08B5     		push	{r3, lr}
 376              		.cfi_def_cfa_offset 8
ARM GAS  C:\Users\Sarah\AppData\Local\Temp\ccbKWc9q.s 			page 21


 377              		.cfi_offset 3, -8
 378              		.cfi_offset 14, -4
 765:Generated_Source\PSoC4/OneWire_TimerDelay.c ****     while(0u != (OneWire_TimerDelay_ReadStatusRegister() & OneWire_TimerDelay_STATUS_FIFONEMP))
 379              		.loc 1 765 0
 380 0002 01E0     		b	.L44
 381              	.L45:
 766:Generated_Source\PSoC4/OneWire_TimerDelay.c ****     {
 767:Generated_Source\PSoC4/OneWire_TimerDelay.c ****         (void)OneWire_TimerDelay_ReadCapture();
 382              		.loc 1 767 0
 383 0004 FFF7FEFF 		bl	OneWire_TimerDelay_ReadCapture
 384              	.LVL4:
 385              	.L44:
 765:Generated_Source\PSoC4/OneWire_TimerDelay.c ****     while(0u != (OneWire_TimerDelay_ReadStatusRegister() & OneWire_TimerDelay_STATUS_FIFONEMP))
 386              		.loc 1 765 0
 387 0008 FFF7FEFF 		bl	OneWire_TimerDelay_ReadStatusRegister
 388              	.LVL5:
 389 000c 0307     		lsl	r3, r0, #28
 390 000e F9D4     		bmi	.L45
 768:Generated_Source\PSoC4/OneWire_TimerDelay.c ****     }
 769:Generated_Source\PSoC4/OneWire_TimerDelay.c **** }
 391              		.loc 1 769 0
 392              		@ sp needed
 393 0010 08BD     		pop	{r3, pc}
 394              		.cfi_endproc
 395              	.LFE18:
 396              		.size	OneWire_TimerDelay_ClearFIFO, .-OneWire_TimerDelay_ClearFIFO
 397 0012 C046     		.section	.text.OneWire_TimerDelay_Init,"ax",%progbits
 398              		.align	2
 399              		.global	OneWire_TimerDelay_Init
 400              		.code	16
 401              		.thumb_func
 402              		.type	OneWire_TimerDelay_Init, %function
 403              	OneWire_TimerDelay_Init:
 404              	.LFB2:
  44:Generated_Source\PSoC4/OneWire_TimerDelay.c ****     #if(!OneWire_TimerDelay_UsingFixedFunction)
 405              		.loc 1 44 0
 406              		.cfi_startproc
 407 0000 10B5     		push	{r4, lr}
 408              		.cfi_def_cfa_offset 8
 409              		.cfi_offset 4, -8
 410              		.cfi_offset 14, -4
 118:Generated_Source\PSoC4/OneWire_TimerDelay.c ****     OneWire_TimerDelay_WriteCounter(OneWire_TimerDelay_INIT_PERIOD);
 411              		.loc 1 118 0
 412 0002 0C4C     		ldr	r4, .L47
 413 0004 201C     		mov	r0, r4
 414 0006 FFF7FEFF 		bl	OneWire_TimerDelay_WritePeriod
 415              	.LVL6:
 119:Generated_Source\PSoC4/OneWire_TimerDelay.c **** 
 416              		.loc 1 119 0
 417 000a 201C     		mov	r0, r4
 418 000c FFF7FEFF 		bl	OneWire_TimerDelay_WriteCounter
 419              	.LVL7:
 142:Generated_Source\PSoC4/OneWire_TimerDelay.c **** 
 420              		.loc 1 142 0
 421 0010 FFF7FEFF 		bl	CyEnterCriticalSection
 422              	.LVL8:
 145:Generated_Source\PSoC4/OneWire_TimerDelay.c **** 
ARM GAS  C:\Users\Sarah\AppData\Local\Temp\ccbKWc9q.s 			page 22


 423              		.loc 1 145 0
 424 0014 084A     		ldr	r2, .L47+4
 425 0016 1178     		ldrb	r1, [r2]
 426 0018 1023     		mov	r3, #16
 427 001a 0B43     		orr	r3, r1
 428 001c 1370     		strb	r3, [r2]
 148:Generated_Source\PSoC4/OneWire_TimerDelay.c **** 
 429              		.loc 1 148 0
 430 001e FFF7FEFF 		bl	CyExitCriticalSection
 431              	.LVL9:
 151:Generated_Source\PSoC4/OneWire_TimerDelay.c ****         #endif /* Set Trigger enable bit for UDB implementation in the control register*/
 432              		.loc 1 151 0
 433 0022 FFF7FEFF 		bl	OneWire_TimerDelay_EnableTrigger
 434              	.LVL10:
 159:Generated_Source\PSoC4/OneWire_TimerDelay.c ****     #endif /* Configure additional features of UDB implementation */
 435              		.loc 1 159 0
 436 0026 FFF7FEFF 		bl	OneWire_TimerDelay_ClearFIFO
 437              	.LVL11:
 162:Generated_Source\PSoC4/OneWire_TimerDelay.c **** }
 438              		.loc 1 162 0
 439 002a 0020     		mov	r0, #0
 440 002c FFF7FEFF 		bl	OneWire_TimerDelay_SetInterruptMode
 441              	.LVL12:
 163:Generated_Source\PSoC4/OneWire_TimerDelay.c **** 
 442              		.loc 1 163 0
 443              		@ sp needed
 444 0030 10BD     		pop	{r4, pc}
 445              	.L48:
 446 0032 C046     		.align	2
 447              	.L47:
 448 0034 ED020000 		.word	749
 449 0038 93000F40 		.word	1074725011
 450              		.cfi_endproc
 451              	.LFE2:
 452              		.size	OneWire_TimerDelay_Init, .-OneWire_TimerDelay_Init
 453              		.section	.text.OneWire_TimerDelay_Start,"ax",%progbits
 454              		.align	2
 455              		.global	OneWire_TimerDelay_Start
 456              		.code	16
 457              		.thumb_func
 458              		.type	OneWire_TimerDelay_Start, %function
 459              	OneWire_TimerDelay_Start:
 460              	.LFB4:
 216:Generated_Source\PSoC4/OneWire_TimerDelay.c ****     if(OneWire_TimerDelay_initVar == 0u)
 461              		.loc 1 216 0
 462              		.cfi_startproc
 463 0000 08B5     		push	{r3, lr}
 464              		.cfi_def_cfa_offset 8
 465              		.cfi_offset 3, -8
 466              		.cfi_offset 14, -4
 217:Generated_Source\PSoC4/OneWire_TimerDelay.c ****     {
 467              		.loc 1 217 0
 468 0002 064B     		ldr	r3, .L51
 469 0004 1B78     		ldrb	r3, [r3]
 470 0006 002B     		cmp	r3, #0
 471 0008 04D1     		bne	.L50
 219:Generated_Source\PSoC4/OneWire_TimerDelay.c **** 
ARM GAS  C:\Users\Sarah\AppData\Local\Temp\ccbKWc9q.s 			page 23


 472              		.loc 1 219 0
 473 000a FFF7FEFF 		bl	OneWire_TimerDelay_Init
 474              	.LVL13:
 221:Generated_Source\PSoC4/OneWire_TimerDelay.c ****     }
 475              		.loc 1 221 0
 476 000e 0122     		mov	r2, #1
 477 0010 024B     		ldr	r3, .L51
 478 0012 1A70     		strb	r2, [r3]
 479              	.L50:
 225:Generated_Source\PSoC4/OneWire_TimerDelay.c **** }
 480              		.loc 1 225 0
 481 0014 FFF7FEFF 		bl	OneWire_TimerDelay_Enable
 482              	.LVL14:
 226:Generated_Source\PSoC4/OneWire_TimerDelay.c **** 
 483              		.loc 1 226 0
 484              		@ sp needed
 485 0018 08BD     		pop	{r3, pc}
 486              	.L52:
 487 001a C046     		.align	2
 488              	.L51:
 489 001c 00000000 		.word	.LANCHOR0
 490              		.cfi_endproc
 491              	.LFE4:
 492              		.size	OneWire_TimerDelay_Start, .-OneWire_TimerDelay_Start
 493              		.global	OneWire_TimerDelay_initVar
 494              		.bss
 495              		.set	.LANCHOR0,. + 0
 496              		.type	OneWire_TimerDelay_initVar, %object
 497              		.size	OneWire_TimerDelay_initVar, 1
 498              	OneWire_TimerDelay_initVar:
 499 0000 00       		.space	1
 500              		.text
 501              	.Letext0:
 502              		.file 2 "Generated_Source\\PSoC4\\cytypes.h"
 503              		.file 3 "Generated_Source\\PSoC4\\CyLib.h"