ARM GAS  C:\Users\Sarah\AppData\Local\Temp\cc0nn16Q.s 			page 1


   1              		.cpu cortex-m0
   2              		.fpu softvfp
   3              		.eabi_attribute 20, 1
   4              		.eabi_attribute 21, 1
   5              		.eabi_attribute 23, 3
   6              		.eabi_attribute 24, 1
   7              		.eabi_attribute 25, 1
   8              		.eabi_attribute 26, 1
   9              		.eabi_attribute 30, 1
  10              		.eabi_attribute 34, 0
  11              		.eabi_attribute 18, 4
  12              		.code	16
  13              		.file	"OneWire.c"
  14              		.text
  15              	.Ltext0:
  16              		.cfi_sections	.debug_frame
  17              		.section	.text.OneWire_IRQDataReady,"ax",%progbits
  18              		.align	2
  19              		.global	OneWire_IRQDataReady
  20              		.code	16
  21              		.thumb_func
  22              		.type	OneWire_IRQDataReady, %function
  23              	OneWire_IRQDataReady:
  24              	.LFB37:
  25              		.file 1 "Generated_Source\\PSoC4\\OneWire.c"
   1:Generated_Source\PSoC4/OneWire.c **** /* ============================================================================
   2:Generated_Source\PSoC4/OneWire.c ****  * DS18x8: MAXIM DS18B20 Digital Thermometer component (v 0.0)
   3:Generated_Source\PSoC4/OneWire.c ****  * Read temperature simultaaneously from up to 8 DS18B20 sensors 
   4:Generated_Source\PSoC4/OneWire.c ****  *
   5:Generated_Source\PSoC4/OneWire.c ****  * based on original OneWire code by Evg. Pavlov <pavloven>
   6:Generated_Source\PSoC4/OneWire.c ****  * http://mylab.wmsite.ru/moi-razrab/cypress-psoc/temperature-logger/
   7:Generated_Source\PSoC4/OneWire.c ****  * http://mylab.wmsite.ru/moi-razrab/cypress-psoc/psoc-user-module-library/
   8:Generated_Source\PSoC4/OneWire.c ****  * ============================================================================
   9:Generated_Source\PSoC4/OneWire.c ****  * PROVIDED AS-IS, NO WARRANTY OF ANY KIND, INCLUDING, BUT NOT LIMITED TO, THE
  10:Generated_Source\PSoC4/OneWire.c ****  * IMPLIED WARRANTIES OF MERCHANTABILITY AND FITNESS FOR A PARTICULAR PURPOSE.
  11:Generated_Source\PSoC4/OneWire.c ****  * FREE TO SHARE, USE AND MODIFY UNDER TERMS: CREATIVE COMMONS - SHARE ALIKE
  12:Generated_Source\PSoC4/OneWire.c ****  * ============================================================================
  13:Generated_Source\PSoC4/OneWire.c **** */
  14:Generated_Source\PSoC4/OneWire.c **** 
  15:Generated_Source\PSoC4/OneWire.c **** 
  16:Generated_Source\PSoC4/OneWire.c **** #include <OneWire.h>
  17:Generated_Source\PSoC4/OneWire.c **** #include <project.h>
  18:Generated_Source\PSoC4/OneWire.c **** 
  19:Generated_Source\PSoC4/OneWire.c **** 
  20:Generated_Source\PSoC4/OneWire.c **** #define GetBit(Value, BitNo) ((Value >> BitNo) & (uint8)0x01)   //macro to read a bit,  returns 0 o
  21:Generated_Source\PSoC4/OneWire.c **** 
  22:Generated_Source\PSoC4/OneWire.c **** uint8 BusPresence; // 8-bit bus state: 1-sensor present, 0-sensor read failure
  23:Generated_Source\PSoC4/OneWire.c ****   
  24:Generated_Source\PSoC4/OneWire.c **** 
  25:Generated_Source\PSoC4/OneWire.c **** //==============================================================================
  26:Generated_Source\PSoC4/OneWire.c **** //                  ISR Timer data ready to read
  27:Generated_Source\PSoC4/OneWire.c **** //==============================================================================
  28:Generated_Source\PSoC4/OneWire.c **** 
  29:Generated_Source\PSoC4/OneWire.c **** //CY_ISR_PROTO(OneWire_IRQDataReady); //ISR proto
  30:Generated_Source\PSoC4/OneWire.c **** CY_ISR(OneWire_IRQDataReady) // ISR Timer data ready to read
  31:Generated_Source\PSoC4/OneWire.c **** {
  26              		.loc 1 31 0
ARM GAS  C:\Users\Sarah\AppData\Local\Temp\cc0nn16Q.s 			page 2


  27              		.cfi_startproc
  32:Generated_Source\PSoC4/OneWire.c ****     OneWire_DataReady = 1;
  28              		.loc 1 32 0
  29 0000 0122     		mov	r2, #1
  30 0002 014B     		ldr	r3, .L2
  31 0004 1A70     		strb	r2, [r3]
  33:Generated_Source\PSoC4/OneWire.c **** }
  32              		.loc 1 33 0
  33              		@ sp needed
  34 0006 7047     		bx	lr
  35              	.L3:
  36              		.align	2
  37              	.L2:
  38 0008 00000000 		.word	OneWire_DataReady
  39              		.cfi_endproc
  40              	.LFE37:
  41              		.size	OneWire_IRQDataReady, .-OneWire_IRQDataReady
  42              		.section	.text.R_BitBus,"ax",%progbits
  43              		.align	2
  44              		.global	R_BitBus
  45              		.code	16
  46              		.thumb_func
  47              		.type	R_BitBus, %function
  48              	R_BitBus:
  49              	.LFB38:
  34:Generated_Source\PSoC4/OneWire.c **** 
  35:Generated_Source\PSoC4/OneWire.c **** 
  36:Generated_Source\PSoC4/OneWire.c **** //==============================================================================
  37:Generated_Source\PSoC4/OneWire.c **** //                              Read Bit
  38:Generated_Source\PSoC4/OneWire.c **** //==============================================================================
  39:Generated_Source\PSoC4/OneWire.c **** 
  40:Generated_Source\PSoC4/OneWire.c **** uint8 R_BitBus(void) //  Read a single bit off the 1-WIRE bus
  41:Generated_Source\PSoC4/OneWire.c **** {  
  50              		.loc 1 41 0
  51              		.cfi_startproc
  52 0000 08B5     		push	{r3, lr}
  53              		.cfi_def_cfa_offset 8
  54              		.cfi_offset 3, -8
  55              		.cfi_offset 14, -4
  42:Generated_Source\PSoC4/OneWire.c ****     CyDelayUs(Tinact);  // Inactive before next signal. =20us
  56              		.loc 1 42 0
  57 0002 1420     		mov	r0, #20
  58 0004 FFF7FEFF 		bl	CyDelayUs
  59              	.LVL0:
  43:Generated_Source\PSoC4/OneWire.c ****     
  44:Generated_Source\PSoC4/OneWire.c ****     OneWire_ControlReg_SEL_Write(SET_ALL_OUT);
  60              		.loc 1 44 0
  61 0008 FF20     		mov	r0, #255
  62 000a FFF7FEFF 		bl	OneWire_ControlReg_SEL_Write
  63              	.LVL1:
  45:Generated_Source\PSoC4/OneWire.c ****     OneWire_ControlReg_DRV_Write(LOW);  //Drive LOW selected pin
  64              		.loc 1 45 0
  65 000e 0020     		mov	r0, #0
  66 0010 FFF7FEFF 		bl	OneWire_ControlReg_DRV_Write
  67              	.LVL2:
  46:Generated_Source\PSoC4/OneWire.c **** 
  47:Generated_Source\PSoC4/OneWire.c ****     CyDelayUs(TMtr1);   // read 1us, write 1-15us
ARM GAS  C:\Users\Sarah\AppData\Local\Temp\cc0nn16Q.s 			page 3


  68              		.loc 1 47 0
  69 0014 0A20     		mov	r0, #10
  70 0016 FFF7FEFF 		bl	CyDelayUs
  71              	.LVL3:
  48:Generated_Source\PSoC4/OneWire.c ****     OneWire_ControlReg_DRV_Write(HIGH);  //Drive HIGH selected pin
  72              		.loc 1 48 0
  73 001a 0120     		mov	r0, #1
  74 001c FFF7FEFF 		bl	OneWire_ControlReg_DRV_Write
  75              	.LVL4:
  49:Generated_Source\PSoC4/OneWire.c ****     
  50:Generated_Source\PSoC4/OneWire.c **** 	CyDelayUs(5);       // check in 5 usec
  76              		.loc 1 50 0
  77 0020 0520     		mov	r0, #5
  78 0022 FFF7FEFF 		bl	CyDelayUs
  79              	.LVL5:
  51:Generated_Source\PSoC4/OneWire.c ****     
  52:Generated_Source\PSoC4/OneWire.c ****     //prepare read
  53:Generated_Source\PSoC4/OneWire.c ****     OneWire_ControlReg_SEL_Write(SET_ALL_INP);   // all outputs disable
  80              		.loc 1 53 0
  81 0026 0020     		mov	r0, #0
  82 0028 FFF7FEFF 		bl	OneWire_ControlReg_SEL_Write
  83              	.LVL6:
  54:Generated_Source\PSoC4/OneWire.c ****     OneWire_ControlReg_DRV_Write(LOW); // Drive LOW 
  84              		.loc 1 54 0
  85 002c 0020     		mov	r0, #0
  86 002e FFF7FEFF 		bl	OneWire_ControlReg_DRV_Write
  87              	.LVL7:
  55:Generated_Source\PSoC4/OneWire.c ****     
  56:Generated_Source\PSoC4/OneWire.c ****     uint8 result = OneWire_StatusReg_BUS_Read();
  88              		.loc 1 56 0
  89 0032 FFF7FEFF 		bl	OneWire_StatusReg_BUS_Read
  90              	.LVL8:
  57:Generated_Source\PSoC4/OneWire.c ****     return (result);
  58:Generated_Source\PSoC4/OneWire.c **** }
  91              		.loc 1 58 0
  92              		@ sp needed
  93 0036 08BD     		pop	{r3, pc}
  94              		.cfi_endproc
  95              	.LFE38:
  96              		.size	R_BitBus, .-R_BitBus
  97              		.section	.text.W_Bit,"ax",%progbits
  98              		.align	2
  99              		.global	W_Bit
 100              		.code	16
 101              		.thumb_func
 102              		.type	W_Bit, %function
 103              	W_Bit:
 104              	.LFB39:
  59:Generated_Source\PSoC4/OneWire.c **** 
  60:Generated_Source\PSoC4/OneWire.c **** //==============================================================================
  61:Generated_Source\PSoC4/OneWire.c **** //                              Write Bit
  62:Generated_Source\PSoC4/OneWire.c **** //==============================================================================
  63:Generated_Source\PSoC4/OneWire.c **** 
  64:Generated_Source\PSoC4/OneWire.c **** void W_Bit(uint8 payload) // Write a single bit to the 1-WIRE bus. 
  65:Generated_Source\PSoC4/OneWire.c **** {
 105              		.loc 1 65 0
 106              		.cfi_startproc
ARM GAS  C:\Users\Sarah\AppData\Local\Temp\cc0nn16Q.s 			page 4


 107              	.LVL9:
 108 0000 10B5     		push	{r4, lr}
 109              		.cfi_def_cfa_offset 8
 110              		.cfi_offset 4, -8
 111              		.cfi_offset 14, -4
 112 0002 041C     		mov	r4, r0
  66:Generated_Source\PSoC4/OneWire.c **** 	CyDelayUs(Tinact);  //Inactive before next signal.
 113              		.loc 1 66 0
 114 0004 1420     		mov	r0, #20
 115              	.LVL10:
 116 0006 FFF7FEFF 		bl	CyDelayUs
 117              	.LVL11:
  67:Generated_Source\PSoC4/OneWire.c ****     OneWire_ControlReg_DRV_Write(LOW); // Drive LOW enabled outputs
 118              		.loc 1 67 0
 119 000a 0020     		mov	r0, #0
 120 000c FFF7FEFF 		bl	OneWire_ControlReg_DRV_Write
 121              	.LVL12:
  68:Generated_Source\PSoC4/OneWire.c **** 
  69:Generated_Source\PSoC4/OneWire.c ****     if(payload==0)	CyDelayUs(TMtr0); //If its a 0 to write, TMtr0 = 50us
 122              		.loc 1 69 0
 123 0010 002C     		cmp	r4, #0
 124 0012 03D1     		bne	.L6
 125              		.loc 1 69 0 is_stmt 0 discriminator 1
 126 0014 3220     		mov	r0, #50
 127 0016 FFF7FEFF 		bl	CyDelayUs
 128              	.LVL13:
 129 001a 02E0     		b	.L7
 130              	.L6:
  70:Generated_Source\PSoC4/OneWire.c **** 	else     		CyDelayUs(TMtr1); //If its a 1 to write, TMtr1 = 10us
 131              		.loc 1 70 0 is_stmt 1
 132 001c 0A20     		mov	r0, #10
 133 001e FFF7FEFF 		bl	CyDelayUs
 134              	.LVL14:
 135              	.L7:
  71:Generated_Source\PSoC4/OneWire.c ****         
  72:Generated_Source\PSoC4/OneWire.c ****     OneWire_ControlReg_DRV_Write(HIGH); // Drive HIGH enabled outputs
 136              		.loc 1 72 0
 137 0022 0120     		mov	r0, #1
 138 0024 FFF7FEFF 		bl	OneWire_ControlReg_DRV_Write
 139              	.LVL15:
  73:Generated_Source\PSoC4/OneWire.c **** }
 140              		.loc 1 73 0
 141              		@ sp needed
 142 0028 10BD     		pop	{r4, pc}
 143              		.cfi_endproc
 144              	.LFE39:
 145              		.size	W_Bit, .-W_Bit
 146 002a C046     		.section	.text.Write8,"ax",%progbits
 147              		.align	2
 148              		.global	Write8
 149              		.code	16
 150              		.thumb_func
 151              		.type	Write8, %function
 152              	Write8:
 153              	.LFB40:
  74:Generated_Source\PSoC4/OneWire.c ****  
  75:Generated_Source\PSoC4/OneWire.c **** //==============================================================================
ARM GAS  C:\Users\Sarah\AppData\Local\Temp\cc0nn16Q.s 			page 5


  76:Generated_Source\PSoC4/OneWire.c **** //                              Write a byte
  77:Generated_Source\PSoC4/OneWire.c **** //==============================================================================
  78:Generated_Source\PSoC4/OneWire.c **** 
  79:Generated_Source\PSoC4/OneWire.c **** void Write8(uint8 payload) //Write a byte to the slave.
  80:Generated_Source\PSoC4/OneWire.c **** {
 154              		.loc 1 80 0
 155              		.cfi_startproc
 156              	.LVL16:
 157 0000 38B5     		push	{r3, r4, r5, lr}
 158              		.cfi_def_cfa_offset 16
 159              		.cfi_offset 3, -16
 160              		.cfi_offset 4, -12
 161              		.cfi_offset 5, -8
 162              		.cfi_offset 14, -4
 163 0002 051C     		mov	r5, r0
  81:Generated_Source\PSoC4/OneWire.c **** 	uint8 BitPayload,  shiftcount;
  82:Generated_Source\PSoC4/OneWire.c ****     
  83:Generated_Source\PSoC4/OneWire.c ****     OneWire_ControlReg_SEL_Write(SET_ALL_OUT); // enable all outputs [11]
 164              		.loc 1 83 0
 165 0004 FF20     		mov	r0, #255
 166              	.LVL17:
 167 0006 FFF7FEFF 		bl	OneWire_ControlReg_SEL_Write
 168              	.LVL18:
  84:Generated_Source\PSoC4/OneWire.c ****     
  85:Generated_Source\PSoC4/OneWire.c **** 	for (shiftcount=0; shiftcount<=7;shiftcount++) 
 169              		.loc 1 85 0
 170 000a 0024     		mov	r4, #0
 171 000c 07E0     		b	.L9
 172              	.LVL19:
 173              	.L10:
  86:Generated_Source\PSoC4/OneWire.c ****     {
  87:Generated_Source\PSoC4/OneWire.c ****         BitPayload = (payload >> shiftcount) & 0x01; //starting with LSB
 174              		.loc 1 87 0 discriminator 3
 175 000e 2B1C     		mov	r3, r5
 176 0010 2341     		asr	r3, r3, r4
 177 0012 0120     		mov	r0, #1
 178 0014 1840     		and	r0, r3
 179              	.LVL20:
  88:Generated_Source\PSoC4/OneWire.c ****         W_Bit(BitPayload);
 180              		.loc 1 88 0 discriminator 3
 181 0016 FFF7FEFF 		bl	W_Bit
 182              	.LVL21:
  85:Generated_Source\PSoC4/OneWire.c ****     {
 183              		.loc 1 85 0 discriminator 3
 184 001a 0134     		add	r4, r4, #1
 185              	.LVL22:
 186 001c E4B2     		uxtb	r4, r4
 187              	.LVL23:
 188              	.L9:
  85:Generated_Source\PSoC4/OneWire.c ****     {
 189              		.loc 1 85 0 is_stmt 0 discriminator 1
 190 001e 072C     		cmp	r4, #7
 191 0020 F5D9     		bls	.L10
  89:Generated_Source\PSoC4/OneWire.c ****     }
  90:Generated_Source\PSoC4/OneWire.c **** }  
 192              		.loc 1 90 0 is_stmt 1
 193              		@ sp needed
ARM GAS  C:\Users\Sarah\AppData\Local\Temp\cc0nn16Q.s 			page 6


 194              	.LVL24:
 195 0022 38BD     		pop	{r3, r4, r5, pc}
 196              		.cfi_endproc
 197              	.LFE40:
 198              		.size	Write8, .-Write8
 199              		.section	.text.BusReset,"ax",%progbits
 200              		.align	2
 201              		.global	BusReset
 202              		.code	16
 203              		.thumb_func
 204              		.type	BusReset, %function
 205              	BusReset:
 206              	.LFB41:
  91:Generated_Source\PSoC4/OneWire.c **** 
  92:Generated_Source\PSoC4/OneWire.c **** 
  93:Generated_Source\PSoC4/OneWire.c **** //==============================================================================
  94:Generated_Source\PSoC4/OneWire.c **** //                              Bus Reset
  95:Generated_Source\PSoC4/OneWire.c **** //==============================================================================
  96:Generated_Source\PSoC4/OneWire.c ****    
  97:Generated_Source\PSoC4/OneWire.c **** uint8 BusReset() //Pulldown the required "Bus Reset". 
  98:Generated_Source\PSoC4/OneWire.c **** {
 207              		.loc 1 98 0
 208              		.cfi_startproc
 209 0000 10B5     		push	{r4, lr}
 210              		.cfi_def_cfa_offset 8
 211              		.cfi_offset 4, -8
 212              		.cfi_offset 14, -4
 213              	.LVL25:
  99:Generated_Source\PSoC4/OneWire.c ****     static struct OneWire_TSensor Sensor_off = {T_OFF, 0};
 100:Generated_Source\PSoC4/OneWire.c ****     uint8 i;
 101:Generated_Source\PSoC4/OneWire.c ****     
 102:Generated_Source\PSoC4/OneWire.c ****     // reset all sensor Temerature and presence
 103:Generated_Source\PSoC4/OneWire.c ****     for (i=0; i<8; i++) {OneWire_Sensor[i] = Sensor_off;}
 214              		.loc 1 103 0
 215 0002 0024     		mov	r4, #0
 216 0004 08E0     		b	.L12
 217              	.LVL26:
 218              	.L13:
 219              		.loc 1 103 0 is_stmt 0 discriminator 3
 220 0006 A300     		lsl	r3, r4, #2
 221 0008 1548     		ldr	r0, .L14
 222 000a C018     		add	r0, r0, r3
 223 000c 1549     		ldr	r1, .L14+4
 224 000e 0422     		mov	r2, #4
 225 0010 FFF7FEFF 		bl	memcpy
 226              	.LVL27:
 227 0014 0134     		add	r4, r4, #1
 228              	.LVL28:
 229 0016 E4B2     		uxtb	r4, r4
 230              	.LVL29:
 231              	.L12:
 232              		.loc 1 103 0 discriminator 1
 233 0018 072C     		cmp	r4, #7
 234 001a F4D9     		bls	.L13
 235              	.LVL30:
 104:Generated_Source\PSoC4/OneWire.c ****     
 105:Generated_Source\PSoC4/OneWire.c ****     
ARM GAS  C:\Users\Sarah\AppData\Local\Temp\cc0nn16Q.s 			page 7


 106:Generated_Source\PSoC4/OneWire.c ****     uint8 BusPin=0;    //bus state
 107:Generated_Source\PSoC4/OneWire.c **** 
 108:Generated_Source\PSoC4/OneWire.c ****     OneWire_ControlReg_DRV_Write(LOW);         // Drive LOW enabled outputs
 236              		.loc 1 108 0 is_stmt 1
 237 001c 0020     		mov	r0, #0
 238 001e FFF7FEFF 		bl	OneWire_ControlReg_DRV_Write
 239              	.LVL31:
 109:Generated_Source\PSoC4/OneWire.c ****     OneWire_ControlReg_SEL_Write(SET_ALL_OUT); // enable all outputs [11111111]
 240              		.loc 1 109 0
 241 0022 FF20     		mov	r0, #255
 242 0024 FFF7FEFF 		bl	OneWire_ControlReg_SEL_Write
 243              	.LVL32:
 110:Generated_Source\PSoC4/OneWire.c ****     
 111:Generated_Source\PSoC4/OneWire.c ****  
 112:Generated_Source\PSoC4/OneWire.c **** 	CyDelayUs(RST_MAX); // send RESET pulse, 480usec min
 244              		.loc 1 112 0
 245 0028 F020     		mov	r0, #240
 246 002a 4000     		lsl	r0, r0, #1
 247 002c FFF7FEFF 		bl	CyDelayUs
 248              	.LVL33:
 113:Generated_Source\PSoC4/OneWire.c ****     OneWire_ControlReg_DRV_Write(HIGH); // Drive HIGH enabled outputs
 249              		.loc 1 113 0
 250 0030 0120     		mov	r0, #1
 251 0032 FFF7FEFF 		bl	OneWire_ControlReg_DRV_Write
 252              	.LVL34:
 114:Generated_Source\PSoC4/OneWire.c ****     
 115:Generated_Source\PSoC4/OneWire.c ****     CyDelayUs(5);       // check bus shorted
 253              		.loc 1 115 0
 254 0036 0520     		mov	r0, #5
 255 0038 FFF7FEFF 		bl	CyDelayUs
 256              	.LVL35:
 116:Generated_Source\PSoC4/OneWire.c ****     
 117:Generated_Source\PSoC4/OneWire.c ****     //prepare to read
 118:Generated_Source\PSoC4/OneWire.c ****     OneWire_ControlReg_SEL_Write(SET_ALL_INP); // set all as inputs [0000000]
 257              		.loc 1 118 0
 258 003c 0020     		mov	r0, #0
 259 003e FFF7FEFF 		bl	OneWire_ControlReg_SEL_Write
 260              	.LVL36:
 119:Generated_Source\PSoC4/OneWire.c ****     OneWire_ControlReg_DRV_Write(LOW);         // Drive LOW enabled outputs
 261              		.loc 1 119 0
 262 0042 0020     		mov	r0, #0
 263 0044 FFF7FEFF 		bl	OneWire_ControlReg_DRV_Write
 264              	.LVL37:
 120:Generated_Source\PSoC4/OneWire.c ****        
 121:Generated_Source\PSoC4/OneWire.c ****     CyDelayUs(55);      // check PRESENCE in 15-60usec  (60-240 ?????)
 265              		.loc 1 121 0
 266 0048 3720     		mov	r0, #55
 267 004a FFF7FEFF 		bl	CyDelayUs
 268              	.LVL38:
 122:Generated_Source\PSoC4/OneWire.c ****     
 123:Generated_Source\PSoC4/OneWire.c ****     BusPin = OneWire_StatusReg_BUS_Read();   // Read state: bit=0 if present 1 if unplugged
 269              		.loc 1 123 0
 270 004e FFF7FEFF 		bl	OneWire_StatusReg_BUS_Read
 271              	.LVL39:
 272 0052 041C     		mov	r4, r0
 273              	.LVL40:
 124:Generated_Source\PSoC4/OneWire.c ****     
ARM GAS  C:\Users\Sarah\AppData\Local\Temp\cc0nn16Q.s 			page 8


 125:Generated_Source\PSoC4/OneWire.c ****     CyDelayUs(200);     // wait for DS18 to transmit PRESENCE  (60-240 usec) 
 274              		.loc 1 125 0
 275 0054 C820     		mov	r0, #200
 276 0056 FFF7FEFF 		bl	CyDelayUs
 277              	.LVL41:
 126:Generated_Source\PSoC4/OneWire.c ****     
 127:Generated_Source\PSoC4/OneWire.c ****     return((~BusPin) & 255u);     // Return bus state: 1-present, 0-absent  (originally 0-present, 
 278              		.loc 1 127 0
 279 005a E043     		mvn	r0, r4
 280 005c C0B2     		uxtb	r0, r0
 128:Generated_Source\PSoC4/OneWire.c **** }
 281              		.loc 1 128 0
 282              		@ sp needed
 283              	.LVL42:
 284 005e 10BD     		pop	{r4, pc}
 285              	.L15:
 286              		.align	2
 287              	.L14:
 288 0060 00000000 		.word	OneWire_Sensor
 289 0064 00000000 		.word	.LANCHOR0
 290              		.cfi_endproc
 291              	.LFE41:
 292              		.size	BusReset, .-BusReset
 293              		.section	.text.OneWire_SendTemperatureRequest,"ax",%progbits
 294              		.align	2
 295              		.global	OneWire_SendTemperatureRequest
 296              		.code	16
 297              		.thumb_func
 298              		.type	OneWire_SendTemperatureRequest, %function
 299              	OneWire_SendTemperatureRequest:
 300              	.LFB42:
 129:Generated_Source\PSoC4/OneWire.c **** 
 130:Generated_Source\PSoC4/OneWire.c **** 
 131:Generated_Source\PSoC4/OneWire.c **** //==============================================================================
 132:Generated_Source\PSoC4/OneWire.c **** //                         start temperature conversion
 133:Generated_Source\PSoC4/OneWire.c **** //==============================================================================
 134:Generated_Source\PSoC4/OneWire.c **** 
 135:Generated_Source\PSoC4/OneWire.c **** uint8 OneWire_SendTemperatureRequest() // start temperature conversion 
 136:Generated_Source\PSoC4/OneWire.c **** {   
 301              		.loc 1 136 0
 302              		.cfi_startproc
 303 0000 08B5     		push	{r3, lr}
 304              		.cfi_def_cfa_offset 8
 305              		.cfi_offset 3, -8
 306              		.cfi_offset 14, -4
 137:Generated_Source\PSoC4/OneWire.c ****     BusPresence = BusReset(); // Reset ( > 480 usec ) 
 307              		.loc 1 137 0
 308 0002 FFF7FEFF 		bl	BusReset
 309              	.LVL43:
 310 0006 031E     		sub	r3, r0, #0
 311 0008 094A     		ldr	r2, .L19
 312 000a 1070     		strb	r0, [r2]
 138:Generated_Source\PSoC4/OneWire.c ****     
 139:Generated_Source\PSoC4/OneWire.c ****     if (BusPresence == 0) {
 313              		.loc 1 139 0
 314 000c 03D1     		bne	.L17
 140:Generated_Source\PSoC4/OneWire.c ****         OneWire_DataReady = 1; //proceed directly to reporting
ARM GAS  C:\Users\Sarah\AppData\Local\Temp\cc0nn16Q.s 			page 9


 315              		.loc 1 140 0
 316 000e 0121     		mov	r1, #1
 317 0010 084A     		ldr	r2, .L19+4
 318 0012 1170     		strb	r1, [r2]
 141:Generated_Source\PSoC4/OneWire.c ****         return (0);                     // no sensors found
 319              		.loc 1 141 0
 320 0014 0AE0     		b	.L18
 321              	.L17:
 142:Generated_Source\PSoC4/OneWire.c ****     }
 143:Generated_Source\PSoC4/OneWire.c ****     
 144:Generated_Source\PSoC4/OneWire.c ****     //OneWire_ControlReg_SEL_Write(ALL); // enable all outputs [11111111]
 145:Generated_Source\PSoC4/OneWire.c ****     Write8(0xCC);       // send command Skip_ROM  (0xCCÍ)  
 322              		.loc 1 145 0
 323 0016 CC20     		mov	r0, #204
 324 0018 FFF7FEFF 		bl	Write8
 325              	.LVL44:
 146:Generated_Source\PSoC4/OneWire.c ****     Write8(0x44);       // send command for temperature conversion  (0x44Í)
 326              		.loc 1 146 0
 327 001c 4420     		mov	r0, #68
 328 001e FFF7FEFF 		bl	Write8
 329              	.LVL45:
 147:Generated_Source\PSoC4/OneWire.c **** 
 148:Generated_Source\PSoC4/OneWire.c ****     OneWire_Trigger_Write(1);   // trigger Async delayed reading
 330              		.loc 1 148 0
 331 0022 0120     		mov	r0, #1
 332 0024 FFF7FEFF 		bl	OneWire_Trigger_Write
 333              	.LVL46:
 149:Generated_Source\PSoC4/OneWire.c ****     
 150:Generated_Source\PSoC4/OneWire.c ****     return (BusPresence);
 334              		.loc 1 150 0
 335 0028 014B     		ldr	r3, .L19
 336 002a 1B78     		ldrb	r3, [r3]
 337              	.L18:
 151:Generated_Source\PSoC4/OneWire.c **** }
 338              		.loc 1 151 0
 339 002c 181C     		mov	r0, r3
 340              		@ sp needed
 341 002e 08BD     		pop	{r3, pc}
 342              	.L20:
 343              		.align	2
 344              	.L19:
 345 0030 00000000 		.word	BusPresence
 346 0034 00000000 		.word	OneWire_DataReady
 347              		.cfi_endproc
 348              	.LFE42:
 349              		.size	OneWire_SendTemperatureRequest, .-OneWire_SendTemperatureRequest
 350              		.section	.text.OneWire_ReadTemperature,"ax",%progbits
 351              		.align	2
 352              		.global	OneWire_ReadTemperature
 353              		.code	16
 354              		.thumb_func
 355              		.type	OneWire_ReadTemperature, %function
 356              	OneWire_ReadTemperature:
 357              	.LFB43:
 152:Generated_Source\PSoC4/OneWire.c **** 
 153:Generated_Source\PSoC4/OneWire.c **** 
 154:Generated_Source\PSoC4/OneWire.c **** //==============================================================================
ARM GAS  C:\Users\Sarah\AppData\Local\Temp\cc0nn16Q.s 			page 10


 155:Generated_Source\PSoC4/OneWire.c **** // Read sensor Temperature
 156:Generated_Source\PSoC4/OneWire.c **** // data is ready - read sensor's Temperature LSB & MSB 
 157:Generated_Source\PSoC4/OneWire.c **** //==============================================================================
 158:Generated_Source\PSoC4/OneWire.c **** 
 159:Generated_Source\PSoC4/OneWire.c **** uint8 OneWire_ReadTemperature() 
 160:Generated_Source\PSoC4/OneWire.c **** {
 358              		.loc 1 160 0
 359              		.cfi_startproc
 360 0000 70B5     		push	{r4, r5, r6, lr}
 361              		.cfi_def_cfa_offset 16
 362              		.cfi_offset 4, -16
 363              		.cfi_offset 5, -12
 364              		.cfi_offset 6, -8
 365              		.cfi_offset 14, -4
 366 0002 88B0     		sub	sp, sp, #32
 367              		.cfi_def_cfa_offset 48
 161:Generated_Source\PSoC4/OneWire.c ****     uint8 Bus;              // read state of bus  
 162:Generated_Source\PSoC4/OneWire.c ****     uint8 mask;             // sensor presence mask
 163:Generated_Source\PSoC4/OneWire.c ****     uint8 i, shiftcount;
 164:Generated_Source\PSoC4/OneWire.c ****     struct OneWire_TSensor s[8]={{0,0},{0,0},{0,0},{0,0},{0,0},{0,0},{0,0},{0,0}}; //array of senso
 368              		.loc 1 164 0
 369 0004 0023     		mov	r3, #0
 370 0006 0093     		str	r3, [sp]
 371 0008 0193     		str	r3, [sp, #4]
 372 000a 0293     		str	r3, [sp, #8]
 373 000c 0393     		str	r3, [sp, #12]
 374 000e 0493     		str	r3, [sp, #16]
 375 0010 0593     		str	r3, [sp, #20]
 376 0012 0693     		str	r3, [sp, #24]
 377 0014 0793     		str	r3, [sp, #28]
 165:Generated_Source\PSoC4/OneWire.c ****     
 166:Generated_Source\PSoC4/OneWire.c ****     if (!OneWire_DataReady) return  (0);   // sensor not ready for temperature reading
 378              		.loc 1 166 0
 379 0016 344B     		ldr	r3, .L34
 380 0018 1D78     		ldrb	r5, [r3]
 381 001a EDB2     		uxtb	r5, r5
 382 001c 002D     		cmp	r5, #0
 383 001e 60D0     		beq	.L22
 167:Generated_Source\PSoC4/OneWire.c ****     OneWire_DataReady = 0;                 // reset flag
 384              		.loc 1 167 0
 385 0020 0022     		mov	r2, #0
 386 0022 1A70     		strb	r2, [r3]
 168:Generated_Source\PSoC4/OneWire.c ****     
 169:Generated_Source\PSoC4/OneWire.c ****   
 170:Generated_Source\PSoC4/OneWire.c ****     if (BusPresence == 0) return (0); // no sensors found on temperature request, exit 
 387              		.loc 1 170 0
 388 0024 314B     		ldr	r3, .L34+4
 389 0026 1D78     		ldrb	r5, [r3]
 390 0028 002D     		cmp	r5, #0
 391 002a 5AD0     		beq	.L22
 171:Generated_Source\PSoC4/OneWire.c ****     
 172:Generated_Source\PSoC4/OneWire.c ****     
 173:Generated_Source\PSoC4/OneWire.c ****     BusPresence = BusReset();  // Reset  ( > 480 usec )
 392              		.loc 1 173 0
 393 002c FFF7FEFF 		bl	BusReset
 394              	.LVL47:
 395 0030 051E     		sub	r5, r0, #0
ARM GAS  C:\Users\Sarah\AppData\Local\Temp\cc0nn16Q.s 			page 11


 396 0032 2E4B     		ldr	r3, .L34+4
 397 0034 1870     		strb	r0, [r3]
 174:Generated_Source\PSoC4/OneWire.c ****     if (BusPresence == 0) return (0); // no sensors found 
 398              		.loc 1 174 0
 399 0036 54D0     		beq	.L22
 400 0038 0023     		mov	r3, #0
 401 003a 08E0     		b	.L23
 402              	.LVL48:
 403              	.L24:
 175:Generated_Source\PSoC4/OneWire.c ****     
 176:Generated_Source\PSoC4/OneWire.c ****     
 177:Generated_Source\PSoC4/OneWire.c ****     mask = BusPresence;
 178:Generated_Source\PSoC4/OneWire.c ****         
 179:Generated_Source\PSoC4/OneWire.c ****     for (i=0; i<OneWire_NumSensors; i++) {s[i].present = GetBit(mask, i);} //
 404              		.loc 1 179 0 discriminator 3
 405 003c 291C     		mov	r1, r5
 406 003e 1941     		asr	r1, r1, r3
 407 0040 9A00     		lsl	r2, r3, #2
 408 0042 0120     		mov	r0, #1
 409 0044 0140     		and	r1, r0
 410 0046 6A44     		add	r2, r2, sp
 411 0048 9170     		strb	r1, [r2, #2]
 412 004a 0133     		add	r3, r3, #1
 413              	.LVL49:
 414 004c DBB2     		uxtb	r3, r3
 415              	.LVL50:
 416              	.L23:
 417              		.loc 1 179 0 is_stmt 0 discriminator 1
 418 004e 002B     		cmp	r3, #0
 419 0050 F4D0     		beq	.L24
 180:Generated_Source\PSoC4/OneWire.c ****     
 181:Generated_Source\PSoC4/OneWire.c ****     
 182:Generated_Source\PSoC4/OneWire.c ****     //OneWire_ControlReg_SEL_Write(SET_ALL_OUT); // enable all for outputs [1111] - can use as sele
 183:Generated_Source\PSoC4/OneWire.c ****     Write8(0xCC);   // send command Skip_ROM  (0xCC)    
 420              		.loc 1 183 0 is_stmt 1
 421 0052 CC20     		mov	r0, #204
 422 0054 FFF7FEFF 		bl	Write8
 423              	.LVL51:
 184:Generated_Source\PSoC4/OneWire.c ****     Write8(0xBE);   // send command to read buffer memory (0xBE)
 424              		.loc 1 184 0
 425 0058 BE20     		mov	r0, #190
 426 005a FFF7FEFF 		bl	Write8
 427              	.LVL52:
 185:Generated_Source\PSoC4/OneWire.c ****     
 186:Generated_Source\PSoC4/OneWire.c ****     // read first two bytes of the memory DS18B20
 187:Generated_Source\PSoC4/OneWire.c ****     for (shiftcount=0; shiftcount<=11; shiftcount++) // read bytes 0 to 11
 428              		.loc 1 187 0
 429 005e 0024     		mov	r4, #0
 430 0060 19E0     		b	.L25
 431              	.LVL53:
 432              	.L29:
 188:Generated_Source\PSoC4/OneWire.c ****     {
 189:Generated_Source\PSoC4/OneWire.c ****         Bus = R_BitBus(); //read all sensors in parallel
 433              		.loc 1 189 0
 434 0062 FFF7FEFF 		bl	R_BitBus
 435              	.LVL54:
 190:Generated_Source\PSoC4/OneWire.c ****         
ARM GAS  C:\Users\Sarah\AppData\Local\Temp\cc0nn16Q.s 			page 12


 191:Generated_Source\PSoC4/OneWire.c ****         for (i=0; i<OneWire_NumSensors; i++) //
 436              		.loc 1 191 0
 437 0066 0023     		mov	r3, #0
 438 0068 11E0     		b	.L26
 439              	.LVL55:
 440              	.L28:
 192:Generated_Source\PSoC4/OneWire.c ****         {
 193:Generated_Source\PSoC4/OneWire.c ****             if (s[i].present) //ignore channels without sensor
 441              		.loc 1 193 0
 442 006a 9A00     		lsl	r2, r3, #2
 443 006c 6A44     		add	r2, r2, sp
 444 006e 9278     		ldrb	r2, [r2, #2]
 445 0070 002A     		cmp	r2, #0
 446 0072 0AD0     		beq	.L27
 194:Generated_Source\PSoC4/OneWire.c ****                 s[i].Temperature |= GetBit(Bus, i) << shiftcount; // staff Temperature begining wit
 447              		.loc 1 194 0
 448 0074 021C     		mov	r2, r0
 449 0076 1A41     		asr	r2, r2, r3
 450 0078 0121     		mov	r1, #1
 451 007a 0A40     		and	r2, r1
 452 007c A240     		lsl	r2, r2, r4
 453 007e 9900     		lsl	r1, r3, #2
 454 0080 6E46     		mov	r6, sp
 455 0082 8E5B     		ldrh	r6, [r1, r6]
 456 0084 3243     		orr	r2, r6
 457 0086 6E46     		mov	r6, sp
 458 0088 8A53     		strh	r2, [r1, r6]
 459              	.L27:
 191:Generated_Source\PSoC4/OneWire.c ****         {
 460              		.loc 1 191 0 discriminator 2
 461 008a 0133     		add	r3, r3, #1
 462              	.LVL56:
 463 008c DBB2     		uxtb	r3, r3
 464              	.LVL57:
 465              	.L26:
 191:Generated_Source\PSoC4/OneWire.c ****         {
 466              		.loc 1 191 0 is_stmt 0 discriminator 1
 467 008e 002B     		cmp	r3, #0
 468 0090 EBD0     		beq	.L28
 187:Generated_Source\PSoC4/OneWire.c ****     {
 469              		.loc 1 187 0 is_stmt 1 discriminator 2
 470 0092 0134     		add	r4, r4, #1
 471              	.LVL58:
 472 0094 E4B2     		uxtb	r4, r4
 473              	.LVL59:
 474              	.L25:
 187:Generated_Source\PSoC4/OneWire.c ****     {
 475              		.loc 1 187 0 is_stmt 0 discriminator 1
 476 0096 0B2C     		cmp	r4, #11
 477 0098 E3D9     		bls	.L29
 478 009a 0024     		mov	r4, #0
 479              	.LVL60:
 480 009c 1FE0     		b	.L30
 481              	.LVL61:
 482              	.L33:
 195:Generated_Source\PSoC4/OneWire.c ****         }
 196:Generated_Source\PSoC4/OneWire.c ****     }
ARM GAS  C:\Users\Sarah\AppData\Local\Temp\cc0nn16Q.s 			page 13


 197:Generated_Source\PSoC4/OneWire.c ****     
 198:Generated_Source\PSoC4/OneWire.c ****     for (i=0; i<8; i++) //8-is maximum number of sensors in current implementation
 199:Generated_Source\PSoC4/OneWire.c ****     {
 200:Generated_Source\PSoC4/OneWire.c ****         if (s[i].present)   
 483              		.loc 1 200 0 is_stmt 1
 484 009e 211C     		mov	r1, r4
 485 00a0 A300     		lsl	r3, r4, #2
 486 00a2 6B44     		add	r3, r3, sp
 487 00a4 9B78     		ldrb	r3, [r3, #2]
 488 00a6 002B     		cmp	r3, #0
 489 00a8 0CD0     		beq	.L31
 201:Generated_Source\PSoC4/OneWire.c ****             {if (s[i].Temperature >= 2048) s[i].Temperature -= 4096;} // roll over for negative tem
 490              		.loc 1 201 0
 491 00aa A300     		lsl	r3, r4, #2
 492 00ac 6A46     		mov	r2, sp
 493 00ae 9B5A     		ldrh	r3, [r3, r2]
 494 00b0 0F4A     		ldr	r2, .L34+8
 495 00b2 9342     		cmp	r3, r2
 496 00b4 0AD9     		bls	.L32
 497              		.loc 1 201 0 is_stmt 0 discriminator 1
 498 00b6 A200     		lsl	r2, r4, #2
 499 00b8 0E48     		ldr	r0, .L34+12
 500 00ba 8446     		mov	ip, r0
 501 00bc 6344     		add	r3, r3, ip
 502 00be 6846     		mov	r0, sp
 503 00c0 1352     		strh	r3, [r2, r0]
 504 00c2 03E0     		b	.L32
 505              	.L31:
 202:Generated_Source\PSoC4/OneWire.c ****         else
 203:Generated_Source\PSoC4/OneWire.c ****             {s[i].Temperature = T_OFF;} // set some "defunct" value if sensor absent 
 506              		.loc 1 203 0 is_stmt 1
 507 00c4 A300     		lsl	r3, r4, #2
 508 00c6 0B4A     		ldr	r2, .L34+12
 509 00c8 6846     		mov	r0, sp
 510 00ca 1A52     		strh	r2, [r3, r0]
 511              	.L32:
 204:Generated_Source\PSoC4/OneWire.c ****         
 205:Generated_Source\PSoC4/OneWire.c ****         OneWire_Sensor[i] = s[i]; //record Temperature and presence
 512              		.loc 1 205 0 discriminator 2
 513 00cc 8900     		lsl	r1, r1, #2
 514 00ce 0A48     		ldr	r0, .L34+16
 515 00d0 4018     		add	r0, r0, r1
 516 00d2 6944     		add	r1, r1, sp
 517 00d4 0422     		mov	r2, #4
 518 00d6 FFF7FEFF 		bl	memcpy
 519              	.LVL62:
 198:Generated_Source\PSoC4/OneWire.c ****     {
 520              		.loc 1 198 0 discriminator 2
 521 00da 0134     		add	r4, r4, #1
 522              	.LVL63:
 523 00dc E4B2     		uxtb	r4, r4
 524              	.LVL64:
 525              	.L30:
 198:Generated_Source\PSoC4/OneWire.c ****     {
 526              		.loc 1 198 0 is_stmt 0 discriminator 1
 527 00de 072C     		cmp	r4, #7
 528 00e0 DDD9     		bls	.L33
ARM GAS  C:\Users\Sarah\AppData\Local\Temp\cc0nn16Q.s 			page 14


 529              	.LVL65:
 530              	.L22:
 206:Generated_Source\PSoC4/OneWire.c ****     }
 207:Generated_Source\PSoC4/OneWire.c ****     
 208:Generated_Source\PSoC4/OneWire.c ****     return(mask); //return BusPresence
 209:Generated_Source\PSoC4/OneWire.c **** }
 531              		.loc 1 209 0 is_stmt 1
 532 00e2 281C     		mov	r0, r5
 533 00e4 08B0     		add	sp, sp, #32
 534              		@ sp needed
 535 00e6 70BD     		pop	{r4, r5, r6, pc}
 536              	.L35:
 537              		.align	2
 538              	.L34:
 539 00e8 00000000 		.word	OneWire_DataReady
 540 00ec 00000000 		.word	BusPresence
 541 00f0 FF070000 		.word	2047
 542 00f4 00F0FFFF 		.word	-4096
 543 00f8 00000000 		.word	OneWire_Sensor
 544              		.cfi_endproc
 545              	.LFE43:
 546              		.size	OneWire_ReadTemperature, .-OneWire_ReadTemperature
 547              		.global	__aeabi_i2f
 548              		.global	__aeabi_fmul
 549              		.section	.text.OneWire_GetTemperatureAsFloat,"ax",%progbits
 550              		.align	2
 551              		.global	OneWire_GetTemperatureAsFloat
 552              		.code	16
 553              		.thumb_func
 554              		.type	OneWire_GetTemperatureAsFloat, %function
 555              	OneWire_GetTemperatureAsFloat:
 556              	.LFB44:
 210:Generated_Source\PSoC4/OneWire.c **** 
 211:Generated_Source\PSoC4/OneWire.c **** 
 212:Generated_Source\PSoC4/OneWire.c **** //==============================================================================
 213:Generated_Source\PSoC4/OneWire.c **** // Convert DS18B20 encoded temperature to float value (degC)
 214:Generated_Source\PSoC4/OneWire.c **** //==============================================================================
 215:Generated_Source\PSoC4/OneWire.c **** 
 216:Generated_Source\PSoC4/OneWire.c **** float OneWire_GetTemperatureAsFloat (uint8 index) // 
 217:Generated_Source\PSoC4/OneWire.c **** {    
 557              		.loc 1 217 0
 558              		.cfi_startproc
 559              	.LVL66:
 560 0000 08B5     		push	{r3, lr}
 561              		.cfi_def_cfa_offset 8
 562              		.cfi_offset 3, -8
 563              		.cfi_offset 14, -4
 218:Generated_Source\PSoC4/OneWire.c ****     int16 Val = OneWire_Sensor[index].Temperature;
 564              		.loc 1 218 0
 565 0002 8000     		lsl	r0, r0, #2
 566              	.LVL67:
 219:Generated_Source\PSoC4/OneWire.c ****     return ( (float) Val * 0.0625f);
 567              		.loc 1 219 0
 568 0004 044B     		ldr	r3, .L37
 569 0006 185E     		ldrsh	r0, [r3, r0]
 570              	.LVL68:
 571 0008 FFF7FEFF 		bl	__aeabi_i2f
ARM GAS  C:\Users\Sarah\AppData\Local\Temp\cc0nn16Q.s 			page 15


 572              	.LVL69:
 573 000c F621     		mov	r1, #246
 574 000e 8905     		lsl	r1, r1, #22
 575 0010 FFF7FEFF 		bl	__aeabi_fmul
 576              	.LVL70:
 220:Generated_Source\PSoC4/OneWire.c **** }
 577              		.loc 1 220 0
 578              		@ sp needed
 579 0014 08BD     		pop	{r3, pc}
 580              	.L38:
 581 0016 C046     		.align	2
 582              	.L37:
 583 0018 00000000 		.word	OneWire_Sensor
 584              		.cfi_endproc
 585              	.LFE44:
 586              		.size	OneWire_GetTemperatureAsFloat, .-OneWire_GetTemperatureAsFloat
 587              		.section	.text.OneWire_GetTemperatureAsInt100,"ax",%progbits
 588              		.align	2
 589              		.global	OneWire_GetTemperatureAsInt100
 590              		.code	16
 591              		.thumb_func
 592              		.type	OneWire_GetTemperatureAsInt100, %function
 593              	OneWire_GetTemperatureAsInt100:
 594              	.LFB45:
 221:Generated_Source\PSoC4/OneWire.c **** 
 222:Generated_Source\PSoC4/OneWire.c **** 
 223:Generated_Source\PSoC4/OneWire.c **** //==============================================================================
 224:Generated_Source\PSoC4/OneWire.c **** // Convert DS18B20 temperature (degC) as *100 value rounded to integer
 225:Generated_Source\PSoC4/OneWire.c **** // e.g. -38.0625 -> "-3806" 
 226:Generated_Source\PSoC4/OneWire.c **** //==============================================================================
 227:Generated_Source\PSoC4/OneWire.c **** 
 228:Generated_Source\PSoC4/OneWire.c **** int16 OneWire_GetTemperatureAsInt100 (uint8 index) 
 229:Generated_Source\PSoC4/OneWire.c **** {
 595              		.loc 1 229 0
 596              		.cfi_startproc
 597              	.LVL71:
 230:Generated_Source\PSoC4/OneWire.c ****     int16 Val = OneWire_Sensor[index].Temperature;
 598              		.loc 1 230 0
 599 0000 8000     		lsl	r0, r0, #2
 600              	.LVL72:
 231:Generated_Source\PSoC4/OneWire.c ****     return ((Val * 100u + 8u) >> 4); //rounding
 601              		.loc 1 231 0
 602 0002 044B     		ldr	r3, .L40
 603 0004 185E     		ldrsh	r0, [r3, r0]
 604              	.LVL73:
 605 0006 6423     		mov	r3, #100
 606 0008 5843     		mul	r0, r3
 607              	.LVL74:
 608 000a 0830     		add	r0, r0, #8
 609 000c 0009     		lsr	r0, r0, #4
 610 000e 00B2     		sxth	r0, r0
 232:Generated_Source\PSoC4/OneWire.c **** }
 611              		.loc 1 232 0
 612              		@ sp needed
 613 0010 7047     		bx	lr
 614              	.L41:
 615 0012 C046     		.align	2
ARM GAS  C:\Users\Sarah\AppData\Local\Temp\cc0nn16Q.s 			page 16


 616              	.L40:
 617 0014 00000000 		.word	OneWire_Sensor
 618              		.cfi_endproc
 619              	.LFE45:
 620              		.size	OneWire_GetTemperatureAsInt100, .-OneWire_GetTemperatureAsInt100
 621              		.global	__aeabi_idiv
 622              		.section	.text.itoa10,"ax",%progbits
 623              		.align	2
 624              		.global	itoa10
 625              		.code	16
 626              		.thumb_func
 627              		.type	itoa10, %function
 628              	itoa10:
 629              	.LFB46:
 233:Generated_Source\PSoC4/OneWire.c **** 
 234:Generated_Source\PSoC4/OneWire.c **** 
 235:Generated_Source\PSoC4/OneWire.c **** //==============================================================================
 236:Generated_Source\PSoC4/OneWire.c **** // C++ version 0.4 char* style "itoa":
 237:Generated_Source\PSoC4/OneWire.c **** // Written by Lukás Chmela
 238:Generated_Source\PSoC4/OneWire.c **** // Released under GPLv3.
 239:Generated_Source\PSoC4/OneWire.c **** // http://www.jb.man.ac.uk/~slowe/cpp/itoa.html
 240:Generated_Source\PSoC4/OneWire.c **** // here: modified for radix 10 only 
 241:Generated_Source\PSoC4/OneWire.c **** //==============================================================================
 242:Generated_Source\PSoC4/OneWire.c **** 
 243:Generated_Source\PSoC4/OneWire.c **** char* itoa10(int value, char* result)
 244:Generated_Source\PSoC4/OneWire.c **** {
 630              		.loc 1 244 0
 631              		.cfi_startproc
 632              	.LVL75:
 633 0000 70B5     		push	{r4, r5, r6, lr}
 634              		.cfi_def_cfa_offset 16
 635              		.cfi_offset 4, -16
 636              		.cfi_offset 5, -12
 637              		.cfi_offset 6, -8
 638              		.cfi_offset 14, -4
 639 0002 041C     		mov	r4, r0
 640 0004 0D1C     		mov	r5, r1
 641              	.LVL76:
 245:Generated_Source\PSoC4/OneWire.c ****     const uint8 base = 10u;
 246:Generated_Source\PSoC4/OneWire.c **** 	char* ptr = result, *ptr1 = result, tmp_char;
 642              		.loc 1 246 0
 643 0006 0E1C     		mov	r6, r1
 644 0008 01E0     		b	.L43
 645              	.LVL77:
 646              	.L47:
 247:Generated_Source\PSoC4/OneWire.c **** 	int tmp_value;
 248:Generated_Source\PSoC4/OneWire.c **** 	
 249:Generated_Source\PSoC4/OneWire.c **** 	do {
 250:Generated_Source\PSoC4/OneWire.c **** 		tmp_value = value;
 251:Generated_Source\PSoC4/OneWire.c **** 		value /= base;
 252:Generated_Source\PSoC4/OneWire.c **** 		*ptr++ = "9876543210123456789" [9 + tmp_value - value * base];
 647              		.loc 1 252 0
 648 000a 0E1C     		mov	r6, r1
 251:Generated_Source\PSoC4/OneWire.c **** 		*ptr++ = "9876543210123456789" [9 + tmp_value - value * base];
 649              		.loc 1 251 0
 650 000c 041C     		mov	r4, r0
 651              	.LVL78:
ARM GAS  C:\Users\Sarah\AppData\Local\Temp\cc0nn16Q.s 			page 17


 652              	.L43:
 251:Generated_Source\PSoC4/OneWire.c **** 		*ptr++ = "9876543210123456789" [9 + tmp_value - value * base];
 653              		.loc 1 251 0 is_stmt 0 discriminator 1
 654 000e 201C     		mov	r0, r4
 655 0010 0A21     		mov	r1, #10
 656              	.LVL79:
 657 0012 FFF7FEFF 		bl	__aeabi_idiv
 658              	.LVL80:
 659              		.loc 1 252 0 is_stmt 1 discriminator 1
 660 0016 711C     		add	r1, r6, #1
 661              	.LVL81:
 662 0018 0A23     		mov	r3, #10
 663 001a 5B42     		neg	r3, r3
 664 001c 4343     		mul	r3, r0
 665 001e 221C     		mov	r2, r4
 666 0020 0932     		add	r2, r2, #9
 667 0022 D318     		add	r3, r2, r3
 668 0024 0C4A     		ldr	r2, .L48
 669 0026 D35C     		ldrb	r3, [r2, r3]
 670 0028 3370     		strb	r3, [r6]
 253:Generated_Source\PSoC4/OneWire.c **** 	} while ( value );
 671              		.loc 1 253 0 discriminator 1
 672 002a 0028     		cmp	r0, #0
 673 002c EDD1     		bne	.L47
 254:Generated_Source\PSoC4/OneWire.c **** 	
 255:Generated_Source\PSoC4/OneWire.c **** 	// Apply negative sign
 256:Generated_Source\PSoC4/OneWire.c **** 	if (tmp_value < 0) *ptr++ = '-';
 674              		.loc 1 256 0
 675 002e 002C     		cmp	r4, #0
 676 0030 02DA     		bge	.L44
 677              		.loc 1 256 0 is_stmt 0 discriminator 1
 678 0032 B11C     		add	r1, r6, #2
 679              	.LVL82:
 680 0034 2D23     		mov	r3, #45
 681 0036 7370     		strb	r3, [r6, #1]
 682              	.L44:
 257:Generated_Source\PSoC4/OneWire.c **** 	*ptr-- = '\0';
 683              		.loc 1 257 0 is_stmt 1
 684 0038 4A1E     		sub	r2, r1, #1
 685              	.LVL83:
 686 003a 0023     		mov	r3, #0
 687 003c 0B70     		strb	r3, [r1]
 246:Generated_Source\PSoC4/OneWire.c **** 	int tmp_value;
 688              		.loc 1 246 0
 689 003e 2B1C     		mov	r3, r5
 258:Generated_Source\PSoC4/OneWire.c **** 	while(ptr1 < ptr) {
 690              		.loc 1 258 0
 691 0040 05E0     		b	.L45
 692              	.LVL84:
 693              	.L46:
 259:Generated_Source\PSoC4/OneWire.c **** 		tmp_char = *ptr;
 694              		.loc 1 259 0
 695 0042 1178     		ldrb	r1, [r2]
 696              	.LVL85:
 260:Generated_Source\PSoC4/OneWire.c **** 		*ptr--= *ptr1;
 697              		.loc 1 260 0
 698 0044 1878     		ldrb	r0, [r3]
ARM GAS  C:\Users\Sarah\AppData\Local\Temp\cc0nn16Q.s 			page 18


 699 0046 1070     		strb	r0, [r2]
 700              	.LVL86:
 261:Generated_Source\PSoC4/OneWire.c **** 		*ptr1++ = tmp_char;
 701              		.loc 1 261 0
 702 0048 1970     		strb	r1, [r3]
 703 004a 0133     		add	r3, r3, #1
 704              	.LVL87:
 260:Generated_Source\PSoC4/OneWire.c **** 		*ptr--= *ptr1;
 705              		.loc 1 260 0
 706 004c 013A     		sub	r2, r2, #1
 707              	.LVL88:
 708              	.L45:
 258:Generated_Source\PSoC4/OneWire.c **** 		tmp_char = *ptr;
 709              		.loc 1 258 0
 710 004e 9342     		cmp	r3, r2
 711 0050 F7D3     		bcc	.L46
 262:Generated_Source\PSoC4/OneWire.c **** 	}
 263:Generated_Source\PSoC4/OneWire.c **** 	return result;
 264:Generated_Source\PSoC4/OneWire.c **** }
 712              		.loc 1 264 0
 713 0052 281C     		mov	r0, r5
 714              		@ sp needed
 715              	.LVL89:
 716              	.LVL90:
 717 0054 70BD     		pop	{r4, r5, r6, pc}
 718              	.L49:
 719 0056 C046     		.align	2
 720              	.L48:
 721 0058 00000000 		.word	.LC10
 722              		.cfi_endproc
 723              	.LFE46:
 724              		.size	itoa10, .-itoa10
 725              		.section	.text.OneWire_GetTemperatureAsString,"ax",%progbits
 726              		.align	2
 727              		.global	OneWire_GetTemperatureAsString
 728              		.code	16
 729              		.thumb_func
 730              		.type	OneWire_GetTemperatureAsString, %function
 731              	OneWire_GetTemperatureAsString:
 732              	.LFB47:
 265:Generated_Source\PSoC4/OneWire.c **** 
 266:Generated_Source\PSoC4/OneWire.c **** 
 267:Generated_Source\PSoC4/OneWire.c **** 
 268:Generated_Source\PSoC4/OneWire.c **** //==============================================================================
 269:Generated_Source\PSoC4/OneWire.c **** // Convert DS18B20 temperature (degC) as string
 270:Generated_Source\PSoC4/OneWire.c **** // e.g. -38.0625 <-> "-38.0625"
 271:Generated_Source\PSoC4/OneWire.c **** //==============================================================================
 272:Generated_Source\PSoC4/OneWire.c **** 
 273:Generated_Source\PSoC4/OneWire.c **** char* OneWire_GetTemperatureAsString (uint8 index) 
 274:Generated_Source\PSoC4/OneWire.c **** {
 733              		.loc 1 274 0
 734              		.cfi_startproc
 735              	.LVL91:
 736 0000 10B5     		push	{r4, lr}
 737              		.cfi_def_cfa_offset 8
 738              		.cfi_offset 4, -8
 739              		.cfi_offset 14, -4
ARM GAS  C:\Users\Sarah\AppData\Local\Temp\cc0nn16Q.s 			page 19


 740 0002 86B0     		sub	sp, sp, #24
 741              		.cfi_def_cfa_offset 32
 275:Generated_Source\PSoC4/OneWire.c ****     char TempStr[13]={};    // buffer string for current temperature //warning
 742              		.loc 1 275 0
 743 0004 02AA     		add	r2, sp, #8
 744 0006 0023     		mov	r3, #0
 745 0008 0293     		str	r3, [sp, #8]
 746 000a 0393     		str	r3, [sp, #12]
 747 000c 0493     		str	r3, [sp, #16]
 748 000e 1373     		strb	r3, [r2, #12]
 749              	.LVL92:
 276:Generated_Source\PSoC4/OneWire.c ****     char* result = TempStr; //
 277:Generated_Source\PSoC4/OneWire.c ****     char buf[8];            // buffer
 278:Generated_Source\PSoC4/OneWire.c ****     CYBIT sign;             // Temp sign
 279:Generated_Source\PSoC4/OneWire.c ****     int grad;               // integer portion w/o sign
 280:Generated_Source\PSoC4/OneWire.c ****     uint8 frac;             // fractional portion
 281:Generated_Source\PSoC4/OneWire.c ****     
 282:Generated_Source\PSoC4/OneWire.c ****     static const char *str[] = {".00", ".06", ".13", ".19", ".25", ".31", ".38", ".44", ".50", ".56
 283:Generated_Source\PSoC4/OneWire.c ****      
 284:Generated_Source\PSoC4/OneWire.c ****     // exit and return pre-defined string if no sensor present
 285:Generated_Source\PSoC4/OneWire.c ****     if (!OneWire_Sensor[index].present) return (Str_OFF);
 750              		.loc 1 285 0
 751 0010 8300     		lsl	r3, r0, #2
 752 0012 174A     		ldr	r2, .L57
 753              	.LVL93:
 754 0014 D318     		add	r3, r2, r3
 755 0016 9B78     		ldrb	r3, [r3, #2]
 756 0018 002B     		cmp	r3, #0
 757 001a 25D0     		beq	.L56
 286:Generated_Source\PSoC4/OneWire.c **** 
 287:Generated_Source\PSoC4/OneWire.c ****         
 288:Generated_Source\PSoC4/OneWire.c ****     int16 Val = OneWire_Sensor[index].Temperature;
 758              		.loc 1 288 0
 759 001c 8000     		lsl	r0, r0, #2
 760              	.LVL94:
 761 001e 105A     		ldrh	r0, [r2, r0]
 762              	.LVL95:
 289:Generated_Source\PSoC4/OneWire.c ****     sign = (Val < 0);                       // remember sign prior to shift     
 763              		.loc 1 289 0
 764 0020 C30B     		lsr	r3, r0, #15
 765              	.LVL96:
 290:Generated_Source\PSoC4/OneWire.c ****     if (sign) grad = -Val; else grad = Val; //grad = abs(Temp); no need for stdlib.h
 766              		.loc 1 290 0
 767 0022 02D0     		beq	.L52
 768              		.loc 1 290 0 is_stmt 0 discriminator 1
 769 0024 00B2     		sxth	r0, r0
 770 0026 4042     		neg	r0, r0
 771              	.LVL97:
 772 0028 00E0     		b	.L53
 773              	.LVL98:
 774              	.L52:
 775              		.loc 1 290 0 discriminator 2
 776 002a 00B2     		sxth	r0, r0
 777              	.LVL99:
 778              	.L53:
 291:Generated_Source\PSoC4/OneWire.c ****     frac = grad & 15;                       //index for fractional part
 779              		.loc 1 291 0 is_stmt 1
ARM GAS  C:\Users\Sarah\AppData\Local\Temp\cc0nn16Q.s 			page 20


 780 002c 0F24     		mov	r4, #15
 781 002e 0440     		and	r4, r0
 782              	.LVL100:
 292:Generated_Source\PSoC4/OneWire.c ****     grad = grad >> 4;                       //get integer portion
 783              		.loc 1 292 0
 784 0030 0011     		asr	r0, r0, #4
 785              	.LVL101:
 293:Generated_Source\PSoC4/OneWire.c ****     
 294:Generated_Source\PSoC4/OneWire.c ****     if (sign) strcat(TempStr, itoa10(-grad, buf)); 
 786              		.loc 1 294 0
 787 0032 002B     		cmp	r3, #0
 788 0034 08D0     		beq	.L54
 789              		.loc 1 294 0 is_stmt 0 discriminator 1
 790 0036 4042     		neg	r0, r0
 791              	.LVL102:
 792 0038 6946     		mov	r1, sp
 793 003a FFF7FEFF 		bl	itoa10
 794              	.LVL103:
 795 003e 011C     		mov	r1, r0
 796 0040 02A8     		add	r0, sp, #8
 797              	.LVL104:
 798 0042 FFF7FEFF 		bl	strcat
 799              	.LVL105:
 800 0046 06E0     		b	.L55
 801              	.LVL106:
 802              	.L54:
 295:Generated_Source\PSoC4/OneWire.c ****     else      strcat(TempStr, itoa10( grad, buf));
 803              		.loc 1 295 0 is_stmt 1
 804 0048 6946     		mov	r1, sp
 805 004a FFF7FEFF 		bl	itoa10
 806              	.LVL107:
 807 004e 011C     		mov	r1, r0
 808 0050 02A8     		add	r0, sp, #8
 809              	.LVL108:
 810 0052 FFF7FEFF 		bl	strcat
 811              	.LVL109:
 812              	.L55:
 296:Generated_Source\PSoC4/OneWire.c ****     
 297:Generated_Source\PSoC4/OneWire.c ****     strcat(TempStr, str[frac]); //add fractional part
 813              		.loc 1 297 0
 814 0056 A400     		lsl	r4, r4, #2
 815              	.LVL110:
 816 0058 064B     		ldr	r3, .L57+4
 817 005a 1C19     		add	r4, r3, r4
 818 005c 6168     		ldr	r1, [r4, #4]
 819 005e 02A8     		add	r0, sp, #8
 820              	.LVL111:
 821 0060 FFF7FEFF 		bl	strcat
 822              	.LVL112:
 298:Generated_Source\PSoC4/OneWire.c ****     
 299:Generated_Source\PSoC4/OneWire.c ****     return (result);
 823              		.loc 1 299 0
 824 0064 02A8     		add	r0, sp, #8
 825              	.LVL113:
 826 0066 00E0     		b	.L51
 827              	.LVL114:
 828              	.L56:
ARM GAS  C:\Users\Sarah\AppData\Local\Temp\cc0nn16Q.s 			page 21


 285:Generated_Source\PSoC4/OneWire.c **** 
 829              		.loc 1 285 0
 830 0068 0348     		ldr	r0, .L57+8
 831              	.LVL115:
 832              	.L51:
 300:Generated_Source\PSoC4/OneWire.c **** }
 833              		.loc 1 300 0
 834 006a 06B0     		add	sp, sp, #24
 835              		@ sp needed
 836 006c 10BD     		pop	{r4, pc}
 837              	.L58:
 838 006e C046     		.align	2
 839              	.L57:
 840 0070 00000000 		.word	OneWire_Sensor
 841 0074 00000000 		.word	.LANCHOR0
 842 0078 14000000 		.word	.LC12
 843              		.cfi_endproc
 844              	.LFE47:
 845              		.size	OneWire_GetTemperatureAsString, .-OneWire_GetTemperatureAsString
 846              		.section	.text.OneWire_Start,"ax",%progbits
 847              		.align	2
 848              		.global	OneWire_Start
 849              		.code	16
 850              		.thumb_func
 851              		.type	OneWire_Start, %function
 852              	OneWire_Start:
 853              	.LFB48:
 301:Generated_Source\PSoC4/OneWire.c **** 
 302:Generated_Source\PSoC4/OneWire.c **** //==============================================================================
 303:Generated_Source\PSoC4/OneWire.c **** // Initialize and Start component
 304:Generated_Source\PSoC4/OneWire.c **** //==============================================================================
 305:Generated_Source\PSoC4/OneWire.c **** 
 306:Generated_Source\PSoC4/OneWire.c **** void OneWire_Start() 
 307:Generated_Source\PSoC4/OneWire.c **** {
 854              		.loc 1 307 0
 855              		.cfi_startproc
 856 0000 08B5     		push	{r3, lr}
 857              		.cfi_def_cfa_offset 8
 858              		.cfi_offset 3, -8
 859              		.cfi_offset 14, -4
 308:Generated_Source\PSoC4/OneWire.c ****     OneWire_isr_DataReady_StartEx(OneWire_IRQDataReady); //set interrupt
 860              		.loc 1 308 0
 861 0002 0648     		ldr	r0, .L60
 862 0004 FFF7FEFF 		bl	OneWire_isr_DataReady_StartEx
 863              	.LVL116:
 309:Generated_Source\PSoC4/OneWire.c ****     
 310:Generated_Source\PSoC4/OneWire.c ****     //configure and start 1-shot timer for 750ms data conversion delay
 311:Generated_Source\PSoC4/OneWire.c ****     OneWire_TimerDelay_WriteCounter(T_conv);   // set time for conversion 750ms
 864              		.loc 1 311 0
 865 0008 0548     		ldr	r0, .L60+4
 866 000a FFF7FEFF 		bl	OneWire_TimerDelay_WriteCounter
 867              	.LVL117:
 312:Generated_Source\PSoC4/OneWire.c ****     OneWire_TimerDelay_Start();                // Initialize TimerDelay
 868              		.loc 1 312 0
 869 000e FFF7FEFF 		bl	OneWire_TimerDelay_Start
 870              	.LVL118:
 313:Generated_Source\PSoC4/OneWire.c ****     
ARM GAS  C:\Users\Sarah\AppData\Local\Temp\cc0nn16Q.s 			page 22


 314:Generated_Source\PSoC4/OneWire.c ****     OneWire_DataReady = 0;                     // semaphor flag
 871              		.loc 1 314 0
 872 0012 0022     		mov	r2, #0
 873 0014 034B     		ldr	r3, .L60+8
 874 0016 1A70     		strb	r2, [r3]
 315:Generated_Source\PSoC4/OneWire.c **** }
 875              		.loc 1 315 0
 876              		@ sp needed
 877 0018 08BD     		pop	{r3, pc}
 878              	.L61:
 879 001a C046     		.align	2
 880              	.L60:
 881 001c 00000000 		.word	OneWire_IRQDataReady
 882 0020 EE020000 		.word	750
 883 0024 00000000 		.word	OneWire_DataReady
 884              		.cfi_endproc
 885              	.LFE48:
 886              		.size	OneWire_Start, .-OneWire_Start
 887              		.section	.text.OneWire_Stop,"ax",%progbits
 888              		.align	2
 889              		.global	OneWire_Stop
 890              		.code	16
 891              		.thumb_func
 892              		.type	OneWire_Stop, %function
 893              	OneWire_Stop:
 894              	.LFB49:
 316:Generated_Source\PSoC4/OneWire.c **** 
 317:Generated_Source\PSoC4/OneWire.c **** //==============================================================================
 318:Generated_Source\PSoC4/OneWire.c **** // Disable component
 319:Generated_Source\PSoC4/OneWire.c **** //==============================================================================
 320:Generated_Source\PSoC4/OneWire.c **** 
 321:Generated_Source\PSoC4/OneWire.c **** void OneWire_Stop() 
 322:Generated_Source\PSoC4/OneWire.c **** {
 895              		.loc 1 322 0
 896              		.cfi_startproc
 897 0000 08B5     		push	{r3, lr}
 898              		.cfi_def_cfa_offset 8
 899              		.cfi_offset 3, -8
 900              		.cfi_offset 14, -4
 323:Generated_Source\PSoC4/OneWire.c ****     OneWire_TimerDelay_Stop(); // disable timer
 901              		.loc 1 323 0
 902 0002 FFF7FEFF 		bl	OneWire_TimerDelay_Stop
 903              	.LVL119:
 324:Generated_Source\PSoC4/OneWire.c **** }
 904              		.loc 1 324 0
 905              		@ sp needed
 906 0006 08BD     		pop	{r3, pc}
 907              		.cfi_endproc
 908              	.LFE49:
 909              		.size	OneWire_Stop, .-OneWire_Stop
 910              		.section	.text.OneWire_BusState,"ax",%progbits
 911              		.align	2
 912              		.global	OneWire_BusState
 913              		.code	16
 914              		.thumb_func
 915              		.type	OneWire_BusState, %function
 916              	OneWire_BusState:
ARM GAS  C:\Users\Sarah\AppData\Local\Temp\cc0nn16Q.s 			page 23


 917              	.LFB50:
 325:Generated_Source\PSoC4/OneWire.c **** 
 326:Generated_Source\PSoC4/OneWire.c **** //==============================================================================
 327:Generated_Source\PSoC4/OneWire.c **** // Return 8-bit bus state: 1-sensor present, 0-sensor read failure
 328:Generated_Source\PSoC4/OneWire.c **** //==============================================================================
 329:Generated_Source\PSoC4/OneWire.c **** 
 330:Generated_Source\PSoC4/OneWire.c **** uint8 OneWire_BusState()
 331:Generated_Source\PSoC4/OneWire.c **** {
 918              		.loc 1 331 0
 919              		.cfi_startproc
 332:Generated_Source\PSoC4/OneWire.c ****     return( BusPresence );   
 920              		.loc 1 332 0
 921 0000 014B     		ldr	r3, .L64
 922 0002 1878     		ldrb	r0, [r3]
 333:Generated_Source\PSoC4/OneWire.c **** }
 923              		.loc 1 333 0
 924              		@ sp needed
 925 0004 7047     		bx	lr
 926              	.L65:
 927 0006 C046     		.align	2
 928              	.L64:
 929 0008 00000000 		.word	BusPresence
 930              		.cfi_endproc
 931              	.LFE50:
 932              		.size	OneWire_BusState, .-OneWire_BusState
 933              		.section	.text.OneWire_CheckPresence,"ax",%progbits
 934              		.align	2
 935              		.global	OneWire_CheckPresence
 936              		.code	16
 937              		.thumb_func
 938              		.type	OneWire_CheckPresence, %function
 939              	OneWire_CheckPresence:
 940              	.LFB51:
 334:Generated_Source\PSoC4/OneWire.c **** 
 335:Generated_Source\PSoC4/OneWire.c **** //==============================================================================
 336:Generated_Source\PSoC4/OneWire.c **** // Function to check sensors presence
 337:Generated_Source\PSoC4/OneWire.c **** // Return 8-bit bus state: 1-sensor present, 0-sensor read failure
 338:Generated_Source\PSoC4/OneWire.c **** //==============================================================================
 339:Generated_Source\PSoC4/OneWire.c **** 
 340:Generated_Source\PSoC4/OneWire.c **** uint8 OneWire_CheckPresence()
 341:Generated_Source\PSoC4/OneWire.c **** {  
 941              		.loc 1 341 0
 942              		.cfi_startproc
 943 0000 08B5     		push	{r3, lr}
 944              		.cfi_def_cfa_offset 8
 945              		.cfi_offset 3, -8
 946              		.cfi_offset 14, -4
 342:Generated_Source\PSoC4/OneWire.c ****     BusPresence = BusReset(); // Reset ( > 480 usec ) 
 947              		.loc 1 342 0
 948 0002 FFF7FEFF 		bl	BusReset
 949              	.LVL120:
 950 0006 014B     		ldr	r3, .L67
 951 0008 1870     		strb	r0, [r3]
 343:Generated_Source\PSoC4/OneWire.c ****     return( BusPresence );   
 344:Generated_Source\PSoC4/OneWire.c **** }
 952              		.loc 1 344 0
 953              		@ sp needed
ARM GAS  C:\Users\Sarah\AppData\Local\Temp\cc0nn16Q.s 			page 24


 954 000a 08BD     		pop	{r3, pc}
 955              	.L68:
 956              		.align	2
 957              	.L67:
 958 000c 00000000 		.word	BusPresence
 959              		.cfi_endproc
 960              	.LFE51:
 961              		.size	OneWire_CheckPresence, .-OneWire_CheckPresence
 962              		.comm	BusPresence,1,1
 963              		.comm	OneWire_DataReady,1,1
 964              		.comm	OneWire_Sensor,32,4
 965              		.section	.rodata
 966              		.align	2
 967              		.set	.LANCHOR0,. + 0
 968              		.type	Sensor_off.5646, %object
 969              		.size	Sensor_off.5646, 4
 970              	Sensor_off.5646:
 971 0000 00F0     		.short	-4096
 972 0002 00       		.byte	0
 973 0003 00       		.space	1
 974              		.type	str.5704, %object
 975              		.size	str.5704, 64
 976              	str.5704:
 977 0004 18000000 		.word	.LC20
 978 0008 1C000000 		.word	.LC21
 979 000c 20000000 		.word	.LC22
 980 0010 24000000 		.word	.LC23
 981 0014 28000000 		.word	.LC24
 982 0018 2C000000 		.word	.LC25
 983 001c 30000000 		.word	.LC26
 984 0020 34000000 		.word	.LC27
 985 0024 38000000 		.word	.LC28
 986 0028 3C000000 		.word	.LC29
 987 002c 40000000 		.word	.LC30
 988 0030 44000000 		.word	.LC31
 989 0034 48000000 		.word	.LC32
 990 0038 4C000000 		.word	.LC33
 991 003c 50000000 		.word	.LC34
 992 0040 54000000 		.word	.LC35
 993              		.section	.rodata.str1.4,"aMS",%progbits,1
 994              		.align	2
 995              	.LC10:
 996 0000 39383736 		.ascii	"9876543210123456789\000"
 996      35343332 
 996      31303132 
 996      33343536 
 996      37383900 
 997              	.LC12:
 998 0014 2D00     		.ascii	"-\000"
 999 0016 0000     		.space	2
 1000              	.LC20:
 1001 0018 2E303000 		.ascii	".00\000"
 1002              	.LC21:
 1003 001c 2E303600 		.ascii	".06\000"
 1004              	.LC22:
 1005 0020 2E313300 		.ascii	".13\000"
 1006              	.LC23:
ARM GAS  C:\Users\Sarah\AppData\Local\Temp\cc0nn16Q.s 			page 25


 1007 0024 2E313900 		.ascii	".19\000"
 1008              	.LC24:
 1009 0028 2E323500 		.ascii	".25\000"
 1010              	.LC25:
 1011 002c 2E333100 		.ascii	".31\000"
 1012              	.LC26:
 1013 0030 2E333800 		.ascii	".38\000"
 1014              	.LC27:
 1015 0034 2E343400 		.ascii	".44\000"
 1016              	.LC28:
 1017 0038 2E353000 		.ascii	".50\000"
 1018              	.LC29:
 1019 003c 2E353600 		.ascii	".56\000"
 1020              	.LC30:
 1021 0040 2E363300 		.ascii	".63\000"
 1022              	.LC31:
 1023 0044 2E363900 		.ascii	".69\000"
 1024              	.LC32:
 1025 0048 2E373500 		.ascii	".75\000"
 1026              	.LC33:
 1027 004c 2E383100 		.ascii	".81\000"
 1028              	.LC34:
 1029 0050 2E383800 		.ascii	".88\000"
 1030              	.LC35:
 1031 0054 2E393400 		.ascii	".94\000"
 1032              		.text
 1033              	.Letext0:
 1034              		.file 2 "Generated_Source\\PSoC4/cytypes.h"
 1035              		.file 3 "Generated_Source\\PSoC4/OneWire.h"
 1036              		.file 4 "Generated_Source\\PSoC4/CyLib.h"
 1037              		.file 5 "Generated_Source\\PSoC4/OneWire_ControlReg_SEL.h"
 1038              		.file 6 "Generated_Source\\PSoC4/OneWire_ControlReg_DRV.h"
 1039              		.file 7 "Generated_Source\\PSoC4/OneWire_Trigger.h"
 1040              		.file 8 "Generated_Source\\PSoC4/OneWire_isr_DataReady.h"
 1041              		.file 9 "Generated_Source\\PSoC4/OneWire_TimerDelay.h"
 1042              		.file 10 "Generated_Source\\PSoC4/OneWire_StatusReg_BUS.h"
 1043              		.file 11 "c:\\program files (x86)\\cypress\\psoc creator\\4.0\\psoc creator\\import\\gnu\\arm\\4.9